ARM GAS  C:\Users\dsky\AppData\Local\Temp\ccZRShk5.s 			page 1


   1              		.syntax unified
   2              		.cpu cortex-m3
   3              		.fpu softvfp
   4              		.eabi_attribute 20, 1
   5              		.eabi_attribute 21, 1
   6              		.eabi_attribute 23, 3
   7              		.eabi_attribute 24, 1
   8              		.eabi_attribute 25, 1
   9              		.eabi_attribute 26, 1
  10              		.eabi_attribute 30, 6
  11              		.eabi_attribute 34, 1
  12              		.eabi_attribute 18, 4
  13              		.thumb
  14              		.file	"QuadDec_1_Cnt8_PM.c"
  15              		.text
  16              	.Ltext0:
  17              		.cfi_sections	.debug_frame
  18              		.bss
  19              		.align	2
  20              	QuadDec_1_Cnt8_backup:
  21 0000 000000   		.space	3
  22 0003 00       		.section	.text.QuadDec_1_Cnt8_SaveConfig,"ax",%progbits
  23              		.align	2
  24              		.global	QuadDec_1_Cnt8_SaveConfig
  25              		.thumb
  26              		.thumb_func
  27              		.type	QuadDec_1_Cnt8_SaveConfig, %function
  28              	QuadDec_1_Cnt8_SaveConfig:
  29              	.LFB0:
  30              		.file 1 ".\\Generated_Source\\PSoC5\\QuadDec_1_Cnt8_PM.c"
   1:.\Generated_Source\PSoC5/QuadDec_1_Cnt8_PM.c **** /*******************************************************************************
   2:.\Generated_Source\PSoC5/QuadDec_1_Cnt8_PM.c **** * File Name: QuadDec_1_Cnt8_PM.c  
   3:.\Generated_Source\PSoC5/QuadDec_1_Cnt8_PM.c **** * Version 2.40
   4:.\Generated_Source\PSoC5/QuadDec_1_Cnt8_PM.c **** *
   5:.\Generated_Source\PSoC5/QuadDec_1_Cnt8_PM.c **** *  Description:
   6:.\Generated_Source\PSoC5/QuadDec_1_Cnt8_PM.c **** *    This file provides the power management source code to API for the
   7:.\Generated_Source\PSoC5/QuadDec_1_Cnt8_PM.c **** *    Counter.  
   8:.\Generated_Source\PSoC5/QuadDec_1_Cnt8_PM.c **** *
   9:.\Generated_Source\PSoC5/QuadDec_1_Cnt8_PM.c **** *   Note:
  10:.\Generated_Source\PSoC5/QuadDec_1_Cnt8_PM.c **** *     None
  11:.\Generated_Source\PSoC5/QuadDec_1_Cnt8_PM.c **** *
  12:.\Generated_Source\PSoC5/QuadDec_1_Cnt8_PM.c **** *******************************************************************************
  13:.\Generated_Source\PSoC5/QuadDec_1_Cnt8_PM.c **** * Copyright 2008-2012, Cypress Semiconductor Corporation.  All rights reserved.
  14:.\Generated_Source\PSoC5/QuadDec_1_Cnt8_PM.c **** * You may use this file only in accordance with the license, terms, conditions, 
  15:.\Generated_Source\PSoC5/QuadDec_1_Cnt8_PM.c **** * disclaimers, and limitations in the end user license agreement accompanying 
  16:.\Generated_Source\PSoC5/QuadDec_1_Cnt8_PM.c **** * the software package with which this file was provided.
  17:.\Generated_Source\PSoC5/QuadDec_1_Cnt8_PM.c **** ********************************************************************************/
  18:.\Generated_Source\PSoC5/QuadDec_1_Cnt8_PM.c **** 
  19:.\Generated_Source\PSoC5/QuadDec_1_Cnt8_PM.c **** #include "QuadDec_1_Cnt8.h"
  20:.\Generated_Source\PSoC5/QuadDec_1_Cnt8_PM.c **** 
  21:.\Generated_Source\PSoC5/QuadDec_1_Cnt8_PM.c **** static QuadDec_1_Cnt8_backupStruct QuadDec_1_Cnt8_backup;
  22:.\Generated_Source\PSoC5/QuadDec_1_Cnt8_PM.c **** 
  23:.\Generated_Source\PSoC5/QuadDec_1_Cnt8_PM.c **** 
  24:.\Generated_Source\PSoC5/QuadDec_1_Cnt8_PM.c **** /*******************************************************************************
  25:.\Generated_Source\PSoC5/QuadDec_1_Cnt8_PM.c **** * Function Name: QuadDec_1_Cnt8_SaveConfig
  26:.\Generated_Source\PSoC5/QuadDec_1_Cnt8_PM.c **** ********************************************************************************
  27:.\Generated_Source\PSoC5/QuadDec_1_Cnt8_PM.c **** * Summary:
ARM GAS  C:\Users\dsky\AppData\Local\Temp\ccZRShk5.s 			page 2


  28:.\Generated_Source\PSoC5/QuadDec_1_Cnt8_PM.c **** *     Save the current user configuration
  29:.\Generated_Source\PSoC5/QuadDec_1_Cnt8_PM.c **** *
  30:.\Generated_Source\PSoC5/QuadDec_1_Cnt8_PM.c **** * Parameters:  
  31:.\Generated_Source\PSoC5/QuadDec_1_Cnt8_PM.c **** *  void
  32:.\Generated_Source\PSoC5/QuadDec_1_Cnt8_PM.c **** *
  33:.\Generated_Source\PSoC5/QuadDec_1_Cnt8_PM.c **** * Return: 
  34:.\Generated_Source\PSoC5/QuadDec_1_Cnt8_PM.c **** *  void
  35:.\Generated_Source\PSoC5/QuadDec_1_Cnt8_PM.c **** *
  36:.\Generated_Source\PSoC5/QuadDec_1_Cnt8_PM.c **** * Global variables:
  37:.\Generated_Source\PSoC5/QuadDec_1_Cnt8_PM.c **** *  QuadDec_1_Cnt8_backup:  Variables of this global structure are modified to 
  38:.\Generated_Source\PSoC5/QuadDec_1_Cnt8_PM.c **** *  store the values of non retention configuration registers when Sleep() API is 
  39:.\Generated_Source\PSoC5/QuadDec_1_Cnt8_PM.c **** *  called.
  40:.\Generated_Source\PSoC5/QuadDec_1_Cnt8_PM.c **** *
  41:.\Generated_Source\PSoC5/QuadDec_1_Cnt8_PM.c **** *******************************************************************************/
  42:.\Generated_Source\PSoC5/QuadDec_1_Cnt8_PM.c **** void QuadDec_1_Cnt8_SaveConfig(void) 
  43:.\Generated_Source\PSoC5/QuadDec_1_Cnt8_PM.c **** {
  31              		.loc 1 43 0
  32              		.cfi_startproc
  33              		@ args = 0, pretend = 0, frame = 0
  34              		@ frame_needed = 1, uses_anonymous_args = 0
  35 0000 80B5     		push	{r7, lr}
  36              	.LCFI0:
  37              		.cfi_def_cfa_offset 8
  38              		.cfi_offset 7, -8
  39              		.cfi_offset 14, -4
  40 0002 00AF     		add	r7, sp, #0
  41              	.LCFI1:
  42              		.cfi_def_cfa_register 7
  44:.\Generated_Source\PSoC5/QuadDec_1_Cnt8_PM.c ****     #if (!QuadDec_1_Cnt8_UsingFixedFunction)
  45:.\Generated_Source\PSoC5/QuadDec_1_Cnt8_PM.c **** 
  46:.\Generated_Source\PSoC5/QuadDec_1_Cnt8_PM.c ****         QuadDec_1_Cnt8_backup.CounterUdb = QuadDec_1_Cnt8_ReadCounter();
  43              		.loc 1 46 0
  44 0004 FFF7FEFF 		bl	QuadDec_1_Cnt8_ReadCounter
  45 0008 0346     		mov	r3, r0
  46 000a 1A46     		mov	r2, r3
  47 000c 40F20003 		movw	r3, #:lower16:QuadDec_1_Cnt8_backup
  48 0010 C0F20003 		movt	r3, #:upper16:QuadDec_1_Cnt8_backup
  49 0014 5A70     		strb	r2, [r3, #1]
  47:.\Generated_Source\PSoC5/QuadDec_1_Cnt8_PM.c **** 
  48:.\Generated_Source\PSoC5/QuadDec_1_Cnt8_PM.c ****         #if (CY_UDB_V0)
  49:.\Generated_Source\PSoC5/QuadDec_1_Cnt8_PM.c ****             QuadDec_1_Cnt8_backup.CounterPeriod = QuadDec_1_Cnt8_ReadPeriod();
  50:.\Generated_Source\PSoC5/QuadDec_1_Cnt8_PM.c ****             QuadDec_1_Cnt8_backup.CompareValue = QuadDec_1_Cnt8_ReadCompare();
  51:.\Generated_Source\PSoC5/QuadDec_1_Cnt8_PM.c ****             QuadDec_1_Cnt8_backup.InterruptMaskValue = QuadDec_1_Cnt8_STATUS_MASK;
  52:.\Generated_Source\PSoC5/QuadDec_1_Cnt8_PM.c ****         #endif /* CY_UDB_V0 */
  53:.\Generated_Source\PSoC5/QuadDec_1_Cnt8_PM.c **** 
  54:.\Generated_Source\PSoC5/QuadDec_1_Cnt8_PM.c ****         #if(!QuadDec_1_Cnt8_ControlRegRemoved)
  55:.\Generated_Source\PSoC5/QuadDec_1_Cnt8_PM.c ****             QuadDec_1_Cnt8_backup.CounterControlRegister = QuadDec_1_Cnt8_ReadControlRegister();
  50              		.loc 1 55 0
  51 0016 FFF7FEFF 		bl	QuadDec_1_Cnt8_ReadControlRegister
  52 001a 0346     		mov	r3, r0
  53 001c 1A46     		mov	r2, r3
  54 001e 40F20003 		movw	r3, #:lower16:QuadDec_1_Cnt8_backup
  55 0022 C0F20003 		movt	r3, #:upper16:QuadDec_1_Cnt8_backup
  56 0026 9A70     		strb	r2, [r3, #2]
  56:.\Generated_Source\PSoC5/QuadDec_1_Cnt8_PM.c ****         #endif /* (!QuadDec_1_Cnt8_ControlRegRemoved) */
  57:.\Generated_Source\PSoC5/QuadDec_1_Cnt8_PM.c **** 
  58:.\Generated_Source\PSoC5/QuadDec_1_Cnt8_PM.c ****     #endif /* (!QuadDec_1_Cnt8_UsingFixedFunction) */
ARM GAS  C:\Users\dsky\AppData\Local\Temp\ccZRShk5.s 			page 3


  59:.\Generated_Source\PSoC5/QuadDec_1_Cnt8_PM.c **** }
  57              		.loc 1 59 0
  58 0028 80BD     		pop	{r7, pc}
  59              		.cfi_endproc
  60              	.LFE0:
  61              		.size	QuadDec_1_Cnt8_SaveConfig, .-QuadDec_1_Cnt8_SaveConfig
  62 002a 00BF     		.section	.text.QuadDec_1_Cnt8_RestoreConfig,"ax",%progbits
  63              		.align	2
  64              		.global	QuadDec_1_Cnt8_RestoreConfig
  65              		.thumb
  66              		.thumb_func
  67              		.type	QuadDec_1_Cnt8_RestoreConfig, %function
  68              	QuadDec_1_Cnt8_RestoreConfig:
  69              	.LFB1:
  60:.\Generated_Source\PSoC5/QuadDec_1_Cnt8_PM.c **** 
  61:.\Generated_Source\PSoC5/QuadDec_1_Cnt8_PM.c **** 
  62:.\Generated_Source\PSoC5/QuadDec_1_Cnt8_PM.c **** /*******************************************************************************
  63:.\Generated_Source\PSoC5/QuadDec_1_Cnt8_PM.c **** * Function Name: QuadDec_1_Cnt8_RestoreConfig
  64:.\Generated_Source\PSoC5/QuadDec_1_Cnt8_PM.c **** ********************************************************************************
  65:.\Generated_Source\PSoC5/QuadDec_1_Cnt8_PM.c **** *
  66:.\Generated_Source\PSoC5/QuadDec_1_Cnt8_PM.c **** * Summary:
  67:.\Generated_Source\PSoC5/QuadDec_1_Cnt8_PM.c **** *  Restores the current user configuration.
  68:.\Generated_Source\PSoC5/QuadDec_1_Cnt8_PM.c **** *
  69:.\Generated_Source\PSoC5/QuadDec_1_Cnt8_PM.c **** * Parameters:  
  70:.\Generated_Source\PSoC5/QuadDec_1_Cnt8_PM.c **** *  void
  71:.\Generated_Source\PSoC5/QuadDec_1_Cnt8_PM.c **** *
  72:.\Generated_Source\PSoC5/QuadDec_1_Cnt8_PM.c **** * Return: 
  73:.\Generated_Source\PSoC5/QuadDec_1_Cnt8_PM.c **** *  void
  74:.\Generated_Source\PSoC5/QuadDec_1_Cnt8_PM.c **** *
  75:.\Generated_Source\PSoC5/QuadDec_1_Cnt8_PM.c **** * Global variables:
  76:.\Generated_Source\PSoC5/QuadDec_1_Cnt8_PM.c **** *  QuadDec_1_Cnt8_backup:  Variables of this global structure are used to 
  77:.\Generated_Source\PSoC5/QuadDec_1_Cnt8_PM.c **** *  restore the values of non retention registers on wakeup from sleep mode.
  78:.\Generated_Source\PSoC5/QuadDec_1_Cnt8_PM.c **** *
  79:.\Generated_Source\PSoC5/QuadDec_1_Cnt8_PM.c **** *******************************************************************************/
  80:.\Generated_Source\PSoC5/QuadDec_1_Cnt8_PM.c **** void QuadDec_1_Cnt8_RestoreConfig(void) 
  81:.\Generated_Source\PSoC5/QuadDec_1_Cnt8_PM.c **** {      
  70              		.loc 1 81 0
  71              		.cfi_startproc
  72              		@ args = 0, pretend = 0, frame = 0
  73              		@ frame_needed = 1, uses_anonymous_args = 0
  74 0000 80B5     		push	{r7, lr}
  75              	.LCFI2:
  76              		.cfi_def_cfa_offset 8
  77              		.cfi_offset 7, -8
  78              		.cfi_offset 14, -4
  79 0002 00AF     		add	r7, sp, #0
  80              	.LCFI3:
  81              		.cfi_def_cfa_register 7
  82:.\Generated_Source\PSoC5/QuadDec_1_Cnt8_PM.c ****     #if (!QuadDec_1_Cnt8_UsingFixedFunction)
  83:.\Generated_Source\PSoC5/QuadDec_1_Cnt8_PM.c **** 
  84:.\Generated_Source\PSoC5/QuadDec_1_Cnt8_PM.c ****         #if (CY_UDB_V0)
  85:.\Generated_Source\PSoC5/QuadDec_1_Cnt8_PM.c ****             uint8 QuadDec_1_Cnt8_interruptState;
  86:.\Generated_Source\PSoC5/QuadDec_1_Cnt8_PM.c ****         #endif  /* (CY_UDB_V0) */
  87:.\Generated_Source\PSoC5/QuadDec_1_Cnt8_PM.c **** 
  88:.\Generated_Source\PSoC5/QuadDec_1_Cnt8_PM.c ****        QuadDec_1_Cnt8_WriteCounter(QuadDec_1_Cnt8_backup.CounterUdb);
  82              		.loc 1 88 0
  83 0004 40F20003 		movw	r3, #:lower16:QuadDec_1_Cnt8_backup
ARM GAS  C:\Users\dsky\AppData\Local\Temp\ccZRShk5.s 			page 4


  84 0008 C0F20003 		movt	r3, #:upper16:QuadDec_1_Cnt8_backup
  85 000c 5B78     		ldrb	r3, [r3, #1]	@ zero_extendqisi2
  86 000e 1846     		mov	r0, r3
  87 0010 FFF7FEFF 		bl	QuadDec_1_Cnt8_WriteCounter
  89:.\Generated_Source\PSoC5/QuadDec_1_Cnt8_PM.c **** 
  90:.\Generated_Source\PSoC5/QuadDec_1_Cnt8_PM.c ****         #if (CY_UDB_V0)
  91:.\Generated_Source\PSoC5/QuadDec_1_Cnt8_PM.c ****             QuadDec_1_Cnt8_WritePeriod(QuadDec_1_Cnt8_backup.CounterPeriod);
  92:.\Generated_Source\PSoC5/QuadDec_1_Cnt8_PM.c ****             QuadDec_1_Cnt8_WriteCompare(QuadDec_1_Cnt8_backup.CompareValue);
  93:.\Generated_Source\PSoC5/QuadDec_1_Cnt8_PM.c **** 
  94:.\Generated_Source\PSoC5/QuadDec_1_Cnt8_PM.c ****             QuadDec_1_Cnt8_interruptState = CyEnterCriticalSection();
  95:.\Generated_Source\PSoC5/QuadDec_1_Cnt8_PM.c ****             QuadDec_1_Cnt8_STATUS_AUX_CTRL |= QuadDec_1_Cnt8_STATUS_ACTL_INT_EN_MASK;
  96:.\Generated_Source\PSoC5/QuadDec_1_Cnt8_PM.c ****             CyExitCriticalSection(QuadDec_1_Cnt8_interruptState);
  97:.\Generated_Source\PSoC5/QuadDec_1_Cnt8_PM.c **** 
  98:.\Generated_Source\PSoC5/QuadDec_1_Cnt8_PM.c ****             QuadDec_1_Cnt8_STATUS_MASK = QuadDec_1_Cnt8_backup.InterruptMaskValue;
  99:.\Generated_Source\PSoC5/QuadDec_1_Cnt8_PM.c ****         #endif  /* (CY_UDB_V0) */
 100:.\Generated_Source\PSoC5/QuadDec_1_Cnt8_PM.c **** 
 101:.\Generated_Source\PSoC5/QuadDec_1_Cnt8_PM.c ****         #if(!QuadDec_1_Cnt8_ControlRegRemoved)
 102:.\Generated_Source\PSoC5/QuadDec_1_Cnt8_PM.c ****             QuadDec_1_Cnt8_WriteControlRegister(QuadDec_1_Cnt8_backup.CounterControlRegister);
  88              		.loc 1 102 0
  89 0014 40F20003 		movw	r3, #:lower16:QuadDec_1_Cnt8_backup
  90 0018 C0F20003 		movt	r3, #:upper16:QuadDec_1_Cnt8_backup
  91 001c 9B78     		ldrb	r3, [r3, #2]	@ zero_extendqisi2
  92 001e 1846     		mov	r0, r3
  93 0020 FFF7FEFF 		bl	QuadDec_1_Cnt8_WriteControlRegister
 103:.\Generated_Source\PSoC5/QuadDec_1_Cnt8_PM.c ****         #endif /* (!QuadDec_1_Cnt8_ControlRegRemoved) */
 104:.\Generated_Source\PSoC5/QuadDec_1_Cnt8_PM.c **** 
 105:.\Generated_Source\PSoC5/QuadDec_1_Cnt8_PM.c ****     #endif /* (!QuadDec_1_Cnt8_UsingFixedFunction) */
 106:.\Generated_Source\PSoC5/QuadDec_1_Cnt8_PM.c **** }
  94              		.loc 1 106 0
  95 0024 80BD     		pop	{r7, pc}
  96              		.cfi_endproc
  97              	.LFE1:
  98              		.size	QuadDec_1_Cnt8_RestoreConfig, .-QuadDec_1_Cnt8_RestoreConfig
  99 0026 00BF     		.section	.text.QuadDec_1_Cnt8_Sleep,"ax",%progbits
 100              		.align	2
 101              		.global	QuadDec_1_Cnt8_Sleep
 102              		.thumb
 103              		.thumb_func
 104              		.type	QuadDec_1_Cnt8_Sleep, %function
 105              	QuadDec_1_Cnt8_Sleep:
 106              	.LFB2:
 107:.\Generated_Source\PSoC5/QuadDec_1_Cnt8_PM.c **** 
 108:.\Generated_Source\PSoC5/QuadDec_1_Cnt8_PM.c **** 
 109:.\Generated_Source\PSoC5/QuadDec_1_Cnt8_PM.c **** /*******************************************************************************
 110:.\Generated_Source\PSoC5/QuadDec_1_Cnt8_PM.c **** * Function Name: QuadDec_1_Cnt8_Sleep
 111:.\Generated_Source\PSoC5/QuadDec_1_Cnt8_PM.c **** ********************************************************************************
 112:.\Generated_Source\PSoC5/QuadDec_1_Cnt8_PM.c **** * Summary:
 113:.\Generated_Source\PSoC5/QuadDec_1_Cnt8_PM.c **** *     Stop and Save the user configuration
 114:.\Generated_Source\PSoC5/QuadDec_1_Cnt8_PM.c **** *
 115:.\Generated_Source\PSoC5/QuadDec_1_Cnt8_PM.c **** * Parameters:  
 116:.\Generated_Source\PSoC5/QuadDec_1_Cnt8_PM.c **** *  void
 117:.\Generated_Source\PSoC5/QuadDec_1_Cnt8_PM.c **** *
 118:.\Generated_Source\PSoC5/QuadDec_1_Cnt8_PM.c **** * Return: 
 119:.\Generated_Source\PSoC5/QuadDec_1_Cnt8_PM.c **** *  void
 120:.\Generated_Source\PSoC5/QuadDec_1_Cnt8_PM.c **** *
 121:.\Generated_Source\PSoC5/QuadDec_1_Cnt8_PM.c **** * Global variables:
 122:.\Generated_Source\PSoC5/QuadDec_1_Cnt8_PM.c **** *  QuadDec_1_Cnt8_backup.enableState:  Is modified depending on the enable 
ARM GAS  C:\Users\dsky\AppData\Local\Temp\ccZRShk5.s 			page 5


 123:.\Generated_Source\PSoC5/QuadDec_1_Cnt8_PM.c **** *  state of the block before entering sleep mode.
 124:.\Generated_Source\PSoC5/QuadDec_1_Cnt8_PM.c **** *
 125:.\Generated_Source\PSoC5/QuadDec_1_Cnt8_PM.c **** *******************************************************************************/
 126:.\Generated_Source\PSoC5/QuadDec_1_Cnt8_PM.c **** void QuadDec_1_Cnt8_Sleep(void) 
 127:.\Generated_Source\PSoC5/QuadDec_1_Cnt8_PM.c **** {
 107              		.loc 1 127 0
 108              		.cfi_startproc
 109              		@ args = 0, pretend = 0, frame = 0
 110              		@ frame_needed = 1, uses_anonymous_args = 0
 111 0000 80B5     		push	{r7, lr}
 112              	.LCFI4:
 113              		.cfi_def_cfa_offset 8
 114              		.cfi_offset 7, -8
 115              		.cfi_offset 14, -4
 116 0002 00AF     		add	r7, sp, #0
 117              	.LCFI5:
 118              		.cfi_def_cfa_register 7
 128:.\Generated_Source\PSoC5/QuadDec_1_Cnt8_PM.c ****     #if(!QuadDec_1_Cnt8_ControlRegRemoved)
 129:.\Generated_Source\PSoC5/QuadDec_1_Cnt8_PM.c ****         /* Save Counter's enable state */
 130:.\Generated_Source\PSoC5/QuadDec_1_Cnt8_PM.c ****         if(QuadDec_1_Cnt8_CTRL_ENABLE == (QuadDec_1_Cnt8_CONTROL & QuadDec_1_Cnt8_CTRL_ENABLE))
 119              		.loc 1 130 0
 120 0004 46F27853 		movw	r3, #25976
 121 0008 C4F20003 		movt	r3, 16384
 122 000c 1B78     		ldrb	r3, [r3, #0]
 123 000e DBB2     		uxtb	r3, r3
 124 0010 DBB2     		uxtb	r3, r3
 125 0012 5BB2     		sxtb	r3, r3
 126 0014 002B     		cmp	r3, #0
 127 0016 07DA     		bge	.L4
 131:.\Generated_Source\PSoC5/QuadDec_1_Cnt8_PM.c ****         {
 132:.\Generated_Source\PSoC5/QuadDec_1_Cnt8_PM.c ****             /* Counter is enabled */
 133:.\Generated_Source\PSoC5/QuadDec_1_Cnt8_PM.c ****             QuadDec_1_Cnt8_backup.CounterEnableState = 1u;
 128              		.loc 1 133 0
 129 0018 40F20003 		movw	r3, #:lower16:QuadDec_1_Cnt8_backup
 130 001c C0F20003 		movt	r3, #:upper16:QuadDec_1_Cnt8_backup
 131 0020 4FF00102 		mov	r2, #1
 132 0024 1A70     		strb	r2, [r3, #0]
 133 0026 06E0     		b	.L5
 134              	.L4:
 134:.\Generated_Source\PSoC5/QuadDec_1_Cnt8_PM.c ****         }
 135:.\Generated_Source\PSoC5/QuadDec_1_Cnt8_PM.c ****         else
 136:.\Generated_Source\PSoC5/QuadDec_1_Cnt8_PM.c ****         {
 137:.\Generated_Source\PSoC5/QuadDec_1_Cnt8_PM.c ****             /* Counter is disabled */
 138:.\Generated_Source\PSoC5/QuadDec_1_Cnt8_PM.c ****             QuadDec_1_Cnt8_backup.CounterEnableState = 0u;
 135              		.loc 1 138 0
 136 0028 40F20003 		movw	r3, #:lower16:QuadDec_1_Cnt8_backup
 137 002c C0F20003 		movt	r3, #:upper16:QuadDec_1_Cnt8_backup
 138 0030 4FF00002 		mov	r2, #0
 139 0034 1A70     		strb	r2, [r3, #0]
 140              	.L5:
 139:.\Generated_Source\PSoC5/QuadDec_1_Cnt8_PM.c ****         }
 140:.\Generated_Source\PSoC5/QuadDec_1_Cnt8_PM.c ****     #else
 141:.\Generated_Source\PSoC5/QuadDec_1_Cnt8_PM.c ****         QuadDec_1_Cnt8_backup.CounterEnableState = 1u;
 142:.\Generated_Source\PSoC5/QuadDec_1_Cnt8_PM.c ****         if(QuadDec_1_Cnt8_backup.CounterEnableState != 0u)
 143:.\Generated_Source\PSoC5/QuadDec_1_Cnt8_PM.c ****         {
 144:.\Generated_Source\PSoC5/QuadDec_1_Cnt8_PM.c ****             QuadDec_1_Cnt8_backup.CounterEnableState = 0u;
 145:.\Generated_Source\PSoC5/QuadDec_1_Cnt8_PM.c ****         }
ARM GAS  C:\Users\dsky\AppData\Local\Temp\ccZRShk5.s 			page 6


 146:.\Generated_Source\PSoC5/QuadDec_1_Cnt8_PM.c ****     #endif /* (!QuadDec_1_Cnt8_ControlRegRemoved) */
 147:.\Generated_Source\PSoC5/QuadDec_1_Cnt8_PM.c ****     
 148:.\Generated_Source\PSoC5/QuadDec_1_Cnt8_PM.c ****     QuadDec_1_Cnt8_Stop();
 141              		.loc 1 148 0
 142 0036 FFF7FEFF 		bl	QuadDec_1_Cnt8_Stop
 149:.\Generated_Source\PSoC5/QuadDec_1_Cnt8_PM.c ****     QuadDec_1_Cnt8_SaveConfig();
 143              		.loc 1 149 0
 144 003a FFF7FEFF 		bl	QuadDec_1_Cnt8_SaveConfig
 150:.\Generated_Source\PSoC5/QuadDec_1_Cnt8_PM.c **** }
 145              		.loc 1 150 0
 146 003e 80BD     		pop	{r7, pc}
 147              		.cfi_endproc
 148              	.LFE2:
 149              		.size	QuadDec_1_Cnt8_Sleep, .-QuadDec_1_Cnt8_Sleep
 150              		.section	.text.QuadDec_1_Cnt8_Wakeup,"ax",%progbits
 151              		.align	2
 152              		.global	QuadDec_1_Cnt8_Wakeup
 153              		.thumb
 154              		.thumb_func
 155              		.type	QuadDec_1_Cnt8_Wakeup, %function
 156              	QuadDec_1_Cnt8_Wakeup:
 157              	.LFB3:
 151:.\Generated_Source\PSoC5/QuadDec_1_Cnt8_PM.c **** 
 152:.\Generated_Source\PSoC5/QuadDec_1_Cnt8_PM.c **** 
 153:.\Generated_Source\PSoC5/QuadDec_1_Cnt8_PM.c **** /*******************************************************************************
 154:.\Generated_Source\PSoC5/QuadDec_1_Cnt8_PM.c **** * Function Name: QuadDec_1_Cnt8_Wakeup
 155:.\Generated_Source\PSoC5/QuadDec_1_Cnt8_PM.c **** ********************************************************************************
 156:.\Generated_Source\PSoC5/QuadDec_1_Cnt8_PM.c **** *
 157:.\Generated_Source\PSoC5/QuadDec_1_Cnt8_PM.c **** * Summary:
 158:.\Generated_Source\PSoC5/QuadDec_1_Cnt8_PM.c **** *  Restores and enables the user configuration
 159:.\Generated_Source\PSoC5/QuadDec_1_Cnt8_PM.c **** *  
 160:.\Generated_Source\PSoC5/QuadDec_1_Cnt8_PM.c **** * Parameters:  
 161:.\Generated_Source\PSoC5/QuadDec_1_Cnt8_PM.c **** *  void
 162:.\Generated_Source\PSoC5/QuadDec_1_Cnt8_PM.c **** *
 163:.\Generated_Source\PSoC5/QuadDec_1_Cnt8_PM.c **** * Return: 
 164:.\Generated_Source\PSoC5/QuadDec_1_Cnt8_PM.c **** *  void
 165:.\Generated_Source\PSoC5/QuadDec_1_Cnt8_PM.c **** *
 166:.\Generated_Source\PSoC5/QuadDec_1_Cnt8_PM.c **** * Global variables:
 167:.\Generated_Source\PSoC5/QuadDec_1_Cnt8_PM.c **** *  QuadDec_1_Cnt8_backup.enableState:  Is used to restore the enable state of 
 168:.\Generated_Source\PSoC5/QuadDec_1_Cnt8_PM.c **** *  block on wakeup from sleep mode.
 169:.\Generated_Source\PSoC5/QuadDec_1_Cnt8_PM.c **** *
 170:.\Generated_Source\PSoC5/QuadDec_1_Cnt8_PM.c **** *******************************************************************************/
 171:.\Generated_Source\PSoC5/QuadDec_1_Cnt8_PM.c **** void QuadDec_1_Cnt8_Wakeup(void) 
 172:.\Generated_Source\PSoC5/QuadDec_1_Cnt8_PM.c **** {
 158              		.loc 1 172 0
 159              		.cfi_startproc
 160              		@ args = 0, pretend = 0, frame = 0
 161              		@ frame_needed = 1, uses_anonymous_args = 0
 162 0000 80B5     		push	{r7, lr}
 163              	.LCFI6:
 164              		.cfi_def_cfa_offset 8
 165              		.cfi_offset 7, -8
 166              		.cfi_offset 14, -4
 167 0002 00AF     		add	r7, sp, #0
 168              	.LCFI7:
 169              		.cfi_def_cfa_register 7
 173:.\Generated_Source\PSoC5/QuadDec_1_Cnt8_PM.c ****     QuadDec_1_Cnt8_RestoreConfig();
ARM GAS  C:\Users\dsky\AppData\Local\Temp\ccZRShk5.s 			page 7


 170              		.loc 1 173 0
 171 0004 FFF7FEFF 		bl	QuadDec_1_Cnt8_RestoreConfig
 174:.\Generated_Source\PSoC5/QuadDec_1_Cnt8_PM.c ****     #if(!QuadDec_1_Cnt8_ControlRegRemoved)
 175:.\Generated_Source\PSoC5/QuadDec_1_Cnt8_PM.c ****         if(QuadDec_1_Cnt8_backup.CounterEnableState == 1u)
 172              		.loc 1 175 0
 173 0008 40F20003 		movw	r3, #:lower16:QuadDec_1_Cnt8_backup
 174 000c C0F20003 		movt	r3, #:upper16:QuadDec_1_Cnt8_backup
 175 0010 1B78     		ldrb	r3, [r3, #0]	@ zero_extendqisi2
 176 0012 012B     		cmp	r3, #1
 177 0014 01D1     		bne	.L6
 176:.\Generated_Source\PSoC5/QuadDec_1_Cnt8_PM.c ****         {
 177:.\Generated_Source\PSoC5/QuadDec_1_Cnt8_PM.c ****             /* Enable Counter's operation */
 178:.\Generated_Source\PSoC5/QuadDec_1_Cnt8_PM.c ****             QuadDec_1_Cnt8_Enable();
 178              		.loc 1 178 0
 179 0016 FFF7FEFF 		bl	QuadDec_1_Cnt8_Enable
 180              	.L6:
 179:.\Generated_Source\PSoC5/QuadDec_1_Cnt8_PM.c ****         } /* Do nothing if Counter was disabled before */    
 180:.\Generated_Source\PSoC5/QuadDec_1_Cnt8_PM.c ****     #endif /* (!QuadDec_1_Cnt8_ControlRegRemoved) */
 181:.\Generated_Source\PSoC5/QuadDec_1_Cnt8_PM.c ****     
 182:.\Generated_Source\PSoC5/QuadDec_1_Cnt8_PM.c **** }
 181              		.loc 1 182 0
 182 001a 80BD     		pop	{r7, pc}
 183              		.cfi_endproc
 184              	.LFE3:
 185              		.size	QuadDec_1_Cnt8_Wakeup, .-QuadDec_1_Cnt8_Wakeup
 186              		.text
 187              	.Letext0:
 188              		.file 2 ".\\Generated_Source\\PSoC5\\cytypes.h"
 189              		.file 3 ".\\Generated_Source\\PSoC5\\QuadDec_1_Cnt8.h"