ARM GAS  C:\Users\devdev\AppData\Local\Temp\cc0pyIv3.s 			page 1


   1              		.syntax unified
   2              		.cpu cortex-m3
   3              		.fpu softvfp
   4              		.eabi_attribute 20, 1
   5              		.eabi_attribute 21, 1
   6              		.eabi_attribute 23, 3
   7              		.eabi_attribute 24, 1
   8              		.eabi_attribute 25, 1
   9              		.eabi_attribute 26, 1
  10              		.eabi_attribute 30, 6
  11              		.eabi_attribute 34, 1
  12              		.eabi_attribute 18, 4
  13              		.thumb
  14              		.file	"I2C_3_INT.c"
  15              		.text
  16              	.Ltext0:
  17              		.cfi_sections	.debug_frame
  18              		.section	.text.I2C_3_ISR,"ax",%progbits
  19              		.align	2
  20              		.global	I2C_3_ISR
  21              		.thumb
  22              		.thumb_func
  23              		.type	I2C_3_ISR, %function
  24              	I2C_3_ISR:
  25              	.LFB0:
  26              		.file 1 ".\\Generated_Source\\PSoC5\\I2C_3_INT.c"
   1:.\Generated_Source\PSoC5/I2C_3_INT.c **** /*******************************************************************************
   2:.\Generated_Source\PSoC5/I2C_3_INT.c **** * File Name: I2C_3_INT.c
   3:.\Generated_Source\PSoC5/I2C_3_INT.c **** * Version 3.30
   4:.\Generated_Source\PSoC5/I2C_3_INT.c **** *
   5:.\Generated_Source\PSoC5/I2C_3_INT.c **** * Description:
   6:.\Generated_Source\PSoC5/I2C_3_INT.c **** *  This file provides the source code of Interrupt Service Routine (ISR)
   7:.\Generated_Source\PSoC5/I2C_3_INT.c **** *  for I2C component.
   8:.\Generated_Source\PSoC5/I2C_3_INT.c **** *
   9:.\Generated_Source\PSoC5/I2C_3_INT.c **** *  Note:
  10:.\Generated_Source\PSoC5/I2C_3_INT.c **** *
  11:.\Generated_Source\PSoC5/I2C_3_INT.c **** ********************************************************************************
  12:.\Generated_Source\PSoC5/I2C_3_INT.c **** * Copyright 2008-2012, Cypress Semiconductor Corporation.  All rights reserved.
  13:.\Generated_Source\PSoC5/I2C_3_INT.c **** * You may use this file only in accordance with the license, terms, conditions,
  14:.\Generated_Source\PSoC5/I2C_3_INT.c **** * disclaimers, and limitations in the end user license agreement accompanying
  15:.\Generated_Source\PSoC5/I2C_3_INT.c **** * the software package with which this file was provided.
  16:.\Generated_Source\PSoC5/I2C_3_INT.c **** *******************************************************************************/
  17:.\Generated_Source\PSoC5/I2C_3_INT.c **** 
  18:.\Generated_Source\PSoC5/I2C_3_INT.c **** #include "I2C_3_PVT.h"
  19:.\Generated_Source\PSoC5/I2C_3_INT.c **** 
  20:.\Generated_Source\PSoC5/I2C_3_INT.c **** 
  21:.\Generated_Source\PSoC5/I2C_3_INT.c **** /*******************************************************************************
  22:.\Generated_Source\PSoC5/I2C_3_INT.c **** *  Place your includes, defines and code here
  23:.\Generated_Source\PSoC5/I2C_3_INT.c **** ********************************************************************************/
  24:.\Generated_Source\PSoC5/I2C_3_INT.c **** /* `#START I2C_3_ISR_intc` */
  25:.\Generated_Source\PSoC5/I2C_3_INT.c **** 
  26:.\Generated_Source\PSoC5/I2C_3_INT.c **** /* `#END` */
  27:.\Generated_Source\PSoC5/I2C_3_INT.c **** 
  28:.\Generated_Source\PSoC5/I2C_3_INT.c **** 
  29:.\Generated_Source\PSoC5/I2C_3_INT.c **** /*******************************************************************************
  30:.\Generated_Source\PSoC5/I2C_3_INT.c **** * Function Name: I2C_3_ISR
  31:.\Generated_Source\PSoC5/I2C_3_INT.c **** ********************************************************************************
ARM GAS  C:\Users\devdev\AppData\Local\Temp\cc0pyIv3.s 			page 2


  32:.\Generated_Source\PSoC5/I2C_3_INT.c **** *
  33:.\Generated_Source\PSoC5/I2C_3_INT.c **** * Summary:
  34:.\Generated_Source\PSoC5/I2C_3_INT.c **** *  Handler for I2C interrupt. The Slave and Master operations are handled here.
  35:.\Generated_Source\PSoC5/I2C_3_INT.c **** *
  36:.\Generated_Source\PSoC5/I2C_3_INT.c **** * Parameters:
  37:.\Generated_Source\PSoC5/I2C_3_INT.c **** *  void
  38:.\Generated_Source\PSoC5/I2C_3_INT.c **** *
  39:.\Generated_Source\PSoC5/I2C_3_INT.c **** * Return:
  40:.\Generated_Source\PSoC5/I2C_3_INT.c **** *  void
  41:.\Generated_Source\PSoC5/I2C_3_INT.c **** *
  42:.\Generated_Source\PSoC5/I2C_3_INT.c **** * Reentrant:
  43:.\Generated_Source\PSoC5/I2C_3_INT.c **** *  No
  44:.\Generated_Source\PSoC5/I2C_3_INT.c **** *
  45:.\Generated_Source\PSoC5/I2C_3_INT.c **** *******************************************************************************/
  46:.\Generated_Source\PSoC5/I2C_3_INT.c **** CY_ISR(I2C_3_ISR)
  47:.\Generated_Source\PSoC5/I2C_3_INT.c **** {
  27              		.loc 1 47 0
  28              		.cfi_startproc
  29              		@ args = 0, pretend = 0, frame = 8
  30              		@ frame_needed = 1, uses_anonymous_args = 0
  31 0000 80B5     		push	{r7, lr}
  32              	.LCFI0:
  33              		.cfi_def_cfa_offset 8
  34              		.cfi_offset 7, -8
  35              		.cfi_offset 14, -4
  36 0002 82B0     		sub	sp, sp, #8
  37              	.LCFI1:
  38              		.cfi_def_cfa_offset 16
  39 0004 00AF     		add	r7, sp, #0
  40              	.LCFI2:
  41              		.cfi_def_cfa_register 7
  48:.\Generated_Source\PSoC5/I2C_3_INT.c ****     #if(I2C_3_MODE_SLAVE_ENABLED)
  49:.\Generated_Source\PSoC5/I2C_3_INT.c ****        uint8  tmp8;
  50:.\Generated_Source\PSoC5/I2C_3_INT.c ****     #endif  /* (I2C_3_MODE_SLAVE_ENABLED) */
  51:.\Generated_Source\PSoC5/I2C_3_INT.c **** 
  52:.\Generated_Source\PSoC5/I2C_3_INT.c ****     uint8  tmpCsr;
  53:.\Generated_Source\PSoC5/I2C_3_INT.c **** 
  54:.\Generated_Source\PSoC5/I2C_3_INT.c ****     #if(I2C_3_TIMEOUT_FF_ENABLED)
  55:.\Generated_Source\PSoC5/I2C_3_INT.c ****         if(0u != I2C_3_TimeoutGetStatus())
  56:.\Generated_Source\PSoC5/I2C_3_INT.c ****         {
  57:.\Generated_Source\PSoC5/I2C_3_INT.c ****             I2C_3_TimeoutReset();
  58:.\Generated_Source\PSoC5/I2C_3_INT.c ****             I2C_3_state = I2C_3_SM_EXIT_IDLE;
  59:.\Generated_Source\PSoC5/I2C_3_INT.c ****             /* I2C_3_CSR_REG should be cleared after reset */
  60:.\Generated_Source\PSoC5/I2C_3_INT.c ****         }
  61:.\Generated_Source\PSoC5/I2C_3_INT.c ****     #endif /* (I2C_3_TIMEOUT_FF_ENABLED) */
  62:.\Generated_Source\PSoC5/I2C_3_INT.c **** 
  63:.\Generated_Source\PSoC5/I2C_3_INT.c **** 
  64:.\Generated_Source\PSoC5/I2C_3_INT.c ****     tmpCsr = I2C_3_CSR_REG;      /* Make copy as interrupts clear */
  42              		.loc 1 64 0
  43 0006 44F6D713 		movw	r3, #18903
  44 000a C4F20003 		movt	r3, 16384
  45 000e 1B78     		ldrb	r3, [r3, #0]
  46 0010 FB71     		strb	r3, [r7, #7]
  65:.\Generated_Source\PSoC5/I2C_3_INT.c **** 
  66:.\Generated_Source\PSoC5/I2C_3_INT.c ****     #if(I2C_3_MODE_MULTI_MASTER_SLAVE_ENABLED)
  67:.\Generated_Source\PSoC5/I2C_3_INT.c ****         if(I2C_3_CHECK_START_GEN(I2C_3_MCSR_REG))
  47              		.loc 1 67 0
ARM GAS  C:\Users\devdev\AppData\Local\Temp\cc0pyIv3.s 			page 3


  48 0012 44F6D913 		movw	r3, #18905
  49 0016 C4F20003 		movt	r3, 16384
  50 001a 1B78     		ldrb	r3, [r3, #0]
  51 001c DBB2     		uxtb	r3, r3
  52 001e 03F00103 		and	r3, r3, #1
  53 0022 002B     		cmp	r3, #0
  54 0024 3AD0     		beq	.L2
  55              		.loc 1 67 0 is_stmt 0 discriminator 1
  56 0026 44F6D913 		movw	r3, #18905
  57 002a C4F20003 		movt	r3, 16384
  58 002e 1B78     		ldrb	r3, [r3, #0]
  59 0030 DBB2     		uxtb	r3, r3
  60 0032 03F00403 		and	r3, r3, #4
  61 0036 002B     		cmp	r3, #0
  62 0038 30D1     		bne	.L2
  68:.\Generated_Source\PSoC5/I2C_3_INT.c ****         {
  69:.\Generated_Source\PSoC5/I2C_3_INT.c ****             I2C_3_CLEAR_START_GEN;
  63              		.loc 1 69 0 is_stmt 1
  64 003a 44F6D913 		movw	r3, #18905
  65 003e C4F20003 		movt	r3, 16384
  66 0042 44F6D912 		movw	r2, #18905
  67 0046 C4F20002 		movt	r2, 16384
  68 004a 1278     		ldrb	r2, [r2, #0]
  69 004c D2B2     		uxtb	r2, r2
  70 004e 22F00102 		bic	r2, r2, #1
  71 0052 D2B2     		uxtb	r2, r2
  72 0054 1A70     		strb	r2, [r3, #0]
  70:.\Generated_Source\PSoC5/I2C_3_INT.c **** 
  71:.\Generated_Source\PSoC5/I2C_3_INT.c ****             /* Set READ complete, but was aborted */
  72:.\Generated_Source\PSoC5/I2C_3_INT.c ****             I2C_3_mstrStatus |= (I2C_3_MSTAT_ERR_XFER |
  73:.\Generated_Source\PSoC5/I2C_3_INT.c ****                                             I2C_3_GET_MSTAT_CMPLT);
  73              		.loc 1 73 0
  74 0056 40F20003 		movw	r3, #:lower16:I2C_3_state
  75 005a C0F20003 		movt	r3, #:upper16:I2C_3_state
  76 005e 1B78     		ldrb	r3, [r3, #0]
  77 0060 DBB2     		uxtb	r3, r3
  78 0062 03F00803 		and	r3, r3, #8
  72:.\Generated_Source\PSoC5/I2C_3_INT.c ****             I2C_3_mstrStatus |= (I2C_3_MSTAT_ERR_XFER |
  79              		.loc 1 72 0
  80 0066 002B     		cmp	r3, #0
  81 0068 02D0     		beq	.L3
  72:.\Generated_Source\PSoC5/I2C_3_INT.c ****             I2C_3_mstrStatus |= (I2C_3_MSTAT_ERR_XFER |
  82              		.loc 1 72 0 is_stmt 0 discriminator 1
  83 006a 4FF08102 		mov	r2, #129
  84 006e 01E0     		b	.L4
  85              	.L3:
  72:.\Generated_Source\PSoC5/I2C_3_INT.c ****             I2C_3_mstrStatus |= (I2C_3_MSTAT_ERR_XFER |
  86              		.loc 1 72 0 discriminator 2
  87 0070 4FF08202 		mov	r2, #130
  88              	.L4:
  72:.\Generated_Source\PSoC5/I2C_3_INT.c ****             I2C_3_mstrStatus |= (I2C_3_MSTAT_ERR_XFER |
  89              		.loc 1 72 0 discriminator 3
  90 0074 40F20003 		movw	r3, #:lower16:I2C_3_mstrStatus
  91 0078 C0F20003 		movt	r3, #:upper16:I2C_3_mstrStatus
  92 007c 1B78     		ldrb	r3, [r3, #0]
  93 007e DBB2     		uxtb	r3, r3
  94 0080 1343     		orrs	r3, r3, r2
ARM GAS  C:\Users\devdev\AppData\Local\Temp\cc0pyIv3.s 			page 4


  95 0082 DAB2     		uxtb	r2, r3
  96 0084 40F20003 		movw	r3, #:lower16:I2C_3_mstrStatus
  97 0088 C0F20003 		movt	r3, #:upper16:I2C_3_mstrStatus
  98 008c 1A70     		strb	r2, [r3, #0]
  74:.\Generated_Source\PSoC5/I2C_3_INT.c **** 
  75:.\Generated_Source\PSoC5/I2C_3_INT.c ****             /* The slave was addressed */
  76:.\Generated_Source\PSoC5/I2C_3_INT.c ****             I2C_3_state = I2C_3_SM_SLAVE;
  99              		.loc 1 76 0 is_stmt 1 discriminator 3
 100 008e 40F20003 		movw	r3, #:lower16:I2C_3_state
 101 0092 C0F20003 		movt	r3, #:upper16:I2C_3_state
 102 0096 4FF01002 		mov	r2, #16
 103 009a 1A70     		strb	r2, [r3, #0]
 104              	.L2:
  77:.\Generated_Source\PSoC5/I2C_3_INT.c ****         }
  78:.\Generated_Source\PSoC5/I2C_3_INT.c ****     #endif /* (I2C_3_MODE_MULTI_MASTER_SLAVE_ENABLED) */
  79:.\Generated_Source\PSoC5/I2C_3_INT.c **** 
  80:.\Generated_Source\PSoC5/I2C_3_INT.c **** 
  81:.\Generated_Source\PSoC5/I2C_3_INT.c ****     #if(I2C_3_MODE_MULTI_MASTER_ENABLED)
  82:.\Generated_Source\PSoC5/I2C_3_INT.c ****         if(I2C_3_CHECK_LOST_ARB(tmpCsr))
 105              		.loc 1 82 0
 106 009c FB79     		ldrb	r3, [r7, #7]	@ zero_extendqisi2
 107 009e 03F04003 		and	r3, r3, #64
 108 00a2 002B     		cmp	r3, #0
 109 00a4 44D0     		beq	.L5
  83:.\Generated_Source\PSoC5/I2C_3_INT.c ****         {
  84:.\Generated_Source\PSoC5/I2C_3_INT.c ****             /* Set errors */
  85:.\Generated_Source\PSoC5/I2C_3_INT.c ****             I2C_3_mstrStatus |= (I2C_3_MSTAT_ERR_XFER     |
  86:.\Generated_Source\PSoC5/I2C_3_INT.c ****                                             I2C_3_MSTAT_ERR_ARB_LOST |
  87:.\Generated_Source\PSoC5/I2C_3_INT.c ****                                             I2C_3_GET_MSTAT_CMPLT);
 110              		.loc 1 87 0
 111 00a6 40F20003 		movw	r3, #:lower16:I2C_3_state
 112 00aa C0F20003 		movt	r3, #:upper16:I2C_3_state
 113 00ae 1B78     		ldrb	r3, [r3, #0]
 114 00b0 DBB2     		uxtb	r3, r3
 115 00b2 03F00803 		and	r3, r3, #8
  85:.\Generated_Source\PSoC5/I2C_3_INT.c ****             I2C_3_mstrStatus |= (I2C_3_MSTAT_ERR_XFER     |
 116              		.loc 1 85 0
 117 00b6 002B     		cmp	r3, #0
 118 00b8 02D0     		beq	.L6
  85:.\Generated_Source\PSoC5/I2C_3_INT.c ****             I2C_3_mstrStatus |= (I2C_3_MSTAT_ERR_XFER     |
 119              		.loc 1 85 0 is_stmt 0 discriminator 1
 120 00ba 4FF0C102 		mov	r2, #193
 121 00be 01E0     		b	.L7
 122              	.L6:
  85:.\Generated_Source\PSoC5/I2C_3_INT.c ****             I2C_3_mstrStatus |= (I2C_3_MSTAT_ERR_XFER     |
 123              		.loc 1 85 0 discriminator 2
 124 00c0 4FF0C202 		mov	r2, #194
 125              	.L7:
  85:.\Generated_Source\PSoC5/I2C_3_INT.c ****             I2C_3_mstrStatus |= (I2C_3_MSTAT_ERR_XFER     |
 126              		.loc 1 85 0 discriminator 3
 127 00c4 40F20003 		movw	r3, #:lower16:I2C_3_mstrStatus
 128 00c8 C0F20003 		movt	r3, #:upper16:I2C_3_mstrStatus
 129 00cc 1B78     		ldrb	r3, [r3, #0]
 130 00ce DBB2     		uxtb	r3, r3
 131 00d0 1343     		orrs	r3, r3, r2
 132 00d2 DAB2     		uxtb	r2, r3
 133 00d4 40F20003 		movw	r3, #:lower16:I2C_3_mstrStatus
ARM GAS  C:\Users\devdev\AppData\Local\Temp\cc0pyIv3.s 			page 5


 134 00d8 C0F20003 		movt	r3, #:upper16:I2C_3_mstrStatus
 135 00dc 1A70     		strb	r2, [r3, #0]
  88:.\Generated_Source\PSoC5/I2C_3_INT.c **** 
  89:.\Generated_Source\PSoC5/I2C_3_INT.c ****             I2C_3_DISABLE_INT_ON_STOP; /* Interrupt on Stop is enabled by write */
 136              		.loc 1 89 0 is_stmt 1 discriminator 3
 137 00de 44F6D613 		movw	r3, #18902
 138 00e2 C4F20003 		movt	r3, 16384
 139 00e6 44F6D612 		movw	r2, #18902
 140 00ea C4F20002 		movt	r2, 16384
 141 00ee 1278     		ldrb	r2, [r2, #0]
 142 00f0 D2B2     		uxtb	r2, r2
 143 00f2 22F01002 		bic	r2, r2, #16
 144 00f6 D2B2     		uxtb	r2, r2
 145 00f8 1A70     		strb	r2, [r3, #0]
  90:.\Generated_Source\PSoC5/I2C_3_INT.c **** 
  91:.\Generated_Source\PSoC5/I2C_3_INT.c ****             #if(I2C_3_MODE_MULTI_MASTER_SLAVE_ENABLED)
  92:.\Generated_Source\PSoC5/I2C_3_INT.c ****                 if(I2C_3_CHECK_ADDRESS_STS(tmpCsr))
 146              		.loc 1 92 0 discriminator 3
 147 00fa FB79     		ldrb	r3, [r7, #7]	@ zero_extendqisi2
 148 00fc 03F00803 		and	r3, r3, #8
 149 0100 002B     		cmp	r3, #0
 150 0102 07D0     		beq	.L8
  93:.\Generated_Source\PSoC5/I2C_3_INT.c ****                 {
  94:.\Generated_Source\PSoC5/I2C_3_INT.c ****                     /* The slave was addressed */
  95:.\Generated_Source\PSoC5/I2C_3_INT.c ****                     I2C_3_state = I2C_3_SM_SLAVE;
 151              		.loc 1 95 0
 152 0104 40F20003 		movw	r3, #:lower16:I2C_3_state
 153 0108 C0F20003 		movt	r3, #:upper16:I2C_3_state
 154 010c 4FF01002 		mov	r2, #16
 155 0110 1A70     		strb	r2, [r3, #0]
 156 0112 0DE0     		b	.L5
 157              	.L8:
  96:.\Generated_Source\PSoC5/I2C_3_INT.c ****                 }
  97:.\Generated_Source\PSoC5/I2C_3_INT.c ****                 else
  98:.\Generated_Source\PSoC5/I2C_3_INT.c ****                 {
  99:.\Generated_Source\PSoC5/I2C_3_INT.c ****                     I2C_3_BUS_RELEASE;
 158              		.loc 1 99 0
 159 0114 44F6D713 		movw	r3, #18903
 160 0118 C4F20003 		movt	r3, 16384
 161 011c 4FF00002 		mov	r2, #0
 162 0120 1A70     		strb	r2, [r3, #0]
 100:.\Generated_Source\PSoC5/I2C_3_INT.c **** 
 101:.\Generated_Source\PSoC5/I2C_3_INT.c ****                     I2C_3_state = I2C_3_SM_EXIT_IDLE;
 163              		.loc 1 101 0
 164 0122 40F20003 		movw	r3, #:lower16:I2C_3_state
 165 0126 C0F20003 		movt	r3, #:upper16:I2C_3_state
 166 012a 4FF00002 		mov	r2, #0
 167 012e 1A70     		strb	r2, [r3, #0]
 168              	.L5:
 102:.\Generated_Source\PSoC5/I2C_3_INT.c ****                 }
 103:.\Generated_Source\PSoC5/I2C_3_INT.c ****             #else
 104:.\Generated_Source\PSoC5/I2C_3_INT.c ****                 I2C_3_BUS_RELEASE;
 105:.\Generated_Source\PSoC5/I2C_3_INT.c **** 
 106:.\Generated_Source\PSoC5/I2C_3_INT.c ****                 I2C_3_state = I2C_3_SM_EXIT_IDLE;
 107:.\Generated_Source\PSoC5/I2C_3_INT.c **** 
 108:.\Generated_Source\PSoC5/I2C_3_INT.c ****             #endif /* (I2C_3_MODE_MULTI_MASTER_SLAVE_ENABLED) */
 109:.\Generated_Source\PSoC5/I2C_3_INT.c ****         }
ARM GAS  C:\Users\devdev\AppData\Local\Temp\cc0pyIv3.s 			page 6


 110:.\Generated_Source\PSoC5/I2C_3_INT.c ****     #endif /* (I2C_3_MODE_MULTI_MASTER_ENABLED) */
 111:.\Generated_Source\PSoC5/I2C_3_INT.c **** 
 112:.\Generated_Source\PSoC5/I2C_3_INT.c ****     /* Check for Master operation mode */
 113:.\Generated_Source\PSoC5/I2C_3_INT.c ****     if(I2C_3_CHECK_SM_MASTER)
 169              		.loc 1 113 0
 170 0130 40F20003 		movw	r3, #:lower16:I2C_3_state
 171 0134 C0F20003 		movt	r3, #:upper16:I2C_3_state
 172 0138 1B78     		ldrb	r3, [r3, #0]
 173 013a DBB2     		uxtb	r3, r3
 174 013c 03F04003 		and	r3, r3, #64
 175 0140 DBB2     		uxtb	r3, r3
 176 0142 002B     		cmp	r3, #0
 177 0144 00F0A082 		beq	.L9
 114:.\Generated_Source\PSoC5/I2C_3_INT.c ****     {
 115:.\Generated_Source\PSoC5/I2C_3_INT.c ****         #if(I2C_3_MODE_MASTER_ENABLED)
 116:.\Generated_Source\PSoC5/I2C_3_INT.c ****             if(I2C_3_CHECK_BYTE_COMPLETE(tmpCsr))
 178              		.loc 1 116 0
 179 0148 FB79     		ldrb	r3, [r7, #7]	@ zero_extendqisi2
 180 014a 03F00103 		and	r3, r3, #1
 181 014e 002B     		cmp	r3, #0
 182 0150 00F06282 		beq	.L10
 117:.\Generated_Source\PSoC5/I2C_3_INT.c ****             {
 118:.\Generated_Source\PSoC5/I2C_3_INT.c ****                 switch (I2C_3_state)
 183              		.loc 1 118 0
 184 0154 40F20003 		movw	r3, #:lower16:I2C_3_state
 185 0158 C0F20003 		movt	r3, #:upper16:I2C_3_state
 186 015c 1B78     		ldrb	r3, [r3, #0]
 187 015e DBB2     		uxtb	r3, r3
 188 0160 A3F14503 		sub	r3, r3, #69
 189 0164 052B     		cmp	r3, #5
 190 0166 00F25282 		bhi	.L11
 191 016a 01A2     		adr	r2, .L15
 192 016c 52F823F0 		ldr	pc, [r2, r3, lsl #2]
 193              		.align	2
 194              	.L15:
 195 0170 89010000 		.word	.L12+1
 196 0174 7F030000 		.word	.L13+1
 197 0178 0F060000 		.word	.L11+1
 198 017c 0F060000 		.word	.L11+1
 199 0180 89010000 		.word	.L12+1
 200 0184 27050000 		.word	.L14+1
 201              	.L12:
 119:.\Generated_Source\PSoC5/I2C_3_INT.c ****                 {
 120:.\Generated_Source\PSoC5/I2C_3_INT.c ****                 case I2C_3_SM_MSTR_WR_ADDR:  /* After address is sent, WRITE data */
 121:.\Generated_Source\PSoC5/I2C_3_INT.c ****                 case I2C_3_SM_MSTR_RD_ADDR:  /* After address is sent, READ  data */
 122:.\Generated_Source\PSoC5/I2C_3_INT.c **** 
 123:.\Generated_Source\PSoC5/I2C_3_INT.c ****                     tmpCsr &= ((uint8) ~I2C_3_CSR_STOP_STATUS); /* Clear STOP bit history on addres
 202              		.loc 1 123 0
 203 0188 FB79     		ldrb	r3, [r7, #7]
 204 018a 23F02003 		bic	r3, r3, #32
 205 018e FB71     		strb	r3, [r7, #7]
 124:.\Generated_Source\PSoC5/I2C_3_INT.c ****                     
 125:.\Generated_Source\PSoC5/I2C_3_INT.c ****                     if(I2C_3_CHECK_ADDR_ACK(tmpCsr))
 206              		.loc 1 125 0
 207 0190 FB79     		ldrb	r3, [r7, #7]
 208 0192 03F00A03 		and	r3, r3, #10
 209 0196 DBB2     		uxtb	r3, r3
ARM GAS  C:\Users\devdev\AppData\Local\Temp\cc0pyIv3.s 			page 7


 210 0198 082B     		cmp	r3, #8
 211 019a 40F08580 		bne	.L16
 126:.\Generated_Source\PSoC5/I2C_3_INT.c ****                     {
 127:.\Generated_Source\PSoC5/I2C_3_INT.c ****                         /* Setup for transmit or receive of data */
 128:.\Generated_Source\PSoC5/I2C_3_INT.c ****                         if(I2C_3_state == I2C_3_SM_MSTR_WR_ADDR)   /* TRANSMIT data */
 212              		.loc 1 128 0
 213 019e 40F20003 		movw	r3, #:lower16:I2C_3_state
 214 01a2 C0F20003 		movt	r3, #:upper16:I2C_3_state
 215 01a6 1B78     		ldrb	r3, [r3, #0]
 216 01a8 DBB2     		uxtb	r3, r3
 217 01aa 452B     		cmp	r3, #69
 218 01ac 6DD1     		bne	.L17
 129:.\Generated_Source\PSoC5/I2C_3_INT.c ****                         {
 130:.\Generated_Source\PSoC5/I2C_3_INT.c ****                             /* Check if at least one byte to transfer */
 131:.\Generated_Source\PSoC5/I2C_3_INT.c ****                             if(I2C_3_mstrWrBufSize > 0u)
 219              		.loc 1 131 0
 220 01ae 40F20003 		movw	r3, #:lower16:I2C_3_mstrWrBufSize
 221 01b2 C0F20003 		movt	r3, #:upper16:I2C_3_mstrWrBufSize
 222 01b6 1B78     		ldrb	r3, [r3, #0]
 223 01b8 DBB2     		uxtb	r3, r3
 224 01ba 002B     		cmp	r3, #0
 225 01bc 21D0     		beq	.L18
 132:.\Generated_Source\PSoC5/I2C_3_INT.c ****                             {
 133:.\Generated_Source\PSoC5/I2C_3_INT.c ****                                 /* Load the 1st data byte */
 134:.\Generated_Source\PSoC5/I2C_3_INT.c ****                                 I2C_3_DATA_REG = I2C_3_mstrWrBufPtr[0u];
 226              		.loc 1 134 0
 227 01be 44F6D813 		movw	r3, #18904
 228 01c2 C4F20003 		movt	r3, 16384
 229 01c6 40F20002 		movw	r2, #:lower16:I2C_3_mstrWrBufPtr
 230 01ca C0F20002 		movt	r2, #:upper16:I2C_3_mstrWrBufPtr
 231 01ce 1268     		ldr	r2, [r2, #0]
 232 01d0 1278     		ldrb	r2, [r2, #0]
 233 01d2 D2B2     		uxtb	r2, r2
 234 01d4 1A70     		strb	r2, [r3, #0]
 135:.\Generated_Source\PSoC5/I2C_3_INT.c ****                                 I2C_3_TRANSMIT_DATA;
 235              		.loc 1 135 0
 236 01d6 44F6D713 		movw	r3, #18903
 237 01da C4F20003 		movt	r3, 16384
 238 01de 4FF00402 		mov	r2, #4
 239 01e2 1A70     		strb	r2, [r3, #0]
 136:.\Generated_Source\PSoC5/I2C_3_INT.c ****                                 I2C_3_mstrWrBufIndex = 1u;   /* Set index to 2nd element */
 240              		.loc 1 136 0
 241 01e4 40F20003 		movw	r3, #:lower16:I2C_3_mstrWrBufIndex
 242 01e8 C0F20003 		movt	r3, #:upper16:I2C_3_mstrWrBufIndex
 243 01ec 4FF00102 		mov	r2, #1
 244 01f0 1A70     		strb	r2, [r3, #0]
 137:.\Generated_Source\PSoC5/I2C_3_INT.c **** 
 138:.\Generated_Source\PSoC5/I2C_3_INT.c ****                                 /* Set transmit state until done */
 139:.\Generated_Source\PSoC5/I2C_3_INT.c ****                                 I2C_3_state = I2C_3_SM_MSTR_WR_DATA;
 245              		.loc 1 139 0
 246 01f2 40F20003 		movw	r3, #:lower16:I2C_3_state
 247 01f6 C0F20003 		movt	r3, #:upper16:I2C_3_state
 248 01fa 4FF04602 		mov	r2, #70
 249 01fe 1A70     		strb	r2, [r3, #0]
 140:.\Generated_Source\PSoC5/I2C_3_INT.c ****                             }
 141:.\Generated_Source\PSoC5/I2C_3_INT.c ****                             /* End of buffer: complete writing */
 142:.\Generated_Source\PSoC5/I2C_3_INT.c ****                             else if(I2C_3_CHECK_NO_STOP(I2C_3_mstrControl))
ARM GAS  C:\Users\devdev\AppData\Local\Temp\cc0pyIv3.s 			page 8


 143:.\Generated_Source\PSoC5/I2C_3_INT.c ****                             {
 144:.\Generated_Source\PSoC5/I2C_3_INT.c ****                                 #if(CY_PSOC5A)
 145:.\Generated_Source\PSoC5/I2C_3_INT.c ****                                     /* Do not handles 0 bytes transfer - HALT is NOT allowed */
 146:.\Generated_Source\PSoC5/I2C_3_INT.c ****                                     I2C_3_ENABLE_INT_ON_STOP;
 147:.\Generated_Source\PSoC5/I2C_3_INT.c ****                                     I2C_3_GENERATE_STOP;
 148:.\Generated_Source\PSoC5/I2C_3_INT.c ****                                 
 149:.\Generated_Source\PSoC5/I2C_3_INT.c ****                                 #else
 150:.\Generated_Source\PSoC5/I2C_3_INT.c ****                                     /* Set WRITE complete and Master HALTED */
 151:.\Generated_Source\PSoC5/I2C_3_INT.c ****                                     I2C_3_mstrStatus |= (I2C_3_MSTAT_XFER_HALT |
 152:.\Generated_Source\PSoC5/I2C_3_INT.c ****                                                                     I2C_3_MSTAT_WR_CMPLT);
 153:.\Generated_Source\PSoC5/I2C_3_INT.c **** 
 154:.\Generated_Source\PSoC5/I2C_3_INT.c ****                                     I2C_3_state = I2C_3_SM_MSTR_HALT; /* Expect RESTART */
 155:.\Generated_Source\PSoC5/I2C_3_INT.c ****                                     I2C_3_DisableInt();
 156:.\Generated_Source\PSoC5/I2C_3_INT.c ****                                 
 157:.\Generated_Source\PSoC5/I2C_3_INT.c ****                                 #endif /* (CY_PSOC5A) */
 158:.\Generated_Source\PSoC5/I2C_3_INT.c ****                             }
 159:.\Generated_Source\PSoC5/I2C_3_INT.c ****                             else
 160:.\Generated_Source\PSoC5/I2C_3_INT.c ****                             {
 161:.\Generated_Source\PSoC5/I2C_3_INT.c ****                                 I2C_3_ENABLE_INT_ON_STOP; /* Enable interrupt on STOP, to catch it 
 162:.\Generated_Source\PSoC5/I2C_3_INT.c ****                                 I2C_3_GENERATE_STOP;
 163:.\Generated_Source\PSoC5/I2C_3_INT.c ****                             }
 164:.\Generated_Source\PSoC5/I2C_3_INT.c ****                         }
 165:.\Generated_Source\PSoC5/I2C_3_INT.c ****                         else  /* Master Receive data */
 166:.\Generated_Source\PSoC5/I2C_3_INT.c ****                         {
 167:.\Generated_Source\PSoC5/I2C_3_INT.c ****                             I2C_3_READY_TO_READ; /* Release bus to read data */
 168:.\Generated_Source\PSoC5/I2C_3_INT.c **** 
 169:.\Generated_Source\PSoC5/I2C_3_INT.c ****                             I2C_3_state  = I2C_3_SM_MSTR_RD_DATA;
 170:.\Generated_Source\PSoC5/I2C_3_INT.c ****                         }
 171:.\Generated_Source\PSoC5/I2C_3_INT.c ****                     }
 172:.\Generated_Source\PSoC5/I2C_3_INT.c ****                     /* Address is NACKed */
 173:.\Generated_Source\PSoC5/I2C_3_INT.c ****                     else if(I2C_3_CHECK_ADDR_NAK(tmpCsr))
 174:.\Generated_Source\PSoC5/I2C_3_INT.c ****                     {
 175:.\Generated_Source\PSoC5/I2C_3_INT.c ****                         /* Set Address NAK error */
 176:.\Generated_Source\PSoC5/I2C_3_INT.c ****                         I2C_3_mstrStatus |= (I2C_3_MSTAT_ERR_XFER |
 177:.\Generated_Source\PSoC5/I2C_3_INT.c ****                                                         I2C_3_MSTAT_ERR_ADDR_NAK);
 178:.\Generated_Source\PSoC5/I2C_3_INT.c ****                                                         
 179:.\Generated_Source\PSoC5/I2C_3_INT.c ****                         if(I2C_3_CHECK_NO_STOP(I2C_3_mstrControl))
 180:.\Generated_Source\PSoC5/I2C_3_INT.c ****                         {
 181:.\Generated_Source\PSoC5/I2C_3_INT.c ****                             I2C_3_mstrStatus |= (I2C_3_MSTAT_XFER_HALT | 
 182:.\Generated_Source\PSoC5/I2C_3_INT.c ****                                                             I2C_3_GET_MSTAT_CMPLT);
 183:.\Generated_Source\PSoC5/I2C_3_INT.c **** 
 184:.\Generated_Source\PSoC5/I2C_3_INT.c ****                             I2C_3_state = I2C_3_SM_MSTR_HALT; /* Expect RESTART */
 185:.\Generated_Source\PSoC5/I2C_3_INT.c ****                             I2C_3_DisableInt();
 186:.\Generated_Source\PSoC5/I2C_3_INT.c ****                         }
 187:.\Generated_Source\PSoC5/I2C_3_INT.c ****                         else  /* Do normal Stop */
 188:.\Generated_Source\PSoC5/I2C_3_INT.c ****                         {
 189:.\Generated_Source\PSoC5/I2C_3_INT.c ****                             I2C_3_ENABLE_INT_ON_STOP; /* Enable interrupt on STOP, to catch it */
 190:.\Generated_Source\PSoC5/I2C_3_INT.c ****                             I2C_3_GENERATE_STOP;
 191:.\Generated_Source\PSoC5/I2C_3_INT.c ****                         }
 192:.\Generated_Source\PSoC5/I2C_3_INT.c ****                     }
 193:.\Generated_Source\PSoC5/I2C_3_INT.c ****                     else
 194:.\Generated_Source\PSoC5/I2C_3_INT.c ****                     {
 195:.\Generated_Source\PSoC5/I2C_3_INT.c ****                         /* Address phase is not set for some reason: error */
 196:.\Generated_Source\PSoC5/I2C_3_INT.c ****                         #if(I2C_3_TIMEOUT_ENABLED)
 197:.\Generated_Source\PSoC5/I2C_3_INT.c ****                             /* Exit from interrupt to take a chance for timeout timer handle this c
 198:.\Generated_Source\PSoC5/I2C_3_INT.c ****                             I2C_3_DisableInt();
 199:.\Generated_Source\PSoC5/I2C_3_INT.c ****                             I2C_3_ClearPendingInt();
ARM GAS  C:\Users\devdev\AppData\Local\Temp\cc0pyIv3.s 			page 9


 200:.\Generated_Source\PSoC5/I2C_3_INT.c ****                         #else
 201:.\Generated_Source\PSoC5/I2C_3_INT.c ****                             /* Block execution flow: unexpected condition */
 202:.\Generated_Source\PSoC5/I2C_3_INT.c ****                             CYASSERT(0u != 0u);
 203:.\Generated_Source\PSoC5/I2C_3_INT.c ****                         #endif /* (I2C_3_TIMEOUT_ENABLED) */
 204:.\Generated_Source\PSoC5/I2C_3_INT.c ****                     }
 205:.\Generated_Source\PSoC5/I2C_3_INT.c ****                     break;
 250              		.loc 1 205 0
 251 0200 0AE2     		b	.L10
 252              	.L18:
 142:.\Generated_Source\PSoC5/I2C_3_INT.c ****                             else if(I2C_3_CHECK_NO_STOP(I2C_3_mstrControl))
 253              		.loc 1 142 0
 254 0202 40F20003 		movw	r3, #:lower16:I2C_3_mstrControl
 255 0206 C0F20003 		movt	r3, #:upper16:I2C_3_mstrControl
 256 020a 1B78     		ldrb	r3, [r3, #0]
 257 020c DBB2     		uxtb	r3, r3
 258 020e 03F00203 		and	r3, r3, #2
 259 0212 002B     		cmp	r3, #0
 260 0214 1CD0     		beq	.L20
 151:.\Generated_Source\PSoC5/I2C_3_INT.c ****                                     I2C_3_mstrStatus |= (I2C_3_MSTAT_XFER_HALT |
 261              		.loc 1 151 0
 262 0216 40F20003 		movw	r3, #:lower16:I2C_3_mstrStatus
 263 021a C0F20003 		movt	r3, #:upper16:I2C_3_mstrStatus
 264 021e 1B78     		ldrb	r3, [r3, #0]
 265 0220 DBB2     		uxtb	r3, r3
 266 0222 43F00A03 		orr	r3, r3, #10
 267 0226 DAB2     		uxtb	r2, r3
 268 0228 40F20003 		movw	r3, #:lower16:I2C_3_mstrStatus
 269 022c C0F20003 		movt	r3, #:upper16:I2C_3_mstrStatus
 270 0230 1A70     		strb	r2, [r3, #0]
 154:.\Generated_Source\PSoC5/I2C_3_INT.c ****                                     I2C_3_state = I2C_3_SM_MSTR_HALT; /* Expect RESTART */
 271              		.loc 1 154 0
 272 0232 40F20003 		movw	r3, #:lower16:I2C_3_state
 273 0236 C0F20003 		movt	r3, #:upper16:I2C_3_state
 274 023a 4FF06002 		mov	r2, #96
 275 023e 1A70     		strb	r2, [r3, #0]
 155:.\Generated_Source\PSoC5/I2C_3_INT.c ****                                     I2C_3_DisableInt();
 276              		.loc 1 155 0
 277 0240 4EF28013 		movw	r3, #57728
 278 0244 CEF20003 		movt	r3, 57344
 279 0248 4FF40042 		mov	r2, #32768
 280 024c 1A60     		str	r2, [r3, #0]
 281              		.loc 1 205 0
 282 024e E3E1     		b	.L10
 283              	.L20:
 161:.\Generated_Source\PSoC5/I2C_3_INT.c ****                                 I2C_3_ENABLE_INT_ON_STOP; /* Enable interrupt on STOP, to catch it 
 284              		.loc 1 161 0
 285 0250 44F6D613 		movw	r3, #18902
 286 0254 C4F20003 		movt	r3, 16384
 287 0258 44F6D612 		movw	r2, #18902
 288 025c C4F20002 		movt	r2, 16384
 289 0260 1278     		ldrb	r2, [r2, #0]
 290 0262 D2B2     		uxtb	r2, r2
 291 0264 42F01002 		orr	r2, r2, #16
 292 0268 D2B2     		uxtb	r2, r2
 293 026a 1A70     		strb	r2, [r3, #0]
 162:.\Generated_Source\PSoC5/I2C_3_INT.c ****                                 I2C_3_GENERATE_STOP;
 294              		.loc 1 162 0
ARM GAS  C:\Users\devdev\AppData\Local\Temp\cc0pyIv3.s 			page 10


 295 026c 44F6D913 		movw	r3, #18905
 296 0270 C4F20003 		movt	r3, 16384
 297 0274 4FF01002 		mov	r2, #16
 298 0278 1A70     		strb	r2, [r3, #0]
 299 027a 44F6D713 		movw	r3, #18903
 300 027e C4F20003 		movt	r3, 16384
 301 0282 4FF00402 		mov	r2, #4
 302 0286 1A70     		strb	r2, [r3, #0]
 303              		.loc 1 205 0
 304 0288 C6E1     		b	.L10
 305              	.L17:
 167:.\Generated_Source\PSoC5/I2C_3_INT.c ****                             I2C_3_READY_TO_READ; /* Release bus to read data */
 306              		.loc 1 167 0
 307 028a 44F6D713 		movw	r3, #18903
 308 028e C4F20003 		movt	r3, 16384
 309 0292 4FF00002 		mov	r2, #0
 310 0296 1A70     		strb	r2, [r3, #0]
 169:.\Generated_Source\PSoC5/I2C_3_INT.c ****                             I2C_3_state  = I2C_3_SM_MSTR_RD_DATA;
 311              		.loc 1 169 0
 312 0298 40F20003 		movw	r3, #:lower16:I2C_3_state
 313 029c C0F20003 		movt	r3, #:upper16:I2C_3_state
 314 02a0 4FF04A02 		mov	r2, #74
 315 02a4 1A70     		strb	r2, [r3, #0]
 316              		.loc 1 205 0
 317 02a6 B7E1     		b	.L10
 318              	.L16:
 173:.\Generated_Source\PSoC5/I2C_3_INT.c ****                     else if(I2C_3_CHECK_ADDR_NAK(tmpCsr))
 319              		.loc 1 173 0
 320 02a8 FB79     		ldrb	r3, [r7, #7]
 321 02aa 03F00A03 		and	r3, r3, #10
 322 02ae DBB2     		uxtb	r3, r3
 323 02b0 0A2B     		cmp	r3, #10
 324 02b2 5FD1     		bne	.L21
 176:.\Generated_Source\PSoC5/I2C_3_INT.c ****                         I2C_3_mstrStatus |= (I2C_3_MSTAT_ERR_XFER |
 325              		.loc 1 176 0
 326 02b4 40F20003 		movw	r3, #:lower16:I2C_3_mstrStatus
 327 02b8 C0F20003 		movt	r3, #:upper16:I2C_3_mstrStatus
 328 02bc 1B78     		ldrb	r3, [r3, #0]
 329 02be DBB2     		uxtb	r3, r3
 330 02c0 63F05F03 		orn	r3, r3, #95
 331 02c4 DAB2     		uxtb	r2, r3
 332 02c6 40F20003 		movw	r3, #:lower16:I2C_3_mstrStatus
 333 02ca C0F20003 		movt	r3, #:upper16:I2C_3_mstrStatus
 334 02ce 1A70     		strb	r2, [r3, #0]
 179:.\Generated_Source\PSoC5/I2C_3_INT.c ****                         if(I2C_3_CHECK_NO_STOP(I2C_3_mstrControl))
 335              		.loc 1 179 0
 336 02d0 40F20003 		movw	r3, #:lower16:I2C_3_mstrControl
 337 02d4 C0F20003 		movt	r3, #:upper16:I2C_3_mstrControl
 338 02d8 1B78     		ldrb	r3, [r3, #0]
 339 02da DBB2     		uxtb	r3, r3
 340 02dc 03F00203 		and	r3, r3, #2
 341 02e0 002B     		cmp	r3, #0
 342 02e2 2AD0     		beq	.L22
 182:.\Generated_Source\PSoC5/I2C_3_INT.c ****                                                             I2C_3_GET_MSTAT_CMPLT);
 343              		.loc 1 182 0
 344 02e4 40F20003 		movw	r3, #:lower16:I2C_3_state
 345 02e8 C0F20003 		movt	r3, #:upper16:I2C_3_state
ARM GAS  C:\Users\devdev\AppData\Local\Temp\cc0pyIv3.s 			page 11


 346 02ec 1B78     		ldrb	r3, [r3, #0]
 347 02ee DBB2     		uxtb	r3, r3
 348 02f0 03F00803 		and	r3, r3, #8
 181:.\Generated_Source\PSoC5/I2C_3_INT.c ****                             I2C_3_mstrStatus |= (I2C_3_MSTAT_XFER_HALT | 
 349              		.loc 1 181 0
 350 02f4 002B     		cmp	r3, #0
 351 02f6 02D0     		beq	.L23
 181:.\Generated_Source\PSoC5/I2C_3_INT.c ****                             I2C_3_mstrStatus |= (I2C_3_MSTAT_XFER_HALT | 
 352              		.loc 1 181 0 is_stmt 0 discriminator 1
 353 02f8 4FF00902 		mov	r2, #9
 354 02fc 01E0     		b	.L24
 355              	.L23:
 181:.\Generated_Source\PSoC5/I2C_3_INT.c ****                             I2C_3_mstrStatus |= (I2C_3_MSTAT_XFER_HALT | 
 356              		.loc 1 181 0 discriminator 2
 357 02fe 4FF00A02 		mov	r2, #10
 358              	.L24:
 181:.\Generated_Source\PSoC5/I2C_3_INT.c ****                             I2C_3_mstrStatus |= (I2C_3_MSTAT_XFER_HALT | 
 359              		.loc 1 181 0 discriminator 3
 360 0302 40F20003 		movw	r3, #:lower16:I2C_3_mstrStatus
 361 0306 C0F20003 		movt	r3, #:upper16:I2C_3_mstrStatus
 362 030a 1B78     		ldrb	r3, [r3, #0]
 363 030c DBB2     		uxtb	r3, r3
 364 030e 1343     		orrs	r3, r3, r2
 365 0310 DAB2     		uxtb	r2, r3
 366 0312 40F20003 		movw	r3, #:lower16:I2C_3_mstrStatus
 367 0316 C0F20003 		movt	r3, #:upper16:I2C_3_mstrStatus
 368 031a 1A70     		strb	r2, [r3, #0]
 184:.\Generated_Source\PSoC5/I2C_3_INT.c ****                             I2C_3_state = I2C_3_SM_MSTR_HALT; /* Expect RESTART */
 369              		.loc 1 184 0 is_stmt 1 discriminator 3
 370 031c 40F20003 		movw	r3, #:lower16:I2C_3_state
 371 0320 C0F20003 		movt	r3, #:upper16:I2C_3_state
 372 0324 4FF06002 		mov	r2, #96
 373 0328 1A70     		strb	r2, [r3, #0]
 185:.\Generated_Source\PSoC5/I2C_3_INT.c ****                             I2C_3_DisableInt();
 374              		.loc 1 185 0 discriminator 3
 375 032a 4EF28013 		movw	r3, #57728
 376 032e CEF20003 		movt	r3, 57344
 377 0332 4FF40042 		mov	r2, #32768
 378 0336 1A60     		str	r2, [r3, #0]
 379              		.loc 1 205 0 discriminator 3
 380 0338 6EE1     		b	.L10
 381              	.L22:
 189:.\Generated_Source\PSoC5/I2C_3_INT.c ****                             I2C_3_ENABLE_INT_ON_STOP; /* Enable interrupt on STOP, to catch it */
 382              		.loc 1 189 0
 383 033a 44F6D613 		movw	r3, #18902
 384 033e C4F20003 		movt	r3, 16384
 385 0342 44F6D612 		movw	r2, #18902
 386 0346 C4F20002 		movt	r2, 16384
 387 034a 1278     		ldrb	r2, [r2, #0]
 388 034c D2B2     		uxtb	r2, r2
 389 034e 42F01002 		orr	r2, r2, #16
 390 0352 D2B2     		uxtb	r2, r2
 391 0354 1A70     		strb	r2, [r3, #0]
 190:.\Generated_Source\PSoC5/I2C_3_INT.c ****                             I2C_3_GENERATE_STOP;
 392              		.loc 1 190 0
 393 0356 44F6D913 		movw	r3, #18905
 394 035a C4F20003 		movt	r3, 16384
ARM GAS  C:\Users\devdev\AppData\Local\Temp\cc0pyIv3.s 			page 12


 395 035e 4FF01002 		mov	r2, #16
 396 0362 1A70     		strb	r2, [r3, #0]
 397 0364 44F6D713 		movw	r3, #18903
 398 0368 C4F20003 		movt	r3, 16384
 399 036c 4FF00402 		mov	r2, #4
 400 0370 1A70     		strb	r2, [r3, #0]
 401              		.loc 1 205 0
 402 0372 51E1     		b	.L10
 403              	.L21:
 202:.\Generated_Source\PSoC5/I2C_3_INT.c ****                             CYASSERT(0u != 0u);
 404              		.loc 1 202 0 discriminator 1
 405 0374 4FF00000 		mov	r0, #0
 406 0378 FFF7FEFF 		bl	CyHalt
 407              		.loc 1 205 0 discriminator 1
 408 037c 4CE1     		b	.L10
 409              	.L13:
 206:.\Generated_Source\PSoC5/I2C_3_INT.c **** 
 207:.\Generated_Source\PSoC5/I2C_3_INT.c ****                 case I2C_3_SM_MSTR_WR_DATA:
 208:.\Generated_Source\PSoC5/I2C_3_INT.c **** 
 209:.\Generated_Source\PSoC5/I2C_3_INT.c ****                     if(I2C_3_CHECK_DATA_ACK(tmpCsr))
 410              		.loc 1 209 0
 411 037e FB79     		ldrb	r3, [r7, #7]	@ zero_extendqisi2
 412 0380 03F00203 		and	r3, r3, #2
 413 0384 002B     		cmp	r3, #0
 414 0386 7CD1     		bne	.L25
 210:.\Generated_Source\PSoC5/I2C_3_INT.c ****                     {
 211:.\Generated_Source\PSoC5/I2C_3_INT.c ****                         /* Check if end of buffer */
 212:.\Generated_Source\PSoC5/I2C_3_INT.c ****                         if(I2C_3_mstrWrBufIndex  < I2C_3_mstrWrBufSize)
 415              		.loc 1 212 0
 416 0388 40F20003 		movw	r3, #:lower16:I2C_3_mstrWrBufIndex
 417 038c C0F20003 		movt	r3, #:upper16:I2C_3_mstrWrBufIndex
 418 0390 1B78     		ldrb	r3, [r3, #0]
 419 0392 DAB2     		uxtb	r2, r3
 420 0394 40F20003 		movw	r3, #:lower16:I2C_3_mstrWrBufSize
 421 0398 C0F20003 		movt	r3, #:upper16:I2C_3_mstrWrBufSize
 422 039c 1B78     		ldrb	r3, [r3, #0]
 423 039e DBB2     		uxtb	r3, r3
 424 03a0 9A42     		cmp	r2, r3
 425 03a2 28D2     		bcs	.L26
 213:.\Generated_Source\PSoC5/I2C_3_INT.c ****                         {
 214:.\Generated_Source\PSoC5/I2C_3_INT.c ****                             I2C_3_DATA_REG =
 426              		.loc 1 214 0
 427 03a4 44F6D813 		movw	r3, #18904
 428 03a8 C4F20003 		movt	r3, 16384
 215:.\Generated_Source\PSoC5/I2C_3_INT.c ****                                                      I2C_3_mstrWrBufPtr[I2C_3_mstrWrBufIndex];
 429              		.loc 1 215 0
 430 03ac 40F20002 		movw	r2, #:lower16:I2C_3_mstrWrBufPtr
 431 03b0 C0F20002 		movt	r2, #:upper16:I2C_3_mstrWrBufPtr
 432 03b4 1168     		ldr	r1, [r2, #0]
 433 03b6 40F20002 		movw	r2, #:lower16:I2C_3_mstrWrBufIndex
 434 03ba C0F20002 		movt	r2, #:upper16:I2C_3_mstrWrBufIndex
 435 03be 1278     		ldrb	r2, [r2, #0]
 436 03c0 D2B2     		uxtb	r2, r2
 437 03c2 8A18     		adds	r2, r1, r2
 438 03c4 1278     		ldrb	r2, [r2, #0]
 439 03c6 D2B2     		uxtb	r2, r2
 214:.\Generated_Source\PSoC5/I2C_3_INT.c ****                             I2C_3_DATA_REG =
ARM GAS  C:\Users\devdev\AppData\Local\Temp\cc0pyIv3.s 			page 13


 440              		.loc 1 214 0
 441 03c8 1A70     		strb	r2, [r3, #0]
 216:.\Generated_Source\PSoC5/I2C_3_INT.c ****                             I2C_3_TRANSMIT_DATA;
 442              		.loc 1 216 0
 443 03ca 44F6D713 		movw	r3, #18903
 444 03ce C4F20003 		movt	r3, 16384
 445 03d2 4FF00402 		mov	r2, #4
 446 03d6 1A70     		strb	r2, [r3, #0]
 217:.\Generated_Source\PSoC5/I2C_3_INT.c ****                             I2C_3_mstrWrBufIndex++;
 447              		.loc 1 217 0
 448 03d8 40F20003 		movw	r3, #:lower16:I2C_3_mstrWrBufIndex
 449 03dc C0F20003 		movt	r3, #:upper16:I2C_3_mstrWrBufIndex
 450 03e0 1B78     		ldrb	r3, [r3, #0]
 451 03e2 DBB2     		uxtb	r3, r3
 452 03e4 03F10103 		add	r3, r3, #1
 453 03e8 DAB2     		uxtb	r2, r3
 454 03ea 40F20003 		movw	r3, #:lower16:I2C_3_mstrWrBufIndex
 455 03ee C0F20003 		movt	r3, #:upper16:I2C_3_mstrWrBufIndex
 456 03f2 1A70     		strb	r2, [r3, #0]
 218:.\Generated_Source\PSoC5/I2C_3_INT.c ****                         }
 219:.\Generated_Source\PSoC5/I2C_3_INT.c ****                         /* End of buffer: complete writing */
 220:.\Generated_Source\PSoC5/I2C_3_INT.c ****                         else if(I2C_3_CHECK_NO_STOP(I2C_3_mstrControl))
 221:.\Generated_Source\PSoC5/I2C_3_INT.c ****                         {
 222:.\Generated_Source\PSoC5/I2C_3_INT.c ****                             /* Set WRITE complete and Master HALTED */
 223:.\Generated_Source\PSoC5/I2C_3_INT.c ****                             I2C_3_mstrStatus |= (I2C_3_MSTAT_XFER_HALT |
 224:.\Generated_Source\PSoC5/I2C_3_INT.c ****                                                             I2C_3_MSTAT_WR_CMPLT);
 225:.\Generated_Source\PSoC5/I2C_3_INT.c **** 
 226:.\Generated_Source\PSoC5/I2C_3_INT.c ****                             I2C_3_state = I2C_3_SM_MSTR_HALT;    /* Expect RESTART */
 227:.\Generated_Source\PSoC5/I2C_3_INT.c ****                             I2C_3_DisableInt();
 228:.\Generated_Source\PSoC5/I2C_3_INT.c ****                         }
 229:.\Generated_Source\PSoC5/I2C_3_INT.c ****                         else  /* Do normal STOP */
 230:.\Generated_Source\PSoC5/I2C_3_INT.c ****                         {
 231:.\Generated_Source\PSoC5/I2C_3_INT.c ****                             I2C_3_Workaround();          /* Workaround: empty function */
 232:.\Generated_Source\PSoC5/I2C_3_INT.c ****                             I2C_3_ENABLE_INT_ON_STOP;    /* Enable interrupt on STOP, to catch it *
 233:.\Generated_Source\PSoC5/I2C_3_INT.c ****                             I2C_3_GENERATE_STOP;
 234:.\Generated_Source\PSoC5/I2C_3_INT.c ****                         }
 235:.\Generated_Source\PSoC5/I2C_3_INT.c ****                     }
 236:.\Generated_Source\PSoC5/I2C_3_INT.c ****                     /* Last byte NAKed: end writing */
 237:.\Generated_Source\PSoC5/I2C_3_INT.c ****                     else if(I2C_3_CHECK_NO_STOP(I2C_3_mstrControl))
 238:.\Generated_Source\PSoC5/I2C_3_INT.c ****                     {
 239:.\Generated_Source\PSoC5/I2C_3_INT.c ****                         /* Set WRITE complete, SHORT transfer and Master HALTED */
 240:.\Generated_Source\PSoC5/I2C_3_INT.c ****                         I2C_3_mstrStatus |= (I2C_3_MSTAT_ERR_XFER       |
 241:.\Generated_Source\PSoC5/I2C_3_INT.c ****                                                         I2C_3_MSTAT_ERR_SHORT_XFER |
 242:.\Generated_Source\PSoC5/I2C_3_INT.c ****                                                         I2C_3_MSTAT_XFER_HALT      |
 243:.\Generated_Source\PSoC5/I2C_3_INT.c ****                                                         I2C_3_MSTAT_WR_CMPLT);
 244:.\Generated_Source\PSoC5/I2C_3_INT.c **** 
 245:.\Generated_Source\PSoC5/I2C_3_INT.c ****                         I2C_3_state = I2C_3_SM_MSTR_HALT;    /* Expect RESTART */
 246:.\Generated_Source\PSoC5/I2C_3_INT.c ****                         I2C_3_DisableInt();
 247:.\Generated_Source\PSoC5/I2C_3_INT.c ****                     }
 248:.\Generated_Source\PSoC5/I2C_3_INT.c ****                     else  /* Do normal STOP */
 249:.\Generated_Source\PSoC5/I2C_3_INT.c ****                     {
 250:.\Generated_Source\PSoC5/I2C_3_INT.c ****                         I2C_3_ENABLE_INT_ON_STOP;    /* Enable interrupt on STOP, to catch it */
 251:.\Generated_Source\PSoC5/I2C_3_INT.c ****                         I2C_3_GENERATE_STOP;
 252:.\Generated_Source\PSoC5/I2C_3_INT.c **** 
 253:.\Generated_Source\PSoC5/I2C_3_INT.c ****                         /* Set SHORT and ERR transfer */
 254:.\Generated_Source\PSoC5/I2C_3_INT.c ****                         I2C_3_mstrStatus |= (I2C_3_MSTAT_ERR_SHORT_XFER |
 255:.\Generated_Source\PSoC5/I2C_3_INT.c ****                                                         I2C_3_MSTAT_ERR_XFER);
ARM GAS  C:\Users\devdev\AppData\Local\Temp\cc0pyIv3.s 			page 14


 256:.\Generated_Source\PSoC5/I2C_3_INT.c ****                     }
 257:.\Generated_Source\PSoC5/I2C_3_INT.c ****                     
 258:.\Generated_Source\PSoC5/I2C_3_INT.c ****                     break;
 457              		.loc 1 258 0
 458 03f4 10E1     		b	.L10
 459              	.L26:
 220:.\Generated_Source\PSoC5/I2C_3_INT.c ****                         else if(I2C_3_CHECK_NO_STOP(I2C_3_mstrControl))
 460              		.loc 1 220 0
 461 03f6 40F20003 		movw	r3, #:lower16:I2C_3_mstrControl
 462 03fa C0F20003 		movt	r3, #:upper16:I2C_3_mstrControl
 463 03fe 1B78     		ldrb	r3, [r3, #0]
 464 0400 DBB2     		uxtb	r3, r3
 465 0402 03F00203 		and	r3, r3, #2
 466 0406 002B     		cmp	r3, #0
 467 0408 1CD0     		beq	.L28
 223:.\Generated_Source\PSoC5/I2C_3_INT.c ****                             I2C_3_mstrStatus |= (I2C_3_MSTAT_XFER_HALT |
 468              		.loc 1 223 0
 469 040a 40F20003 		movw	r3, #:lower16:I2C_3_mstrStatus
 470 040e C0F20003 		movt	r3, #:upper16:I2C_3_mstrStatus
 471 0412 1B78     		ldrb	r3, [r3, #0]
 472 0414 DBB2     		uxtb	r3, r3
 473 0416 43F00A03 		orr	r3, r3, #10
 474 041a DAB2     		uxtb	r2, r3
 475 041c 40F20003 		movw	r3, #:lower16:I2C_3_mstrStatus
 476 0420 C0F20003 		movt	r3, #:upper16:I2C_3_mstrStatus
 477 0424 1A70     		strb	r2, [r3, #0]
 226:.\Generated_Source\PSoC5/I2C_3_INT.c ****                             I2C_3_state = I2C_3_SM_MSTR_HALT;    /* Expect RESTART */
 478              		.loc 1 226 0
 479 0426 40F20003 		movw	r3, #:lower16:I2C_3_state
 480 042a C0F20003 		movt	r3, #:upper16:I2C_3_state
 481 042e 4FF06002 		mov	r2, #96
 482 0432 1A70     		strb	r2, [r3, #0]
 227:.\Generated_Source\PSoC5/I2C_3_INT.c ****                             I2C_3_DisableInt();
 483              		.loc 1 227 0
 484 0434 4EF28013 		movw	r3, #57728
 485 0438 CEF20003 		movt	r3, 57344
 486 043c 4FF40042 		mov	r2, #32768
 487 0440 1A60     		str	r2, [r3, #0]
 488              		.loc 1 258 0
 489 0442 E9E0     		b	.L10
 490              	.L28:
 231:.\Generated_Source\PSoC5/I2C_3_INT.c ****                             I2C_3_Workaround();          /* Workaround: empty function */
 491              		.loc 1 231 0
 492 0444 FFF7FEFF 		bl	I2C_3_Workaround
 232:.\Generated_Source\PSoC5/I2C_3_INT.c ****                             I2C_3_ENABLE_INT_ON_STOP;    /* Enable interrupt on STOP, to catch it *
 493              		.loc 1 232 0
 494 0448 44F6D613 		movw	r3, #18902
 495 044c C4F20003 		movt	r3, 16384
 496 0450 44F6D612 		movw	r2, #18902
 497 0454 C4F20002 		movt	r2, 16384
 498 0458 1278     		ldrb	r2, [r2, #0]
 499 045a D2B2     		uxtb	r2, r2
 500 045c 42F01002 		orr	r2, r2, #16
 501 0460 D2B2     		uxtb	r2, r2
 502 0462 1A70     		strb	r2, [r3, #0]
 233:.\Generated_Source\PSoC5/I2C_3_INT.c ****                             I2C_3_GENERATE_STOP;
 503              		.loc 1 233 0
ARM GAS  C:\Users\devdev\AppData\Local\Temp\cc0pyIv3.s 			page 15


 504 0464 44F6D913 		movw	r3, #18905
 505 0468 C4F20003 		movt	r3, 16384
 506 046c 4FF01002 		mov	r2, #16
 507 0470 1A70     		strb	r2, [r3, #0]
 508 0472 44F6D713 		movw	r3, #18903
 509 0476 C4F20003 		movt	r3, 16384
 510 047a 4FF00402 		mov	r2, #4
 511 047e 1A70     		strb	r2, [r3, #0]
 512              		.loc 1 258 0
 513 0480 CAE0     		b	.L10
 514              	.L25:
 237:.\Generated_Source\PSoC5/I2C_3_INT.c ****                     else if(I2C_3_CHECK_NO_STOP(I2C_3_mstrControl))
 515              		.loc 1 237 0
 516 0482 40F20003 		movw	r3, #:lower16:I2C_3_mstrControl
 517 0486 C0F20003 		movt	r3, #:upper16:I2C_3_mstrControl
 518 048a 1B78     		ldrb	r3, [r3, #0]
 519 048c DBB2     		uxtb	r3, r3
 520 048e 03F00203 		and	r3, r3, #2
 521 0492 002B     		cmp	r3, #0
 522 0494 1CD0     		beq	.L29
 240:.\Generated_Source\PSoC5/I2C_3_INT.c ****                         I2C_3_mstrStatus |= (I2C_3_MSTAT_ERR_XFER       |
 523              		.loc 1 240 0
 524 0496 40F20003 		movw	r3, #:lower16:I2C_3_mstrStatus
 525 049a C0F20003 		movt	r3, #:upper16:I2C_3_mstrStatus
 526 049e 1B78     		ldrb	r3, [r3, #0]
 527 04a0 DBB2     		uxtb	r3, r3
 528 04a2 63F06503 		orn	r3, r3, #101
 529 04a6 DAB2     		uxtb	r2, r3
 530 04a8 40F20003 		movw	r3, #:lower16:I2C_3_mstrStatus
 531 04ac C0F20003 		movt	r3, #:upper16:I2C_3_mstrStatus
 532 04b0 1A70     		strb	r2, [r3, #0]
 245:.\Generated_Source\PSoC5/I2C_3_INT.c ****                         I2C_3_state = I2C_3_SM_MSTR_HALT;    /* Expect RESTART */
 533              		.loc 1 245 0
 534 04b2 40F20003 		movw	r3, #:lower16:I2C_3_state
 535 04b6 C0F20003 		movt	r3, #:upper16:I2C_3_state
 536 04ba 4FF06002 		mov	r2, #96
 537 04be 1A70     		strb	r2, [r3, #0]
 246:.\Generated_Source\PSoC5/I2C_3_INT.c ****                         I2C_3_DisableInt();
 538              		.loc 1 246 0
 539 04c0 4EF28013 		movw	r3, #57728
 540 04c4 CEF20003 		movt	r3, 57344
 541 04c8 4FF40042 		mov	r2, #32768
 542 04cc 1A60     		str	r2, [r3, #0]
 543              		.loc 1 258 0
 544 04ce A3E0     		b	.L10
 545              	.L29:
 250:.\Generated_Source\PSoC5/I2C_3_INT.c ****                         I2C_3_ENABLE_INT_ON_STOP;    /* Enable interrupt on STOP, to catch it */
 546              		.loc 1 250 0
 547 04d0 44F6D613 		movw	r3, #18902
 548 04d4 C4F20003 		movt	r3, 16384
 549 04d8 44F6D612 		movw	r2, #18902
 550 04dc C4F20002 		movt	r2, 16384
 551 04e0 1278     		ldrb	r2, [r2, #0]
 552 04e2 D2B2     		uxtb	r2, r2
 553 04e4 42F01002 		orr	r2, r2, #16
 554 04e8 D2B2     		uxtb	r2, r2
 555 04ea 1A70     		strb	r2, [r3, #0]
ARM GAS  C:\Users\devdev\AppData\Local\Temp\cc0pyIv3.s 			page 16


 251:.\Generated_Source\PSoC5/I2C_3_INT.c ****                         I2C_3_GENERATE_STOP;
 556              		.loc 1 251 0
 557 04ec 44F6D913 		movw	r3, #18905
 558 04f0 C4F20003 		movt	r3, 16384
 559 04f4 4FF01002 		mov	r2, #16
 560 04f8 1A70     		strb	r2, [r3, #0]
 561 04fa 44F6D713 		movw	r3, #18903
 562 04fe C4F20003 		movt	r3, 16384
 563 0502 4FF00402 		mov	r2, #4
 564 0506 1A70     		strb	r2, [r3, #0]
 254:.\Generated_Source\PSoC5/I2C_3_INT.c ****                         I2C_3_mstrStatus |= (I2C_3_MSTAT_ERR_SHORT_XFER |
 565              		.loc 1 254 0
 566 0508 40F20003 		movw	r3, #:lower16:I2C_3_mstrStatus
 567 050c C0F20003 		movt	r3, #:upper16:I2C_3_mstrStatus
 568 0510 1B78     		ldrb	r3, [r3, #0]
 569 0512 DBB2     		uxtb	r3, r3
 570 0514 63F06F03 		orn	r3, r3, #111
 571 0518 DAB2     		uxtb	r2, r3
 572 051a 40F20003 		movw	r3, #:lower16:I2C_3_mstrStatus
 573 051e C0F20003 		movt	r3, #:upper16:I2C_3_mstrStatus
 574 0522 1A70     		strb	r2, [r3, #0]
 575              		.loc 1 258 0
 576 0524 78E0     		b	.L10
 577              	.L14:
 259:.\Generated_Source\PSoC5/I2C_3_INT.c **** 
 260:.\Generated_Source\PSoC5/I2C_3_INT.c ****                 case I2C_3_SM_MSTR_RD_DATA:
 261:.\Generated_Source\PSoC5/I2C_3_INT.c **** 
 262:.\Generated_Source\PSoC5/I2C_3_INT.c ****                     I2C_3_mstrRdBufPtr[I2C_3_mstrRdBufIndex] = I2C_3_DATA_REG;
 578              		.loc 1 262 0
 579 0526 40F20003 		movw	r3, #:lower16:I2C_3_mstrRdBufPtr
 580 052a C0F20003 		movt	r3, #:upper16:I2C_3_mstrRdBufPtr
 581 052e 1A68     		ldr	r2, [r3, #0]
 582 0530 40F20003 		movw	r3, #:lower16:I2C_3_mstrRdBufIndex
 583 0534 C0F20003 		movt	r3, #:upper16:I2C_3_mstrRdBufIndex
 584 0538 1B78     		ldrb	r3, [r3, #0]
 585 053a DBB2     		uxtb	r3, r3
 586 053c D218     		adds	r2, r2, r3
 587 053e 44F6D813 		movw	r3, #18904
 588 0542 C4F20003 		movt	r3, 16384
 589 0546 1B78     		ldrb	r3, [r3, #0]
 590 0548 DBB2     		uxtb	r3, r3
 591 054a 1370     		strb	r3, [r2, #0]
 263:.\Generated_Source\PSoC5/I2C_3_INT.c ****                     I2C_3_mstrRdBufIndex++;
 592              		.loc 1 263 0
 593 054c 40F20003 		movw	r3, #:lower16:I2C_3_mstrRdBufIndex
 594 0550 C0F20003 		movt	r3, #:upper16:I2C_3_mstrRdBufIndex
 595 0554 1B78     		ldrb	r3, [r3, #0]
 596 0556 DBB2     		uxtb	r3, r3
 597 0558 03F10103 		add	r3, r3, #1
 598 055c DAB2     		uxtb	r2, r3
 599 055e 40F20003 		movw	r3, #:lower16:I2C_3_mstrRdBufIndex
 600 0562 C0F20003 		movt	r3, #:upper16:I2C_3_mstrRdBufIndex
 601 0566 1A70     		strb	r2, [r3, #0]
 264:.\Generated_Source\PSoC5/I2C_3_INT.c **** 
 265:.\Generated_Source\PSoC5/I2C_3_INT.c ****                     /* Check if end of buffer */
 266:.\Generated_Source\PSoC5/I2C_3_INT.c ****                     if(I2C_3_mstrRdBufIndex < I2C_3_mstrRdBufSize)
 602              		.loc 1 266 0
ARM GAS  C:\Users\devdev\AppData\Local\Temp\cc0pyIv3.s 			page 17


 603 0568 40F20003 		movw	r3, #:lower16:I2C_3_mstrRdBufIndex
 604 056c C0F20003 		movt	r3, #:upper16:I2C_3_mstrRdBufIndex
 605 0570 1B78     		ldrb	r3, [r3, #0]
 606 0572 DAB2     		uxtb	r2, r3
 607 0574 40F20003 		movw	r3, #:lower16:I2C_3_mstrRdBufSize
 608 0578 C0F20003 		movt	r3, #:upper16:I2C_3_mstrRdBufSize
 609 057c 1B78     		ldrb	r3, [r3, #0]
 610 057e DBB2     		uxtb	r3, r3
 611 0580 9A42     		cmp	r2, r3
 612 0582 07D2     		bcs	.L30
 267:.\Generated_Source\PSoC5/I2C_3_INT.c ****                     {
 268:.\Generated_Source\PSoC5/I2C_3_INT.c ****                         I2C_3_ACK_AND_RECEIVE;       /* ACK and receive byte */
 613              		.loc 1 268 0
 614 0584 44F6D713 		movw	r3, #18903
 615 0588 C4F20003 		movt	r3, 16384
 616 058c 4FF01002 		mov	r2, #16
 617 0590 1A70     		strb	r2, [r3, #0]
 269:.\Generated_Source\PSoC5/I2C_3_INT.c ****                     }
 270:.\Generated_Source\PSoC5/I2C_3_INT.c ****                     /* End of buffer: complete reading */
 271:.\Generated_Source\PSoC5/I2C_3_INT.c ****                     else if(I2C_3_CHECK_NO_STOP(I2C_3_mstrControl))
 272:.\Generated_Source\PSoC5/I2C_3_INT.c ****                     {                        
 273:.\Generated_Source\PSoC5/I2C_3_INT.c ****                         /* Set READ complete and Master HALTED */
 274:.\Generated_Source\PSoC5/I2C_3_INT.c ****                         I2C_3_mstrStatus |= (I2C_3_MSTAT_XFER_HALT |
 275:.\Generated_Source\PSoC5/I2C_3_INT.c ****                                                         I2C_3_MSTAT_RD_CMPLT);
 276:.\Generated_Source\PSoC5/I2C_3_INT.c ****                         
 277:.\Generated_Source\PSoC5/I2C_3_INT.c ****                         I2C_3_state = I2C_3_SM_MSTR_HALT;    /* Expect RESTART */
 278:.\Generated_Source\PSoC5/I2C_3_INT.c ****                         I2C_3_DisableInt();
 279:.\Generated_Source\PSoC5/I2C_3_INT.c ****                     }
 280:.\Generated_Source\PSoC5/I2C_3_INT.c ****                     else
 281:.\Generated_Source\PSoC5/I2C_3_INT.c ****                     {
 282:.\Generated_Source\PSoC5/I2C_3_INT.c ****                         I2C_3_ENABLE_INT_ON_STOP;
 283:.\Generated_Source\PSoC5/I2C_3_INT.c ****                         I2C_3_NAK_AND_RECEIVE;       /* NACK and TRY to generate STOP */
 284:.\Generated_Source\PSoC5/I2C_3_INT.c ****                     }
 285:.\Generated_Source\PSoC5/I2C_3_INT.c ****                     break;
 618              		.loc 1 285 0
 619 0592 41E0     		b	.L10
 620              	.L30:
 271:.\Generated_Source\PSoC5/I2C_3_INT.c ****                     else if(I2C_3_CHECK_NO_STOP(I2C_3_mstrControl))
 621              		.loc 1 271 0
 622 0594 40F20003 		movw	r3, #:lower16:I2C_3_mstrControl
 623 0598 C0F20003 		movt	r3, #:upper16:I2C_3_mstrControl
 624 059c 1B78     		ldrb	r3, [r3, #0]
 625 059e DBB2     		uxtb	r3, r3
 626 05a0 03F00203 		and	r3, r3, #2
 627 05a4 002B     		cmp	r3, #0
 628 05a6 1CD0     		beq	.L32
 274:.\Generated_Source\PSoC5/I2C_3_INT.c ****                         I2C_3_mstrStatus |= (I2C_3_MSTAT_XFER_HALT |
 629              		.loc 1 274 0
 630 05a8 40F20003 		movw	r3, #:lower16:I2C_3_mstrStatus
 631 05ac C0F20003 		movt	r3, #:upper16:I2C_3_mstrStatus
 632 05b0 1B78     		ldrb	r3, [r3, #0]
 633 05b2 DBB2     		uxtb	r3, r3
 634 05b4 43F00903 		orr	r3, r3, #9
 635 05b8 DAB2     		uxtb	r2, r3
 636 05ba 40F20003 		movw	r3, #:lower16:I2C_3_mstrStatus
 637 05be C0F20003 		movt	r3, #:upper16:I2C_3_mstrStatus
 638 05c2 1A70     		strb	r2, [r3, #0]
ARM GAS  C:\Users\devdev\AppData\Local\Temp\cc0pyIv3.s 			page 18


 277:.\Generated_Source\PSoC5/I2C_3_INT.c ****                         I2C_3_state = I2C_3_SM_MSTR_HALT;    /* Expect RESTART */
 639              		.loc 1 277 0
 640 05c4 40F20003 		movw	r3, #:lower16:I2C_3_state
 641 05c8 C0F20003 		movt	r3, #:upper16:I2C_3_state
 642 05cc 4FF06002 		mov	r2, #96
 643 05d0 1A70     		strb	r2, [r3, #0]
 278:.\Generated_Source\PSoC5/I2C_3_INT.c ****                         I2C_3_DisableInt();
 644              		.loc 1 278 0
 645 05d2 4EF28013 		movw	r3, #57728
 646 05d6 CEF20003 		movt	r3, 57344
 647 05da 4FF40042 		mov	r2, #32768
 648 05de 1A60     		str	r2, [r3, #0]
 649              		.loc 1 285 0
 650 05e0 1AE0     		b	.L10
 651              	.L32:
 282:.\Generated_Source\PSoC5/I2C_3_INT.c ****                         I2C_3_ENABLE_INT_ON_STOP;
 652              		.loc 1 282 0
 653 05e2 44F6D613 		movw	r3, #18902
 654 05e6 C4F20003 		movt	r3, 16384
 655 05ea 44F6D612 		movw	r2, #18902
 656 05ee C4F20002 		movt	r2, 16384
 657 05f2 1278     		ldrb	r2, [r2, #0]
 658 05f4 D2B2     		uxtb	r2, r2
 659 05f6 42F01002 		orr	r2, r2, #16
 660 05fa D2B2     		uxtb	r2, r2
 661 05fc 1A70     		strb	r2, [r3, #0]
 283:.\Generated_Source\PSoC5/I2C_3_INT.c ****                         I2C_3_NAK_AND_RECEIVE;       /* NACK and TRY to generate STOP */
 662              		.loc 1 283 0
 663 05fe 44F6D713 		movw	r3, #18903
 664 0602 C4F20003 		movt	r3, 16384
 665 0606 4FF00002 		mov	r2, #0
 666 060a 1A70     		strb	r2, [r3, #0]
 667              		.loc 1 285 0
 668 060c 04E0     		b	.L10
 669              	.L11:
 286:.\Generated_Source\PSoC5/I2C_3_INT.c **** 
 287:.\Generated_Source\PSoC5/I2C_3_INT.c ****                 default: /* This is an invalid state and should not occur */
 288:.\Generated_Source\PSoC5/I2C_3_INT.c **** 
 289:.\Generated_Source\PSoC5/I2C_3_INT.c ****                     #if(I2C_3_TIMEOUT_ENABLED)
 290:.\Generated_Source\PSoC5/I2C_3_INT.c ****                         /* Exit from interrupt to take a chance for timeout timer handle this case 
 291:.\Generated_Source\PSoC5/I2C_3_INT.c ****                         I2C_3_DisableInt();
 292:.\Generated_Source\PSoC5/I2C_3_INT.c ****                         I2C_3_ClearPendingInt();
 293:.\Generated_Source\PSoC5/I2C_3_INT.c ****                     #else
 294:.\Generated_Source\PSoC5/I2C_3_INT.c ****                         /* Block execution flow: unexpected condition */
 295:.\Generated_Source\PSoC5/I2C_3_INT.c ****                         CYASSERT(0u != 0u);
 670              		.loc 1 295 0 discriminator 1
 671 060e 4FF00000 		mov	r0, #0
 672 0612 FFF7FEFF 		bl	CyHalt
 296:.\Generated_Source\PSoC5/I2C_3_INT.c ****                     #endif /* (I2C_3_TIMEOUT_ENABLED) */
 297:.\Generated_Source\PSoC5/I2C_3_INT.c **** 
 298:.\Generated_Source\PSoC5/I2C_3_INT.c ****                     break;
 673              		.loc 1 298 0
 674 0616 00BF     		nop
 675              	.L10:
 299:.\Generated_Source\PSoC5/I2C_3_INT.c ****                 }
 300:.\Generated_Source\PSoC5/I2C_3_INT.c ****             }
 301:.\Generated_Source\PSoC5/I2C_3_INT.c **** 
ARM GAS  C:\Users\devdev\AppData\Local\Temp\cc0pyIv3.s 			page 19


 302:.\Generated_Source\PSoC5/I2C_3_INT.c ****             /* Catches the Stop: end of transaction */
 303:.\Generated_Source\PSoC5/I2C_3_INT.c ****             if(I2C_3_CHECK_STOP_STS(tmpCsr))
 676              		.loc 1 303 0
 677 0618 FB79     		ldrb	r3, [r7, #7]	@ zero_extendqisi2
 678 061a 03F02003 		and	r3, r3, #32
 679 061e 002B     		cmp	r3, #0
 680 0620 00F02682 		beq	.L1
 304:.\Generated_Source\PSoC5/I2C_3_INT.c ****             {
 305:.\Generated_Source\PSoC5/I2C_3_INT.c ****                 I2C_3_mstrStatus |= I2C_3_GET_MSTAT_CMPLT;
 681              		.loc 1 305 0
 682 0624 40F20003 		movw	r3, #:lower16:I2C_3_state
 683 0628 C0F20003 		movt	r3, #:upper16:I2C_3_state
 684 062c 1B78     		ldrb	r3, [r3, #0]
 685 062e DBB2     		uxtb	r3, r3
 686 0630 03F00803 		and	r3, r3, #8
 687 0634 002B     		cmp	r3, #0
 688 0636 02D0     		beq	.L34
 689              		.loc 1 305 0 is_stmt 0 discriminator 1
 690 0638 4FF00102 		mov	r2, #1
 691 063c 01E0     		b	.L35
 692              	.L34:
 693              		.loc 1 305 0 discriminator 2
 694 063e 4FF00202 		mov	r2, #2
 695              	.L35:
 696              		.loc 1 305 0 discriminator 3
 697 0642 40F20003 		movw	r3, #:lower16:I2C_3_mstrStatus
 698 0646 C0F20003 		movt	r3, #:upper16:I2C_3_mstrStatus
 699 064a 1B78     		ldrb	r3, [r3, #0]
 700 064c DBB2     		uxtb	r3, r3
 701 064e 1343     		orrs	r3, r3, r2
 702 0650 DAB2     		uxtb	r2, r3
 703 0652 40F20003 		movw	r3, #:lower16:I2C_3_mstrStatus
 704 0656 C0F20003 		movt	r3, #:upper16:I2C_3_mstrStatus
 705 065a 1A70     		strb	r2, [r3, #0]
 306:.\Generated_Source\PSoC5/I2C_3_INT.c **** 
 307:.\Generated_Source\PSoC5/I2C_3_INT.c ****                 I2C_3_DISABLE_INT_ON_STOP;
 706              		.loc 1 307 0 is_stmt 1 discriminator 3
 707 065c 44F6D613 		movw	r3, #18902
 708 0660 C4F20003 		movt	r3, 16384
 709 0664 44F6D612 		movw	r2, #18902
 710 0668 C4F20002 		movt	r2, 16384
 711 066c 1278     		ldrb	r2, [r2, #0]
 712 066e D2B2     		uxtb	r2, r2
 713 0670 22F01002 		bic	r2, r2, #16
 714 0674 D2B2     		uxtb	r2, r2
 715 0676 1A70     		strb	r2, [r3, #0]
 308:.\Generated_Source\PSoC5/I2C_3_INT.c ****                 I2C_3_state = I2C_3_SM_IDLE;
 716              		.loc 1 308 0 discriminator 3
 717 0678 40F20003 		movw	r3, #:lower16:I2C_3_state
 718 067c C0F20003 		movt	r3, #:upper16:I2C_3_state
 719 0680 4FF01002 		mov	r2, #16
 720 0684 1A70     		strb	r2, [r3, #0]
 721 0686 F3E1     		b	.L1
 722              	.L9:
 309:.\Generated_Source\PSoC5/I2C_3_INT.c ****             }
 310:.\Generated_Source\PSoC5/I2C_3_INT.c ****         #endif /* (I2C_3_MODE_MASTER_ENABLED) */
 311:.\Generated_Source\PSoC5/I2C_3_INT.c ****     }
ARM GAS  C:\Users\devdev\AppData\Local\Temp\cc0pyIv3.s 			page 20


 312:.\Generated_Source\PSoC5/I2C_3_INT.c ****     else if(I2C_3_CHECK_SM_SLAVE)
 723              		.loc 1 312 0
 724 0688 40F20003 		movw	r3, #:lower16:I2C_3_state
 725 068c C0F20003 		movt	r3, #:upper16:I2C_3_state
 726 0690 1B78     		ldrb	r3, [r3, #0]
 727 0692 DBB2     		uxtb	r3, r3
 728 0694 03F01003 		and	r3, r3, #16
 729 0698 DBB2     		uxtb	r3, r3
 730 069a 002B     		cmp	r3, #0
 731 069c 00F0E181 		beq	.L36
 313:.\Generated_Source\PSoC5/I2C_3_INT.c ****     {
 314:.\Generated_Source\PSoC5/I2C_3_INT.c ****         #if(I2C_3_MODE_SLAVE_ENABLED)
 315:.\Generated_Source\PSoC5/I2C_3_INT.c ****             
 316:.\Generated_Source\PSoC5/I2C_3_INT.c ****             if((I2C_3_CHECK_STOP_STS(tmpCsr)) || /* Stop || Restart */
 732              		.loc 1 316 0
 733 06a0 FB79     		ldrb	r3, [r7, #7]	@ zero_extendqisi2
 734 06a2 03F02003 		and	r3, r3, #32
 735 06a6 002B     		cmp	r3, #0
 736 06a8 09D1     		bne	.L37
 317:.\Generated_Source\PSoC5/I2C_3_INT.c ****                (I2C_3_CHECK_BYTE_COMPLETE(tmpCsr) && I2C_3_CHECK_ADDRESS_STS(tmpCsr)))
 737              		.loc 1 317 0 discriminator 1
 738 06aa FB79     		ldrb	r3, [r7, #7]	@ zero_extendqisi2
 739 06ac 03F00103 		and	r3, r3, #1
 316:.\Generated_Source\PSoC5/I2C_3_INT.c ****             if((I2C_3_CHECK_STOP_STS(tmpCsr)) || /* Stop || Restart */
 740              		.loc 1 316 0 discriminator 1
 741 06b0 002B     		cmp	r3, #0
 742 06b2 3DD0     		beq	.L38
 743              		.loc 1 317 0
 744 06b4 FB79     		ldrb	r3, [r7, #7]	@ zero_extendqisi2
 745 06b6 03F00803 		and	r3, r3, #8
 746 06ba 002B     		cmp	r3, #0
 747 06bc 38D0     		beq	.L38
 748              	.L37:
 318:.\Generated_Source\PSoC5/I2C_3_INT.c ****             {
 319:.\Generated_Source\PSoC5/I2C_3_INT.c ****                 /* Catch end of master write transcation: use interrupt on Stop */
 320:.\Generated_Source\PSoC5/I2C_3_INT.c ****                 /* The STOP bit history on address phase does not have correct state */
 321:.\Generated_Source\PSoC5/I2C_3_INT.c ****                 if(I2C_3_SM_SL_WR_DATA == I2C_3_state)
 749              		.loc 1 321 0
 750 06be 40F20003 		movw	r3, #:lower16:I2C_3_state
 751 06c2 C0F20003 		movt	r3, #:upper16:I2C_3_state
 752 06c6 1B78     		ldrb	r3, [r3, #0]
 753 06c8 DBB2     		uxtb	r3, r3
 754 06ca 112B     		cmp	r3, #17
 755 06cc 30D1     		bne	.L38
 322:.\Generated_Source\PSoC5/I2C_3_INT.c ****                 {
 323:.\Generated_Source\PSoC5/I2C_3_INT.c ****                     I2C_3_DISABLE_INT_ON_STOP;
 756              		.loc 1 323 0
 757 06ce 44F6D613 		movw	r3, #18902
 758 06d2 C4F20003 		movt	r3, 16384
 759 06d6 44F6D612 		movw	r2, #18902
 760 06da C4F20002 		movt	r2, 16384
 761 06de 1278     		ldrb	r2, [r2, #0]
 762 06e0 D2B2     		uxtb	r2, r2
 763 06e2 22F01002 		bic	r2, r2, #16
 764 06e6 D2B2     		uxtb	r2, r2
 765 06e8 1A70     		strb	r2, [r3, #0]
 324:.\Generated_Source\PSoC5/I2C_3_INT.c **** 
ARM GAS  C:\Users\devdev\AppData\Local\Temp\cc0pyIv3.s 			page 21


 325:.\Generated_Source\PSoC5/I2C_3_INT.c ****                     I2C_3_slStatus &= ((uint8) ~I2C_3_SSTAT_WR_BUSY);
 766              		.loc 1 325 0
 767 06ea 40F20003 		movw	r3, #:lower16:I2C_3_slStatus
 768 06ee C0F20003 		movt	r3, #:upper16:I2C_3_slStatus
 769 06f2 1B78     		ldrb	r3, [r3, #0]
 770 06f4 DBB2     		uxtb	r3, r3
 771 06f6 23F02003 		bic	r3, r3, #32
 772 06fa DAB2     		uxtb	r2, r3
 773 06fc 40F20003 		movw	r3, #:lower16:I2C_3_slStatus
 774 0700 C0F20003 		movt	r3, #:upper16:I2C_3_slStatus
 775 0704 1A70     		strb	r2, [r3, #0]
 326:.\Generated_Source\PSoC5/I2C_3_INT.c ****                     I2C_3_slStatus |= ((uint8)  I2C_3_SSTAT_WR_CMPLT);
 776              		.loc 1 326 0
 777 0706 40F20003 		movw	r3, #:lower16:I2C_3_slStatus
 778 070a C0F20003 		movt	r3, #:upper16:I2C_3_slStatus
 779 070e 1B78     		ldrb	r3, [r3, #0]
 780 0710 DBB2     		uxtb	r3, r3
 781 0712 43F01003 		orr	r3, r3, #16
 782 0716 DAB2     		uxtb	r2, r3
 783 0718 40F20003 		movw	r3, #:lower16:I2C_3_slStatus
 784 071c C0F20003 		movt	r3, #:upper16:I2C_3_slStatus
 785 0720 1A70     		strb	r2, [r3, #0]
 327:.\Generated_Source\PSoC5/I2C_3_INT.c **** 
 328:.\Generated_Source\PSoC5/I2C_3_INT.c ****                     I2C_3_state = I2C_3_SM_IDLE;
 786              		.loc 1 328 0
 787 0722 40F20003 		movw	r3, #:lower16:I2C_3_state
 788 0726 C0F20003 		movt	r3, #:upper16:I2C_3_state
 789 072a 4FF01002 		mov	r2, #16
 790 072e 1A70     		strb	r2, [r3, #0]
 791              	.L38:
 329:.\Generated_Source\PSoC5/I2C_3_INT.c ****                 }
 330:.\Generated_Source\PSoC5/I2C_3_INT.c ****             }
 331:.\Generated_Source\PSoC5/I2C_3_INT.c **** 
 332:.\Generated_Source\PSoC5/I2C_3_INT.c ****             if(I2C_3_CHECK_BYTE_COMPLETE(tmpCsr))
 792              		.loc 1 332 0
 793 0730 FB79     		ldrb	r3, [r7, #7]	@ zero_extendqisi2
 794 0732 03F00103 		and	r3, r3, #1
 795 0736 002B     		cmp	r3, #0
 796 0738 00F09A81 		beq	.L1
 333:.\Generated_Source\PSoC5/I2C_3_INT.c ****             {
 334:.\Generated_Source\PSoC5/I2C_3_INT.c ****                 /* The address only issued after Start or ReStart: so check address
 335:.\Generated_Source\PSoC5/I2C_3_INT.c ****                    to catch this events:
 336:.\Generated_Source\PSoC5/I2C_3_INT.c ****                     FF : sets Addr phase with byte_complete interrupt trigger.
 337:.\Generated_Source\PSoC5/I2C_3_INT.c ****                     UDB: sets Addr phase immediately after Start or ReStart. */
 338:.\Generated_Source\PSoC5/I2C_3_INT.c ****                 if(I2C_3_CHECK_ADDRESS_STS(tmpCsr))
 797              		.loc 1 338 0
 798 073c FB79     		ldrb	r3, [r7, #7]	@ zero_extendqisi2
 799 073e 03F00803 		and	r3, r3, #8
 800 0742 002B     		cmp	r3, #0
 801 0744 00F09E80 		beq	.L39
 339:.\Generated_Source\PSoC5/I2C_3_INT.c ****                 {
 340:.\Generated_Source\PSoC5/I2C_3_INT.c ****                     /* Check for software address detection */
 341:.\Generated_Source\PSoC5/I2C_3_INT.c ****                     #if(I2C_3_SW_ADRR_DECODE)
 342:.\Generated_Source\PSoC5/I2C_3_INT.c ****                         tmp8 = I2C_3_GET_SLAVE_ADDR(I2C_3_DATA_REG);
 343:.\Generated_Source\PSoC5/I2C_3_INT.c **** 
 344:.\Generated_Source\PSoC5/I2C_3_INT.c ****                         if(tmp8 == I2C_3_slAddress)   /* Check for address match */
 345:.\Generated_Source\PSoC5/I2C_3_INT.c ****                         {
ARM GAS  C:\Users\devdev\AppData\Local\Temp\cc0pyIv3.s 			page 22


 346:.\Generated_Source\PSoC5/I2C_3_INT.c ****                             if(0u != (I2C_3_DATA_REG & I2C_3_READ_FLAG))
 347:.\Generated_Source\PSoC5/I2C_3_INT.c ****                             {
 348:.\Generated_Source\PSoC5/I2C_3_INT.c ****                                 /* Place code to prepare read buffer here                  */
 349:.\Generated_Source\PSoC5/I2C_3_INT.c ****                                 /* `#START I2C_3_SW_PREPARE_READ_BUF_interrupt` */
 350:.\Generated_Source\PSoC5/I2C_3_INT.c **** 
 351:.\Generated_Source\PSoC5/I2C_3_INT.c ****                                 /* `#END` */
 352:.\Generated_Source\PSoC5/I2C_3_INT.c **** 
 353:.\Generated_Source\PSoC5/I2C_3_INT.c ****                                 /* Prepare next opeation to read, get data and place in data regist
 354:.\Generated_Source\PSoC5/I2C_3_INT.c ****                                 if(I2C_3_slRdBufIndex < I2C_3_slRdBufSize)
 355:.\Generated_Source\PSoC5/I2C_3_INT.c ****                                 {
 356:.\Generated_Source\PSoC5/I2C_3_INT.c ****                                     /* Load first data byte from array */
 357:.\Generated_Source\PSoC5/I2C_3_INT.c ****                                     I2C_3_DATA_REG = I2C_3_slRdBufPtr[I2C_3_slRdBufIndex];
 358:.\Generated_Source\PSoC5/I2C_3_INT.c ****                                     I2C_3_ACK_AND_TRANSMIT;
 359:.\Generated_Source\PSoC5/I2C_3_INT.c ****                                     I2C_3_slRdBufIndex++;
 360:.\Generated_Source\PSoC5/I2C_3_INT.c **** 
 361:.\Generated_Source\PSoC5/I2C_3_INT.c ****                                     I2C_3_slStatus |= I2C_3_SSTAT_RD_BUSY;
 362:.\Generated_Source\PSoC5/I2C_3_INT.c ****                                 }
 363:.\Generated_Source\PSoC5/I2C_3_INT.c ****                                 else    /* Overflow: provide 0xFF on the bus */
 364:.\Generated_Source\PSoC5/I2C_3_INT.c ****                                 {
 365:.\Generated_Source\PSoC5/I2C_3_INT.c ****                                     I2C_3_DATA_REG = I2C_3_OVERFLOW_RETURN;
 366:.\Generated_Source\PSoC5/I2C_3_INT.c ****                                     I2C_3_ACK_AND_TRANSMIT;
 367:.\Generated_Source\PSoC5/I2C_3_INT.c **** 
 368:.\Generated_Source\PSoC5/I2C_3_INT.c ****                                     I2C_3_slStatus  |= (I2C_3_SSTAT_RD_BUSY |
 369:.\Generated_Source\PSoC5/I2C_3_INT.c ****                                                                    I2C_3_SSTAT_RD_ERR_OVFL);
 370:.\Generated_Source\PSoC5/I2C_3_INT.c ****                                 }
 371:.\Generated_Source\PSoC5/I2C_3_INT.c **** 
 372:.\Generated_Source\PSoC5/I2C_3_INT.c ****                                 I2C_3_state = I2C_3_SM_SL_RD_DATA;
 373:.\Generated_Source\PSoC5/I2C_3_INT.c ****                             }
 374:.\Generated_Source\PSoC5/I2C_3_INT.c ****                             else  /* Write transaction: receive 1st byte */
 375:.\Generated_Source\PSoC5/I2C_3_INT.c ****                             {
 376:.\Generated_Source\PSoC5/I2C_3_INT.c ****                                 I2C_3_ACK_AND_RECEIVE;
 377:.\Generated_Source\PSoC5/I2C_3_INT.c ****                                 I2C_3_state = I2C_3_SM_SL_WR_DATA;
 378:.\Generated_Source\PSoC5/I2C_3_INT.c **** 
 379:.\Generated_Source\PSoC5/I2C_3_INT.c ****                                 I2C_3_slStatus |= I2C_3_SSTAT_WR_BUSY;
 380:.\Generated_Source\PSoC5/I2C_3_INT.c ****                                 I2C_3_ENABLE_INT_ON_STOP;
 381:.\Generated_Source\PSoC5/I2C_3_INT.c ****                             }
 382:.\Generated_Source\PSoC5/I2C_3_INT.c ****                         }    
 383:.\Generated_Source\PSoC5/I2C_3_INT.c ****                         else
 384:.\Generated_Source\PSoC5/I2C_3_INT.c ****                         {
 385:.\Generated_Source\PSoC5/I2C_3_INT.c ****                             /*     Place code to compare for additional address here    */
 386:.\Generated_Source\PSoC5/I2C_3_INT.c ****                             /* `#START I2C_3_SW_ADDR_COMPARE_interruptStart` */
 387:.\Generated_Source\PSoC5/I2C_3_INT.c **** 
 388:.\Generated_Source\PSoC5/I2C_3_INT.c ****                             /* `#END` */
 389:.\Generated_Source\PSoC5/I2C_3_INT.c ****                             
 390:.\Generated_Source\PSoC5/I2C_3_INT.c ****                             I2C_3_NAK_AND_RECEIVE;   /* NACK address */
 391:.\Generated_Source\PSoC5/I2C_3_INT.c **** 
 392:.\Generated_Source\PSoC5/I2C_3_INT.c ****                             /* Place code to end of condition for NACK generation here */
 393:.\Generated_Source\PSoC5/I2C_3_INT.c ****                             /* `#START I2C_3_SW_ADDR_COMPARE_interruptEnd`  */
 394:.\Generated_Source\PSoC5/I2C_3_INT.c **** 
 395:.\Generated_Source\PSoC5/I2C_3_INT.c ****                             /* `#END` */
 396:.\Generated_Source\PSoC5/I2C_3_INT.c ****                         }
 397:.\Generated_Source\PSoC5/I2C_3_INT.c ****                         
 398:.\Generated_Source\PSoC5/I2C_3_INT.c ****                     #else /* (I2C_3_HW_ADRR_DECODE) */
 399:.\Generated_Source\PSoC5/I2C_3_INT.c ****                         
 400:.\Generated_Source\PSoC5/I2C_3_INT.c ****                         if(0u != (I2C_3_DATA_REG & I2C_3_READ_FLAG))
 802              		.loc 1 400 0
 803 0748 44F6D813 		movw	r3, #18904
ARM GAS  C:\Users\devdev\AppData\Local\Temp\cc0pyIv3.s 			page 23


 804 074c C4F20003 		movt	r3, 16384
 805 0750 1B78     		ldrb	r3, [r3, #0]
 806 0752 DBB2     		uxtb	r3, r3
 807 0754 03F00103 		and	r3, r3, #1
 808 0758 002B     		cmp	r3, #0
 809 075a 68D0     		beq	.L40
 401:.\Generated_Source\PSoC5/I2C_3_INT.c ****                         {
 402:.\Generated_Source\PSoC5/I2C_3_INT.c ****                             /* Place code to prepare read buffer here                  */
 403:.\Generated_Source\PSoC5/I2C_3_INT.c ****                             /* `#START I2C_3_HW_PREPARE_READ_BUF_interrupt` */
 404:.\Generated_Source\PSoC5/I2C_3_INT.c **** 
 405:.\Generated_Source\PSoC5/I2C_3_INT.c ****                             /* `#END` */
 406:.\Generated_Source\PSoC5/I2C_3_INT.c **** 
 407:.\Generated_Source\PSoC5/I2C_3_INT.c ****                             /* Prepare next opeation to read, get data and place in data register *
 408:.\Generated_Source\PSoC5/I2C_3_INT.c ****                             if(I2C_3_slRdBufIndex < I2C_3_slRdBufSize)
 810              		.loc 1 408 0
 811 075c 40F20003 		movw	r3, #:lower16:I2C_3_slRdBufIndex
 812 0760 C0F20003 		movt	r3, #:upper16:I2C_3_slRdBufIndex
 813 0764 1B78     		ldrb	r3, [r3, #0]
 814 0766 DAB2     		uxtb	r2, r3
 815 0768 40F20003 		movw	r3, #:lower16:I2C_3_slRdBufSize
 816 076c C0F20003 		movt	r3, #:upper16:I2C_3_slRdBufSize
 817 0770 1B78     		ldrb	r3, [r3, #0]
 818 0772 DBB2     		uxtb	r3, r3
 819 0774 9A42     		cmp	r2, r3
 820 0776 36D2     		bcs	.L41
 409:.\Generated_Source\PSoC5/I2C_3_INT.c ****                             {
 410:.\Generated_Source\PSoC5/I2C_3_INT.c ****                                 /* Load first data byte from array */
 411:.\Generated_Source\PSoC5/I2C_3_INT.c ****                                 I2C_3_DATA_REG = I2C_3_slRdBufPtr[I2C_3_slRdBufIndex];
 821              		.loc 1 411 0
 822 0778 44F6D813 		movw	r3, #18904
 823 077c C4F20003 		movt	r3, 16384
 824 0780 40F20002 		movw	r2, #:lower16:I2C_3_slRdBufPtr
 825 0784 C0F20002 		movt	r2, #:upper16:I2C_3_slRdBufPtr
 826 0788 1168     		ldr	r1, [r2, #0]
 827 078a 40F20002 		movw	r2, #:lower16:I2C_3_slRdBufIndex
 828 078e C0F20002 		movt	r2, #:upper16:I2C_3_slRdBufIndex
 829 0792 1278     		ldrb	r2, [r2, #0]
 830 0794 D2B2     		uxtb	r2, r2
 831 0796 8A18     		adds	r2, r1, r2
 832 0798 1278     		ldrb	r2, [r2, #0]
 833 079a D2B2     		uxtb	r2, r2
 834 079c 1A70     		strb	r2, [r3, #0]
 412:.\Generated_Source\PSoC5/I2C_3_INT.c ****                                 I2C_3_ACK_AND_TRANSMIT;
 835              		.loc 1 412 0
 836 079e 44F6D713 		movw	r3, #18903
 837 07a2 C4F20003 		movt	r3, 16384
 838 07a6 4FF01402 		mov	r2, #20
 839 07aa 1A70     		strb	r2, [r3, #0]
 413:.\Generated_Source\PSoC5/I2C_3_INT.c ****                                 I2C_3_slRdBufIndex++;
 840              		.loc 1 413 0
 841 07ac 40F20003 		movw	r3, #:lower16:I2C_3_slRdBufIndex
 842 07b0 C0F20003 		movt	r3, #:upper16:I2C_3_slRdBufIndex
 843 07b4 1B78     		ldrb	r3, [r3, #0]
 844 07b6 DBB2     		uxtb	r3, r3
 845 07b8 03F10103 		add	r3, r3, #1
 846 07bc DAB2     		uxtb	r2, r3
 847 07be 40F20003 		movw	r3, #:lower16:I2C_3_slRdBufIndex
ARM GAS  C:\Users\devdev\AppData\Local\Temp\cc0pyIv3.s 			page 24


 848 07c2 C0F20003 		movt	r3, #:upper16:I2C_3_slRdBufIndex
 849 07c6 1A70     		strb	r2, [r3, #0]
 414:.\Generated_Source\PSoC5/I2C_3_INT.c **** 
 415:.\Generated_Source\PSoC5/I2C_3_INT.c ****                                 I2C_3_slStatus |= I2C_3_SSTAT_RD_BUSY;
 850              		.loc 1 415 0
 851 07c8 40F20003 		movw	r3, #:lower16:I2C_3_slStatus
 852 07cc C0F20003 		movt	r3, #:upper16:I2C_3_slStatus
 853 07d0 1B78     		ldrb	r3, [r3, #0]
 854 07d2 DBB2     		uxtb	r3, r3
 855 07d4 43F00203 		orr	r3, r3, #2
 856 07d8 DAB2     		uxtb	r2, r3
 857 07da 40F20003 		movw	r3, #:lower16:I2C_3_slStatus
 858 07de C0F20003 		movt	r3, #:upper16:I2C_3_slStatus
 859 07e2 1A70     		strb	r2, [r3, #0]
 860 07e4 1BE0     		b	.L42
 861              	.L41:
 416:.\Generated_Source\PSoC5/I2C_3_INT.c ****                             }
 417:.\Generated_Source\PSoC5/I2C_3_INT.c ****                             else    /* Overflow: provide 0xFF on the bus */
 418:.\Generated_Source\PSoC5/I2C_3_INT.c ****                             {
 419:.\Generated_Source\PSoC5/I2C_3_INT.c ****                                 I2C_3_DATA_REG = I2C_3_OVERFLOW_RETURN;
 862              		.loc 1 419 0
 863 07e6 44F6D813 		movw	r3, #18904
 864 07ea C4F20003 		movt	r3, 16384
 865 07ee 4FF0FF02 		mov	r2, #255
 866 07f2 1A70     		strb	r2, [r3, #0]
 420:.\Generated_Source\PSoC5/I2C_3_INT.c ****                                 I2C_3_ACK_AND_TRANSMIT;
 867              		.loc 1 420 0
 868 07f4 44F6D713 		movw	r3, #18903
 869 07f8 C4F20003 		movt	r3, 16384
 870 07fc 4FF01402 		mov	r2, #20
 871 0800 1A70     		strb	r2, [r3, #0]
 421:.\Generated_Source\PSoC5/I2C_3_INT.c **** 
 422:.\Generated_Source\PSoC5/I2C_3_INT.c ****                                 I2C_3_slStatus  |= (I2C_3_SSTAT_RD_BUSY |
 872              		.loc 1 422 0
 873 0802 40F20003 		movw	r3, #:lower16:I2C_3_slStatus
 874 0806 C0F20003 		movt	r3, #:upper16:I2C_3_slStatus
 875 080a 1B78     		ldrb	r3, [r3, #0]
 876 080c DBB2     		uxtb	r3, r3
 877 080e 43F00603 		orr	r3, r3, #6
 878 0812 DAB2     		uxtb	r2, r3
 879 0814 40F20003 		movw	r3, #:lower16:I2C_3_slStatus
 880 0818 C0F20003 		movt	r3, #:upper16:I2C_3_slStatus
 881 081c 1A70     		strb	r2, [r3, #0]
 882              	.L42:
 423:.\Generated_Source\PSoC5/I2C_3_INT.c ****                                                                I2C_3_SSTAT_RD_ERR_OVFL);
 424:.\Generated_Source\PSoC5/I2C_3_INT.c ****                             }
 425:.\Generated_Source\PSoC5/I2C_3_INT.c **** 
 426:.\Generated_Source\PSoC5/I2C_3_INT.c ****                             I2C_3_state = I2C_3_SM_SL_RD_DATA;
 883              		.loc 1 426 0
 884 081e 40F20003 		movw	r3, #:lower16:I2C_3_state
 885 0822 C0F20003 		movt	r3, #:upper16:I2C_3_state
 886 0826 4FF01202 		mov	r2, #18
 887 082a 1A70     		strb	r2, [r3, #0]
 888 082c 20E1     		b	.L1
 889              	.L40:
 427:.\Generated_Source\PSoC5/I2C_3_INT.c ****                         }
 428:.\Generated_Source\PSoC5/I2C_3_INT.c ****                         else  /* Write transaction: receive 1st byte */
ARM GAS  C:\Users\devdev\AppData\Local\Temp\cc0pyIv3.s 			page 25


 429:.\Generated_Source\PSoC5/I2C_3_INT.c ****                         {
 430:.\Generated_Source\PSoC5/I2C_3_INT.c ****                             I2C_3_ACK_AND_RECEIVE;
 890              		.loc 1 430 0
 891 082e 44F6D713 		movw	r3, #18903
 892 0832 C4F20003 		movt	r3, 16384
 893 0836 4FF01002 		mov	r2, #16
 894 083a 1A70     		strb	r2, [r3, #0]
 431:.\Generated_Source\PSoC5/I2C_3_INT.c ****                             I2C_3_state = I2C_3_SM_SL_WR_DATA;
 895              		.loc 1 431 0
 896 083c 40F20003 		movw	r3, #:lower16:I2C_3_state
 897 0840 C0F20003 		movt	r3, #:upper16:I2C_3_state
 898 0844 4FF01102 		mov	r2, #17
 899 0848 1A70     		strb	r2, [r3, #0]
 432:.\Generated_Source\PSoC5/I2C_3_INT.c **** 
 433:.\Generated_Source\PSoC5/I2C_3_INT.c ****                             I2C_3_slStatus |= I2C_3_SSTAT_WR_BUSY;
 900              		.loc 1 433 0
 901 084a 40F20003 		movw	r3, #:lower16:I2C_3_slStatus
 902 084e C0F20003 		movt	r3, #:upper16:I2C_3_slStatus
 903 0852 1B78     		ldrb	r3, [r3, #0]
 904 0854 DBB2     		uxtb	r3, r3
 905 0856 43F02003 		orr	r3, r3, #32
 906 085a DAB2     		uxtb	r2, r3
 907 085c 40F20003 		movw	r3, #:lower16:I2C_3_slStatus
 908 0860 C0F20003 		movt	r3, #:upper16:I2C_3_slStatus
 909 0864 1A70     		strb	r2, [r3, #0]
 434:.\Generated_Source\PSoC5/I2C_3_INT.c ****                             I2C_3_ENABLE_INT_ON_STOP;
 910              		.loc 1 434 0
 911 0866 44F6D613 		movw	r3, #18902
 912 086a C4F20003 		movt	r3, 16384
 913 086e 44F6D612 		movw	r2, #18902
 914 0872 C4F20002 		movt	r2, 16384
 915 0876 1278     		ldrb	r2, [r2, #0]
 916 0878 D2B2     		uxtb	r2, r2
 917 087a 42F01002 		orr	r2, r2, #16
 918 087e D2B2     		uxtb	r2, r2
 919 0880 1A70     		strb	r2, [r3, #0]
 920 0882 F5E0     		b	.L1
 921              	.L39:
 435:.\Generated_Source\PSoC5/I2C_3_INT.c ****                         }
 436:.\Generated_Source\PSoC5/I2C_3_INT.c ****                         
 437:.\Generated_Source\PSoC5/I2C_3_INT.c ****                     #endif /* (I2C_3_SW_ADRR_DECODE) */
 438:.\Generated_Source\PSoC5/I2C_3_INT.c ****                 }
 439:.\Generated_Source\PSoC5/I2C_3_INT.c ****                 /* Data states */
 440:.\Generated_Source\PSoC5/I2C_3_INT.c ****                 /* Data master writes into slave */
 441:.\Generated_Source\PSoC5/I2C_3_INT.c ****                 else if(I2C_3_state == I2C_3_SM_SL_WR_DATA)
 922              		.loc 1 441 0
 923 0884 40F20003 		movw	r3, #:lower16:I2C_3_state
 924 0888 C0F20003 		movt	r3, #:upper16:I2C_3_state
 925 088c 1B78     		ldrb	r3, [r3, #0]
 926 088e DBB2     		uxtb	r3, r3
 927 0890 112B     		cmp	r3, #17
 928 0892 4DD1     		bne	.L43
 442:.\Generated_Source\PSoC5/I2C_3_INT.c ****                 {
 443:.\Generated_Source\PSoC5/I2C_3_INT.c ****                     if(I2C_3_slWrBufIndex < I2C_3_slWrBufSize)
 929              		.loc 1 443 0
 930 0894 40F20003 		movw	r3, #:lower16:I2C_3_slWrBufIndex
 931 0898 C0F20003 		movt	r3, #:upper16:I2C_3_slWrBufIndex
ARM GAS  C:\Users\devdev\AppData\Local\Temp\cc0pyIv3.s 			page 26


 932 089c 1B78     		ldrb	r3, [r3, #0]
 933 089e DAB2     		uxtb	r2, r3
 934 08a0 40F20003 		movw	r3, #:lower16:I2C_3_slWrBufSize
 935 08a4 C0F20003 		movt	r3, #:upper16:I2C_3_slWrBufSize
 936 08a8 1B78     		ldrb	r3, [r3, #0]
 937 08aa DBB2     		uxtb	r3, r3
 938 08ac 9A42     		cmp	r2, r3
 939 08ae 29D2     		bcs	.L44
 444:.\Generated_Source\PSoC5/I2C_3_INT.c ****                     {
 445:.\Generated_Source\PSoC5/I2C_3_INT.c ****                         tmp8 = I2C_3_DATA_REG;
 940              		.loc 1 445 0
 941 08b0 44F6D813 		movw	r3, #18904
 942 08b4 C4F20003 		movt	r3, 16384
 943 08b8 1B78     		ldrb	r3, [r3, #0]
 944 08ba BB71     		strb	r3, [r7, #6]
 446:.\Generated_Source\PSoC5/I2C_3_INT.c ****                         I2C_3_ACK_AND_RECEIVE;
 945              		.loc 1 446 0
 946 08bc 44F6D713 		movw	r3, #18903
 947 08c0 C4F20003 		movt	r3, 16384
 948 08c4 4FF01002 		mov	r2, #16
 949 08c8 1A70     		strb	r2, [r3, #0]
 447:.\Generated_Source\PSoC5/I2C_3_INT.c ****                         I2C_3_slWrBufPtr[I2C_3_slWrBufIndex] = tmp8;
 950              		.loc 1 447 0
 951 08ca 40F20003 		movw	r3, #:lower16:I2C_3_slWrBufPtr
 952 08ce C0F20003 		movt	r3, #:upper16:I2C_3_slWrBufPtr
 953 08d2 1A68     		ldr	r2, [r3, #0]
 954 08d4 40F20003 		movw	r3, #:lower16:I2C_3_slWrBufIndex
 955 08d8 C0F20003 		movt	r3, #:upper16:I2C_3_slWrBufIndex
 956 08dc 1B78     		ldrb	r3, [r3, #0]
 957 08de DBB2     		uxtb	r3, r3
 958 08e0 D318     		adds	r3, r2, r3
 959 08e2 BA79     		ldrb	r2, [r7, #6]
 960 08e4 1A70     		strb	r2, [r3, #0]
 448:.\Generated_Source\PSoC5/I2C_3_INT.c ****                         I2C_3_slWrBufIndex++;
 961              		.loc 1 448 0
 962 08e6 40F20003 		movw	r3, #:lower16:I2C_3_slWrBufIndex
 963 08ea C0F20003 		movt	r3, #:upper16:I2C_3_slWrBufIndex
 964 08ee 1B78     		ldrb	r3, [r3, #0]
 965 08f0 DBB2     		uxtb	r3, r3
 966 08f2 03F10103 		add	r3, r3, #1
 967 08f6 DAB2     		uxtb	r2, r3
 968 08f8 40F20003 		movw	r3, #:lower16:I2C_3_slWrBufIndex
 969 08fc C0F20003 		movt	r3, #:upper16:I2C_3_slWrBufIndex
 970 0900 1A70     		strb	r2, [r3, #0]
 971 0902 B5E0     		b	.L1
 972              	.L44:
 449:.\Generated_Source\PSoC5/I2C_3_INT.c ****                     }
 450:.\Generated_Source\PSoC5/I2C_3_INT.c ****                     else  /* of array: complete write, send NACK */
 451:.\Generated_Source\PSoC5/I2C_3_INT.c ****                     {
 452:.\Generated_Source\PSoC5/I2C_3_INT.c ****                         I2C_3_NAK_AND_RECEIVE;
 973              		.loc 1 452 0
 974 0904 44F6D713 		movw	r3, #18903
 975 0908 C4F20003 		movt	r3, 16384
 976 090c 4FF00002 		mov	r2, #0
 977 0910 1A70     		strb	r2, [r3, #0]
 453:.\Generated_Source\PSoC5/I2C_3_INT.c **** 
 454:.\Generated_Source\PSoC5/I2C_3_INT.c ****                         I2C_3_slStatus |= I2C_3_SSTAT_WR_ERR_OVFL;
ARM GAS  C:\Users\devdev\AppData\Local\Temp\cc0pyIv3.s 			page 27


 978              		.loc 1 454 0
 979 0912 40F20003 		movw	r3, #:lower16:I2C_3_slStatus
 980 0916 C0F20003 		movt	r3, #:upper16:I2C_3_slStatus
 981 091a 1B78     		ldrb	r3, [r3, #0]
 982 091c DBB2     		uxtb	r3, r3
 983 091e 43F04003 		orr	r3, r3, #64
 984 0922 DAB2     		uxtb	r2, r3
 985 0924 40F20003 		movw	r3, #:lower16:I2C_3_slStatus
 986 0928 C0F20003 		movt	r3, #:upper16:I2C_3_slStatus
 987 092c 1A70     		strb	r2, [r3, #0]
 988 092e 9FE0     		b	.L1
 989              	.L43:
 455:.\Generated_Source\PSoC5/I2C_3_INT.c ****                     }
 456:.\Generated_Source\PSoC5/I2C_3_INT.c ****                 }
 457:.\Generated_Source\PSoC5/I2C_3_INT.c ****                 /* Data master reads from slave */
 458:.\Generated_Source\PSoC5/I2C_3_INT.c ****                 else if(I2C_3_state == I2C_3_SM_SL_RD_DATA)
 990              		.loc 1 458 0
 991 0930 40F20003 		movw	r3, #:lower16:I2C_3_state
 992 0934 C0F20003 		movt	r3, #:upper16:I2C_3_state
 993 0938 1B78     		ldrb	r3, [r3, #0]
 994 093a DBB2     		uxtb	r3, r3
 995 093c 122B     		cmp	r3, #18
 996 093e 40F08B80 		bne	.L45
 459:.\Generated_Source\PSoC5/I2C_3_INT.c ****                 {
 460:.\Generated_Source\PSoC5/I2C_3_INT.c ****                     if(I2C_3_CHECK_DATA_ACK(tmpCsr))
 997              		.loc 1 460 0
 998 0942 FB79     		ldrb	r3, [r7, #7]	@ zero_extendqisi2
 999 0944 03F00203 		and	r3, r3, #2
 1000 0948 002B     		cmp	r3, #0
 1001 094a 53D1     		bne	.L46
 461:.\Generated_Source\PSoC5/I2C_3_INT.c ****                     {
 462:.\Generated_Source\PSoC5/I2C_3_INT.c ****                         if(I2C_3_slRdBufIndex < I2C_3_slRdBufSize)
 1002              		.loc 1 462 0
 1003 094c 40F20003 		movw	r3, #:lower16:I2C_3_slRdBufIndex
 1004 0950 C0F20003 		movt	r3, #:upper16:I2C_3_slRdBufIndex
 1005 0954 1B78     		ldrb	r3, [r3, #0]
 1006 0956 DAB2     		uxtb	r2, r3
 1007 0958 40F20003 		movw	r3, #:lower16:I2C_3_slRdBufSize
 1008 095c C0F20003 		movt	r3, #:upper16:I2C_3_slRdBufSize
 1009 0960 1B78     		ldrb	r3, [r3, #0]
 1010 0962 DBB2     		uxtb	r3, r3
 1011 0964 9A42     		cmp	r2, r3
 1012 0966 28D2     		bcs	.L47
 463:.\Generated_Source\PSoC5/I2C_3_INT.c ****                         {
 464:.\Generated_Source\PSoC5/I2C_3_INT.c ****                              /* Get data from array */
 465:.\Generated_Source\PSoC5/I2C_3_INT.c ****                             I2C_3_DATA_REG = I2C_3_slRdBufPtr[I2C_3_slRdBufIndex];
 1013              		.loc 1 465 0
 1014 0968 44F6D813 		movw	r3, #18904
 1015 096c C4F20003 		movt	r3, 16384
 1016 0970 40F20002 		movw	r2, #:lower16:I2C_3_slRdBufPtr
 1017 0974 C0F20002 		movt	r2, #:upper16:I2C_3_slRdBufPtr
 1018 0978 1168     		ldr	r1, [r2, #0]
 1019 097a 40F20002 		movw	r2, #:lower16:I2C_3_slRdBufIndex
 1020 097e C0F20002 		movt	r2, #:upper16:I2C_3_slRdBufIndex
 1021 0982 1278     		ldrb	r2, [r2, #0]
 1022 0984 D2B2     		uxtb	r2, r2
 1023 0986 8A18     		adds	r2, r1, r2
ARM GAS  C:\Users\devdev\AppData\Local\Temp\cc0pyIv3.s 			page 28


 1024 0988 1278     		ldrb	r2, [r2, #0]
 1025 098a D2B2     		uxtb	r2, r2
 1026 098c 1A70     		strb	r2, [r3, #0]
 466:.\Generated_Source\PSoC5/I2C_3_INT.c ****                             I2C_3_TRANSMIT_DATA;
 1027              		.loc 1 466 0
 1028 098e 44F6D713 		movw	r3, #18903
 1029 0992 C4F20003 		movt	r3, 16384
 1030 0996 4FF00402 		mov	r2, #4
 1031 099a 1A70     		strb	r2, [r3, #0]
 467:.\Generated_Source\PSoC5/I2C_3_INT.c ****                             I2C_3_slRdBufIndex++;
 1032              		.loc 1 467 0
 1033 099c 40F20003 		movw	r3, #:lower16:I2C_3_slRdBufIndex
 1034 09a0 C0F20003 		movt	r3, #:upper16:I2C_3_slRdBufIndex
 1035 09a4 1B78     		ldrb	r3, [r3, #0]
 1036 09a6 DBB2     		uxtb	r3, r3
 1037 09a8 03F10103 		add	r3, r3, #1
 1038 09ac DAB2     		uxtb	r2, r3
 1039 09ae 40F20003 		movw	r3, #:lower16:I2C_3_slRdBufIndex
 1040 09b2 C0F20003 		movt	r3, #:upper16:I2C_3_slRdBufIndex
 1041 09b6 1A70     		strb	r2, [r3, #0]
 1042 09b8 5AE0     		b	.L1
 1043              	.L47:
 468:.\Generated_Source\PSoC5/I2C_3_INT.c ****                         }
 469:.\Generated_Source\PSoC5/I2C_3_INT.c ****                         else   /* Overflow: provide 0xFF on the bus */
 470:.\Generated_Source\PSoC5/I2C_3_INT.c ****                         {
 471:.\Generated_Source\PSoC5/I2C_3_INT.c ****                             I2C_3_DATA_REG = I2C_3_OVERFLOW_RETURN;
 1044              		.loc 1 471 0
 1045 09ba 44F6D813 		movw	r3, #18904
 1046 09be C4F20003 		movt	r3, 16384
 1047 09c2 4FF0FF02 		mov	r2, #255
 1048 09c6 1A70     		strb	r2, [r3, #0]
 472:.\Generated_Source\PSoC5/I2C_3_INT.c ****                             I2C_3_TRANSMIT_DATA;
 1049              		.loc 1 472 0
 1050 09c8 44F6D713 		movw	r3, #18903
 1051 09cc C4F20003 		movt	r3, 16384
 1052 09d0 4FF00402 		mov	r2, #4
 1053 09d4 1A70     		strb	r2, [r3, #0]
 473:.\Generated_Source\PSoC5/I2C_3_INT.c **** 
 474:.\Generated_Source\PSoC5/I2C_3_INT.c ****                             I2C_3_slStatus |= I2C_3_SSTAT_RD_ERR_OVFL;
 1054              		.loc 1 474 0
 1055 09d6 40F20003 		movw	r3, #:lower16:I2C_3_slStatus
 1056 09da C0F20003 		movt	r3, #:upper16:I2C_3_slStatus
 1057 09de 1B78     		ldrb	r3, [r3, #0]
 1058 09e0 DBB2     		uxtb	r3, r3
 1059 09e2 43F00403 		orr	r3, r3, #4
 1060 09e6 DAB2     		uxtb	r2, r3
 1061 09e8 40F20003 		movw	r3, #:lower16:I2C_3_slStatus
 1062 09ec C0F20003 		movt	r3, #:upper16:I2C_3_slStatus
 1063 09f0 1A70     		strb	r2, [r3, #0]
 1064 09f2 3DE0     		b	.L1
 1065              	.L46:
 475:.\Generated_Source\PSoC5/I2C_3_INT.c ****                         }
 476:.\Generated_Source\PSoC5/I2C_3_INT.c ****                     }
 477:.\Generated_Source\PSoC5/I2C_3_INT.c ****                     else  /* Last byte was NACKed: read complete */
 478:.\Generated_Source\PSoC5/I2C_3_INT.c ****                     {
 479:.\Generated_Source\PSoC5/I2C_3_INT.c ****                         /* Only NACK appears on the bus */
 480:.\Generated_Source\PSoC5/I2C_3_INT.c ****                         I2C_3_DATA_REG = I2C_3_OVERFLOW_RETURN;
ARM GAS  C:\Users\devdev\AppData\Local\Temp\cc0pyIv3.s 			page 29


 1066              		.loc 1 480 0
 1067 09f4 44F6D813 		movw	r3, #18904
 1068 09f8 C4F20003 		movt	r3, 16384
 1069 09fc 4FF0FF02 		mov	r2, #255
 1070 0a00 1A70     		strb	r2, [r3, #0]
 481:.\Generated_Source\PSoC5/I2C_3_INT.c ****                         I2C_3_NAK_AND_TRANSMIT;
 1071              		.loc 1 481 0
 1072 0a02 44F6D713 		movw	r3, #18903
 1073 0a06 C4F20003 		movt	r3, 16384
 1074 0a0a 4FF00002 		mov	r2, #0
 1075 0a0e 1A70     		strb	r2, [r3, #0]
 482:.\Generated_Source\PSoC5/I2C_3_INT.c **** 
 483:.\Generated_Source\PSoC5/I2C_3_INT.c ****                         I2C_3_slStatus &= ((uint8) ~I2C_3_SSTAT_RD_BUSY);
 1076              		.loc 1 483 0
 1077 0a10 40F20003 		movw	r3, #:lower16:I2C_3_slStatus
 1078 0a14 C0F20003 		movt	r3, #:upper16:I2C_3_slStatus
 1079 0a18 1B78     		ldrb	r3, [r3, #0]
 1080 0a1a DBB2     		uxtb	r3, r3
 1081 0a1c 23F00203 		bic	r3, r3, #2
 1082 0a20 DAB2     		uxtb	r2, r3
 1083 0a22 40F20003 		movw	r3, #:lower16:I2C_3_slStatus
 1084 0a26 C0F20003 		movt	r3, #:upper16:I2C_3_slStatus
 1085 0a2a 1A70     		strb	r2, [r3, #0]
 484:.\Generated_Source\PSoC5/I2C_3_INT.c ****                         I2C_3_slStatus |= ((uint8)  I2C_3_SSTAT_RD_CMPLT);
 1086              		.loc 1 484 0
 1087 0a2c 40F20003 		movw	r3, #:lower16:I2C_3_slStatus
 1088 0a30 C0F20003 		movt	r3, #:upper16:I2C_3_slStatus
 1089 0a34 1B78     		ldrb	r3, [r3, #0]
 1090 0a36 DBB2     		uxtb	r3, r3
 1091 0a38 43F00103 		orr	r3, r3, #1
 1092 0a3c DAB2     		uxtb	r2, r3
 1093 0a3e 40F20003 		movw	r3, #:lower16:I2C_3_slStatus
 1094 0a42 C0F20003 		movt	r3, #:upper16:I2C_3_slStatus
 1095 0a46 1A70     		strb	r2, [r3, #0]
 485:.\Generated_Source\PSoC5/I2C_3_INT.c **** 
 486:.\Generated_Source\PSoC5/I2C_3_INT.c ****                         I2C_3_state = I2C_3_SM_IDLE;
 1096              		.loc 1 486 0
 1097 0a48 40F20003 		movw	r3, #:lower16:I2C_3_state
 1098 0a4c C0F20003 		movt	r3, #:upper16:I2C_3_state
 1099 0a50 4FF01002 		mov	r2, #16
 1100 0a54 1A70     		strb	r2, [r3, #0]
 1101 0a56 0BE0     		b	.L1
 1102              	.L45:
 487:.\Generated_Source\PSoC5/I2C_3_INT.c ****                     }
 488:.\Generated_Source\PSoC5/I2C_3_INT.c ****                 }
 489:.\Generated_Source\PSoC5/I2C_3_INT.c ****                 else
 490:.\Generated_Source\PSoC5/I2C_3_INT.c ****                 {
 491:.\Generated_Source\PSoC5/I2C_3_INT.c ****                     #if(I2C_3_TIMEOUT_ENABLED)
 492:.\Generated_Source\PSoC5/I2C_3_INT.c ****                         /* Exit from interrupt to take a chance for timeout timer handle this case 
 493:.\Generated_Source\PSoC5/I2C_3_INT.c ****                         I2C_3_DisableInt();
 494:.\Generated_Source\PSoC5/I2C_3_INT.c ****                         I2C_3_ClearPendingInt();
 495:.\Generated_Source\PSoC5/I2C_3_INT.c ****                     #else
 496:.\Generated_Source\PSoC5/I2C_3_INT.c ****                         /* Block execution flow: unexpected condition */
 497:.\Generated_Source\PSoC5/I2C_3_INT.c ****                         CYASSERT(0u != 0u);
 1103              		.loc 1 497 0 discriminator 1
 1104 0a58 4FF00000 		mov	r0, #0
 1105 0a5c FFF7FEFF 		bl	CyHalt
ARM GAS  C:\Users\devdev\AppData\Local\Temp\cc0pyIv3.s 			page 30


 1106 0a60 06E0     		b	.L1
 1107              	.L36:
 498:.\Generated_Source\PSoC5/I2C_3_INT.c ****                     #endif /* (I2C_3_TIMEOUT_ENABLED) */
 499:.\Generated_Source\PSoC5/I2C_3_INT.c ****                 }
 500:.\Generated_Source\PSoC5/I2C_3_INT.c ****             }
 501:.\Generated_Source\PSoC5/I2C_3_INT.c ****         #endif /* (I2C_3_MODE_SLAVE_ENABLED) */
 502:.\Generated_Source\PSoC5/I2C_3_INT.c ****     }
 503:.\Generated_Source\PSoC5/I2C_3_INT.c ****     else
 504:.\Generated_Source\PSoC5/I2C_3_INT.c ****     {
 505:.\Generated_Source\PSoC5/I2C_3_INT.c ****         /* The FSM skips master and slave processing: return to IDLE */
 506:.\Generated_Source\PSoC5/I2C_3_INT.c ****         I2C_3_state = I2C_3_SM_IDLE;
 1108              		.loc 1 506 0
 1109 0a62 40F20003 		movw	r3, #:lower16:I2C_3_state
 1110 0a66 C0F20003 		movt	r3, #:upper16:I2C_3_state
 1111 0a6a 4FF01002 		mov	r2, #16
 1112 0a6e 1A70     		strb	r2, [r3, #0]
 1113              	.L1:
 507:.\Generated_Source\PSoC5/I2C_3_INT.c ****     }
 508:.\Generated_Source\PSoC5/I2C_3_INT.c **** }
 1114              		.loc 1 508 0
 1115 0a70 07F10807 		add	r7, r7, #8
 1116 0a74 BD46     		mov	sp, r7
 1117 0a76 80BD     		pop	{r7, pc}
 1118              		.cfi_endproc
 1119              	.LFE0:
 1120              		.size	I2C_3_ISR, .-I2C_3_ISR
 1121              		.text
 1122              	.Letext0:
 1123              		.file 2 ".\\Generated_Source\\PSoC5\\cytypes.h"
 1124              		.file 3 ".\\Generated_Source\\PSoC5\\I2C_3_PVT.h"