ARM GAS  C:\Users\devdev\AppData\Local\Temp\cc720ADm.s 			page 1


   1              		.syntax unified
   2              		.cpu cortex-m3
   3              		.fpu softvfp
   4              		.eabi_attribute 20, 1
   5              		.eabi_attribute 21, 1
   6              		.eabi_attribute 23, 3
   7              		.eabi_attribute 24, 1
   8              		.eabi_attribute 25, 1
   9              		.eabi_attribute 26, 1
  10              		.eabi_attribute 30, 6
  11              		.eabi_attribute 34, 1
  12              		.eabi_attribute 18, 4
  13              		.thumb
  14              		.file	"I2C_3_MASTER.c"
  15              		.text
  16              	.Ltext0:
  17              		.cfi_sections	.debug_frame
  18              		.comm	I2C_3_mstrStatus,1,1
  19              		.comm	I2C_3_mstrControl,1,1
  20              		.comm	I2C_3_mstrRdBufPtr,4,4
  21              		.comm	I2C_3_mstrRdBufSize,1,1
  22              		.comm	I2C_3_mstrRdBufIndex,1,1
  23              		.comm	I2C_3_mstrWrBufPtr,4,4
  24              		.comm	I2C_3_mstrWrBufSize,1,1
  25              		.comm	I2C_3_mstrWrBufIndex,1,1
  26              		.section	.text.I2C_3_MasterWriteBuf,"ax",%progbits
  27              		.align	2
  28              		.global	I2C_3_MasterWriteBuf
  29              		.thumb
  30              		.thumb_func
  31              		.type	I2C_3_MasterWriteBuf, %function
  32              	I2C_3_MasterWriteBuf:
  33              	.LFB0:
  34              		.file 1 ".\\Generated_Source\\PSoC5\\I2C_3_MASTER.c"
   1:.\Generated_Source\PSoC5/I2C_3_MASTER.c **** /*******************************************************************************
   2:.\Generated_Source\PSoC5/I2C_3_MASTER.c **** * File Name: I2C_3_MASTER.c
   3:.\Generated_Source\PSoC5/I2C_3_MASTER.c **** * Version 3.30
   4:.\Generated_Source\PSoC5/I2C_3_MASTER.c **** *
   5:.\Generated_Source\PSoC5/I2C_3_MASTER.c **** * Description:
   6:.\Generated_Source\PSoC5/I2C_3_MASTER.c **** *  This file provides the source code of APIs for the I2C component Master mode.
   7:.\Generated_Source\PSoC5/I2C_3_MASTER.c **** *
   8:.\Generated_Source\PSoC5/I2C_3_MASTER.c **** * Note:
   9:.\Generated_Source\PSoC5/I2C_3_MASTER.c **** *
  10:.\Generated_Source\PSoC5/I2C_3_MASTER.c **** *******************************************************************************
  11:.\Generated_Source\PSoC5/I2C_3_MASTER.c **** * Copyright 2012, Cypress Semiconductor Corporation.  All rights reserved.
  12:.\Generated_Source\PSoC5/I2C_3_MASTER.c **** * You may use this file only in accordance with the license, terms, conditions,
  13:.\Generated_Source\PSoC5/I2C_3_MASTER.c **** * disclaimers, and limitations in the end user license agreement accompanying
  14:.\Generated_Source\PSoC5/I2C_3_MASTER.c **** * the software package with which this file was provided.
  15:.\Generated_Source\PSoC5/I2C_3_MASTER.c **** *******************************************************************************/
  16:.\Generated_Source\PSoC5/I2C_3_MASTER.c **** 
  17:.\Generated_Source\PSoC5/I2C_3_MASTER.c **** #include "I2C_3_PVT.h"
  18:.\Generated_Source\PSoC5/I2C_3_MASTER.c **** 
  19:.\Generated_Source\PSoC5/I2C_3_MASTER.c **** #if(I2C_3_MODE_MASTER_ENABLED)
  20:.\Generated_Source\PSoC5/I2C_3_MASTER.c **** 
  21:.\Generated_Source\PSoC5/I2C_3_MASTER.c **** /**********************************
  22:.\Generated_Source\PSoC5/I2C_3_MASTER.c **** *      System variables
  23:.\Generated_Source\PSoC5/I2C_3_MASTER.c **** **********************************/
ARM GAS  C:\Users\devdev\AppData\Local\Temp\cc720ADm.s 			page 2


  24:.\Generated_Source\PSoC5/I2C_3_MASTER.c **** 
  25:.\Generated_Source\PSoC5/I2C_3_MASTER.c **** volatile uint8 I2C_3_mstrStatus;     /* Master Status byte  */
  26:.\Generated_Source\PSoC5/I2C_3_MASTER.c **** volatile uint8 I2C_3_mstrControl;    /* Master Control byte */
  27:.\Generated_Source\PSoC5/I2C_3_MASTER.c **** 
  28:.\Generated_Source\PSoC5/I2C_3_MASTER.c **** /* Transmit buffer variables */
  29:.\Generated_Source\PSoC5/I2C_3_MASTER.c **** volatile uint8 * I2C_3_mstrRdBufPtr;     /* Pointer to Master Read buffer */
  30:.\Generated_Source\PSoC5/I2C_3_MASTER.c **** volatile uint8   I2C_3_mstrRdBufSize;    /* Master Read buffer size       */
  31:.\Generated_Source\PSoC5/I2C_3_MASTER.c **** volatile uint8   I2C_3_mstrRdBufIndex;   /* Master Read buffer Index      */
  32:.\Generated_Source\PSoC5/I2C_3_MASTER.c **** 
  33:.\Generated_Source\PSoC5/I2C_3_MASTER.c **** /* Receive buffer variables */
  34:.\Generated_Source\PSoC5/I2C_3_MASTER.c **** volatile uint8 * I2C_3_mstrWrBufPtr;     /* Pointer to Master Write buffer */
  35:.\Generated_Source\PSoC5/I2C_3_MASTER.c **** volatile uint8   I2C_3_mstrWrBufSize;    /* Master Write buffer size       */
  36:.\Generated_Source\PSoC5/I2C_3_MASTER.c **** volatile uint8   I2C_3_mstrWrBufIndex;   /* Master Write buffer Index      */
  37:.\Generated_Source\PSoC5/I2C_3_MASTER.c **** 
  38:.\Generated_Source\PSoC5/I2C_3_MASTER.c **** 
  39:.\Generated_Source\PSoC5/I2C_3_MASTER.c **** /*******************************************************************************
  40:.\Generated_Source\PSoC5/I2C_3_MASTER.c **** * Function Name: I2C_3_MasterWriteBuf
  41:.\Generated_Source\PSoC5/I2C_3_MASTER.c **** ********************************************************************************
  42:.\Generated_Source\PSoC5/I2C_3_MASTER.c **** *
  43:.\Generated_Source\PSoC5/I2C_3_MASTER.c **** * Summary:
  44:.\Generated_Source\PSoC5/I2C_3_MASTER.c **** *  Automatically writes an entire buffer of data to a slave device. Once the
  45:.\Generated_Source\PSoC5/I2C_3_MASTER.c **** *  data transfer is initiated by this function, further data transfer is handled
  46:.\Generated_Source\PSoC5/I2C_3_MASTER.c **** *  by the included ISR in byte by byte mode.
  47:.\Generated_Source\PSoC5/I2C_3_MASTER.c **** *
  48:.\Generated_Source\PSoC5/I2C_3_MASTER.c **** * Parameters:
  49:.\Generated_Source\PSoC5/I2C_3_MASTER.c **** *  slaveAddr: 7-bit slave address.
  50:.\Generated_Source\PSoC5/I2C_3_MASTER.c **** *  xferData:  Pointer to buffer of data to be sent.
  51:.\Generated_Source\PSoC5/I2C_3_MASTER.c **** *  cnt:       Size of buffer to send.
  52:.\Generated_Source\PSoC5/I2C_3_MASTER.c **** *  mode:      Transfer mode defines: start or restart condition generation at
  53:.\Generated_Source\PSoC5/I2C_3_MASTER.c **** *             begin of the transfer and complete the transfer or halt before
  54:.\Generated_Source\PSoC5/I2C_3_MASTER.c **** *             generating a stop.
  55:.\Generated_Source\PSoC5/I2C_3_MASTER.c **** *
  56:.\Generated_Source\PSoC5/I2C_3_MASTER.c **** * Return:
  57:.\Generated_Source\PSoC5/I2C_3_MASTER.c **** *  Status error - zero means no errors.
  58:.\Generated_Source\PSoC5/I2C_3_MASTER.c **** *
  59:.\Generated_Source\PSoC5/I2C_3_MASTER.c **** * Side Effects:
  60:.\Generated_Source\PSoC5/I2C_3_MASTER.c **** *  The included ISR will start transfer after start or restart condition will
  61:.\Generated_Source\PSoC5/I2C_3_MASTER.c **** *  be generated.
  62:.\Generated_Source\PSoC5/I2C_3_MASTER.c **** *
  63:.\Generated_Source\PSoC5/I2C_3_MASTER.c **** * Global variables:
  64:.\Generated_Source\PSoC5/I2C_3_MASTER.c **** *  I2C_3_mstrStatus  - used to store current status of I2C Master.
  65:.\Generated_Source\PSoC5/I2C_3_MASTER.c **** *  I2C_3_state       - used to store current state of software FSM.
  66:.\Generated_Source\PSoC5/I2C_3_MASTER.c **** *  I2C_3_mstrControl - used to control master end of transaction with
  67:.\Generated_Source\PSoC5/I2C_3_MASTER.c **** *  or without the Stop generation.
  68:.\Generated_Source\PSoC5/I2C_3_MASTER.c **** *  I2C_3_mstrWrBufPtr - used to store pointer to master write buffer.
  69:.\Generated_Source\PSoC5/I2C_3_MASTER.c **** *  I2C_3_mstrWrBufIndex - used to current index within master write
  70:.\Generated_Source\PSoC5/I2C_3_MASTER.c **** *  buffer.
  71:.\Generated_Source\PSoC5/I2C_3_MASTER.c **** *  I2C_3_mstrWrBufSize - used to store master write buffer size.
  72:.\Generated_Source\PSoC5/I2C_3_MASTER.c **** *
  73:.\Generated_Source\PSoC5/I2C_3_MASTER.c **** * Reentrant:
  74:.\Generated_Source\PSoC5/I2C_3_MASTER.c **** *  No
  75:.\Generated_Source\PSoC5/I2C_3_MASTER.c **** *
  76:.\Generated_Source\PSoC5/I2C_3_MASTER.c **** *******************************************************************************/
  77:.\Generated_Source\PSoC5/I2C_3_MASTER.c **** uint8 I2C_3_MasterWriteBuf(uint8 slaveAddress, uint8 * wrData, uint8 cnt, uint8 mode)
  78:.\Generated_Source\PSoC5/I2C_3_MASTER.c ****       
  79:.\Generated_Source\PSoC5/I2C_3_MASTER.c **** {
  35              		.loc 1 79 0
ARM GAS  C:\Users\devdev\AppData\Local\Temp\cc720ADm.s 			page 3


  36              		.cfi_startproc
  37              		@ args = 0, pretend = 0, frame = 16
  38              		@ frame_needed = 1, uses_anonymous_args = 0
  39              		@ link register save eliminated.
  40 0000 80B4     		push	{r7}
  41              	.LCFI0:
  42              		.cfi_def_cfa_offset 4
  43              		.cfi_offset 7, -4
  44 0002 85B0     		sub	sp, sp, #20
  45              	.LCFI1:
  46              		.cfi_def_cfa_offset 24
  47 0004 00AF     		add	r7, sp, #0
  48              	.LCFI2:
  49              		.cfi_def_cfa_register 7
  50 0006 3960     		str	r1, [r7, #0]
  51 0008 0146     		mov	r1, r0
  52 000a F971     		strb	r1, [r7, #7]
  53 000c BA71     		strb	r2, [r7, #6]
  54 000e 7B71     		strb	r3, [r7, #5]
  80:.\Generated_Source\PSoC5/I2C_3_MASTER.c ****     uint8 errStatus;
  81:.\Generated_Source\PSoC5/I2C_3_MASTER.c **** 
  82:.\Generated_Source\PSoC5/I2C_3_MASTER.c ****     errStatus = I2C_3_MSTR_NOT_READY;
  55              		.loc 1 82 0
  56 0010 4FF00203 		mov	r3, #2
  57 0014 FB73     		strb	r3, [r7, #15]
  83:.\Generated_Source\PSoC5/I2C_3_MASTER.c **** 
  84:.\Generated_Source\PSoC5/I2C_3_MASTER.c ****     if(NULL != wrData)
  58              		.loc 1 84 0
  59 0016 3B68     		ldr	r3, [r7, #0]
  60 0018 002B     		cmp	r3, #0
  61 001a 00F09680 		beq	.L2
  85:.\Generated_Source\PSoC5/I2C_3_MASTER.c ****     {
  86:.\Generated_Source\PSoC5/I2C_3_MASTER.c ****         /* Check I2C state before transfer: valid are IDLE or HALT */
  87:.\Generated_Source\PSoC5/I2C_3_MASTER.c ****         if(I2C_3_SM_IDLE == I2C_3_state)
  62              		.loc 1 87 0
  63 001e 40F20003 		movw	r3, #:lower16:I2C_3_state
  64 0022 C0F20003 		movt	r3, #:upper16:I2C_3_state
  65 0026 1B78     		ldrb	r3, [r3, #0]
  66 0028 DBB2     		uxtb	r3, r3
  67 002a 102B     		cmp	r3, #16
  68 002c 11D1     		bne	.L3
  88:.\Generated_Source\PSoC5/I2C_3_MASTER.c ****         {
  89:.\Generated_Source\PSoC5/I2C_3_MASTER.c ****             /* Check if free: Master is ready to transaction */
  90:.\Generated_Source\PSoC5/I2C_3_MASTER.c ****             if(I2C_3_CHECK_BUS_FREE(I2C_3_MCSR_REG))
  69              		.loc 1 90 0
  70 002e 44F6D913 		movw	r3, #18905
  71 0032 C4F20003 		movt	r3, 16384
  72 0036 1B78     		ldrb	r3, [r3, #0]
  73 0038 DBB2     		uxtb	r3, r3
  74 003a 03F00803 		and	r3, r3, #8
  75 003e 002B     		cmp	r3, #0
  76 0040 03D1     		bne	.L4
  91:.\Generated_Source\PSoC5/I2C_3_MASTER.c ****             {
  92:.\Generated_Source\PSoC5/I2C_3_MASTER.c ****                 errStatus = I2C_3_MSTR_NO_ERROR;
  77              		.loc 1 92 0
  78 0042 4FF00003 		mov	r3, #0
  79 0046 FB73     		strb	r3, [r7, #15]
ARM GAS  C:\Users\devdev\AppData\Local\Temp\cc720ADm.s 			page 4


  80 0048 23E0     		b	.L5
  81              	.L4:
  93:.\Generated_Source\PSoC5/I2C_3_MASTER.c ****             }
  94:.\Generated_Source\PSoC5/I2C_3_MASTER.c ****             else
  95:.\Generated_Source\PSoC5/I2C_3_MASTER.c ****             {
  96:.\Generated_Source\PSoC5/I2C_3_MASTER.c ****                 errStatus = I2C_3_MSTR_BUS_BUSY;
  82              		.loc 1 96 0
  83 004a 4FF00103 		mov	r3, #1
  84 004e FB73     		strb	r3, [r7, #15]
  85 0050 1FE0     		b	.L5
  86              	.L3:
  97:.\Generated_Source\PSoC5/I2C_3_MASTER.c ****             }
  98:.\Generated_Source\PSoC5/I2C_3_MASTER.c ****         }
  99:.\Generated_Source\PSoC5/I2C_3_MASTER.c ****         else if(I2C_3_SM_MSTR_HALT == I2C_3_state)
  87              		.loc 1 99 0
  88 0052 40F20003 		movw	r3, #:lower16:I2C_3_state
  89 0056 C0F20003 		movt	r3, #:upper16:I2C_3_state
  90 005a 1B78     		ldrb	r3, [r3, #0]
  91 005c DBB2     		uxtb	r3, r3
  92 005e 602B     		cmp	r3, #96
  93 0060 17D1     		bne	.L5
 100:.\Generated_Source\PSoC5/I2C_3_MASTER.c ****         {
 101:.\Generated_Source\PSoC5/I2C_3_MASTER.c ****             errStatus = I2C_3_MSTR_NO_ERROR;
  94              		.loc 1 101 0
  95 0062 4FF00003 		mov	r3, #0
  96 0066 FB73     		strb	r3, [r7, #15]
 102:.\Generated_Source\PSoC5/I2C_3_MASTER.c **** 
 103:.\Generated_Source\PSoC5/I2C_3_MASTER.c ****             CyIntClearPending(I2C_3_ISR_NUMBER);
  97              		.loc 1 103 0
  98 0068 4EF28023 		movw	r3, #57984
  99 006c CEF20003 		movt	r3, 57344
 100 0070 4FF40042 		mov	r2, #32768
 101 0074 1A60     		str	r2, [r3, #0]
 104:.\Generated_Source\PSoC5/I2C_3_MASTER.c ****             I2C_3_mstrStatus &= ((uint8) ~I2C_3_MSTAT_XFER_HALT);
 102              		.loc 1 104 0
 103 0076 40F20003 		movw	r3, #:lower16:I2C_3_mstrStatus
 104 007a C0F20003 		movt	r3, #:upper16:I2C_3_mstrStatus
 105 007e 1B78     		ldrb	r3, [r3, #0]
 106 0080 DBB2     		uxtb	r3, r3
 107 0082 23F00803 		bic	r3, r3, #8
 108 0086 DAB2     		uxtb	r2, r3
 109 0088 40F20003 		movw	r3, #:lower16:I2C_3_mstrStatus
 110 008c C0F20003 		movt	r3, #:upper16:I2C_3_mstrStatus
 111 0090 1A70     		strb	r2, [r3, #0]
 112              	.L5:
 105:.\Generated_Source\PSoC5/I2C_3_MASTER.c ****         }
 106:.\Generated_Source\PSoC5/I2C_3_MASTER.c ****         else
 107:.\Generated_Source\PSoC5/I2C_3_MASTER.c ****         {
 108:.\Generated_Source\PSoC5/I2C_3_MASTER.c ****             /* errStatus = I2C_3_MSTR_NOT_READY was send before */
 109:.\Generated_Source\PSoC5/I2C_3_MASTER.c ****         }
 110:.\Generated_Source\PSoC5/I2C_3_MASTER.c **** 
 111:.\Generated_Source\PSoC5/I2C_3_MASTER.c ****         if(I2C_3_MSTR_NO_ERROR == errStatus)
 113              		.loc 1 111 0
 114 0092 FB7B     		ldrb	r3, [r7, #15]	@ zero_extendqisi2
 115 0094 002B     		cmp	r3, #0
 116 0096 58D1     		bne	.L2
 112:.\Generated_Source\PSoC5/I2C_3_MASTER.c ****         {
ARM GAS  C:\Users\devdev\AppData\Local\Temp\cc720ADm.s 			page 5


 113:.\Generated_Source\PSoC5/I2C_3_MASTER.c ****             I2C_3_state    = I2C_3_SM_MSTR_WR_ADDR;
 117              		.loc 1 113 0
 118 0098 40F20003 		movw	r3, #:lower16:I2C_3_state
 119 009c C0F20003 		movt	r3, #:upper16:I2C_3_state
 120 00a0 4FF04502 		mov	r2, #69
 121 00a4 1A70     		strb	r2, [r3, #0]
 114:.\Generated_Source\PSoC5/I2C_3_MASTER.c ****             I2C_3_DATA_REG = ((uint8) (slaveAddress << I2C_3_SLAVE_ADDR_SHIFT));
 122              		.loc 1 114 0
 123 00a6 44F6D813 		movw	r3, #18904
 124 00aa C4F20003 		movt	r3, 16384
 125 00ae FA79     		ldrb	r2, [r7, #7]
 126 00b0 4FEA4202 		lsl	r2, r2, #1
 127 00b4 D2B2     		uxtb	r2, r2
 128 00b6 1A70     		strb	r2, [r3, #0]
 115:.\Generated_Source\PSoC5/I2C_3_MASTER.c **** 
 116:.\Generated_Source\PSoC5/I2C_3_MASTER.c ****             I2C_3_mstrWrBufIndex = 0u;
 129              		.loc 1 116 0
 130 00b8 40F20003 		movw	r3, #:lower16:I2C_3_mstrWrBufIndex
 131 00bc C0F20003 		movt	r3, #:upper16:I2C_3_mstrWrBufIndex
 132 00c0 4FF00002 		mov	r2, #0
 133 00c4 1A70     		strb	r2, [r3, #0]
 117:.\Generated_Source\PSoC5/I2C_3_MASTER.c ****             I2C_3_mstrWrBufSize  = cnt;
 134              		.loc 1 117 0
 135 00c6 40F20003 		movw	r3, #:lower16:I2C_3_mstrWrBufSize
 136 00ca C0F20003 		movt	r3, #:upper16:I2C_3_mstrWrBufSize
 137 00ce BA79     		ldrb	r2, [r7, #6]
 138 00d0 1A70     		strb	r2, [r3, #0]
 118:.\Generated_Source\PSoC5/I2C_3_MASTER.c ****             I2C_3_mstrWrBufPtr   = (volatile uint8 *) wrData;
 139              		.loc 1 118 0
 140 00d2 40F20003 		movw	r3, #:lower16:I2C_3_mstrWrBufPtr
 141 00d6 C0F20003 		movt	r3, #:upper16:I2C_3_mstrWrBufPtr
 142 00da 3A68     		ldr	r2, [r7, #0]
 143 00dc 1A60     		str	r2, [r3, #0]
 119:.\Generated_Source\PSoC5/I2C_3_MASTER.c **** 
 120:.\Generated_Source\PSoC5/I2C_3_MASTER.c ****             I2C_3_mstrControl = mode;    /* Save transaction mode */
 144              		.loc 1 120 0
 145 00de 40F20003 		movw	r3, #:lower16:I2C_3_mstrControl
 146 00e2 C0F20003 		movt	r3, #:upper16:I2C_3_mstrControl
 147 00e6 7A79     		ldrb	r2, [r7, #5]
 148 00e8 1A70     		strb	r2, [r3, #0]
 121:.\Generated_Source\PSoC5/I2C_3_MASTER.c **** 
 122:.\Generated_Source\PSoC5/I2C_3_MASTER.c ****             /* Generate a Start or ReStart depends on mode */
 123:.\Generated_Source\PSoC5/I2C_3_MASTER.c ****             if(I2C_3_CHECK_RESTART(mode))
 149              		.loc 1 123 0
 150 00ea 7B79     		ldrb	r3, [r7, #5]	@ zero_extendqisi2
 151 00ec 03F00103 		and	r3, r3, #1
 152 00f0 002B     		cmp	r3, #0
 153 00f2 0ED0     		beq	.L6
 124:.\Generated_Source\PSoC5/I2C_3_MASTER.c ****             {
 125:.\Generated_Source\PSoC5/I2C_3_MASTER.c ****                 I2C_3_GENERATE_RESTART;
 154              		.loc 1 125 0
 155 00f4 44F6D913 		movw	r3, #18905
 156 00f8 C4F20003 		movt	r3, 16384
 157 00fc 4FF01202 		mov	r2, #18
 158 0100 1A70     		strb	r2, [r3, #0]
 159 0102 44F6D713 		movw	r3, #18903
 160 0106 C4F20003 		movt	r3, 16384
ARM GAS  C:\Users\devdev\AppData\Local\Temp\cc720ADm.s 			page 6


 161 010a 4FF00402 		mov	r2, #4
 162 010e 1A70     		strb	r2, [r3, #0]
 163 0110 06E0     		b	.L7
 164              	.L6:
 126:.\Generated_Source\PSoC5/I2C_3_MASTER.c ****             }
 127:.\Generated_Source\PSoC5/I2C_3_MASTER.c ****             else
 128:.\Generated_Source\PSoC5/I2C_3_MASTER.c ****             {
 129:.\Generated_Source\PSoC5/I2C_3_MASTER.c ****                 I2C_3_GENERATE_START;
 165              		.loc 1 129 0
 166 0112 44F6D913 		movw	r3, #18905
 167 0116 C4F20003 		movt	r3, 16384
 168 011a 4FF00102 		mov	r2, #1
 169 011e 1A70     		strb	r2, [r3, #0]
 170              	.L7:
 130:.\Generated_Source\PSoC5/I2C_3_MASTER.c ****             }
 131:.\Generated_Source\PSoC5/I2C_3_MASTER.c **** 
 132:.\Generated_Source\PSoC5/I2C_3_MASTER.c ****             I2C_3_mstrStatus &= ((uint8) ~I2C_3_MSTAT_WR_CMPLT);
 171              		.loc 1 132 0
 172 0120 40F20003 		movw	r3, #:lower16:I2C_3_mstrStatus
 173 0124 C0F20003 		movt	r3, #:upper16:I2C_3_mstrStatus
 174 0128 1B78     		ldrb	r3, [r3, #0]
 175 012a DBB2     		uxtb	r3, r3
 176 012c 23F00203 		bic	r3, r3, #2
 177 0130 DAB2     		uxtb	r2, r3
 178 0132 40F20003 		movw	r3, #:lower16:I2C_3_mstrStatus
 179 0136 C0F20003 		movt	r3, #:upper16:I2C_3_mstrStatus
 180 013a 1A70     		strb	r2, [r3, #0]
 133:.\Generated_Source\PSoC5/I2C_3_MASTER.c **** 
 134:.\Generated_Source\PSoC5/I2C_3_MASTER.c ****             I2C_3_EnableInt();   /* Enable intr to complete transfer */
 181              		.loc 1 134 0
 182 013c 4FF46143 		mov	r3, #57600
 183 0140 CEF20003 		movt	r3, 57344
 184 0144 4FF40042 		mov	r2, #32768
 185 0148 1A60     		str	r2, [r3, #0]
 186              	.L2:
 135:.\Generated_Source\PSoC5/I2C_3_MASTER.c ****         }
 136:.\Generated_Source\PSoC5/I2C_3_MASTER.c ****     }
 137:.\Generated_Source\PSoC5/I2C_3_MASTER.c **** 
 138:.\Generated_Source\PSoC5/I2C_3_MASTER.c ****     return(errStatus);
 187              		.loc 1 138 0
 188 014a FB7B     		ldrb	r3, [r7, #15]	@ zero_extendqisi2
 139:.\Generated_Source\PSoC5/I2C_3_MASTER.c **** }
 189              		.loc 1 139 0
 190 014c 1846     		mov	r0, r3
 191 014e 07F11407 		add	r7, r7, #20
 192 0152 BD46     		mov	sp, r7
 193 0154 80BC     		pop	{r7}
 194 0156 7047     		bx	lr
 195              		.cfi_endproc
 196              	.LFE0:
 197              		.size	I2C_3_MasterWriteBuf, .-I2C_3_MasterWriteBuf
 198              		.section	.text.I2C_3_MasterReadBuf,"ax",%progbits
 199              		.align	2
 200              		.global	I2C_3_MasterReadBuf
 201              		.thumb
 202              		.thumb_func
 203              		.type	I2C_3_MasterReadBuf, %function
ARM GAS  C:\Users\devdev\AppData\Local\Temp\cc720ADm.s 			page 7


 204              	I2C_3_MasterReadBuf:
 205              	.LFB1:
 140:.\Generated_Source\PSoC5/I2C_3_MASTER.c **** 
 141:.\Generated_Source\PSoC5/I2C_3_MASTER.c **** 
 142:.\Generated_Source\PSoC5/I2C_3_MASTER.c **** /*******************************************************************************
 143:.\Generated_Source\PSoC5/I2C_3_MASTER.c **** * Function Name: I2C_3_MasterReadBuf
 144:.\Generated_Source\PSoC5/I2C_3_MASTER.c **** ********************************************************************************
 145:.\Generated_Source\PSoC5/I2C_3_MASTER.c **** *
 146:.\Generated_Source\PSoC5/I2C_3_MASTER.c **** * Summary:
 147:.\Generated_Source\PSoC5/I2C_3_MASTER.c **** *  Automatically writes an entire buffer of data to a slave device. Once the
 148:.\Generated_Source\PSoC5/I2C_3_MASTER.c **** *  data transfer is initiated by this function, further data transfer is handled
 149:.\Generated_Source\PSoC5/I2C_3_MASTER.c **** *  by the included ISR in byte by byte mode.
 150:.\Generated_Source\PSoC5/I2C_3_MASTER.c **** *
 151:.\Generated_Source\PSoC5/I2C_3_MASTER.c **** * Parameters:
 152:.\Generated_Source\PSoC5/I2C_3_MASTER.c **** *  slaveAddr: 7-bit slave address.
 153:.\Generated_Source\PSoC5/I2C_3_MASTER.c **** *  xferData:  Pointer to buffer where to put data from slave.
 154:.\Generated_Source\PSoC5/I2C_3_MASTER.c **** *  cnt:       Size of buffer to read.
 155:.\Generated_Source\PSoC5/I2C_3_MASTER.c **** *  mode:      Transfer mode defines: start or restart condition generation at
 156:.\Generated_Source\PSoC5/I2C_3_MASTER.c **** *             begin of the transfer and complete the transfer or halt before
 157:.\Generated_Source\PSoC5/I2C_3_MASTER.c **** *             generating a stop.
 158:.\Generated_Source\PSoC5/I2C_3_MASTER.c **** *
 159:.\Generated_Source\PSoC5/I2C_3_MASTER.c **** * Return:
 160:.\Generated_Source\PSoC5/I2C_3_MASTER.c **** *  Status error - zero means no errors.
 161:.\Generated_Source\PSoC5/I2C_3_MASTER.c **** *
 162:.\Generated_Source\PSoC5/I2C_3_MASTER.c **** * Side Effects:
 163:.\Generated_Source\PSoC5/I2C_3_MASTER.c **** *  The included ISR will start transfer after start or restart condition will
 164:.\Generated_Source\PSoC5/I2C_3_MASTER.c **** *  be generated.
 165:.\Generated_Source\PSoC5/I2C_3_MASTER.c **** *
 166:.\Generated_Source\PSoC5/I2C_3_MASTER.c **** * Global variables:
 167:.\Generated_Source\PSoC5/I2C_3_MASTER.c **** *  I2C_3_mstrStatus  - used to store current status of I2C Master.
 168:.\Generated_Source\PSoC5/I2C_3_MASTER.c **** *  I2C_3_state       - used to store current state of software FSM.
 169:.\Generated_Source\PSoC5/I2C_3_MASTER.c **** *  I2C_3_mstrControl - used to control master end of transaction with
 170:.\Generated_Source\PSoC5/I2C_3_MASTER.c **** *  or without the Stop generation.
 171:.\Generated_Source\PSoC5/I2C_3_MASTER.c **** *  I2C_3_mstrRdBufPtr - used to store pointer to master write buffer.
 172:.\Generated_Source\PSoC5/I2C_3_MASTER.c **** *  I2C_3_mstrRdBufIndex - used to current index within master write
 173:.\Generated_Source\PSoC5/I2C_3_MASTER.c **** *  buffer.
 174:.\Generated_Source\PSoC5/I2C_3_MASTER.c **** *  I2C_3_mstrRdBufSize - used to store master write buffer size.
 175:.\Generated_Source\PSoC5/I2C_3_MASTER.c **** *
 176:.\Generated_Source\PSoC5/I2C_3_MASTER.c **** * Reentrant:
 177:.\Generated_Source\PSoC5/I2C_3_MASTER.c **** *  No
 178:.\Generated_Source\PSoC5/I2C_3_MASTER.c **** *
 179:.\Generated_Source\PSoC5/I2C_3_MASTER.c **** *******************************************************************************/
 180:.\Generated_Source\PSoC5/I2C_3_MASTER.c **** uint8 I2C_3_MasterReadBuf(uint8 slaveAddress, uint8 * rdData, uint8 cnt, uint8 mode)
 181:.\Generated_Source\PSoC5/I2C_3_MASTER.c ****       
 182:.\Generated_Source\PSoC5/I2C_3_MASTER.c **** {
 206              		.loc 1 182 0
 207              		.cfi_startproc
 208              		@ args = 0, pretend = 0, frame = 16
 209              		@ frame_needed = 1, uses_anonymous_args = 0
 210              		@ link register save eliminated.
 211 0000 80B4     		push	{r7}
 212              	.LCFI3:
 213              		.cfi_def_cfa_offset 4
 214              		.cfi_offset 7, -4
 215 0002 85B0     		sub	sp, sp, #20
 216              	.LCFI4:
 217              		.cfi_def_cfa_offset 24
ARM GAS  C:\Users\devdev\AppData\Local\Temp\cc720ADm.s 			page 8


 218 0004 00AF     		add	r7, sp, #0
 219              	.LCFI5:
 220              		.cfi_def_cfa_register 7
 221 0006 3960     		str	r1, [r7, #0]
 222 0008 0146     		mov	r1, r0
 223 000a F971     		strb	r1, [r7, #7]
 224 000c BA71     		strb	r2, [r7, #6]
 225 000e 7B71     		strb	r3, [r7, #5]
 183:.\Generated_Source\PSoC5/I2C_3_MASTER.c ****     uint8 errStatus;
 184:.\Generated_Source\PSoC5/I2C_3_MASTER.c **** 
 185:.\Generated_Source\PSoC5/I2C_3_MASTER.c ****     errStatus = I2C_3_MSTR_NOT_READY;
 226              		.loc 1 185 0
 227 0010 4FF00203 		mov	r3, #2
 228 0014 FB73     		strb	r3, [r7, #15]
 186:.\Generated_Source\PSoC5/I2C_3_MASTER.c **** 
 187:.\Generated_Source\PSoC5/I2C_3_MASTER.c ****     if(NULL != rdData)
 229              		.loc 1 187 0
 230 0016 3B68     		ldr	r3, [r7, #0]
 231 0018 002B     		cmp	r3, #0
 232 001a 00F09980 		beq	.L10
 188:.\Generated_Source\PSoC5/I2C_3_MASTER.c ****     {
 189:.\Generated_Source\PSoC5/I2C_3_MASTER.c ****         /* Check I2C state before transfer: valid are IDLE or HALT */
 190:.\Generated_Source\PSoC5/I2C_3_MASTER.c ****         if(I2C_3_SM_IDLE == I2C_3_state)
 233              		.loc 1 190 0
 234 001e 40F20003 		movw	r3, #:lower16:I2C_3_state
 235 0022 C0F20003 		movt	r3, #:upper16:I2C_3_state
 236 0026 1B78     		ldrb	r3, [r3, #0]
 237 0028 DBB2     		uxtb	r3, r3
 238 002a 102B     		cmp	r3, #16
 239 002c 11D1     		bne	.L11
 191:.\Generated_Source\PSoC5/I2C_3_MASTER.c ****         {
 192:.\Generated_Source\PSoC5/I2C_3_MASTER.c ****             /* Check if free: Master is ready to transaction */
 193:.\Generated_Source\PSoC5/I2C_3_MASTER.c ****             if(I2C_3_CHECK_BUS_FREE(I2C_3_MCSR_REG))
 240              		.loc 1 193 0
 241 002e 44F6D913 		movw	r3, #18905
 242 0032 C4F20003 		movt	r3, 16384
 243 0036 1B78     		ldrb	r3, [r3, #0]
 244 0038 DBB2     		uxtb	r3, r3
 245 003a 03F00803 		and	r3, r3, #8
 246 003e 002B     		cmp	r3, #0
 247 0040 03D1     		bne	.L12
 194:.\Generated_Source\PSoC5/I2C_3_MASTER.c ****             {
 195:.\Generated_Source\PSoC5/I2C_3_MASTER.c ****                 errStatus = I2C_3_MSTR_NO_ERROR;
 248              		.loc 1 195 0
 249 0042 4FF00003 		mov	r3, #0
 250 0046 FB73     		strb	r3, [r7, #15]
 251 0048 23E0     		b	.L13
 252              	.L12:
 196:.\Generated_Source\PSoC5/I2C_3_MASTER.c ****             }
 197:.\Generated_Source\PSoC5/I2C_3_MASTER.c ****             else
 198:.\Generated_Source\PSoC5/I2C_3_MASTER.c ****             {
 199:.\Generated_Source\PSoC5/I2C_3_MASTER.c ****                 errStatus = I2C_3_MSTR_BUS_BUSY;
 253              		.loc 1 199 0
 254 004a 4FF00103 		mov	r3, #1
 255 004e FB73     		strb	r3, [r7, #15]
 256 0050 1FE0     		b	.L13
 257              	.L11:
ARM GAS  C:\Users\devdev\AppData\Local\Temp\cc720ADm.s 			page 9


 200:.\Generated_Source\PSoC5/I2C_3_MASTER.c ****             }
 201:.\Generated_Source\PSoC5/I2C_3_MASTER.c ****         }
 202:.\Generated_Source\PSoC5/I2C_3_MASTER.c ****         else if(I2C_3_SM_MSTR_HALT == I2C_3_state)
 258              		.loc 1 202 0
 259 0052 40F20003 		movw	r3, #:lower16:I2C_3_state
 260 0056 C0F20003 		movt	r3, #:upper16:I2C_3_state
 261 005a 1B78     		ldrb	r3, [r3, #0]
 262 005c DBB2     		uxtb	r3, r3
 263 005e 602B     		cmp	r3, #96
 264 0060 17D1     		bne	.L13
 203:.\Generated_Source\PSoC5/I2C_3_MASTER.c ****         {
 204:.\Generated_Source\PSoC5/I2C_3_MASTER.c ****             errStatus = I2C_3_MSTR_NO_ERROR;
 265              		.loc 1 204 0
 266 0062 4FF00003 		mov	r3, #0
 267 0066 FB73     		strb	r3, [r7, #15]
 205:.\Generated_Source\PSoC5/I2C_3_MASTER.c **** 
 206:.\Generated_Source\PSoC5/I2C_3_MASTER.c ****             CyIntClearPending(I2C_3_ISR_NUMBER);
 268              		.loc 1 206 0
 269 0068 4EF28023 		movw	r3, #57984
 270 006c CEF20003 		movt	r3, 57344
 271 0070 4FF40042 		mov	r2, #32768
 272 0074 1A60     		str	r2, [r3, #0]
 207:.\Generated_Source\PSoC5/I2C_3_MASTER.c ****             I2C_3_mstrStatus &= ((uint8) ~I2C_3_MSTAT_XFER_HALT);
 273              		.loc 1 207 0
 274 0076 40F20003 		movw	r3, #:lower16:I2C_3_mstrStatus
 275 007a C0F20003 		movt	r3, #:upper16:I2C_3_mstrStatus
 276 007e 1B78     		ldrb	r3, [r3, #0]
 277 0080 DBB2     		uxtb	r3, r3
 278 0082 23F00803 		bic	r3, r3, #8
 279 0086 DAB2     		uxtb	r2, r3
 280 0088 40F20003 		movw	r3, #:lower16:I2C_3_mstrStatus
 281 008c C0F20003 		movt	r3, #:upper16:I2C_3_mstrStatus
 282 0090 1A70     		strb	r2, [r3, #0]
 283              	.L13:
 208:.\Generated_Source\PSoC5/I2C_3_MASTER.c ****         }
 209:.\Generated_Source\PSoC5/I2C_3_MASTER.c ****         else
 210:.\Generated_Source\PSoC5/I2C_3_MASTER.c ****         {
 211:.\Generated_Source\PSoC5/I2C_3_MASTER.c ****             /* errStatus = I2C_3_MSTR_NOT_READY was send before */
 212:.\Generated_Source\PSoC5/I2C_3_MASTER.c ****         }
 213:.\Generated_Source\PSoC5/I2C_3_MASTER.c **** 
 214:.\Generated_Source\PSoC5/I2C_3_MASTER.c ****         if(I2C_3_MSTR_NO_ERROR == errStatus)
 284              		.loc 1 214 0
 285 0092 FB7B     		ldrb	r3, [r7, #15]	@ zero_extendqisi2
 286 0094 002B     		cmp	r3, #0
 287 0096 5BD1     		bne	.L10
 215:.\Generated_Source\PSoC5/I2C_3_MASTER.c ****         {
 216:.\Generated_Source\PSoC5/I2C_3_MASTER.c ****             I2C_3_state    = I2C_3_SM_MSTR_RD_ADDR;
 288              		.loc 1 216 0
 289 0098 40F20003 		movw	r3, #:lower16:I2C_3_state
 290 009c C0F20003 		movt	r3, #:upper16:I2C_3_state
 291 00a0 4FF04902 		mov	r2, #73
 292 00a4 1A70     		strb	r2, [r3, #0]
 217:.\Generated_Source\PSoC5/I2C_3_MASTER.c ****             I2C_3_DATA_REG = (((uint8) (slaveAddress << I2C_3_SLAVE_ADDR_SHIFT)) |
 293              		.loc 1 217 0
 294 00a6 44F6D813 		movw	r3, #18904
 295 00aa C4F20003 		movt	r3, 16384
 296 00ae FA79     		ldrb	r2, [r7, #7]
ARM GAS  C:\Users\devdev\AppData\Local\Temp\cc720ADm.s 			page 10


 297 00b0 4FEA4202 		lsl	r2, r2, #1
 298 00b4 D2B2     		uxtb	r2, r2
 299 00b6 42F00102 		orr	r2, r2, #1
 300 00ba D2B2     		uxtb	r2, r2
 301 00bc 1A70     		strb	r2, [r3, #0]
 218:.\Generated_Source\PSoC5/I2C_3_MASTER.c ****                                                    I2C_3_READ_FLAG);
 219:.\Generated_Source\PSoC5/I2C_3_MASTER.c **** 
 220:.\Generated_Source\PSoC5/I2C_3_MASTER.c ****             I2C_3_mstrRdBufIndex  = 0u;
 302              		.loc 1 220 0
 303 00be 40F20003 		movw	r3, #:lower16:I2C_3_mstrRdBufIndex
 304 00c2 C0F20003 		movt	r3, #:upper16:I2C_3_mstrRdBufIndex
 305 00c6 4FF00002 		mov	r2, #0
 306 00ca 1A70     		strb	r2, [r3, #0]
 221:.\Generated_Source\PSoC5/I2C_3_MASTER.c ****             I2C_3_mstrRdBufSize   = cnt;
 307              		.loc 1 221 0
 308 00cc 40F20003 		movw	r3, #:lower16:I2C_3_mstrRdBufSize
 309 00d0 C0F20003 		movt	r3, #:upper16:I2C_3_mstrRdBufSize
 310 00d4 BA79     		ldrb	r2, [r7, #6]
 311 00d6 1A70     		strb	r2, [r3, #0]
 222:.\Generated_Source\PSoC5/I2C_3_MASTER.c ****             I2C_3_mstrRdBufPtr    = (volatile uint8 *) rdData;
 312              		.loc 1 222 0
 313 00d8 40F20003 		movw	r3, #:lower16:I2C_3_mstrRdBufPtr
 314 00dc C0F20003 		movt	r3, #:upper16:I2C_3_mstrRdBufPtr
 315 00e0 3A68     		ldr	r2, [r7, #0]
 316 00e2 1A60     		str	r2, [r3, #0]
 223:.\Generated_Source\PSoC5/I2C_3_MASTER.c **** 
 224:.\Generated_Source\PSoC5/I2C_3_MASTER.c ****             I2C_3_mstrControl = mode;    /* Save transaction mode */
 317              		.loc 1 224 0
 318 00e4 40F20003 		movw	r3, #:lower16:I2C_3_mstrControl
 319 00e8 C0F20003 		movt	r3, #:upper16:I2C_3_mstrControl
 320 00ec 7A79     		ldrb	r2, [r7, #5]
 321 00ee 1A70     		strb	r2, [r3, #0]
 225:.\Generated_Source\PSoC5/I2C_3_MASTER.c **** 
 226:.\Generated_Source\PSoC5/I2C_3_MASTER.c ****             /* Generate a Start or ReStart depends on mode */
 227:.\Generated_Source\PSoC5/I2C_3_MASTER.c ****             if(I2C_3_CHECK_RESTART(mode))
 322              		.loc 1 227 0
 323 00f0 7B79     		ldrb	r3, [r7, #5]	@ zero_extendqisi2
 324 00f2 03F00103 		and	r3, r3, #1
 325 00f6 002B     		cmp	r3, #0
 326 00f8 0ED0     		beq	.L14
 228:.\Generated_Source\PSoC5/I2C_3_MASTER.c ****             {
 229:.\Generated_Source\PSoC5/I2C_3_MASTER.c ****                 I2C_3_GENERATE_RESTART;
 327              		.loc 1 229 0
 328 00fa 44F6D913 		movw	r3, #18905
 329 00fe C4F20003 		movt	r3, 16384
 330 0102 4FF01202 		mov	r2, #18
 331 0106 1A70     		strb	r2, [r3, #0]
 332 0108 44F6D713 		movw	r3, #18903
 333 010c C4F20003 		movt	r3, 16384
 334 0110 4FF00402 		mov	r2, #4
 335 0114 1A70     		strb	r2, [r3, #0]
 336 0116 06E0     		b	.L15
 337              	.L14:
 230:.\Generated_Source\PSoC5/I2C_3_MASTER.c ****             }
 231:.\Generated_Source\PSoC5/I2C_3_MASTER.c ****             else
 232:.\Generated_Source\PSoC5/I2C_3_MASTER.c ****             {
 233:.\Generated_Source\PSoC5/I2C_3_MASTER.c ****                 I2C_3_GENERATE_START;
ARM GAS  C:\Users\devdev\AppData\Local\Temp\cc720ADm.s 			page 11


 338              		.loc 1 233 0
 339 0118 44F6D913 		movw	r3, #18905
 340 011c C4F20003 		movt	r3, 16384
 341 0120 4FF00102 		mov	r2, #1
 342 0124 1A70     		strb	r2, [r3, #0]
 343              	.L15:
 234:.\Generated_Source\PSoC5/I2C_3_MASTER.c ****             }
 235:.\Generated_Source\PSoC5/I2C_3_MASTER.c **** 
 236:.\Generated_Source\PSoC5/I2C_3_MASTER.c ****             I2C_3_mstrStatus &= ((uint8) ~I2C_3_MSTAT_RD_CMPLT);
 344              		.loc 1 236 0
 345 0126 40F20003 		movw	r3, #:lower16:I2C_3_mstrStatus
 346 012a C0F20003 		movt	r3, #:upper16:I2C_3_mstrStatus
 347 012e 1B78     		ldrb	r3, [r3, #0]
 348 0130 DBB2     		uxtb	r3, r3
 349 0132 23F00103 		bic	r3, r3, #1
 350 0136 DAB2     		uxtb	r2, r3
 351 0138 40F20003 		movw	r3, #:lower16:I2C_3_mstrStatus
 352 013c C0F20003 		movt	r3, #:upper16:I2C_3_mstrStatus
 353 0140 1A70     		strb	r2, [r3, #0]
 237:.\Generated_Source\PSoC5/I2C_3_MASTER.c **** 
 238:.\Generated_Source\PSoC5/I2C_3_MASTER.c ****             I2C_3_EnableInt();   /* Enable intr to complete transfer */
 354              		.loc 1 238 0
 355 0142 4FF46143 		mov	r3, #57600
 356 0146 CEF20003 		movt	r3, 57344
 357 014a 4FF40042 		mov	r2, #32768
 358 014e 1A60     		str	r2, [r3, #0]
 359              	.L10:
 239:.\Generated_Source\PSoC5/I2C_3_MASTER.c ****         }
 240:.\Generated_Source\PSoC5/I2C_3_MASTER.c ****     }
 241:.\Generated_Source\PSoC5/I2C_3_MASTER.c **** 
 242:.\Generated_Source\PSoC5/I2C_3_MASTER.c ****     return(errStatus);
 360              		.loc 1 242 0
 361 0150 FB7B     		ldrb	r3, [r7, #15]	@ zero_extendqisi2
 243:.\Generated_Source\PSoC5/I2C_3_MASTER.c **** }
 362              		.loc 1 243 0
 363 0152 1846     		mov	r0, r3
 364 0154 07F11407 		add	r7, r7, #20
 365 0158 BD46     		mov	sp, r7
 366 015a 80BC     		pop	{r7}
 367 015c 7047     		bx	lr
 368              		.cfi_endproc
 369              	.LFE1:
 370              		.size	I2C_3_MasterReadBuf, .-I2C_3_MasterReadBuf
 371 015e 00BF     		.section	.text.I2C_3_MasterSendStart,"ax",%progbits
 372              		.align	2
 373              		.global	I2C_3_MasterSendStart
 374              		.thumb
 375              		.thumb_func
 376              		.type	I2C_3_MasterSendStart, %function
 377              	I2C_3_MasterSendStart:
 378              	.LFB2:
 244:.\Generated_Source\PSoC5/I2C_3_MASTER.c **** 
 245:.\Generated_Source\PSoC5/I2C_3_MASTER.c **** 
 246:.\Generated_Source\PSoC5/I2C_3_MASTER.c **** /*******************************************************************************
 247:.\Generated_Source\PSoC5/I2C_3_MASTER.c **** * Function Name: I2C_3_MasterSendStart
 248:.\Generated_Source\PSoC5/I2C_3_MASTER.c **** ********************************************************************************
 249:.\Generated_Source\PSoC5/I2C_3_MASTER.c **** *
ARM GAS  C:\Users\devdev\AppData\Local\Temp\cc720ADm.s 			page 12


 250:.\Generated_Source\PSoC5/I2C_3_MASTER.c **** * Summary:
 251:.\Generated_Source\PSoC5/I2C_3_MASTER.c **** *  Generates Start condition and sends slave address with read/write bit.
 252:.\Generated_Source\PSoC5/I2C_3_MASTER.c **** *
 253:.\Generated_Source\PSoC5/I2C_3_MASTER.c **** * Parameters:
 254:.\Generated_Source\PSoC5/I2C_3_MASTER.c **** *  slaveAddress:  7-bit slave address.
 255:.\Generated_Source\PSoC5/I2C_3_MASTER.c **** *  R_nW:          Zero, send write command, non-zero send read command.
 256:.\Generated_Source\PSoC5/I2C_3_MASTER.c **** *
 257:.\Generated_Source\PSoC5/I2C_3_MASTER.c **** * Return:
 258:.\Generated_Source\PSoC5/I2C_3_MASTER.c **** *  Status error - zero means no errors.
 259:.\Generated_Source\PSoC5/I2C_3_MASTER.c **** *
 260:.\Generated_Source\PSoC5/I2C_3_MASTER.c **** * Side Effects:
 261:.\Generated_Source\PSoC5/I2C_3_MASTER.c **** *  This function is entered without a 'byte complete' bit set in the I2C_CSR
 262:.\Generated_Source\PSoC5/I2C_3_MASTER.c **** *  register. It does not exit until it will be set.
 263:.\Generated_Source\PSoC5/I2C_3_MASTER.c **** *
 264:.\Generated_Source\PSoC5/I2C_3_MASTER.c **** * Global variables:
 265:.\Generated_Source\PSoC5/I2C_3_MASTER.c **** *  I2C_3_state - used to store current state of software FSM.
 266:.\Generated_Source\PSoC5/I2C_3_MASTER.c **** *
 267:.\Generated_Source\PSoC5/I2C_3_MASTER.c **** * Reentrant:
 268:.\Generated_Source\PSoC5/I2C_3_MASTER.c **** *  No
 269:.\Generated_Source\PSoC5/I2C_3_MASTER.c **** *
 270:.\Generated_Source\PSoC5/I2C_3_MASTER.c **** *******************************************************************************/
 271:.\Generated_Source\PSoC5/I2C_3_MASTER.c **** uint8 I2C_3_MasterSendStart(uint8 slaveAddress, uint8 R_nW)
 272:.\Generated_Source\PSoC5/I2C_3_MASTER.c ****       
 273:.\Generated_Source\PSoC5/I2C_3_MASTER.c **** {
 379              		.loc 1 273 0
 380              		.cfi_startproc
 381              		@ args = 0, pretend = 0, frame = 16
 382              		@ frame_needed = 1, uses_anonymous_args = 0
 383              		@ link register save eliminated.
 384 0000 80B4     		push	{r7}
 385              	.LCFI6:
 386              		.cfi_def_cfa_offset 4
 387              		.cfi_offset 7, -4
 388 0002 85B0     		sub	sp, sp, #20
 389              	.LCFI7:
 390              		.cfi_def_cfa_offset 24
 391 0004 00AF     		add	r7, sp, #0
 392              	.LCFI8:
 393              		.cfi_def_cfa_register 7
 394 0006 0246     		mov	r2, r0
 395 0008 0B46     		mov	r3, r1
 396 000a FA71     		strb	r2, [r7, #7]
 397 000c BB71     		strb	r3, [r7, #6]
 274:.\Generated_Source\PSoC5/I2C_3_MASTER.c ****     uint8 errStatus;
 275:.\Generated_Source\PSoC5/I2C_3_MASTER.c **** 
 276:.\Generated_Source\PSoC5/I2C_3_MASTER.c ****     errStatus = I2C_3_MSTR_NOT_READY;
 398              		.loc 1 276 0
 399 000e 4FF00203 		mov	r3, #2
 400 0012 FB73     		strb	r3, [r7, #15]
 277:.\Generated_Source\PSoC5/I2C_3_MASTER.c **** 
 278:.\Generated_Source\PSoC5/I2C_3_MASTER.c ****     /* If IDLE, check if bus is free */
 279:.\Generated_Source\PSoC5/I2C_3_MASTER.c ****     if(I2C_3_SM_IDLE == I2C_3_state)
 401              		.loc 1 279 0
 402 0014 40F20003 		movw	r3, #:lower16:I2C_3_state
 403 0018 C0F20003 		movt	r3, #:upper16:I2C_3_state
 404 001c 1B78     		ldrb	r3, [r3, #0]
 405 001e DBB2     		uxtb	r3, r3
ARM GAS  C:\Users\devdev\AppData\Local\Temp\cc720ADm.s 			page 13


 406 0020 102B     		cmp	r3, #16
 407 0022 40F0AA80 		bne	.L18
 280:.\Generated_Source\PSoC5/I2C_3_MASTER.c ****     {
 281:.\Generated_Source\PSoC5/I2C_3_MASTER.c ****         /* If bus is free, generate Start condition */
 282:.\Generated_Source\PSoC5/I2C_3_MASTER.c ****         if(I2C_3_CHECK_BUS_FREE(I2C_3_MCSR_REG))
 408              		.loc 1 282 0
 409 0026 44F6D913 		movw	r3, #18905
 410 002a C4F20003 		movt	r3, 16384
 411 002e 1B78     		ldrb	r3, [r3, #0]
 412 0030 DBB2     		uxtb	r3, r3
 413 0032 03F00803 		and	r3, r3, #8
 414 0036 002B     		cmp	r3, #0
 415 0038 40F09C80 		bne	.L19
 283:.\Generated_Source\PSoC5/I2C_3_MASTER.c ****         {
 284:.\Generated_Source\PSoC5/I2C_3_MASTER.c ****             I2C_3_DisableInt();  /* Disable ISR for Manual functions */
 416              		.loc 1 284 0
 417 003c 4EF28013 		movw	r3, #57728
 418 0040 CEF20003 		movt	r3, 57344
 419 0044 4FF40042 		mov	r2, #32768
 420 0048 1A60     		str	r2, [r3, #0]
 285:.\Generated_Source\PSoC5/I2C_3_MASTER.c **** 
 286:.\Generated_Source\PSoC5/I2C_3_MASTER.c ****             slaveAddress = ((uint8) (slaveAddress << I2C_3_SLAVE_ADDR_SHIFT)); /* Set Address */
 421              		.loc 1 286 0
 422 004a FB79     		ldrb	r3, [r7, #7]
 423 004c 4FEA4303 		lsl	r3, r3, #1
 424 0050 FB71     		strb	r3, [r7, #7]
 287:.\Generated_Source\PSoC5/I2C_3_MASTER.c ****             if(0u != R_nW)                                      /* Set the Read/Write flag */
 425              		.loc 1 287 0
 426 0052 BB79     		ldrb	r3, [r7, #6]	@ zero_extendqisi2
 427 0054 002B     		cmp	r3, #0
 428 0056 0BD0     		beq	.L20
 288:.\Generated_Source\PSoC5/I2C_3_MASTER.c ****             {
 289:.\Generated_Source\PSoC5/I2C_3_MASTER.c ****                 slaveAddress |= I2C_3_READ_FLAG;
 429              		.loc 1 289 0
 430 0058 FB79     		ldrb	r3, [r7, #7]
 431 005a 43F00103 		orr	r3, r3, #1
 432 005e FB71     		strb	r3, [r7, #7]
 290:.\Generated_Source\PSoC5/I2C_3_MASTER.c ****                 I2C_3_state = I2C_3_SM_MSTR_RD_ADDR;
 433              		.loc 1 290 0
 434 0060 40F20003 		movw	r3, #:lower16:I2C_3_state
 435 0064 C0F20003 		movt	r3, #:upper16:I2C_3_state
 436 0068 4FF04902 		mov	r2, #73
 437 006c 1A70     		strb	r2, [r3, #0]
 438 006e 06E0     		b	.L21
 439              	.L20:
 291:.\Generated_Source\PSoC5/I2C_3_MASTER.c ****             }
 292:.\Generated_Source\PSoC5/I2C_3_MASTER.c ****             else
 293:.\Generated_Source\PSoC5/I2C_3_MASTER.c ****             {
 294:.\Generated_Source\PSoC5/I2C_3_MASTER.c ****                 I2C_3_state = I2C_3_SM_MSTR_WR_ADDR;
 440              		.loc 1 294 0
 441 0070 40F20003 		movw	r3, #:lower16:I2C_3_state
 442 0074 C0F20003 		movt	r3, #:upper16:I2C_3_state
 443 0078 4FF04502 		mov	r2, #69
 444 007c 1A70     		strb	r2, [r3, #0]
 445              	.L21:
 295:.\Generated_Source\PSoC5/I2C_3_MASTER.c ****             }
 296:.\Generated_Source\PSoC5/I2C_3_MASTER.c ****             I2C_3_DATA_REG = slaveAddress;   /* Write address to data reg */
ARM GAS  C:\Users\devdev\AppData\Local\Temp\cc720ADm.s 			page 14


 446              		.loc 1 296 0
 447 007e 44F6D813 		movw	r3, #18904
 448 0082 C4F20003 		movt	r3, 16384
 449 0086 FA79     		ldrb	r2, [r7, #7]
 450 0088 1A70     		strb	r2, [r3, #0]
 297:.\Generated_Source\PSoC5/I2C_3_MASTER.c **** 
 298:.\Generated_Source\PSoC5/I2C_3_MASTER.c **** 
 299:.\Generated_Source\PSoC5/I2C_3_MASTER.c ****             I2C_3_GENERATE_START;
 451              		.loc 1 299 0
 452 008a 44F6D913 		movw	r3, #18905
 453 008e C4F20003 		movt	r3, 16384
 454 0092 4FF00102 		mov	r2, #1
 455 0096 1A70     		strb	r2, [r3, #0]
 300:.\Generated_Source\PSoC5/I2C_3_MASTER.c ****             while(I2C_3_WAIT_BYTE_COMPLETE(I2C_3_CSR_REG))
 456              		.loc 1 300 0
 457 0098 00BF     		nop
 458              	.L22:
 459              		.loc 1 300 0 is_stmt 0 discriminator 1
 460 009a 44F6D713 		movw	r3, #18903
 461 009e C4F20003 		movt	r3, 16384
 462 00a2 1B78     		ldrb	r3, [r3, #0]
 463 00a4 DBB2     		uxtb	r3, r3
 464 00a6 03F00103 		and	r3, r3, #1
 465 00aa 002B     		cmp	r3, #0
 466 00ac F5D0     		beq	.L22
 301:.\Generated_Source\PSoC5/I2C_3_MASTER.c ****             {
 302:.\Generated_Source\PSoC5/I2C_3_MASTER.c ****                 ; /* Wait for the address to be transfered */
 303:.\Generated_Source\PSoC5/I2C_3_MASTER.c ****             }
 304:.\Generated_Source\PSoC5/I2C_3_MASTER.c **** 
 305:.\Generated_Source\PSoC5/I2C_3_MASTER.c ****             #if(I2C_3_MODE_MULTI_MASTER_SLAVE_ENABLED)
 306:.\Generated_Source\PSoC5/I2C_3_MASTER.c ****                 if(I2C_3_CHECK_START_GEN(I2C_3_MCSR_REG))
 467              		.loc 1 306 0 is_stmt 1
 468 00ae 44F6D913 		movw	r3, #18905
 469 00b2 C4F20003 		movt	r3, 16384
 470 00b6 1B78     		ldrb	r3, [r3, #0]
 471 00b8 DBB2     		uxtb	r3, r3
 472 00ba 03F00103 		and	r3, r3, #1
 473 00be 002B     		cmp	r3, #0
 474 00c0 22D0     		beq	.L23
 475              		.loc 1 306 0 is_stmt 0 discriminator 1
 476 00c2 44F6D913 		movw	r3, #18905
 477 00c6 C4F20003 		movt	r3, 16384
 478 00ca 1B78     		ldrb	r3, [r3, #0]
 479 00cc DBB2     		uxtb	r3, r3
 480 00ce 03F00403 		and	r3, r3, #4
 481 00d2 002B     		cmp	r3, #0
 482 00d4 18D1     		bne	.L23
 307:.\Generated_Source\PSoC5/I2C_3_MASTER.c ****                 {
 308:.\Generated_Source\PSoC5/I2C_3_MASTER.c ****                     I2C_3_CLEAR_START_GEN;
 483              		.loc 1 308 0 is_stmt 1
 484 00d6 44F6D913 		movw	r3, #18905
 485 00da C4F20003 		movt	r3, 16384
 486 00de 44F6D912 		movw	r2, #18905
 487 00e2 C4F20002 		movt	r2, 16384
 488 00e6 1278     		ldrb	r2, [r2, #0]
 489 00e8 D2B2     		uxtb	r2, r2
 490 00ea 22F00102 		bic	r2, r2, #1
ARM GAS  C:\Users\devdev\AppData\Local\Temp\cc720ADm.s 			page 15


 491 00ee D2B2     		uxtb	r2, r2
 492 00f0 1A70     		strb	r2, [r3, #0]
 309:.\Generated_Source\PSoC5/I2C_3_MASTER.c **** 
 310:.\Generated_Source\PSoC5/I2C_3_MASTER.c ****                     /* Start condition was not generated: reset FSM to IDLE */
 311:.\Generated_Source\PSoC5/I2C_3_MASTER.c ****                     I2C_3_state = I2C_3_SM_IDLE;
 493              		.loc 1 311 0
 494 00f2 40F20003 		movw	r3, #:lower16:I2C_3_state
 495 00f6 C0F20003 		movt	r3, #:upper16:I2C_3_state
 496 00fa 4FF01002 		mov	r2, #16
 497 00fe 1A70     		strb	r2, [r3, #0]
 312:.\Generated_Source\PSoC5/I2C_3_MASTER.c ****                     errStatus = I2C_3_MSTR_ERR_ABORT_START_GEN;
 498              		.loc 1 312 0
 499 0100 4FF00503 		mov	r3, #5
 500 0104 FB73     		strb	r3, [r7, #15]
 501 0106 38E0     		b	.L18
 502              	.L23:
 313:.\Generated_Source\PSoC5/I2C_3_MASTER.c ****                 }
 314:.\Generated_Source\PSoC5/I2C_3_MASTER.c ****                 else
 315:.\Generated_Source\PSoC5/I2C_3_MASTER.c ****             #endif /* (I2C_3_MODE_MULTI_MASTER_SLAVE_ENABLED) */
 316:.\Generated_Source\PSoC5/I2C_3_MASTER.c **** 
 317:.\Generated_Source\PSoC5/I2C_3_MASTER.c ****             #if(I2C_3_MODE_MULTI_MASTER_ENABLED)
 318:.\Generated_Source\PSoC5/I2C_3_MASTER.c **** 
 319:.\Generated_Source\PSoC5/I2C_3_MASTER.c ****                 if(I2C_3_CHECK_LOST_ARB(I2C_3_CSR_REG))
 503              		.loc 1 319 0
 504 0108 44F6D713 		movw	r3, #18903
 505 010c C4F20003 		movt	r3, 16384
 506 0110 1B78     		ldrb	r3, [r3, #0]
 507 0112 DBB2     		uxtb	r3, r3
 508 0114 03F04003 		and	r3, r3, #64
 509 0118 002B     		cmp	r3, #0
 510 011a 11D0     		beq	.L25
 320:.\Generated_Source\PSoC5/I2C_3_MASTER.c ****                 {
 321:.\Generated_Source\PSoC5/I2C_3_MASTER.c ****                     I2C_3_BUS_RELEASE;
 511              		.loc 1 321 0
 512 011c 44F6D713 		movw	r3, #18903
 513 0120 C4F20003 		movt	r3, 16384
 514 0124 4FF00002 		mov	r2, #0
 515 0128 1A70     		strb	r2, [r3, #0]
 322:.\Generated_Source\PSoC5/I2C_3_MASTER.c **** 
 323:.\Generated_Source\PSoC5/I2C_3_MASTER.c ****                     /* Master lost arbitrage: reset FSM to IDLE */
 324:.\Generated_Source\PSoC5/I2C_3_MASTER.c ****                     I2C_3_state = I2C_3_SM_IDLE;
 516              		.loc 1 324 0
 517 012a 40F20003 		movw	r3, #:lower16:I2C_3_state
 518 012e C0F20003 		movt	r3, #:upper16:I2C_3_state
 519 0132 4FF01002 		mov	r2, #16
 520 0136 1A70     		strb	r2, [r3, #0]
 325:.\Generated_Source\PSoC5/I2C_3_MASTER.c ****                     errStatus = I2C_3_MSTR_ERR_ARB_LOST;
 521              		.loc 1 325 0
 522 0138 4FF00403 		mov	r3, #4
 523 013c FB73     		strb	r3, [r7, #15]
 326:.\Generated_Source\PSoC5/I2C_3_MASTER.c ****                 }
 327:.\Generated_Source\PSoC5/I2C_3_MASTER.c ****                 else
 328:.\Generated_Source\PSoC5/I2C_3_MASTER.c ****             #endif /* (I2C_3_MODE_MULTI_MASTER_ENABLED) */
 329:.\Generated_Source\PSoC5/I2C_3_MASTER.c **** 
 330:.\Generated_Source\PSoC5/I2C_3_MASTER.c ****                 if(I2C_3_CHECK_ADDR_NAK(I2C_3_CSR_REG))
 331:.\Generated_Source\PSoC5/I2C_3_MASTER.c ****                 {
 332:.\Generated_Source\PSoC5/I2C_3_MASTER.c ****                     /* Address has been NACKed: reset FSM to IDLE */
ARM GAS  C:\Users\devdev\AppData\Local\Temp\cc720ADm.s 			page 16


 333:.\Generated_Source\PSoC5/I2C_3_MASTER.c ****                     I2C_3_state = I2C_3_SM_IDLE;
 334:.\Generated_Source\PSoC5/I2C_3_MASTER.c ****                     errStatus = I2C_3_MSTR_ERR_LB_NAK;
 335:.\Generated_Source\PSoC5/I2C_3_MASTER.c ****                 }
 336:.\Generated_Source\PSoC5/I2C_3_MASTER.c ****                 else
 337:.\Generated_Source\PSoC5/I2C_3_MASTER.c ****                 {
 338:.\Generated_Source\PSoC5/I2C_3_MASTER.c ****                     /* Start was sent witout errors */
 339:.\Generated_Source\PSoC5/I2C_3_MASTER.c ****                     errStatus = I2C_3_MSTR_NO_ERROR;
 524              		.loc 1 339 0
 525 013e 1CE0     		b	.L18
 526              	.L25:
 330:.\Generated_Source\PSoC5/I2C_3_MASTER.c ****                 if(I2C_3_CHECK_ADDR_NAK(I2C_3_CSR_REG))
 527              		.loc 1 330 0
 528 0140 44F6D713 		movw	r3, #18903
 529 0144 C4F20003 		movt	r3, 16384
 530 0148 1B78     		ldrb	r3, [r3, #0]
 531 014a DBB2     		uxtb	r3, r3
 532 014c 03F00A03 		and	r3, r3, #10
 533 0150 DBB2     		uxtb	r3, r3
 534 0152 0A2B     		cmp	r3, #10
 535 0154 0AD1     		bne	.L26
 333:.\Generated_Source\PSoC5/I2C_3_MASTER.c ****                     I2C_3_state = I2C_3_SM_IDLE;
 536              		.loc 1 333 0
 537 0156 40F20003 		movw	r3, #:lower16:I2C_3_state
 538 015a C0F20003 		movt	r3, #:upper16:I2C_3_state
 539 015e 4FF01002 		mov	r2, #16
 540 0162 1A70     		strb	r2, [r3, #0]
 334:.\Generated_Source\PSoC5/I2C_3_MASTER.c ****                     errStatus = I2C_3_MSTR_ERR_LB_NAK;
 541              		.loc 1 334 0
 542 0164 4FF00303 		mov	r3, #3
 543 0168 FB73     		strb	r3, [r7, #15]
 544              		.loc 1 339 0
 545 016a 06E0     		b	.L18
 546              	.L26:
 547 016c 4FF00003 		mov	r3, #0
 548 0170 FB73     		strb	r3, [r7, #15]
 549 0172 02E0     		b	.L18
 550              	.L19:
 340:.\Generated_Source\PSoC5/I2C_3_MASTER.c ****                 }
 341:.\Generated_Source\PSoC5/I2C_3_MASTER.c ****         }
 342:.\Generated_Source\PSoC5/I2C_3_MASTER.c ****         else
 343:.\Generated_Source\PSoC5/I2C_3_MASTER.c ****         {
 344:.\Generated_Source\PSoC5/I2C_3_MASTER.c ****             errStatus = I2C_3_MSTR_BUS_BUSY; /* Bus is busy */
 551              		.loc 1 344 0
 552 0174 4FF00103 		mov	r3, #1
 553 0178 FB73     		strb	r3, [r7, #15]
 554              	.L18:
 345:.\Generated_Source\PSoC5/I2C_3_MASTER.c ****         }
 346:.\Generated_Source\PSoC5/I2C_3_MASTER.c ****     }
 347:.\Generated_Source\PSoC5/I2C_3_MASTER.c **** 
 348:.\Generated_Source\PSoC5/I2C_3_MASTER.c ****     return(errStatus);
 555              		.loc 1 348 0
 556 017a FB7B     		ldrb	r3, [r7, #15]	@ zero_extendqisi2
 349:.\Generated_Source\PSoC5/I2C_3_MASTER.c **** }
 557              		.loc 1 349 0
 558 017c 1846     		mov	r0, r3
 559 017e 07F11407 		add	r7, r7, #20
 560 0182 BD46     		mov	sp, r7
ARM GAS  C:\Users\devdev\AppData\Local\Temp\cc720ADm.s 			page 17


 561 0184 80BC     		pop	{r7}
 562 0186 7047     		bx	lr
 563              		.cfi_endproc
 564              	.LFE2:
 565              		.size	I2C_3_MasterSendStart, .-I2C_3_MasterSendStart
 566              		.section	.text.I2C_3_MasterSendRestart,"ax",%progbits
 567              		.align	2
 568              		.global	I2C_3_MasterSendRestart
 569              		.thumb
 570              		.thumb_func
 571              		.type	I2C_3_MasterSendRestart, %function
 572              	I2C_3_MasterSendRestart:
 573              	.LFB3:
 350:.\Generated_Source\PSoC5/I2C_3_MASTER.c **** 
 351:.\Generated_Source\PSoC5/I2C_3_MASTER.c **** 
 352:.\Generated_Source\PSoC5/I2C_3_MASTER.c **** /*******************************************************************************
 353:.\Generated_Source\PSoC5/I2C_3_MASTER.c **** * Function Name: I2C_3_MasterSendRestart
 354:.\Generated_Source\PSoC5/I2C_3_MASTER.c **** ********************************************************************************
 355:.\Generated_Source\PSoC5/I2C_3_MASTER.c **** *
 356:.\Generated_Source\PSoC5/I2C_3_MASTER.c **** * Summary:
 357:.\Generated_Source\PSoC5/I2C_3_MASTER.c **** *  Generates ReStart condition and sends slave address with read/write bit.
 358:.\Generated_Source\PSoC5/I2C_3_MASTER.c **** *
 359:.\Generated_Source\PSoC5/I2C_3_MASTER.c **** * Parameters:
 360:.\Generated_Source\PSoC5/I2C_3_MASTER.c **** *  slaveAddress:  7-bit slave address.
 361:.\Generated_Source\PSoC5/I2C_3_MASTER.c **** *  R_nW:          Zero, send write command, non-zero send read command.
 362:.\Generated_Source\PSoC5/I2C_3_MASTER.c **** *
 363:.\Generated_Source\PSoC5/I2C_3_MASTER.c **** * Return:
 364:.\Generated_Source\PSoC5/I2C_3_MASTER.c **** *  Status error - zero means no errors.
 365:.\Generated_Source\PSoC5/I2C_3_MASTER.c **** *
 366:.\Generated_Source\PSoC5/I2C_3_MASTER.c **** * Side Effects:
 367:.\Generated_Source\PSoC5/I2C_3_MASTER.c **** *  This function is entered without a 'byte complete' bit set in the I2C_CSR
 368:.\Generated_Source\PSoC5/I2C_3_MASTER.c **** *  register. It does not exit until it will be set.
 369:.\Generated_Source\PSoC5/I2C_3_MASTER.c **** *
 370:.\Generated_Source\PSoC5/I2C_3_MASTER.c **** * Global variables:
 371:.\Generated_Source\PSoC5/I2C_3_MASTER.c **** *  I2C_3_state - used to store current state of software FSM.
 372:.\Generated_Source\PSoC5/I2C_3_MASTER.c **** *
 373:.\Generated_Source\PSoC5/I2C_3_MASTER.c **** * Reentrant:
 374:.\Generated_Source\PSoC5/I2C_3_MASTER.c **** *  No
 375:.\Generated_Source\PSoC5/I2C_3_MASTER.c **** *
 376:.\Generated_Source\PSoC5/I2C_3_MASTER.c **** *******************************************************************************/
 377:.\Generated_Source\PSoC5/I2C_3_MASTER.c **** uint8 I2C_3_MasterSendRestart(uint8 slaveAddress, uint8 R_nW)
 378:.\Generated_Source\PSoC5/I2C_3_MASTER.c ****       
 379:.\Generated_Source\PSoC5/I2C_3_MASTER.c **** {
 574              		.loc 1 379 0
 575              		.cfi_startproc
 576              		@ args = 0, pretend = 0, frame = 16
 577              		@ frame_needed = 1, uses_anonymous_args = 0
 578              		@ link register save eliminated.
 579 0000 80B4     		push	{r7}
 580              	.LCFI9:
 581              		.cfi_def_cfa_offset 4
 582              		.cfi_offset 7, -4
 583 0002 85B0     		sub	sp, sp, #20
 584              	.LCFI10:
 585              		.cfi_def_cfa_offset 24
 586 0004 00AF     		add	r7, sp, #0
 587              	.LCFI11:
ARM GAS  C:\Users\devdev\AppData\Local\Temp\cc720ADm.s 			page 18


 588              		.cfi_def_cfa_register 7
 589 0006 0246     		mov	r2, r0
 590 0008 0B46     		mov	r3, r1
 591 000a FA71     		strb	r2, [r7, #7]
 592 000c BB71     		strb	r3, [r7, #6]
 380:.\Generated_Source\PSoC5/I2C_3_MASTER.c ****     uint8 errStatus;
 381:.\Generated_Source\PSoC5/I2C_3_MASTER.c **** 
 382:.\Generated_Source\PSoC5/I2C_3_MASTER.c ****     errStatus = I2C_3_MSTR_NOT_READY;
 593              		.loc 1 382 0
 594 000e 4FF00203 		mov	r3, #2
 595 0012 FB73     		strb	r3, [r7, #15]
 383:.\Generated_Source\PSoC5/I2C_3_MASTER.c **** 
 384:.\Generated_Source\PSoC5/I2C_3_MASTER.c ****     /* Check if START condition was generated */
 385:.\Generated_Source\PSoC5/I2C_3_MASTER.c ****     if(I2C_3_CHECK_MASTER_MODE(I2C_3_MCSR_REG))
 596              		.loc 1 385 0
 597 0014 44F6D913 		movw	r3, #18905
 598 0018 C4F20003 		movt	r3, 16384
 599 001c 1B78     		ldrb	r3, [r3, #0]
 600 001e DBB2     		uxtb	r3, r3
 601 0020 03F00403 		and	r3, r3, #4
 602 0024 002B     		cmp	r3, #0
 603 0026 6DD0     		beq	.L29
 386:.\Generated_Source\PSoC5/I2C_3_MASTER.c ****     {
 387:.\Generated_Source\PSoC5/I2C_3_MASTER.c ****         slaveAddress = ((uint8) (slaveAddress << I2C_3_SLAVE_ADDR_SHIFT)); /* Set Address */
 604              		.loc 1 387 0
 605 0028 FB79     		ldrb	r3, [r7, #7]
 606 002a 4FEA4303 		lsl	r3, r3, #1
 607 002e FB71     		strb	r3, [r7, #7]
 388:.\Generated_Source\PSoC5/I2C_3_MASTER.c ****         if(0u != R_nW)  /* Set the Read/Write flag */
 608              		.loc 1 388 0
 609 0030 BB79     		ldrb	r3, [r7, #6]	@ zero_extendqisi2
 610 0032 002B     		cmp	r3, #0
 611 0034 0BD0     		beq	.L30
 389:.\Generated_Source\PSoC5/I2C_3_MASTER.c ****         {
 390:.\Generated_Source\PSoC5/I2C_3_MASTER.c ****             slaveAddress |= I2C_3_READ_FLAG;
 612              		.loc 1 390 0
 613 0036 FB79     		ldrb	r3, [r7, #7]
 614 0038 43F00103 		orr	r3, r3, #1
 615 003c FB71     		strb	r3, [r7, #7]
 391:.\Generated_Source\PSoC5/I2C_3_MASTER.c ****             I2C_3_state = I2C_3_SM_MSTR_RD_ADDR;
 616              		.loc 1 391 0
 617 003e 40F20003 		movw	r3, #:lower16:I2C_3_state
 618 0042 C0F20003 		movt	r3, #:upper16:I2C_3_state
 619 0046 4FF04902 		mov	r2, #73
 620 004a 1A70     		strb	r2, [r3, #0]
 621 004c 06E0     		b	.L31
 622              	.L30:
 392:.\Generated_Source\PSoC5/I2C_3_MASTER.c ****         }
 393:.\Generated_Source\PSoC5/I2C_3_MASTER.c ****         else
 394:.\Generated_Source\PSoC5/I2C_3_MASTER.c ****         {
 395:.\Generated_Source\PSoC5/I2C_3_MASTER.c ****             I2C_3_state = I2C_3_SM_MSTR_WR_ADDR;
 623              		.loc 1 395 0
 624 004e 40F20003 		movw	r3, #:lower16:I2C_3_state
 625 0052 C0F20003 		movt	r3, #:upper16:I2C_3_state
 626 0056 4FF04502 		mov	r2, #69
 627 005a 1A70     		strb	r2, [r3, #0]
 628              	.L31:
ARM GAS  C:\Users\devdev\AppData\Local\Temp\cc720ADm.s 			page 19


 396:.\Generated_Source\PSoC5/I2C_3_MASTER.c ****         }
 397:.\Generated_Source\PSoC5/I2C_3_MASTER.c ****         I2C_3_DATA_REG = slaveAddress;    /* Write address to data reg */
 629              		.loc 1 397 0
 630 005c 44F6D813 		movw	r3, #18904
 631 0060 C4F20003 		movt	r3, 16384
 632 0064 FA79     		ldrb	r2, [r7, #7]
 633 0066 1A70     		strb	r2, [r3, #0]
 398:.\Generated_Source\PSoC5/I2C_3_MASTER.c **** 
 399:.\Generated_Source\PSoC5/I2C_3_MASTER.c **** 
 400:.\Generated_Source\PSoC5/I2C_3_MASTER.c ****         I2C_3_GENERATE_RESTART_MANUAL;
 634              		.loc 1 400 0
 635 0068 44F6D913 		movw	r3, #18905
 636 006c C4F20003 		movt	r3, 16384
 637 0070 4FF01202 		mov	r2, #18
 638 0074 1A70     		strb	r2, [r3, #0]
 639 0076 44F6D713 		movw	r3, #18903
 640 007a C4F20003 		movt	r3, 16384
 641 007e 4FF00402 		mov	r2, #4
 642 0082 1A70     		strb	r2, [r3, #0]
 401:.\Generated_Source\PSoC5/I2C_3_MASTER.c ****         while(I2C_3_WAIT_BYTE_COMPLETE(I2C_3_CSR_REG))
 643              		.loc 1 401 0
 644 0084 00BF     		nop
 645              	.L32:
 646              		.loc 1 401 0 is_stmt 0 discriminator 1
 647 0086 44F6D713 		movw	r3, #18903
 648 008a C4F20003 		movt	r3, 16384
 649 008e 1B78     		ldrb	r3, [r3, #0]
 650 0090 DBB2     		uxtb	r3, r3
 651 0092 03F00103 		and	r3, r3, #1
 652 0096 002B     		cmp	r3, #0
 653 0098 F5D0     		beq	.L32
 402:.\Generated_Source\PSoC5/I2C_3_MASTER.c ****         {
 403:.\Generated_Source\PSoC5/I2C_3_MASTER.c ****             ; /* Wait for the address to be transfered */
 404:.\Generated_Source\PSoC5/I2C_3_MASTER.c ****         }
 405:.\Generated_Source\PSoC5/I2C_3_MASTER.c **** 
 406:.\Generated_Source\PSoC5/I2C_3_MASTER.c ****         #if(I2C_3_MODE_MULTI_MASTER_ENABLED)
 407:.\Generated_Source\PSoC5/I2C_3_MASTER.c ****             if(I2C_3_CHECK_LOST_ARB(I2C_3_CSR_REG))
 654              		.loc 1 407 0 is_stmt 1
 655 009a 44F6D713 		movw	r3, #18903
 656 009e C4F20003 		movt	r3, 16384
 657 00a2 1B78     		ldrb	r3, [r3, #0]
 658 00a4 DBB2     		uxtb	r3, r3
 659 00a6 03F04003 		and	r3, r3, #64
 660 00aa 002B     		cmp	r3, #0
 661 00ac 11D0     		beq	.L33
 408:.\Generated_Source\PSoC5/I2C_3_MASTER.c ****             {
 409:.\Generated_Source\PSoC5/I2C_3_MASTER.c ****                 I2C_3_BUS_RELEASE;
 662              		.loc 1 409 0
 663 00ae 44F6D713 		movw	r3, #18903
 664 00b2 C4F20003 		movt	r3, 16384
 665 00b6 4FF00002 		mov	r2, #0
 666 00ba 1A70     		strb	r2, [r3, #0]
 410:.\Generated_Source\PSoC5/I2C_3_MASTER.c **** 
 411:.\Generated_Source\PSoC5/I2C_3_MASTER.c ****                 /* Master lost arbitrage: reset FSM to IDLE */
 412:.\Generated_Source\PSoC5/I2C_3_MASTER.c ****                 I2C_3_state = I2C_3_SM_IDLE;
 667              		.loc 1 412 0
 668 00bc 40F20003 		movw	r3, #:lower16:I2C_3_state
ARM GAS  C:\Users\devdev\AppData\Local\Temp\cc720ADm.s 			page 20


 669 00c0 C0F20003 		movt	r3, #:upper16:I2C_3_state
 670 00c4 4FF01002 		mov	r2, #16
 671 00c8 1A70     		strb	r2, [r3, #0]
 413:.\Generated_Source\PSoC5/I2C_3_MASTER.c ****                 errStatus = I2C_3_MSTR_ERR_ARB_LOST;
 672              		.loc 1 413 0
 673 00ca 4FF00403 		mov	r3, #4
 674 00ce FB73     		strb	r3, [r7, #15]
 675 00d0 18E0     		b	.L29
 676              	.L33:
 414:.\Generated_Source\PSoC5/I2C_3_MASTER.c ****             }
 415:.\Generated_Source\PSoC5/I2C_3_MASTER.c ****             else
 416:.\Generated_Source\PSoC5/I2C_3_MASTER.c ****         #endif /* (I2C_3_MODE_MULTI_MASTER_ENABLED) */
 417:.\Generated_Source\PSoC5/I2C_3_MASTER.c **** 
 418:.\Generated_Source\PSoC5/I2C_3_MASTER.c ****             if(I2C_3_CHECK_ADDR_NAK(I2C_3_CSR_REG))
 677              		.loc 1 418 0
 678 00d2 44F6D713 		movw	r3, #18903
 679 00d6 C4F20003 		movt	r3, 16384
 680 00da 1B78     		ldrb	r3, [r3, #0]
 681 00dc DBB2     		uxtb	r3, r3
 682 00de 03F00A03 		and	r3, r3, #10
 683 00e2 DBB2     		uxtb	r3, r3
 684 00e4 0A2B     		cmp	r3, #10
 685 00e6 0AD1     		bne	.L34
 419:.\Generated_Source\PSoC5/I2C_3_MASTER.c ****             {
 420:.\Generated_Source\PSoC5/I2C_3_MASTER.c ****                 /* Address has been NACKed: reset FSM to IDLE */
 421:.\Generated_Source\PSoC5/I2C_3_MASTER.c ****                 I2C_3_state = I2C_3_SM_IDLE;
 686              		.loc 1 421 0
 687 00e8 40F20003 		movw	r3, #:lower16:I2C_3_state
 688 00ec C0F20003 		movt	r3, #:upper16:I2C_3_state
 689 00f0 4FF01002 		mov	r2, #16
 690 00f4 1A70     		strb	r2, [r3, #0]
 422:.\Generated_Source\PSoC5/I2C_3_MASTER.c ****                 errStatus = I2C_3_MSTR_ERR_LB_NAK;
 691              		.loc 1 422 0
 692 00f6 4FF00303 		mov	r3, #3
 693 00fa FB73     		strb	r3, [r7, #15]
 694 00fc 02E0     		b	.L29
 695              	.L34:
 423:.\Generated_Source\PSoC5/I2C_3_MASTER.c ****             }
 424:.\Generated_Source\PSoC5/I2C_3_MASTER.c ****             else
 425:.\Generated_Source\PSoC5/I2C_3_MASTER.c ****             {
 426:.\Generated_Source\PSoC5/I2C_3_MASTER.c ****                 /* ReStart was sent witout errors */
 427:.\Generated_Source\PSoC5/I2C_3_MASTER.c ****                 errStatus = I2C_3_MSTR_NO_ERROR;
 696              		.loc 1 427 0
 697 00fe 4FF00003 		mov	r3, #0
 698 0102 FB73     		strb	r3, [r7, #15]
 699              	.L29:
 428:.\Generated_Source\PSoC5/I2C_3_MASTER.c ****             }
 429:.\Generated_Source\PSoC5/I2C_3_MASTER.c ****     }
 430:.\Generated_Source\PSoC5/I2C_3_MASTER.c **** 
 431:.\Generated_Source\PSoC5/I2C_3_MASTER.c ****     return(errStatus);
 700              		.loc 1 431 0
 701 0104 FB7B     		ldrb	r3, [r7, #15]	@ zero_extendqisi2
 432:.\Generated_Source\PSoC5/I2C_3_MASTER.c **** }
 702              		.loc 1 432 0
 703 0106 1846     		mov	r0, r3
 704 0108 07F11407 		add	r7, r7, #20
 705 010c BD46     		mov	sp, r7
ARM GAS  C:\Users\devdev\AppData\Local\Temp\cc720ADm.s 			page 21


 706 010e 80BC     		pop	{r7}
 707 0110 7047     		bx	lr
 708              		.cfi_endproc
 709              	.LFE3:
 710              		.size	I2C_3_MasterSendRestart, .-I2C_3_MasterSendRestart
 711 0112 00BF     		.section	.text.I2C_3_MasterSendStop,"ax",%progbits
 712              		.align	2
 713              		.global	I2C_3_MasterSendStop
 714              		.thumb
 715              		.thumb_func
 716              		.type	I2C_3_MasterSendStop, %function
 717              	I2C_3_MasterSendStop:
 718              	.LFB4:
 433:.\Generated_Source\PSoC5/I2C_3_MASTER.c **** 
 434:.\Generated_Source\PSoC5/I2C_3_MASTER.c **** 
 435:.\Generated_Source\PSoC5/I2C_3_MASTER.c **** /*******************************************************************************
 436:.\Generated_Source\PSoC5/I2C_3_MASTER.c **** * Function Name: I2C_3_MasterSendStop
 437:.\Generated_Source\PSoC5/I2C_3_MASTER.c **** ********************************************************************************
 438:.\Generated_Source\PSoC5/I2C_3_MASTER.c **** *
 439:.\Generated_Source\PSoC5/I2C_3_MASTER.c **** * Summary:
 440:.\Generated_Source\PSoC5/I2C_3_MASTER.c **** *  Generates I2C Stop condition on bus. Function do nothing if Start or Restart
 441:.\Generated_Source\PSoC5/I2C_3_MASTER.c **** *  condition was failed before call this function.
 442:.\Generated_Source\PSoC5/I2C_3_MASTER.c **** *
 443:.\Generated_Source\PSoC5/I2C_3_MASTER.c **** * Parameters:
 444:.\Generated_Source\PSoC5/I2C_3_MASTER.c **** *  None
 445:.\Generated_Source\PSoC5/I2C_3_MASTER.c **** *
 446:.\Generated_Source\PSoC5/I2C_3_MASTER.c **** * Return:
 447:.\Generated_Source\PSoC5/I2C_3_MASTER.c **** *  Status error - zero means no errors.
 448:.\Generated_Source\PSoC5/I2C_3_MASTER.c **** *
 449:.\Generated_Source\PSoC5/I2C_3_MASTER.c **** * Side Effects:
 450:.\Generated_Source\PSoC5/I2C_3_MASTER.c **** *  The Stop generation is required to complete transaction.
 451:.\Generated_Source\PSoC5/I2C_3_MASTER.c **** *  This function does not wait whileStop condition will be generated.
 452:.\Generated_Source\PSoC5/I2C_3_MASTER.c **** *
 453:.\Generated_Source\PSoC5/I2C_3_MASTER.c **** * Global variables:
 454:.\Generated_Source\PSoC5/I2C_3_MASTER.c **** *  I2C_3_state - used to store current state of software FSM.
 455:.\Generated_Source\PSoC5/I2C_3_MASTER.c **** *
 456:.\Generated_Source\PSoC5/I2C_3_MASTER.c **** * Reentrant:
 457:.\Generated_Source\PSoC5/I2C_3_MASTER.c **** *  No
 458:.\Generated_Source\PSoC5/I2C_3_MASTER.c **** *
 459:.\Generated_Source\PSoC5/I2C_3_MASTER.c **** *******************************************************************************/
 460:.\Generated_Source\PSoC5/I2C_3_MASTER.c **** uint8 I2C_3_MasterSendStop(void) 
 461:.\Generated_Source\PSoC5/I2C_3_MASTER.c **** {
 719              		.loc 1 461 0
 720              		.cfi_startproc
 721              		@ args = 0, pretend = 0, frame = 8
 722              		@ frame_needed = 1, uses_anonymous_args = 0
 723              		@ link register save eliminated.
 724 0000 80B4     		push	{r7}
 725              	.LCFI12:
 726              		.cfi_def_cfa_offset 4
 727              		.cfi_offset 7, -4
 728 0002 83B0     		sub	sp, sp, #12
 729              	.LCFI13:
 730              		.cfi_def_cfa_offset 16
 731 0004 00AF     		add	r7, sp, #0
 732              	.LCFI14:
 733              		.cfi_def_cfa_register 7
ARM GAS  C:\Users\devdev\AppData\Local\Temp\cc720ADm.s 			page 22


 462:.\Generated_Source\PSoC5/I2C_3_MASTER.c ****     uint8 errStatus;
 463:.\Generated_Source\PSoC5/I2C_3_MASTER.c **** 
 464:.\Generated_Source\PSoC5/I2C_3_MASTER.c ****     errStatus = I2C_3_MSTR_NOT_READY;
 734              		.loc 1 464 0
 735 0006 4FF00203 		mov	r3, #2
 736 000a FB71     		strb	r3, [r7, #7]
 465:.\Generated_Source\PSoC5/I2C_3_MASTER.c **** 
 466:.\Generated_Source\PSoC5/I2C_3_MASTER.c ****     /* Check if START condition was generated */
 467:.\Generated_Source\PSoC5/I2C_3_MASTER.c ****     if(I2C_3_CHECK_MASTER_MODE(I2C_3_MCSR_REG))
 737              		.loc 1 467 0
 738 000c 44F6D913 		movw	r3, #18905
 739 0010 C4F20003 		movt	r3, 16384
 740 0014 1B78     		ldrb	r3, [r3, #0]
 741 0016 DBB2     		uxtb	r3, r3
 742 0018 03F00403 		and	r3, r3, #4
 743 001c 002B     		cmp	r3, #0
 744 001e 36D0     		beq	.L37
 468:.\Generated_Source\PSoC5/I2C_3_MASTER.c ****     {
 469:.\Generated_Source\PSoC5/I2C_3_MASTER.c ****         I2C_3_GENERATE_STOP_MANUAL;              /* Generate STOP */
 745              		.loc 1 469 0
 746 0020 44F6D913 		movw	r3, #18905
 747 0024 C4F20003 		movt	r3, 16384
 748 0028 4FF01002 		mov	r2, #16
 749 002c 1A70     		strb	r2, [r3, #0]
 750 002e 44F6D713 		movw	r3, #18903
 751 0032 C4F20003 		movt	r3, 16384
 752 0036 4FF00402 		mov	r2, #4
 753 003a 1A70     		strb	r2, [r3, #0]
 470:.\Generated_Source\PSoC5/I2C_3_MASTER.c ****         I2C_3_state = I2C_3_SM_IDLE;  /* Reset state to IDLE */
 754              		.loc 1 470 0
 755 003c 40F20003 		movw	r3, #:lower16:I2C_3_state
 756 0040 C0F20003 		movt	r3, #:upper16:I2C_3_state
 757 0044 4FF01002 		mov	r2, #16
 758 0048 1A70     		strb	r2, [r3, #0]
 471:.\Generated_Source\PSoC5/I2C_3_MASTER.c **** 
 472:.\Generated_Source\PSoC5/I2C_3_MASTER.c ****         while(I2C_3_WAIT_STOP_COMPLETE(I2C_3_CSR_REG))
 759              		.loc 1 472 0
 760 004a 00BF     		nop
 761              	.L38:
 762              		.loc 1 472 0 is_stmt 0 discriminator 1
 763 004c 44F6D713 		movw	r3, #18903
 764 0050 C4F20003 		movt	r3, 16384
 765 0054 1B78     		ldrb	r3, [r3, #0]
 766 0056 DBB2     		uxtb	r3, r3
 767 0058 03F02103 		and	r3, r3, #33
 768 005c 002B     		cmp	r3, #0
 769 005e F5D0     		beq	.L38
 473:.\Generated_Source\PSoC5/I2C_3_MASTER.c ****         {
 474:.\Generated_Source\PSoC5/I2C_3_MASTER.c ****             ; /* Wait for Stop to be generated */
 475:.\Generated_Source\PSoC5/I2C_3_MASTER.c ****         }
 476:.\Generated_Source\PSoC5/I2C_3_MASTER.c **** 
 477:.\Generated_Source\PSoC5/I2C_3_MASTER.c ****         errStatus = I2C_3_MSTR_NO_ERROR;
 770              		.loc 1 477 0 is_stmt 1
 771 0060 4FF00003 		mov	r3, #0
 772 0064 FB71     		strb	r3, [r7, #7]
 478:.\Generated_Source\PSoC5/I2C_3_MASTER.c ****         #if(I2C_3_MODE_MULTI_MASTER_ENABLED)
 479:.\Generated_Source\PSoC5/I2C_3_MASTER.c ****             if(I2C_3_CHECK_LOST_ARB(I2C_3_CSR_REG))
ARM GAS  C:\Users\devdev\AppData\Local\Temp\cc720ADm.s 			page 23


 773              		.loc 1 479 0
 774 0066 44F6D713 		movw	r3, #18903
 775 006a C4F20003 		movt	r3, 16384
 776 006e 1B78     		ldrb	r3, [r3, #0]
 777 0070 DBB2     		uxtb	r3, r3
 778 0072 03F04003 		and	r3, r3, #64
 779 0076 002B     		cmp	r3, #0
 780 0078 09D0     		beq	.L37
 480:.\Generated_Source\PSoC5/I2C_3_MASTER.c ****             {
 481:.\Generated_Source\PSoC5/I2C_3_MASTER.c ****                 I2C_3_BUS_RELEASE;
 781              		.loc 1 481 0
 782 007a 44F6D713 		movw	r3, #18903
 783 007e C4F20003 		movt	r3, 16384
 784 0082 4FF00002 		mov	r2, #0
 785 0086 1A70     		strb	r2, [r3, #0]
 482:.\Generated_Source\PSoC5/I2C_3_MASTER.c **** 
 483:.\Generated_Source\PSoC5/I2C_3_MASTER.c ****                 /* NACK was generated by enother instead Stop */
 484:.\Generated_Source\PSoC5/I2C_3_MASTER.c ****                 errStatus = I2C_3_MSTR_ERR_ARB_LOST;
 786              		.loc 1 484 0
 787 0088 4FF00403 		mov	r3, #4
 788 008c FB71     		strb	r3, [r7, #7]
 789              	.L37:
 485:.\Generated_Source\PSoC5/I2C_3_MASTER.c ****             }
 486:.\Generated_Source\PSoC5/I2C_3_MASTER.c ****         #endif /* (I2C_3_MODE_MULTI_MASTER_ENABLED) */
 487:.\Generated_Source\PSoC5/I2C_3_MASTER.c ****     }
 488:.\Generated_Source\PSoC5/I2C_3_MASTER.c **** 
 489:.\Generated_Source\PSoC5/I2C_3_MASTER.c ****     return(errStatus);
 790              		.loc 1 489 0
 791 008e FB79     		ldrb	r3, [r7, #7]	@ zero_extendqisi2
 490:.\Generated_Source\PSoC5/I2C_3_MASTER.c **** }
 792              		.loc 1 490 0
 793 0090 1846     		mov	r0, r3
 794 0092 07F10C07 		add	r7, r7, #12
 795 0096 BD46     		mov	sp, r7
 796 0098 80BC     		pop	{r7}
 797 009a 7047     		bx	lr
 798              		.cfi_endproc
 799              	.LFE4:
 800              		.size	I2C_3_MasterSendStop, .-I2C_3_MasterSendStop
 801              		.section	.text.I2C_3_MasterWriteByte,"ax",%progbits
 802              		.align	2
 803              		.global	I2C_3_MasterWriteByte
 804              		.thumb
 805              		.thumb_func
 806              		.type	I2C_3_MasterWriteByte, %function
 807              	I2C_3_MasterWriteByte:
 808              	.LFB5:
 491:.\Generated_Source\PSoC5/I2C_3_MASTER.c **** 
 492:.\Generated_Source\PSoC5/I2C_3_MASTER.c **** 
 493:.\Generated_Source\PSoC5/I2C_3_MASTER.c **** /*******************************************************************************
 494:.\Generated_Source\PSoC5/I2C_3_MASTER.c **** * Function Name: I2C_3_MasterWriteByte
 495:.\Generated_Source\PSoC5/I2C_3_MASTER.c **** ********************************************************************************
 496:.\Generated_Source\PSoC5/I2C_3_MASTER.c **** *
 497:.\Generated_Source\PSoC5/I2C_3_MASTER.c **** * Summary:
 498:.\Generated_Source\PSoC5/I2C_3_MASTER.c **** *  Sends one byte to a slave. A valid Start or ReStart condition must be
 499:.\Generated_Source\PSoC5/I2C_3_MASTER.c **** *  generated before this call this function. Function do nothing if Start or
 500:.\Generated_Source\PSoC5/I2C_3_MASTER.c **** *  Restart condition was failed before call this function.
ARM GAS  C:\Users\devdev\AppData\Local\Temp\cc720ADm.s 			page 24


 501:.\Generated_Source\PSoC5/I2C_3_MASTER.c **** *
 502:.\Generated_Source\PSoC5/I2C_3_MASTER.c **** * Parameters:
 503:.\Generated_Source\PSoC5/I2C_3_MASTER.c **** *  data:  The data byte to send to the slave.
 504:.\Generated_Source\PSoC5/I2C_3_MASTER.c **** *
 505:.\Generated_Source\PSoC5/I2C_3_MASTER.c **** * Return:
 506:.\Generated_Source\PSoC5/I2C_3_MASTER.c **** *  Status error - zero means no errors.
 507:.\Generated_Source\PSoC5/I2C_3_MASTER.c **** *
 508:.\Generated_Source\PSoC5/I2C_3_MASTER.c **** * Side Effects:
 509:.\Generated_Source\PSoC5/I2C_3_MASTER.c **** *  This function is entered without a 'byte complete' bit set in the I2C_CSR
 510:.\Generated_Source\PSoC5/I2C_3_MASTER.c **** *  register. It does not exit until it will be set.
 511:.\Generated_Source\PSoC5/I2C_3_MASTER.c **** *
 512:.\Generated_Source\PSoC5/I2C_3_MASTER.c **** * Global variables:
 513:.\Generated_Source\PSoC5/I2C_3_MASTER.c **** *  I2C_3_state - used to store current state of software FSM.
 514:.\Generated_Source\PSoC5/I2C_3_MASTER.c **** *
 515:.\Generated_Source\PSoC5/I2C_3_MASTER.c **** *******************************************************************************/
 516:.\Generated_Source\PSoC5/I2C_3_MASTER.c **** uint8 I2C_3_MasterWriteByte(uint8 theByte) 
 517:.\Generated_Source\PSoC5/I2C_3_MASTER.c **** {
 809              		.loc 1 517 0
 810              		.cfi_startproc
 811              		@ args = 0, pretend = 0, frame = 16
 812              		@ frame_needed = 1, uses_anonymous_args = 0
 813              		@ link register save eliminated.
 814 0000 80B4     		push	{r7}
 815              	.LCFI15:
 816              		.cfi_def_cfa_offset 4
 817              		.cfi_offset 7, -4
 818 0002 85B0     		sub	sp, sp, #20
 819              	.LCFI16:
 820              		.cfi_def_cfa_offset 24
 821 0004 00AF     		add	r7, sp, #0
 822              	.LCFI17:
 823              		.cfi_def_cfa_register 7
 824 0006 0346     		mov	r3, r0
 825 0008 FB71     		strb	r3, [r7, #7]
 518:.\Generated_Source\PSoC5/I2C_3_MASTER.c ****     uint8 errStatus;
 519:.\Generated_Source\PSoC5/I2C_3_MASTER.c **** 
 520:.\Generated_Source\PSoC5/I2C_3_MASTER.c ****     errStatus = I2C_3_MSTR_NOT_READY;
 826              		.loc 1 520 0
 827 000a 4FF00203 		mov	r3, #2
 828 000e FB73     		strb	r3, [r7, #15]
 521:.\Generated_Source\PSoC5/I2C_3_MASTER.c **** 
 522:.\Generated_Source\PSoC5/I2C_3_MASTER.c ****     /* Check if START condition was generated */
 523:.\Generated_Source\PSoC5/I2C_3_MASTER.c ****     if(I2C_3_CHECK_MASTER_MODE(I2C_3_MCSR_REG))
 829              		.loc 1 523 0
 830 0010 44F6D913 		movw	r3, #18905
 831 0014 C4F20003 		movt	r3, 16384
 832 0018 1B78     		ldrb	r3, [r3, #0]
 833 001a DBB2     		uxtb	r3, r3
 834 001c 03F00403 		and	r3, r3, #4
 835 0020 002B     		cmp	r3, #0
 836 0022 59D0     		beq	.L41
 524:.\Generated_Source\PSoC5/I2C_3_MASTER.c ****     {
 525:.\Generated_Source\PSoC5/I2C_3_MASTER.c ****         I2C_3_DATA_REG = theByte;                        /* Write DATA register */
 837              		.loc 1 525 0
 838 0024 44F6D813 		movw	r3, #18904
 839 0028 C4F20003 		movt	r3, 16384
 840 002c FA79     		ldrb	r2, [r7, #7]
ARM GAS  C:\Users\devdev\AppData\Local\Temp\cc720ADm.s 			page 25


 841 002e 1A70     		strb	r2, [r3, #0]
 526:.\Generated_Source\PSoC5/I2C_3_MASTER.c ****         I2C_3_TRANSMIT_DATA_MANUAL;                      /* Set transmit mode */
 842              		.loc 1 526 0
 843 0030 44F6D713 		movw	r3, #18903
 844 0034 C4F20003 		movt	r3, 16384
 845 0038 4FF00402 		mov	r2, #4
 846 003c 1A70     		strb	r2, [r3, #0]
 527:.\Generated_Source\PSoC5/I2C_3_MASTER.c ****         I2C_3_state = I2C_3_SM_MSTR_WR_DATA;  /* Set state WR_DATA */
 847              		.loc 1 527 0
 848 003e 40F20003 		movw	r3, #:lower16:I2C_3_state
 849 0042 C0F20003 		movt	r3, #:upper16:I2C_3_state
 850 0046 4FF04602 		mov	r2, #70
 851 004a 1A70     		strb	r2, [r3, #0]
 528:.\Generated_Source\PSoC5/I2C_3_MASTER.c **** 
 529:.\Generated_Source\PSoC5/I2C_3_MASTER.c ****         /* Make sure the last byte has been transfered first */
 530:.\Generated_Source\PSoC5/I2C_3_MASTER.c ****         while(I2C_3_WAIT_BYTE_COMPLETE(I2C_3_CSR_REG))
 852              		.loc 1 530 0
 853 004c 00BF     		nop
 854              	.L42:
 855              		.loc 1 530 0 is_stmt 0 discriminator 1
 856 004e 44F6D713 		movw	r3, #18903
 857 0052 C4F20003 		movt	r3, 16384
 858 0056 1B78     		ldrb	r3, [r3, #0]
 859 0058 DBB2     		uxtb	r3, r3
 860 005a 03F00103 		and	r3, r3, #1
 861 005e 002B     		cmp	r3, #0
 862 0060 F5D0     		beq	.L42
 531:.\Generated_Source\PSoC5/I2C_3_MASTER.c ****         {
 532:.\Generated_Source\PSoC5/I2C_3_MASTER.c ****             ; /* Wait for byte to be written */
 533:.\Generated_Source\PSoC5/I2C_3_MASTER.c ****         }
 534:.\Generated_Source\PSoC5/I2C_3_MASTER.c **** 
 535:.\Generated_Source\PSoC5/I2C_3_MASTER.c ****         #if(I2C_3_MODE_MULTI_MASTER_ENABLED)
 536:.\Generated_Source\PSoC5/I2C_3_MASTER.c ****             if(I2C_3_CHECK_LOST_ARB(I2C_3_CSR_REG))
 863              		.loc 1 536 0 is_stmt 1
 864 0062 44F6D713 		movw	r3, #18903
 865 0066 C4F20003 		movt	r3, 16384
 866 006a 1B78     		ldrb	r3, [r3, #0]
 867 006c DBB2     		uxtb	r3, r3
 868 006e 03F04003 		and	r3, r3, #64
 869 0072 002B     		cmp	r3, #0
 870 0074 11D0     		beq	.L43
 537:.\Generated_Source\PSoC5/I2C_3_MASTER.c ****             {
 538:.\Generated_Source\PSoC5/I2C_3_MASTER.c ****                 I2C_3_BUS_RELEASE;
 871              		.loc 1 538 0
 872 0076 44F6D713 		movw	r3, #18903
 873 007a C4F20003 		movt	r3, 16384
 874 007e 4FF00002 		mov	r2, #0
 875 0082 1A70     		strb	r2, [r3, #0]
 539:.\Generated_Source\PSoC5/I2C_3_MASTER.c **** 
 540:.\Generated_Source\PSoC5/I2C_3_MASTER.c ****                 /* Master lost arbitrage: reset FSM to IDLE */
 541:.\Generated_Source\PSoC5/I2C_3_MASTER.c ****                 I2C_3_state = I2C_3_SM_IDLE;
 876              		.loc 1 541 0
 877 0084 40F20003 		movw	r3, #:lower16:I2C_3_state
 878 0088 C0F20003 		movt	r3, #:upper16:I2C_3_state
 879 008c 4FF01002 		mov	r2, #16
 880 0090 1A70     		strb	r2, [r3, #0]
 542:.\Generated_Source\PSoC5/I2C_3_MASTER.c ****                 errStatus = I2C_3_MSTR_ERR_ARB_LOST;
ARM GAS  C:\Users\devdev\AppData\Local\Temp\cc720ADm.s 			page 26


 881              		.loc 1 542 0
 882 0092 4FF00403 		mov	r3, #4
 883 0096 FB73     		strb	r3, [r7, #15]
 884 0098 1EE0     		b	.L41
 885              	.L43:
 543:.\Generated_Source\PSoC5/I2C_3_MASTER.c ****             }
 544:.\Generated_Source\PSoC5/I2C_3_MASTER.c ****             /* Check LRB bit */
 545:.\Generated_Source\PSoC5/I2C_3_MASTER.c ****             else
 546:.\Generated_Source\PSoC5/I2C_3_MASTER.c ****         #endif /* (I2C_3_MODE_MULTI_MASTER_ENABLED) */
 547:.\Generated_Source\PSoC5/I2C_3_MASTER.c **** 
 548:.\Generated_Source\PSoC5/I2C_3_MASTER.c ****             if(I2C_3_CHECK_DATA_ACK(I2C_3_CSR_REG))
 886              		.loc 1 548 0
 887 009a 44F6D713 		movw	r3, #18903
 888 009e C4F20003 		movt	r3, 16384
 889 00a2 1B78     		ldrb	r3, [r3, #0]
 890 00a4 DBB2     		uxtb	r3, r3
 891 00a6 03F00203 		and	r3, r3, #2
 892 00aa 002B     		cmp	r3, #0
 893 00ac 0AD1     		bne	.L44
 549:.\Generated_Source\PSoC5/I2C_3_MASTER.c ****             {
 550:.\Generated_Source\PSoC5/I2C_3_MASTER.c ****                 I2C_3_state = I2C_3_SM_MSTR_HALT;     /* Set state to HALT */
 894              		.loc 1 550 0
 895 00ae 40F20003 		movw	r3, #:lower16:I2C_3_state
 896 00b2 C0F20003 		movt	r3, #:upper16:I2C_3_state
 897 00b6 4FF06002 		mov	r2, #96
 898 00ba 1A70     		strb	r2, [r3, #0]
 551:.\Generated_Source\PSoC5/I2C_3_MASTER.c ****                 errStatus = I2C_3_MSTR_NO_ERROR;                 /* The LRB was ACKed */
 899              		.loc 1 551 0
 900 00bc 4FF00003 		mov	r3, #0
 901 00c0 FB73     		strb	r3, [r7, #15]
 902 00c2 09E0     		b	.L41
 903              	.L44:
 552:.\Generated_Source\PSoC5/I2C_3_MASTER.c ****             }
 553:.\Generated_Source\PSoC5/I2C_3_MASTER.c ****             else
 554:.\Generated_Source\PSoC5/I2C_3_MASTER.c ****             {
 555:.\Generated_Source\PSoC5/I2C_3_MASTER.c ****                 I2C_3_state = I2C_3_SM_MSTR_HALT;     /* Set state to HALT */
 904              		.loc 1 555 0
 905 00c4 40F20003 		movw	r3, #:lower16:I2C_3_state
 906 00c8 C0F20003 		movt	r3, #:upper16:I2C_3_state
 907 00cc 4FF06002 		mov	r2, #96
 908 00d0 1A70     		strb	r2, [r3, #0]
 556:.\Generated_Source\PSoC5/I2C_3_MASTER.c ****                 errStatus = I2C_3_MSTR_ERR_LB_NAK;               /* The LRB was NACKed */
 909              		.loc 1 556 0
 910 00d2 4FF00303 		mov	r3, #3
 911 00d6 FB73     		strb	r3, [r7, #15]
 912              	.L41:
 557:.\Generated_Source\PSoC5/I2C_3_MASTER.c ****             }
 558:.\Generated_Source\PSoC5/I2C_3_MASTER.c ****     }
 559:.\Generated_Source\PSoC5/I2C_3_MASTER.c **** 
 560:.\Generated_Source\PSoC5/I2C_3_MASTER.c ****     return(errStatus);
 913              		.loc 1 560 0
 914 00d8 FB7B     		ldrb	r3, [r7, #15]	@ zero_extendqisi2
 561:.\Generated_Source\PSoC5/I2C_3_MASTER.c **** }
 915              		.loc 1 561 0
 916 00da 1846     		mov	r0, r3
 917 00dc 07F11407 		add	r7, r7, #20
 918 00e0 BD46     		mov	sp, r7
ARM GAS  C:\Users\devdev\AppData\Local\Temp\cc720ADm.s 			page 27


 919 00e2 80BC     		pop	{r7}
 920 00e4 7047     		bx	lr
 921              		.cfi_endproc
 922              	.LFE5:
 923              		.size	I2C_3_MasterWriteByte, .-I2C_3_MasterWriteByte
 924 00e6 00BF     		.section	.text.I2C_3_MasterReadByte,"ax",%progbits
 925              		.align	2
 926              		.global	I2C_3_MasterReadByte
 927              		.thumb
 928              		.thumb_func
 929              		.type	I2C_3_MasterReadByte, %function
 930              	I2C_3_MasterReadByte:
 931              	.LFB6:
 562:.\Generated_Source\PSoC5/I2C_3_MASTER.c **** 
 563:.\Generated_Source\PSoC5/I2C_3_MASTER.c **** 
 564:.\Generated_Source\PSoC5/I2C_3_MASTER.c **** /*******************************************************************************
 565:.\Generated_Source\PSoC5/I2C_3_MASTER.c **** * Function Name: I2C_3_MasterReadByte
 566:.\Generated_Source\PSoC5/I2C_3_MASTER.c **** ********************************************************************************
 567:.\Generated_Source\PSoC5/I2C_3_MASTER.c **** *
 568:.\Generated_Source\PSoC5/I2C_3_MASTER.c **** * Summary:
 569:.\Generated_Source\PSoC5/I2C_3_MASTER.c **** *  Reads one byte from a slave and ACK or NACK the transfer. A valid Start or
 570:.\Generated_Source\PSoC5/I2C_3_MASTER.c **** *  ReStart condition must be generated before this call this function. Function
 571:.\Generated_Source\PSoC5/I2C_3_MASTER.c **** *  do nothing if Start or Restart condition was failed before call this
 572:.\Generated_Source\PSoC5/I2C_3_MASTER.c **** *  function.
 573:.\Generated_Source\PSoC5/I2C_3_MASTER.c **** *
 574:.\Generated_Source\PSoC5/I2C_3_MASTER.c **** * Parameters:
 575:.\Generated_Source\PSoC5/I2C_3_MASTER.c **** *  acknNack:  Zero, response with NACK, if non-zero response with ACK.
 576:.\Generated_Source\PSoC5/I2C_3_MASTER.c **** *
 577:.\Generated_Source\PSoC5/I2C_3_MASTER.c **** * Return:
 578:.\Generated_Source\PSoC5/I2C_3_MASTER.c **** *  Byte read from slave.
 579:.\Generated_Source\PSoC5/I2C_3_MASTER.c **** *
 580:.\Generated_Source\PSoC5/I2C_3_MASTER.c **** * Side Effects:
 581:.\Generated_Source\PSoC5/I2C_3_MASTER.c **** *  This function is entered without a 'byte complete' bit set in the I2C_CSR
 582:.\Generated_Source\PSoC5/I2C_3_MASTER.c **** *  register. It does not exit until it will be set.
 583:.\Generated_Source\PSoC5/I2C_3_MASTER.c **** *
 584:.\Generated_Source\PSoC5/I2C_3_MASTER.c **** * Global variables:
 585:.\Generated_Source\PSoC5/I2C_3_MASTER.c **** *  I2C_3_state - used to store current state of software FSM.
 586:.\Generated_Source\PSoC5/I2C_3_MASTER.c **** *
 587:.\Generated_Source\PSoC5/I2C_3_MASTER.c **** * Reentrant:
 588:.\Generated_Source\PSoC5/I2C_3_MASTER.c **** *  No
 589:.\Generated_Source\PSoC5/I2C_3_MASTER.c **** *
 590:.\Generated_Source\PSoC5/I2C_3_MASTER.c **** *******************************************************************************/
 591:.\Generated_Source\PSoC5/I2C_3_MASTER.c **** uint8 I2C_3_MasterReadByte(uint8 acknNak) 
 592:.\Generated_Source\PSoC5/I2C_3_MASTER.c **** {
 932              		.loc 1 592 0
 933              		.cfi_startproc
 934              		@ args = 0, pretend = 0, frame = 16
 935              		@ frame_needed = 1, uses_anonymous_args = 0
 936              		@ link register save eliminated.
 937 0000 80B4     		push	{r7}
 938              	.LCFI18:
 939              		.cfi_def_cfa_offset 4
 940              		.cfi_offset 7, -4
 941 0002 85B0     		sub	sp, sp, #20
 942              	.LCFI19:
 943              		.cfi_def_cfa_offset 24
 944 0004 00AF     		add	r7, sp, #0
ARM GAS  C:\Users\devdev\AppData\Local\Temp\cc720ADm.s 			page 28


 945              	.LCFI20:
 946              		.cfi_def_cfa_register 7
 947 0006 0346     		mov	r3, r0
 948 0008 FB71     		strb	r3, [r7, #7]
 593:.\Generated_Source\PSoC5/I2C_3_MASTER.c ****     uint8 theByte;
 594:.\Generated_Source\PSoC5/I2C_3_MASTER.c **** 
 595:.\Generated_Source\PSoC5/I2C_3_MASTER.c ****     theByte = 0u;
 949              		.loc 1 595 0
 950 000a 4FF00003 		mov	r3, #0
 951 000e FB73     		strb	r3, [r7, #15]
 596:.\Generated_Source\PSoC5/I2C_3_MASTER.c **** 
 597:.\Generated_Source\PSoC5/I2C_3_MASTER.c ****     /* Check if START condition was generated */
 598:.\Generated_Source\PSoC5/I2C_3_MASTER.c ****     if(I2C_3_CHECK_MASTER_MODE(I2C_3_MCSR_REG))
 952              		.loc 1 598 0
 953 0010 44F6D913 		movw	r3, #18905
 954 0014 C4F20003 		movt	r3, 16384
 955 0018 1B78     		ldrb	r3, [r3, #0]
 956 001a DBB2     		uxtb	r3, r3
 957 001c 03F00403 		and	r3, r3, #4
 958 0020 002B     		cmp	r3, #0
 959 0022 38D0     		beq	.L47
 599:.\Generated_Source\PSoC5/I2C_3_MASTER.c ****     {
 600:.\Generated_Source\PSoC5/I2C_3_MASTER.c ****         /* When address phase need release the bus and receive the byte, then decide ACK or NACK */
 601:.\Generated_Source\PSoC5/I2C_3_MASTER.c ****         if(I2C_3_SM_MSTR_RD_ADDR == I2C_3_state)
 960              		.loc 1 601 0
 961 0024 40F20003 		movw	r3, #:lower16:I2C_3_state
 962 0028 C0F20003 		movt	r3, #:upper16:I2C_3_state
 963 002c 1B78     		ldrb	r3, [r3, #0]
 964 002e DBB2     		uxtb	r3, r3
 965 0030 492B     		cmp	r3, #73
 966 0032 0DD1     		bne	.L52
 602:.\Generated_Source\PSoC5/I2C_3_MASTER.c ****         {
 603:.\Generated_Source\PSoC5/I2C_3_MASTER.c ****             I2C_3_state = I2C_3_SM_MSTR_RD_DATA;
 967              		.loc 1 603 0
 968 0034 40F20003 		movw	r3, #:lower16:I2C_3_state
 969 0038 C0F20003 		movt	r3, #:upper16:I2C_3_state
 970 003c 4FF04A02 		mov	r2, #74
 971 0040 1A70     		strb	r2, [r3, #0]
 604:.\Generated_Source\PSoC5/I2C_3_MASTER.c ****             I2C_3_READY_TO_READ_MANUAL;
 972              		.loc 1 604 0
 973 0042 44F6D713 		movw	r3, #18903
 974 0046 C4F20003 		movt	r3, 16384
 975 004a 4FF00002 		mov	r2, #0
 976 004e 1A70     		strb	r2, [r3, #0]
 977              	.L52:
 605:.\Generated_Source\PSoC5/I2C_3_MASTER.c ****         }
 606:.\Generated_Source\PSoC5/I2C_3_MASTER.c **** 
 607:.\Generated_Source\PSoC5/I2C_3_MASTER.c ****         while(I2C_3_WAIT_BYTE_COMPLETE(I2C_3_CSR_REG))
 978              		.loc 1 607 0
 979 0050 00BF     		nop
 980              	.L49:
 981              		.loc 1 607 0 is_stmt 0 discriminator 1
 982 0052 44F6D713 		movw	r3, #18903
 983 0056 C4F20003 		movt	r3, 16384
 984 005a 1B78     		ldrb	r3, [r3, #0]
 985 005c DBB2     		uxtb	r3, r3
 986 005e 03F00103 		and	r3, r3, #1
ARM GAS  C:\Users\devdev\AppData\Local\Temp\cc720ADm.s 			page 29


 987 0062 002B     		cmp	r3, #0
 988 0064 F5D0     		beq	.L49
 608:.\Generated_Source\PSoC5/I2C_3_MASTER.c ****         {
 609:.\Generated_Source\PSoC5/I2C_3_MASTER.c ****             ; /* Wait for byte to be read */
 610:.\Generated_Source\PSoC5/I2C_3_MASTER.c ****         }
 611:.\Generated_Source\PSoC5/I2C_3_MASTER.c **** 
 612:.\Generated_Source\PSoC5/I2C_3_MASTER.c ****         theByte = I2C_3_DATA_REG;
 989              		.loc 1 612 0 is_stmt 1
 990 0066 44F6D813 		movw	r3, #18904
 991 006a C4F20003 		movt	r3, 16384
 992 006e 1B78     		ldrb	r3, [r3, #0]
 993 0070 FB73     		strb	r3, [r7, #15]
 613:.\Generated_Source\PSoC5/I2C_3_MASTER.c **** 
 614:.\Generated_Source\PSoC5/I2C_3_MASTER.c ****         /* Now if the ACK flag was set, ACK the data which will release the bus and
 615:.\Generated_Source\PSoC5/I2C_3_MASTER.c ****            start the next byte in otherwise do NOTHING to the CSR reg.
 616:.\Generated_Source\PSoC5/I2C_3_MASTER.c ****            This will allow the calling routine to generate a repeat start or
 617:.\Generated_Source\PSoC5/I2C_3_MASTER.c ****            stop depending on it's preference. */
 618:.\Generated_Source\PSoC5/I2C_3_MASTER.c ****         if(acknNak != 0u)   /* Do ACK */
 994              		.loc 1 618 0
 995 0072 FB79     		ldrb	r3, [r7, #7]	@ zero_extendqisi2
 996 0074 002B     		cmp	r3, #0
 997 0076 07D0     		beq	.L50
 619:.\Generated_Source\PSoC5/I2C_3_MASTER.c ****         {
 620:.\Generated_Source\PSoC5/I2C_3_MASTER.c ****             I2C_3_ACK_AND_RECEIVE_MANUAL;
 998              		.loc 1 620 0
 999 0078 44F6D713 		movw	r3, #18903
 1000 007c C4F20003 		movt	r3, 16384
 1001 0080 4FF01002 		mov	r2, #16
 1002 0084 1A70     		strb	r2, [r3, #0]
 1003 0086 06E0     		b	.L47
 1004              	.L50:
 621:.\Generated_Source\PSoC5/I2C_3_MASTER.c ****         }
 622:.\Generated_Source\PSoC5/I2C_3_MASTER.c ****         else                /* Do NACK */
 623:.\Generated_Source\PSoC5/I2C_3_MASTER.c ****         {
 624:.\Generated_Source\PSoC5/I2C_3_MASTER.c ****             /* Do nothing to be able work with ReStart */
 625:.\Generated_Source\PSoC5/I2C_3_MASTER.c ****             I2C_3_state = I2C_3_SM_MSTR_HALT;
 1005              		.loc 1 625 0
 1006 0088 40F20003 		movw	r3, #:lower16:I2C_3_state
 1007 008c C0F20003 		movt	r3, #:upper16:I2C_3_state
 1008 0090 4FF06002 		mov	r2, #96
 1009 0094 1A70     		strb	r2, [r3, #0]
 1010              	.L47:
 626:.\Generated_Source\PSoC5/I2C_3_MASTER.c ****         }
 627:.\Generated_Source\PSoC5/I2C_3_MASTER.c ****     }
 628:.\Generated_Source\PSoC5/I2C_3_MASTER.c **** 
 629:.\Generated_Source\PSoC5/I2C_3_MASTER.c ****     return(theByte);
 1011              		.loc 1 629 0
 1012 0096 FB7B     		ldrb	r3, [r7, #15]	@ zero_extendqisi2
 630:.\Generated_Source\PSoC5/I2C_3_MASTER.c **** }
 1013              		.loc 1 630 0
 1014 0098 1846     		mov	r0, r3
 1015 009a 07F11407 		add	r7, r7, #20
 1016 009e BD46     		mov	sp, r7
 1017 00a0 80BC     		pop	{r7}
 1018 00a2 7047     		bx	lr
 1019              		.cfi_endproc
 1020              	.LFE6:
ARM GAS  C:\Users\devdev\AppData\Local\Temp\cc720ADm.s 			page 30


 1021              		.size	I2C_3_MasterReadByte, .-I2C_3_MasterReadByte
 1022              		.section	.text.I2C_3_MasterStatus,"ax",%progbits
 1023              		.align	2
 1024              		.global	I2C_3_MasterStatus
 1025              		.thumb
 1026              		.thumb_func
 1027              		.type	I2C_3_MasterStatus, %function
 1028              	I2C_3_MasterStatus:
 1029              	.LFB7:
 631:.\Generated_Source\PSoC5/I2C_3_MASTER.c **** 
 632:.\Generated_Source\PSoC5/I2C_3_MASTER.c **** 
 633:.\Generated_Source\PSoC5/I2C_3_MASTER.c **** /*******************************************************************************
 634:.\Generated_Source\PSoC5/I2C_3_MASTER.c **** * Function Name: I2C_3_MasterStatus
 635:.\Generated_Source\PSoC5/I2C_3_MASTER.c **** ********************************************************************************
 636:.\Generated_Source\PSoC5/I2C_3_MASTER.c **** *
 637:.\Generated_Source\PSoC5/I2C_3_MASTER.c **** * Summary:
 638:.\Generated_Source\PSoC5/I2C_3_MASTER.c **** *  Returns the master's communication status.
 639:.\Generated_Source\PSoC5/I2C_3_MASTER.c **** *
 640:.\Generated_Source\PSoC5/I2C_3_MASTER.c **** * Parameters:
 641:.\Generated_Source\PSoC5/I2C_3_MASTER.c **** *  None
 642:.\Generated_Source\PSoC5/I2C_3_MASTER.c **** *
 643:.\Generated_Source\PSoC5/I2C_3_MASTER.c **** * Return:
 644:.\Generated_Source\PSoC5/I2C_3_MASTER.c **** *  Current status of I2C master.
 645:.\Generated_Source\PSoC5/I2C_3_MASTER.c **** *
 646:.\Generated_Source\PSoC5/I2C_3_MASTER.c **** * Global variables:
 647:.\Generated_Source\PSoC5/I2C_3_MASTER.c **** *  I2C_3_mstrStatus - used to store current status of I2C Master.
 648:.\Generated_Source\PSoC5/I2C_3_MASTER.c **** *
 649:.\Generated_Source\PSoC5/I2C_3_MASTER.c **** *******************************************************************************/
 650:.\Generated_Source\PSoC5/I2C_3_MASTER.c **** uint8 I2C_3_MasterStatus(void) 
 651:.\Generated_Source\PSoC5/I2C_3_MASTER.c **** {
 1030              		.loc 1 651 0
 1031              		.cfi_startproc
 1032              		@ args = 0, pretend = 0, frame = 8
 1033              		@ frame_needed = 1, uses_anonymous_args = 0
 1034              		@ link register save eliminated.
 1035 0000 80B4     		push	{r7}
 1036              	.LCFI21:
 1037              		.cfi_def_cfa_offset 4
 1038              		.cfi_offset 7, -4
 1039 0002 83B0     		sub	sp, sp, #12
 1040              	.LCFI22:
 1041              		.cfi_def_cfa_offset 16
 1042 0004 00AF     		add	r7, sp, #0
 1043              	.LCFI23:
 1044              		.cfi_def_cfa_register 7
 652:.\Generated_Source\PSoC5/I2C_3_MASTER.c ****     uint8 status;
 653:.\Generated_Source\PSoC5/I2C_3_MASTER.c **** 
 654:.\Generated_Source\PSoC5/I2C_3_MASTER.c ****     status = I2C_3_mstrStatus;
 1045              		.loc 1 654 0
 1046 0006 40F20003 		movw	r3, #:lower16:I2C_3_mstrStatus
 1047 000a C0F20003 		movt	r3, #:upper16:I2C_3_mstrStatus
 1048 000e 1B78     		ldrb	r3, [r3, #0]
 1049 0010 FB71     		strb	r3, [r7, #7]
 655:.\Generated_Source\PSoC5/I2C_3_MASTER.c **** 
 656:.\Generated_Source\PSoC5/I2C_3_MASTER.c ****     /* When in Master state only transaction is in progress */
 657:.\Generated_Source\PSoC5/I2C_3_MASTER.c ****     if(I2C_3_CHECK_SM_MASTER)
 1050              		.loc 1 657 0
ARM GAS  C:\Users\devdev\AppData\Local\Temp\cc720ADm.s 			page 31


 1051 0012 40F20003 		movw	r3, #:lower16:I2C_3_state
 1052 0016 C0F20003 		movt	r3, #:upper16:I2C_3_state
 1053 001a 1B78     		ldrb	r3, [r3, #0]
 1054 001c DBB2     		uxtb	r3, r3
 1055 001e 03F04003 		and	r3, r3, #64
 1056 0022 DBB2     		uxtb	r3, r3
 1057 0024 002B     		cmp	r3, #0
 1058 0026 03D0     		beq	.L54
 658:.\Generated_Source\PSoC5/I2C_3_MASTER.c ****     {
 659:.\Generated_Source\PSoC5/I2C_3_MASTER.c ****         /* Add transaction in progress activity to master status */
 660:.\Generated_Source\PSoC5/I2C_3_MASTER.c ****         status |= I2C_3_MSTAT_XFER_INP;
 1059              		.loc 1 660 0
 1060 0028 FB79     		ldrb	r3, [r7, #7]
 1061 002a 43F00403 		orr	r3, r3, #4
 1062 002e FB71     		strb	r3, [r7, #7]
 1063              	.L54:
 661:.\Generated_Source\PSoC5/I2C_3_MASTER.c ****     }
 662:.\Generated_Source\PSoC5/I2C_3_MASTER.c ****     else
 663:.\Generated_Source\PSoC5/I2C_3_MASTER.c ****     {
 664:.\Generated_Source\PSoC5/I2C_3_MASTER.c ****         /* Current master status is valid */
 665:.\Generated_Source\PSoC5/I2C_3_MASTER.c ****     }
 666:.\Generated_Source\PSoC5/I2C_3_MASTER.c **** 
 667:.\Generated_Source\PSoC5/I2C_3_MASTER.c ****     return(status);
 1064              		.loc 1 667 0
 1065 0030 FB79     		ldrb	r3, [r7, #7]	@ zero_extendqisi2
 668:.\Generated_Source\PSoC5/I2C_3_MASTER.c **** }
 1066              		.loc 1 668 0
 1067 0032 1846     		mov	r0, r3
 1068 0034 07F10C07 		add	r7, r7, #12
 1069 0038 BD46     		mov	sp, r7
 1070 003a 80BC     		pop	{r7}
 1071 003c 7047     		bx	lr
 1072              		.cfi_endproc
 1073              	.LFE7:
 1074              		.size	I2C_3_MasterStatus, .-I2C_3_MasterStatus
 1075 003e 00BF     		.section	.text.I2C_3_MasterClearStatus,"ax",%progbits
 1076              		.align	2
 1077              		.global	I2C_3_MasterClearStatus
 1078              		.thumb
 1079              		.thumb_func
 1080              		.type	I2C_3_MasterClearStatus, %function
 1081              	I2C_3_MasterClearStatus:
 1082              	.LFB8:
 669:.\Generated_Source\PSoC5/I2C_3_MASTER.c **** 
 670:.\Generated_Source\PSoC5/I2C_3_MASTER.c **** 
 671:.\Generated_Source\PSoC5/I2C_3_MASTER.c **** /*******************************************************************************
 672:.\Generated_Source\PSoC5/I2C_3_MASTER.c **** * Function Name: I2C_3_MasterClearStatus
 673:.\Generated_Source\PSoC5/I2C_3_MASTER.c **** ********************************************************************************
 674:.\Generated_Source\PSoC5/I2C_3_MASTER.c **** *
 675:.\Generated_Source\PSoC5/I2C_3_MASTER.c **** * Summary:
 676:.\Generated_Source\PSoC5/I2C_3_MASTER.c **** *  Clears all status flags and returns the master status.
 677:.\Generated_Source\PSoC5/I2C_3_MASTER.c **** *
 678:.\Generated_Source\PSoC5/I2C_3_MASTER.c **** * Parameters:
 679:.\Generated_Source\PSoC5/I2C_3_MASTER.c **** *  None
 680:.\Generated_Source\PSoC5/I2C_3_MASTER.c **** *
 681:.\Generated_Source\PSoC5/I2C_3_MASTER.c **** * Return:
 682:.\Generated_Source\PSoC5/I2C_3_MASTER.c **** *  Current status of I2C master.
ARM GAS  C:\Users\devdev\AppData\Local\Temp\cc720ADm.s 			page 32


 683:.\Generated_Source\PSoC5/I2C_3_MASTER.c **** *
 684:.\Generated_Source\PSoC5/I2C_3_MASTER.c **** * Global variables:
 685:.\Generated_Source\PSoC5/I2C_3_MASTER.c **** *  I2C_3_mstrStatus - used to store current status of I2C Master.
 686:.\Generated_Source\PSoC5/I2C_3_MASTER.c **** *
 687:.\Generated_Source\PSoC5/I2C_3_MASTER.c **** * Reentrant:
 688:.\Generated_Source\PSoC5/I2C_3_MASTER.c **** *  No
 689:.\Generated_Source\PSoC5/I2C_3_MASTER.c **** *
 690:.\Generated_Source\PSoC5/I2C_3_MASTER.c **** *******************************************************************************/
 691:.\Generated_Source\PSoC5/I2C_3_MASTER.c **** uint8 I2C_3_MasterClearStatus(void) 
 692:.\Generated_Source\PSoC5/I2C_3_MASTER.c **** {
 1083              		.loc 1 692 0
 1084              		.cfi_startproc
 1085              		@ args = 0, pretend = 0, frame = 8
 1086              		@ frame_needed = 1, uses_anonymous_args = 0
 1087              		@ link register save eliminated.
 1088 0000 80B4     		push	{r7}
 1089              	.LCFI24:
 1090              		.cfi_def_cfa_offset 4
 1091              		.cfi_offset 7, -4
 1092 0002 83B0     		sub	sp, sp, #12
 1093              	.LCFI25:
 1094              		.cfi_def_cfa_offset 16
 1095 0004 00AF     		add	r7, sp, #0
 1096              	.LCFI26:
 1097              		.cfi_def_cfa_register 7
 693:.\Generated_Source\PSoC5/I2C_3_MASTER.c ****     /* Current master status */
 694:.\Generated_Source\PSoC5/I2C_3_MASTER.c ****     uint8 status;
 695:.\Generated_Source\PSoC5/I2C_3_MASTER.c **** 
 696:.\Generated_Source\PSoC5/I2C_3_MASTER.c ****     /* Read and clear master status */
 697:.\Generated_Source\PSoC5/I2C_3_MASTER.c ****     status = I2C_3_mstrStatus;
 1098              		.loc 1 697 0
 1099 0006 40F20003 		movw	r3, #:lower16:I2C_3_mstrStatus
 1100 000a C0F20003 		movt	r3, #:upper16:I2C_3_mstrStatus
 1101 000e 1B78     		ldrb	r3, [r3, #0]
 1102 0010 FB71     		strb	r3, [r7, #7]
 698:.\Generated_Source\PSoC5/I2C_3_MASTER.c ****     I2C_3_mstrStatus = I2C_3_MSTAT_CLEAR;
 1103              		.loc 1 698 0
 1104 0012 40F20003 		movw	r3, #:lower16:I2C_3_mstrStatus
 1105 0016 C0F20003 		movt	r3, #:upper16:I2C_3_mstrStatus
 1106 001a 4FF00002 		mov	r2, #0
 1107 001e 1A70     		strb	r2, [r3, #0]
 699:.\Generated_Source\PSoC5/I2C_3_MASTER.c **** 
 700:.\Generated_Source\PSoC5/I2C_3_MASTER.c ****     return(status);
 1108              		.loc 1 700 0
 1109 0020 FB79     		ldrb	r3, [r7, #7]	@ zero_extendqisi2
 701:.\Generated_Source\PSoC5/I2C_3_MASTER.c **** }
 1110              		.loc 1 701 0
 1111 0022 1846     		mov	r0, r3
 1112 0024 07F10C07 		add	r7, r7, #12
 1113 0028 BD46     		mov	sp, r7
 1114 002a 80BC     		pop	{r7}
 1115 002c 7047     		bx	lr
 1116              		.cfi_endproc
 1117              	.LFE8:
 1118              		.size	I2C_3_MasterClearStatus, .-I2C_3_MasterClearStatus
 1119 002e 00BF     		.section	.text.I2C_3_MasterGetReadBufSize,"ax",%progbits
 1120              		.align	2
ARM GAS  C:\Users\devdev\AppData\Local\Temp\cc720ADm.s 			page 33


 1121              		.global	I2C_3_MasterGetReadBufSize
 1122              		.thumb
 1123              		.thumb_func
 1124              		.type	I2C_3_MasterGetReadBufSize, %function
 1125              	I2C_3_MasterGetReadBufSize:
 1126              	.LFB9:
 702:.\Generated_Source\PSoC5/I2C_3_MASTER.c **** 
 703:.\Generated_Source\PSoC5/I2C_3_MASTER.c **** 
 704:.\Generated_Source\PSoC5/I2C_3_MASTER.c **** /*******************************************************************************
 705:.\Generated_Source\PSoC5/I2C_3_MASTER.c **** * Function Name: I2C_3_MasterGetReadBufSize
 706:.\Generated_Source\PSoC5/I2C_3_MASTER.c **** ********************************************************************************
 707:.\Generated_Source\PSoC5/I2C_3_MASTER.c **** *
 708:.\Generated_Source\PSoC5/I2C_3_MASTER.c **** * Summary:
 709:.\Generated_Source\PSoC5/I2C_3_MASTER.c **** *  Returns the amount of bytes that has been transferred with an
 710:.\Generated_Source\PSoC5/I2C_3_MASTER.c **** *  I2C_MasterReadBuf command.
 711:.\Generated_Source\PSoC5/I2C_3_MASTER.c **** *
 712:.\Generated_Source\PSoC5/I2C_3_MASTER.c **** * Parameters:
 713:.\Generated_Source\PSoC5/I2C_3_MASTER.c **** *  None
 714:.\Generated_Source\PSoC5/I2C_3_MASTER.c **** *
 715:.\Generated_Source\PSoC5/I2C_3_MASTER.c **** * Return:
 716:.\Generated_Source\PSoC5/I2C_3_MASTER.c **** *  Byte count of transfer. If the transfer is not yet complete, it will return
 717:.\Generated_Source\PSoC5/I2C_3_MASTER.c **** *  the byte count transferred so far.
 718:.\Generated_Source\PSoC5/I2C_3_MASTER.c **** *
 719:.\Generated_Source\PSoC5/I2C_3_MASTER.c **** * Global variables:
 720:.\Generated_Source\PSoC5/I2C_3_MASTER.c **** *  I2C_3_mstrRdBufIndex - used to current index within master read
 721:.\Generated_Source\PSoC5/I2C_3_MASTER.c **** *  buffer.
 722:.\Generated_Source\PSoC5/I2C_3_MASTER.c **** *
 723:.\Generated_Source\PSoC5/I2C_3_MASTER.c **** *******************************************************************************/
 724:.\Generated_Source\PSoC5/I2C_3_MASTER.c **** uint8 I2C_3_MasterGetReadBufSize(void) 
 725:.\Generated_Source\PSoC5/I2C_3_MASTER.c **** {
 1127              		.loc 1 725 0
 1128              		.cfi_startproc
 1129              		@ args = 0, pretend = 0, frame = 0
 1130              		@ frame_needed = 1, uses_anonymous_args = 0
 1131              		@ link register save eliminated.
 1132 0000 80B4     		push	{r7}
 1133              	.LCFI27:
 1134              		.cfi_def_cfa_offset 4
 1135              		.cfi_offset 7, -4
 1136 0002 00AF     		add	r7, sp, #0
 1137              	.LCFI28:
 1138              		.cfi_def_cfa_register 7
 726:.\Generated_Source\PSoC5/I2C_3_MASTER.c ****     return(I2C_3_mstrRdBufIndex);
 1139              		.loc 1 726 0
 1140 0004 40F20003 		movw	r3, #:lower16:I2C_3_mstrRdBufIndex
 1141 0008 C0F20003 		movt	r3, #:upper16:I2C_3_mstrRdBufIndex
 1142 000c 1B78     		ldrb	r3, [r3, #0]
 1143 000e DBB2     		uxtb	r3, r3
 727:.\Generated_Source\PSoC5/I2C_3_MASTER.c **** }
 1144              		.loc 1 727 0
 1145 0010 1846     		mov	r0, r3
 1146 0012 BD46     		mov	sp, r7
 1147 0014 80BC     		pop	{r7}
 1148 0016 7047     		bx	lr
 1149              		.cfi_endproc
 1150              	.LFE9:
 1151              		.size	I2C_3_MasterGetReadBufSize, .-I2C_3_MasterGetReadBufSize
ARM GAS  C:\Users\devdev\AppData\Local\Temp\cc720ADm.s 			page 34


 1152              		.section	.text.I2C_3_MasterGetWriteBufSize,"ax",%progbits
 1153              		.align	2
 1154              		.global	I2C_3_MasterGetWriteBufSize
 1155              		.thumb
 1156              		.thumb_func
 1157              		.type	I2C_3_MasterGetWriteBufSize, %function
 1158              	I2C_3_MasterGetWriteBufSize:
 1159              	.LFB10:
 728:.\Generated_Source\PSoC5/I2C_3_MASTER.c **** 
 729:.\Generated_Source\PSoC5/I2C_3_MASTER.c **** 
 730:.\Generated_Source\PSoC5/I2C_3_MASTER.c **** /*******************************************************************************
 731:.\Generated_Source\PSoC5/I2C_3_MASTER.c **** * Function Name: I2C_3_MasterGetWriteBufSize
 732:.\Generated_Source\PSoC5/I2C_3_MASTER.c **** ********************************************************************************
 733:.\Generated_Source\PSoC5/I2C_3_MASTER.c **** *
 734:.\Generated_Source\PSoC5/I2C_3_MASTER.c **** * Summary:
 735:.\Generated_Source\PSoC5/I2C_3_MASTER.c **** *  Returns the amount of bytes that has been transferred with an
 736:.\Generated_Source\PSoC5/I2C_3_MASTER.c **** *  I2C_MasterWriteBuf command.
 737:.\Generated_Source\PSoC5/I2C_3_MASTER.c **** *
 738:.\Generated_Source\PSoC5/I2C_3_MASTER.c **** * Parameters:
 739:.\Generated_Source\PSoC5/I2C_3_MASTER.c **** *  None
 740:.\Generated_Source\PSoC5/I2C_3_MASTER.c **** *
 741:.\Generated_Source\PSoC5/I2C_3_MASTER.c **** * Return:
 742:.\Generated_Source\PSoC5/I2C_3_MASTER.c **** *  Byte count of transfer. If the transfer is not yet complete, it will return
 743:.\Generated_Source\PSoC5/I2C_3_MASTER.c **** *  the byte count transferred so far.
 744:.\Generated_Source\PSoC5/I2C_3_MASTER.c **** *
 745:.\Generated_Source\PSoC5/I2C_3_MASTER.c **** * Global variables:
 746:.\Generated_Source\PSoC5/I2C_3_MASTER.c **** *  I2C_3_mstrWrBufIndex - used to current index within master write
 747:.\Generated_Source\PSoC5/I2C_3_MASTER.c **** *  buffer.
 748:.\Generated_Source\PSoC5/I2C_3_MASTER.c **** *
 749:.\Generated_Source\PSoC5/I2C_3_MASTER.c **** *******************************************************************************/
 750:.\Generated_Source\PSoC5/I2C_3_MASTER.c **** uint8 I2C_3_MasterGetWriteBufSize(void) 
 751:.\Generated_Source\PSoC5/I2C_3_MASTER.c **** {
 1160              		.loc 1 751 0
 1161              		.cfi_startproc
 1162              		@ args = 0, pretend = 0, frame = 0
 1163              		@ frame_needed = 1, uses_anonymous_args = 0
 1164              		@ link register save eliminated.
 1165 0000 80B4     		push	{r7}
 1166              	.LCFI29:
 1167              		.cfi_def_cfa_offset 4
 1168              		.cfi_offset 7, -4
 1169 0002 00AF     		add	r7, sp, #0
 1170              	.LCFI30:
 1171              		.cfi_def_cfa_register 7
 752:.\Generated_Source\PSoC5/I2C_3_MASTER.c ****     return(I2C_3_mstrWrBufIndex);
 1172              		.loc 1 752 0
 1173 0004 40F20003 		movw	r3, #:lower16:I2C_3_mstrWrBufIndex
 1174 0008 C0F20003 		movt	r3, #:upper16:I2C_3_mstrWrBufIndex
 1175 000c 1B78     		ldrb	r3, [r3, #0]
 1176 000e DBB2     		uxtb	r3, r3
 753:.\Generated_Source\PSoC5/I2C_3_MASTER.c **** }
 1177              		.loc 1 753 0
 1178 0010 1846     		mov	r0, r3
 1179 0012 BD46     		mov	sp, r7
 1180 0014 80BC     		pop	{r7}
 1181 0016 7047     		bx	lr
 1182              		.cfi_endproc
ARM GAS  C:\Users\devdev\AppData\Local\Temp\cc720ADm.s 			page 35


 1183              	.LFE10:
 1184              		.size	I2C_3_MasterGetWriteBufSize, .-I2C_3_MasterGetWriteBufSize
 1185              		.section	.text.I2C_3_MasterClearReadBuf,"ax",%progbits
 1186              		.align	2
 1187              		.global	I2C_3_MasterClearReadBuf
 1188              		.thumb
 1189              		.thumb_func
 1190              		.type	I2C_3_MasterClearReadBuf, %function
 1191              	I2C_3_MasterClearReadBuf:
 1192              	.LFB11:
 754:.\Generated_Source\PSoC5/I2C_3_MASTER.c **** 
 755:.\Generated_Source\PSoC5/I2C_3_MASTER.c **** 
 756:.\Generated_Source\PSoC5/I2C_3_MASTER.c **** /*******************************************************************************
 757:.\Generated_Source\PSoC5/I2C_3_MASTER.c **** * Function Name: I2C_3_MasterClearReadBuf
 758:.\Generated_Source\PSoC5/I2C_3_MASTER.c **** ********************************************************************************
 759:.\Generated_Source\PSoC5/I2C_3_MASTER.c **** *
 760:.\Generated_Source\PSoC5/I2C_3_MASTER.c **** * Summary:
 761:.\Generated_Source\PSoC5/I2C_3_MASTER.c **** *  Resets the read buffer pointer back to the first byte in the buffer.
 762:.\Generated_Source\PSoC5/I2C_3_MASTER.c **** *
 763:.\Generated_Source\PSoC5/I2C_3_MASTER.c **** * Parameters:
 764:.\Generated_Source\PSoC5/I2C_3_MASTER.c **** *  None
 765:.\Generated_Source\PSoC5/I2C_3_MASTER.c **** *
 766:.\Generated_Source\PSoC5/I2C_3_MASTER.c **** * Return:
 767:.\Generated_Source\PSoC5/I2C_3_MASTER.c **** *  None
 768:.\Generated_Source\PSoC5/I2C_3_MASTER.c **** *
 769:.\Generated_Source\PSoC5/I2C_3_MASTER.c **** * Global variables:
 770:.\Generated_Source\PSoC5/I2C_3_MASTER.c **** *  I2C_3_mstrRdBufIndex - used to current index within master read
 771:.\Generated_Source\PSoC5/I2C_3_MASTER.c **** *   buffer.
 772:.\Generated_Source\PSoC5/I2C_3_MASTER.c **** *  I2C_3_mstrStatus - used to store current status of I2C Master.
 773:.\Generated_Source\PSoC5/I2C_3_MASTER.c **** *
 774:.\Generated_Source\PSoC5/I2C_3_MASTER.c **** * Reentrant:
 775:.\Generated_Source\PSoC5/I2C_3_MASTER.c **** *  No
 776:.\Generated_Source\PSoC5/I2C_3_MASTER.c **** *
 777:.\Generated_Source\PSoC5/I2C_3_MASTER.c **** *******************************************************************************/
 778:.\Generated_Source\PSoC5/I2C_3_MASTER.c **** void I2C_3_MasterClearReadBuf(void) 
 779:.\Generated_Source\PSoC5/I2C_3_MASTER.c **** {
 1193              		.loc 1 779 0
 1194              		.cfi_startproc
 1195              		@ args = 0, pretend = 0, frame = 0
 1196              		@ frame_needed = 1, uses_anonymous_args = 0
 1197              		@ link register save eliminated.
 1198 0000 80B4     		push	{r7}
 1199              	.LCFI31:
 1200              		.cfi_def_cfa_offset 4
 1201              		.cfi_offset 7, -4
 1202 0002 00AF     		add	r7, sp, #0
 1203              	.LCFI32:
 1204              		.cfi_def_cfa_register 7
 780:.\Generated_Source\PSoC5/I2C_3_MASTER.c ****     I2C_3_mstrRdBufIndex = 0u;
 1205              		.loc 1 780 0
 1206 0004 40F20003 		movw	r3, #:lower16:I2C_3_mstrRdBufIndex
 1207 0008 C0F20003 		movt	r3, #:upper16:I2C_3_mstrRdBufIndex
 1208 000c 4FF00002 		mov	r2, #0
 1209 0010 1A70     		strb	r2, [r3, #0]
 781:.\Generated_Source\PSoC5/I2C_3_MASTER.c ****     I2C_3_mstrStatus    &= ((uint8) ~I2C_3_MSTAT_RD_CMPLT);
 1210              		.loc 1 781 0
 1211 0012 40F20003 		movw	r3, #:lower16:I2C_3_mstrStatus
ARM GAS  C:\Users\devdev\AppData\Local\Temp\cc720ADm.s 			page 36


 1212 0016 C0F20003 		movt	r3, #:upper16:I2C_3_mstrStatus
 1213 001a 1B78     		ldrb	r3, [r3, #0]
 1214 001c DBB2     		uxtb	r3, r3
 1215 001e 23F00103 		bic	r3, r3, #1
 1216 0022 DAB2     		uxtb	r2, r3
 1217 0024 40F20003 		movw	r3, #:lower16:I2C_3_mstrStatus
 1218 0028 C0F20003 		movt	r3, #:upper16:I2C_3_mstrStatus
 1219 002c 1A70     		strb	r2, [r3, #0]
 782:.\Generated_Source\PSoC5/I2C_3_MASTER.c **** }
 1220              		.loc 1 782 0
 1221 002e BD46     		mov	sp, r7
 1222 0030 80BC     		pop	{r7}
 1223 0032 7047     		bx	lr
 1224              		.cfi_endproc
 1225              	.LFE11:
 1226              		.size	I2C_3_MasterClearReadBuf, .-I2C_3_MasterClearReadBuf
 1227              		.section	.text.I2C_3_MasterClearWriteBuf,"ax",%progbits
 1228              		.align	2
 1229              		.global	I2C_3_MasterClearWriteBuf
 1230              		.thumb
 1231              		.thumb_func
 1232              		.type	I2C_3_MasterClearWriteBuf, %function
 1233              	I2C_3_MasterClearWriteBuf:
 1234              	.LFB12:
 783:.\Generated_Source\PSoC5/I2C_3_MASTER.c **** 
 784:.\Generated_Source\PSoC5/I2C_3_MASTER.c **** 
 785:.\Generated_Source\PSoC5/I2C_3_MASTER.c **** /*******************************************************************************
 786:.\Generated_Source\PSoC5/I2C_3_MASTER.c **** * Function Name: I2C_3_MasterClearWriteBuf
 787:.\Generated_Source\PSoC5/I2C_3_MASTER.c **** ********************************************************************************
 788:.\Generated_Source\PSoC5/I2C_3_MASTER.c **** *
 789:.\Generated_Source\PSoC5/I2C_3_MASTER.c **** * Summary:
 790:.\Generated_Source\PSoC5/I2C_3_MASTER.c **** *  Resets the write buffer pointer back to the first byte in the buffer.
 791:.\Generated_Source\PSoC5/I2C_3_MASTER.c **** *
 792:.\Generated_Source\PSoC5/I2C_3_MASTER.c **** * Parameters:
 793:.\Generated_Source\PSoC5/I2C_3_MASTER.c **** *  None
 794:.\Generated_Source\PSoC5/I2C_3_MASTER.c **** *
 795:.\Generated_Source\PSoC5/I2C_3_MASTER.c **** * Return:
 796:.\Generated_Source\PSoC5/I2C_3_MASTER.c **** *  None
 797:.\Generated_Source\PSoC5/I2C_3_MASTER.c **** *
 798:.\Generated_Source\PSoC5/I2C_3_MASTER.c **** * Global variables:
 799:.\Generated_Source\PSoC5/I2C_3_MASTER.c **** *  I2C_3_mstrRdBufIndex - used to current index within master read
 800:.\Generated_Source\PSoC5/I2C_3_MASTER.c **** *   buffer.
 801:.\Generated_Source\PSoC5/I2C_3_MASTER.c **** *  I2C_3_mstrStatus - used to store current status of I2C Master.
 802:.\Generated_Source\PSoC5/I2C_3_MASTER.c **** *
 803:.\Generated_Source\PSoC5/I2C_3_MASTER.c **** * Reentrant:
 804:.\Generated_Source\PSoC5/I2C_3_MASTER.c **** *  No
 805:.\Generated_Source\PSoC5/I2C_3_MASTER.c **** *
 806:.\Generated_Source\PSoC5/I2C_3_MASTER.c **** *******************************************************************************/
 807:.\Generated_Source\PSoC5/I2C_3_MASTER.c **** void I2C_3_MasterClearWriteBuf(void) 
 808:.\Generated_Source\PSoC5/I2C_3_MASTER.c **** {
 1235              		.loc 1 808 0
 1236              		.cfi_startproc
 1237              		@ args = 0, pretend = 0, frame = 0
 1238              		@ frame_needed = 1, uses_anonymous_args = 0
 1239              		@ link register save eliminated.
 1240 0000 80B4     		push	{r7}
 1241              	.LCFI33:
ARM GAS  C:\Users\devdev\AppData\Local\Temp\cc720ADm.s 			page 37


 1242              		.cfi_def_cfa_offset 4
 1243              		.cfi_offset 7, -4
 1244 0002 00AF     		add	r7, sp, #0
 1245              	.LCFI34:
 1246              		.cfi_def_cfa_register 7
 809:.\Generated_Source\PSoC5/I2C_3_MASTER.c ****     I2C_3_mstrWrBufIndex = 0u;
 1247              		.loc 1 809 0
 1248 0004 40F20003 		movw	r3, #:lower16:I2C_3_mstrWrBufIndex
 1249 0008 C0F20003 		movt	r3, #:upper16:I2C_3_mstrWrBufIndex
 1250 000c 4FF00002 		mov	r2, #0
 1251 0010 1A70     		strb	r2, [r3, #0]
 810:.\Generated_Source\PSoC5/I2C_3_MASTER.c ****     I2C_3_mstrStatus    &= ((uint8) ~I2C_3_MSTAT_WR_CMPLT);
 1252              		.loc 1 810 0
 1253 0012 40F20003 		movw	r3, #:lower16:I2C_3_mstrStatus
 1254 0016 C0F20003 		movt	r3, #:upper16:I2C_3_mstrStatus
 1255 001a 1B78     		ldrb	r3, [r3, #0]
 1256 001c DBB2     		uxtb	r3, r3
 1257 001e 23F00203 		bic	r3, r3, #2
 1258 0022 DAB2     		uxtb	r2, r3
 1259 0024 40F20003 		movw	r3, #:lower16:I2C_3_mstrStatus
 1260 0028 C0F20003 		movt	r3, #:upper16:I2C_3_mstrStatus
 1261 002c 1A70     		strb	r2, [r3, #0]
 811:.\Generated_Source\PSoC5/I2C_3_MASTER.c **** }
 1262              		.loc 1 811 0
 1263 002e BD46     		mov	sp, r7
 1264 0030 80BC     		pop	{r7}
 1265 0032 7047     		bx	lr
 1266              		.cfi_endproc
 1267              	.LFE12:
 1268              		.size	I2C_3_MasterClearWriteBuf, .-I2C_3_MasterClearWriteBuf
 1269              		.section	.text.I2C_3_Workaround,"ax",%progbits
 1270              		.align	2
 1271              		.global	I2C_3_Workaround
 1272              		.thumb
 1273              		.thumb_func
 1274              		.type	I2C_3_Workaround, %function
 1275              	I2C_3_Workaround:
 1276              	.LFB13:
 812:.\Generated_Source\PSoC5/I2C_3_MASTER.c **** 
 813:.\Generated_Source\PSoC5/I2C_3_MASTER.c **** 
 814:.\Generated_Source\PSoC5/I2C_3_MASTER.c **** /*******************************************************************************
 815:.\Generated_Source\PSoC5/I2C_3_MASTER.c **** * Function Name: I2C_3_Workaround
 816:.\Generated_Source\PSoC5/I2C_3_MASTER.c **** ********************************************************************************
 817:.\Generated_Source\PSoC5/I2C_3_MASTER.c **** *
 818:.\Generated_Source\PSoC5/I2C_3_MASTER.c **** * Summary:
 819:.\Generated_Source\PSoC5/I2C_3_MASTER.c **** *  Do nothing. This fake fuction use as workaround for CDT 78083.
 820:.\Generated_Source\PSoC5/I2C_3_MASTER.c **** *
 821:.\Generated_Source\PSoC5/I2C_3_MASTER.c **** * Parameters:
 822:.\Generated_Source\PSoC5/I2C_3_MASTER.c **** *  None
 823:.\Generated_Source\PSoC5/I2C_3_MASTER.c **** *
 824:.\Generated_Source\PSoC5/I2C_3_MASTER.c **** * Return:
 825:.\Generated_Source\PSoC5/I2C_3_MASTER.c **** *  None
 826:.\Generated_Source\PSoC5/I2C_3_MASTER.c **** *
 827:.\Generated_Source\PSoC5/I2C_3_MASTER.c **** * Reentrant:
 828:.\Generated_Source\PSoC5/I2C_3_MASTER.c **** *  No
 829:.\Generated_Source\PSoC5/I2C_3_MASTER.c **** *
 830:.\Generated_Source\PSoC5/I2C_3_MASTER.c **** *******************************************************************************/
ARM GAS  C:\Users\devdev\AppData\Local\Temp\cc720ADm.s 			page 38


 831:.\Generated_Source\PSoC5/I2C_3_MASTER.c **** void I2C_3_Workaround(void) 
 832:.\Generated_Source\PSoC5/I2C_3_MASTER.c **** {
 1277              		.loc 1 832 0
 1278              		.cfi_startproc
 1279              		@ args = 0, pretend = 0, frame = 0
 1280              		@ frame_needed = 1, uses_anonymous_args = 0
 1281              		@ link register save eliminated.
 1282 0000 80B4     		push	{r7}
 1283              	.LCFI35:
 1284              		.cfi_def_cfa_offset 4
 1285              		.cfi_offset 7, -4
 1286 0002 00AF     		add	r7, sp, #0
 1287              	.LCFI36:
 1288              		.cfi_def_cfa_register 7
 833:.\Generated_Source\PSoC5/I2C_3_MASTER.c ****     /* Does nothing */
 834:.\Generated_Source\PSoC5/I2C_3_MASTER.c **** }
 1289              		.loc 1 834 0
 1290 0004 BD46     		mov	sp, r7
 1291 0006 80BC     		pop	{r7}
 1292 0008 7047     		bx	lr
 1293              		.cfi_endproc
 1294              	.LFE13:
 1295              		.size	I2C_3_Workaround, .-I2C_3_Workaround
 1296 000a 00BF     		.text
 1297              	.Letext0:
 1298              		.file 2 ".\\Generated_Source\\PSoC5\\cytypes.h"
 1299              		.file 3 ".\\Generated_Source\\PSoC5\\I2C_3_PVT.h"
 1300              		.section	.debug_info,"",%progbits
 1301              	.Ldebug_info0:
 1302 0000 4F040000 		.4byte	0x44f
 1303 0004 0200     		.2byte	0x2
 1304 0006 00000000 		.4byte	.Ldebug_abbrev0
 1305 000a 04       		.byte	0x4
 1306 000b 01       		.uleb128 0x1
 1307 000c F3020000 		.4byte	.LASF49
 1308 0010 01       		.byte	0x1
 1309 0011 FC010000 		.4byte	.LASF50
 1310 0015 24020000 		.4byte	.LASF51
 1311 0019 00000000 		.4byte	.Ldebug_ranges0+0
 1312 001d 00000000 		.4byte	0
 1313 0021 00000000 		.4byte	0
 1314 0025 00000000 		.4byte	.Ldebug_line0
 1315 0029 02       		.uleb128 0x2
 1316 002a 01       		.byte	0x1
 1317 002b 06       		.byte	0x6
 1318 002c 45030000 		.4byte	.LASF0
 1319 0030 02       		.uleb128 0x2
 1320 0031 01       		.byte	0x1
 1321 0032 08       		.byte	0x8
 1322 0033 49010000 		.4byte	.LASF1
 1323 0037 02       		.uleb128 0x2
 1324 0038 02       		.byte	0x2
 1325 0039 05       		.byte	0x5
 1326 003a B4020000 		.4byte	.LASF2
 1327 003e 02       		.uleb128 0x2
 1328 003f 02       		.byte	0x2
 1329 0040 07       		.byte	0x7
ARM GAS  C:\Users\devdev\AppData\Local\Temp\cc720ADm.s 			page 39


 1330 0041 3C000000 		.4byte	.LASF3
 1331 0045 02       		.uleb128 0x2
 1332 0046 04       		.byte	0x4
 1333 0047 05       		.byte	0x5
 1334 0048 3C030000 		.4byte	.LASF4
 1335 004c 02       		.uleb128 0x2
 1336 004d 04       		.byte	0x4
 1337 004e 07       		.byte	0x7
 1338 004f 0A010000 		.4byte	.LASF5
 1339 0053 02       		.uleb128 0x2
 1340 0054 08       		.byte	0x8
 1341 0055 05       		.byte	0x5
 1342 0056 80020000 		.4byte	.LASF6
 1343 005a 02       		.uleb128 0x2
 1344 005b 08       		.byte	0x8
 1345 005c 07       		.byte	0x7
 1346 005d CB010000 		.4byte	.LASF7
 1347 0061 03       		.uleb128 0x3
 1348 0062 04       		.byte	0x4
 1349 0063 05       		.byte	0x5
 1350 0064 696E7400 		.ascii	"int\000"
 1351 0068 02       		.uleb128 0x2
 1352 0069 04       		.byte	0x4
 1353 006a 07       		.byte	0x7
 1354 006b 4F000000 		.4byte	.LASF8
 1355 006f 04       		.uleb128 0x4
 1356 0070 32010000 		.4byte	.LASF9
 1357 0074 02       		.byte	0x2
 1358 0075 5B       		.byte	0x5b
 1359 0076 30000000 		.4byte	0x30
 1360 007a 04       		.uleb128 0x4
 1361 007b 90010000 		.4byte	.LASF10
 1362 007f 02       		.byte	0x2
 1363 0080 5D       		.byte	0x5d
 1364 0081 4C000000 		.4byte	0x4c
 1365 0085 02       		.uleb128 0x2
 1366 0086 04       		.byte	0x4
 1367 0087 04       		.byte	0x4
 1368 0088 0D000000 		.4byte	.LASF11
 1369 008c 02       		.uleb128 0x2
 1370 008d 08       		.byte	0x8
 1371 008e 04       		.byte	0x4
 1372 008f 6C010000 		.4byte	.LASF12
 1373 0093 02       		.uleb128 0x2
 1374 0094 01       		.byte	0x1
 1375 0095 08       		.byte	0x8
 1376 0096 9A020000 		.4byte	.LASF13
 1377 009a 04       		.uleb128 0x4
 1378 009b 05010000 		.4byte	.LASF14
 1379 009f 02       		.byte	0x2
 1380 00a0 F0       		.byte	0xf0
 1381 00a1 A5000000 		.4byte	0xa5
 1382 00a5 05       		.uleb128 0x5
 1383 00a6 6F000000 		.4byte	0x6f
 1384 00aa 04       		.uleb128 0x4
 1385 00ab 00000000 		.4byte	.LASF15
 1386 00af 02       		.byte	0x2
ARM GAS  C:\Users\devdev\AppData\Local\Temp\cc720ADm.s 			page 40


 1387 00b0 F2       		.byte	0xf2
 1388 00b1 B5000000 		.4byte	0xb5
 1389 00b5 05       		.uleb128 0x5
 1390 00b6 7A000000 		.4byte	0x7a
 1391 00ba 02       		.uleb128 0x2
 1392 00bb 04       		.byte	0x4
 1393 00bc 07       		.byte	0x7
 1394 00bd 62020000 		.4byte	.LASF16
 1395 00c1 06       		.uleb128 0x6
 1396 00c2 01       		.byte	0x1
 1397 00c3 6B020000 		.4byte	.LASF20
 1398 00c7 01       		.byte	0x1
 1399 00c8 4D       		.byte	0x4d
 1400 00c9 01       		.byte	0x1
 1401 00ca 6F000000 		.4byte	0x6f
 1402 00ce 00000000 		.4byte	.LFB0
 1403 00d2 58010000 		.4byte	.LFE0
 1404 00d6 00000000 		.4byte	.LLST0
 1405 00da 01       		.byte	0x1
 1406 00db 26010000 		.4byte	0x126
 1407 00df 07       		.uleb128 0x7
 1408 00e0 85000000 		.4byte	.LASF17
 1409 00e4 01       		.byte	0x1
 1410 00e5 4D       		.byte	0x4d
 1411 00e6 6F000000 		.4byte	0x6f
 1412 00ea 02       		.byte	0x2
 1413 00eb 91       		.byte	0x91
 1414 00ec 6F       		.sleb128 -17
 1415 00ed 07       		.uleb128 0x7
 1416 00ee 38010000 		.4byte	.LASF18
 1417 00f2 01       		.byte	0x1
 1418 00f3 4D       		.byte	0x4d
 1419 00f4 26010000 		.4byte	0x126
 1420 00f8 02       		.byte	0x2
 1421 00f9 91       		.byte	0x91
 1422 00fa 68       		.sleb128 -24
 1423 00fb 08       		.uleb128 0x8
 1424 00fc 636E7400 		.ascii	"cnt\000"
 1425 0100 01       		.byte	0x1
 1426 0101 4D       		.byte	0x4d
 1427 0102 6F000000 		.4byte	0x6f
 1428 0106 02       		.byte	0x2
 1429 0107 91       		.byte	0x91
 1430 0108 6E       		.sleb128 -18
 1431 0109 07       		.uleb128 0x7
 1432 010a E2010000 		.4byte	.LASF19
 1433 010e 01       		.byte	0x1
 1434 010f 4D       		.byte	0x4d
 1435 0110 6F000000 		.4byte	0x6f
 1436 0114 02       		.byte	0x2
 1437 0115 91       		.byte	0x91
 1438 0116 6D       		.sleb128 -19
 1439 0117 09       		.uleb128 0x9
 1440 0118 3F010000 		.4byte	.LASF23
 1441 011c 01       		.byte	0x1
 1442 011d 50       		.byte	0x50
 1443 011e 6F000000 		.4byte	0x6f
ARM GAS  C:\Users\devdev\AppData\Local\Temp\cc720ADm.s 			page 41


 1444 0122 02       		.byte	0x2
 1445 0123 91       		.byte	0x91
 1446 0124 77       		.sleb128 -9
 1447 0125 00       		.byte	0
 1448 0126 0A       		.uleb128 0xa
 1449 0127 04       		.byte	0x4
 1450 0128 6F000000 		.4byte	0x6f
 1451 012c 06       		.uleb128 0x6
 1452 012d 01       		.byte	0x1
 1453 012e B7010000 		.4byte	.LASF21
 1454 0132 01       		.byte	0x1
 1455 0133 B4       		.byte	0xb4
 1456 0134 01       		.byte	0x1
 1457 0135 6F000000 		.4byte	0x6f
 1458 0139 00000000 		.4byte	.LFB1
 1459 013d 5E010000 		.4byte	.LFE1
 1460 0141 38000000 		.4byte	.LLST1
 1461 0145 01       		.byte	0x1
 1462 0146 91010000 		.4byte	0x191
 1463 014a 07       		.uleb128 0x7
 1464 014b 85000000 		.4byte	.LASF17
 1465 014f 01       		.byte	0x1
 1466 0150 B4       		.byte	0xb4
 1467 0151 6F000000 		.4byte	0x6f
 1468 0155 02       		.byte	0x2
 1469 0156 91       		.byte	0x91
 1470 0157 6F       		.sleb128 -17
 1471 0158 07       		.uleb128 0x7
 1472 0159 89010000 		.4byte	.LASF22
 1473 015d 01       		.byte	0x1
 1474 015e B4       		.byte	0xb4
 1475 015f 26010000 		.4byte	0x126
 1476 0163 02       		.byte	0x2
 1477 0164 91       		.byte	0x91
 1478 0165 68       		.sleb128 -24
 1479 0166 08       		.uleb128 0x8
 1480 0167 636E7400 		.ascii	"cnt\000"
 1481 016b 01       		.byte	0x1
 1482 016c B4       		.byte	0xb4
 1483 016d 6F000000 		.4byte	0x6f
 1484 0171 02       		.byte	0x2
 1485 0172 91       		.byte	0x91
 1486 0173 6E       		.sleb128 -18
 1487 0174 07       		.uleb128 0x7
 1488 0175 E2010000 		.4byte	.LASF19
 1489 0179 01       		.byte	0x1
 1490 017a B4       		.byte	0xb4
 1491 017b 6F000000 		.4byte	0x6f
 1492 017f 02       		.byte	0x2
 1493 0180 91       		.byte	0x91
 1494 0181 6D       		.sleb128 -19
 1495 0182 09       		.uleb128 0x9
 1496 0183 3F010000 		.4byte	.LASF23
 1497 0187 01       		.byte	0x1
 1498 0188 B7       		.byte	0xb7
 1499 0189 6F000000 		.4byte	0x6f
 1500 018d 02       		.byte	0x2
ARM GAS  C:\Users\devdev\AppData\Local\Temp\cc720ADm.s 			page 42


 1501 018e 91       		.byte	0x91
 1502 018f 77       		.sleb128 -9
 1503 0190 00       		.byte	0
 1504 0191 0B       		.uleb128 0xb
 1505 0192 01       		.byte	0x1
 1506 0193 1C010000 		.4byte	.LASF24
 1507 0197 01       		.byte	0x1
 1508 0198 0F01     		.2byte	0x10f
 1509 019a 01       		.byte	0x1
 1510 019b 6F000000 		.4byte	0x6f
 1511 019f 00000000 		.4byte	.LFB2
 1512 01a3 88010000 		.4byte	.LFE2
 1513 01a7 70000000 		.4byte	.LLST2
 1514 01ab 01       		.byte	0x1
 1515 01ac DE010000 		.4byte	0x1de
 1516 01b0 0C       		.uleb128 0xc
 1517 01b1 85000000 		.4byte	.LASF17
 1518 01b5 01       		.byte	0x1
 1519 01b6 0F01     		.2byte	0x10f
 1520 01b8 6F000000 		.4byte	0x6f
 1521 01bc 02       		.byte	0x2
 1522 01bd 91       		.byte	0x91
 1523 01be 6F       		.sleb128 -17
 1524 01bf 0C       		.uleb128 0xc
 1525 01c0 84010000 		.4byte	.LASF25
 1526 01c4 01       		.byte	0x1
 1527 01c5 0F01     		.2byte	0x10f
 1528 01c7 6F000000 		.4byte	0x6f
 1529 01cb 02       		.byte	0x2
 1530 01cc 91       		.byte	0x91
 1531 01cd 6E       		.sleb128 -18
 1532 01ce 0D       		.uleb128 0xd
 1533 01cf 3F010000 		.4byte	.LASF23
 1534 01d3 01       		.byte	0x1
 1535 01d4 1201     		.2byte	0x112
 1536 01d6 6F000000 		.4byte	0x6f
 1537 01da 02       		.byte	0x2
 1538 01db 91       		.byte	0x91
 1539 01dc 77       		.sleb128 -9
 1540 01dd 00       		.byte	0
 1541 01de 0B       		.uleb128 0xb
 1542 01df 01       		.byte	0x1
 1543 01e0 97010000 		.4byte	.LASF26
 1544 01e4 01       		.byte	0x1
 1545 01e5 7901     		.2byte	0x179
 1546 01e7 01       		.byte	0x1
 1547 01e8 6F000000 		.4byte	0x6f
 1548 01ec 00000000 		.4byte	.LFB3
 1549 01f0 12010000 		.4byte	.LFE3
 1550 01f4 A8000000 		.4byte	.LLST3
 1551 01f8 01       		.byte	0x1
 1552 01f9 2B020000 		.4byte	0x22b
 1553 01fd 0C       		.uleb128 0xc
 1554 01fe 85000000 		.4byte	.LASF17
 1555 0202 01       		.byte	0x1
 1556 0203 7901     		.2byte	0x179
 1557 0205 6F000000 		.4byte	0x6f
ARM GAS  C:\Users\devdev\AppData\Local\Temp\cc720ADm.s 			page 43


 1558 0209 02       		.byte	0x2
 1559 020a 91       		.byte	0x91
 1560 020b 6F       		.sleb128 -17
 1561 020c 0C       		.uleb128 0xc
 1562 020d 84010000 		.4byte	.LASF25
 1563 0211 01       		.byte	0x1
 1564 0212 7901     		.2byte	0x179
 1565 0214 6F000000 		.4byte	0x6f
 1566 0218 02       		.byte	0x2
 1567 0219 91       		.byte	0x91
 1568 021a 6E       		.sleb128 -18
 1569 021b 0D       		.uleb128 0xd
 1570 021c 3F010000 		.4byte	.LASF23
 1571 0220 01       		.byte	0x1
 1572 0221 7C01     		.2byte	0x17c
 1573 0223 6F000000 		.4byte	0x6f
 1574 0227 02       		.byte	0x2
 1575 0228 91       		.byte	0x91
 1576 0229 77       		.sleb128 -9
 1577 022a 00       		.byte	0
 1578 022b 0B       		.uleb128 0xb
 1579 022c 01       		.byte	0x1
 1580 022d 57010000 		.4byte	.LASF27
 1581 0231 01       		.byte	0x1
 1582 0232 CC01     		.2byte	0x1cc
 1583 0234 01       		.byte	0x1
 1584 0235 6F000000 		.4byte	0x6f
 1585 0239 00000000 		.4byte	.LFB4
 1586 023d 9C000000 		.4byte	.LFE4
 1587 0241 E0000000 		.4byte	.LLST4
 1588 0245 01       		.byte	0x1
 1589 0246 5A020000 		.4byte	0x25a
 1590 024a 0D       		.uleb128 0xd
 1591 024b 3F010000 		.4byte	.LASF23
 1592 024f 01       		.byte	0x1
 1593 0250 CE01     		.2byte	0x1ce
 1594 0252 6F000000 		.4byte	0x6f
 1595 0256 02       		.byte	0x2
 1596 0257 91       		.byte	0x91
 1597 0258 77       		.sleb128 -9
 1598 0259 00       		.byte	0
 1599 025a 0B       		.uleb128 0xb
 1600 025b 01       		.byte	0x1
 1601 025c 13000000 		.4byte	.LASF28
 1602 0260 01       		.byte	0x1
 1603 0261 0402     		.2byte	0x204
 1604 0263 01       		.byte	0x1
 1605 0264 6F000000 		.4byte	0x6f
 1606 0268 00000000 		.4byte	.LFB5
 1607 026c E6000000 		.4byte	.LFE5
 1608 0270 18010000 		.4byte	.LLST5
 1609 0274 01       		.byte	0x1
 1610 0275 98020000 		.4byte	0x298
 1611 0279 0C       		.uleb128 0xc
 1612 027a BE020000 		.4byte	.LASF29
 1613 027e 01       		.byte	0x1
 1614 027f 0402     		.2byte	0x204
ARM GAS  C:\Users\devdev\AppData\Local\Temp\cc720ADm.s 			page 44


 1615 0281 6F000000 		.4byte	0x6f
 1616 0285 02       		.byte	0x2
 1617 0286 91       		.byte	0x91
 1618 0287 6F       		.sleb128 -17
 1619 0288 0D       		.uleb128 0xd
 1620 0289 3F010000 		.4byte	.LASF23
 1621 028d 01       		.byte	0x1
 1622 028e 0602     		.2byte	0x206
 1623 0290 6F000000 		.4byte	0x6f
 1624 0294 02       		.byte	0x2
 1625 0295 91       		.byte	0x91
 1626 0296 77       		.sleb128 -9
 1627 0297 00       		.byte	0
 1628 0298 0B       		.uleb128 0xb
 1629 0299 01       		.byte	0x1
 1630 029a 70000000 		.4byte	.LASF30
 1631 029e 01       		.byte	0x1
 1632 029f 4F02     		.2byte	0x24f
 1633 02a1 01       		.byte	0x1
 1634 02a2 6F000000 		.4byte	0x6f
 1635 02a6 00000000 		.4byte	.LFB6
 1636 02aa A4000000 		.4byte	.LFE6
 1637 02ae 50010000 		.4byte	.LLST6
 1638 02b2 01       		.byte	0x1
 1639 02b3 D6020000 		.4byte	0x2d6
 1640 02b7 0C       		.uleb128 0xc
 1641 02b8 AF010000 		.4byte	.LASF31
 1642 02bc 01       		.byte	0x1
 1643 02bd 4F02     		.2byte	0x24f
 1644 02bf 6F000000 		.4byte	0x6f
 1645 02c3 02       		.byte	0x2
 1646 02c4 91       		.byte	0x91
 1647 02c5 6F       		.sleb128 -17
 1648 02c6 0D       		.uleb128 0xd
 1649 02c7 BE020000 		.4byte	.LASF29
 1650 02cb 01       		.byte	0x1
 1651 02cc 5102     		.2byte	0x251
 1652 02ce 6F000000 		.4byte	0x6f
 1653 02d2 02       		.byte	0x2
 1654 02d3 91       		.byte	0x91
 1655 02d4 77       		.sleb128 -9
 1656 02d5 00       		.byte	0
 1657 02d6 0B       		.uleb128 0xb
 1658 02d7 01       		.byte	0x1
 1659 02d8 C6020000 		.4byte	.LASF32
 1660 02dc 01       		.byte	0x1
 1661 02dd 8A02     		.2byte	0x28a
 1662 02df 01       		.byte	0x1
 1663 02e0 6F000000 		.4byte	0x6f
 1664 02e4 00000000 		.4byte	.LFB7
 1665 02e8 3E000000 		.4byte	.LFE7
 1666 02ec 88010000 		.4byte	.LLST7
 1667 02f0 01       		.byte	0x1
 1668 02f1 05030000 		.4byte	0x305
 1669 02f5 0D       		.uleb128 0xd
 1670 02f6 06000000 		.4byte	.LASF33
 1671 02fa 01       		.byte	0x1
ARM GAS  C:\Users\devdev\AppData\Local\Temp\cc720ADm.s 			page 45


 1672 02fb 8C02     		.2byte	0x28c
 1673 02fd 6F000000 		.4byte	0x6f
 1674 0301 02       		.byte	0x2
 1675 0302 91       		.byte	0x91
 1676 0303 77       		.sleb128 -9
 1677 0304 00       		.byte	0
 1678 0305 0B       		.uleb128 0xb
 1679 0306 01       		.byte	0x1
 1680 0307 78030000 		.4byte	.LASF34
 1681 030b 01       		.byte	0x1
 1682 030c B302     		.2byte	0x2b3
 1683 030e 01       		.byte	0x1
 1684 030f 6F000000 		.4byte	0x6f
 1685 0313 00000000 		.4byte	.LFB8
 1686 0317 2E000000 		.4byte	.LFE8
 1687 031b C0010000 		.4byte	.LLST8
 1688 031f 01       		.byte	0x1
 1689 0320 34030000 		.4byte	0x334
 1690 0324 0D       		.uleb128 0xd
 1691 0325 06000000 		.4byte	.LASF33
 1692 0329 01       		.byte	0x1
 1693 032a B602     		.2byte	0x2b6
 1694 032c 6F000000 		.4byte	0x6f
 1695 0330 02       		.byte	0x2
 1696 0331 91       		.byte	0x91
 1697 0332 77       		.sleb128 -9
 1698 0333 00       		.byte	0
 1699 0334 0E       		.uleb128 0xe
 1700 0335 01       		.byte	0x1
 1701 0336 BC000000 		.4byte	.LASF35
 1702 033a 01       		.byte	0x1
 1703 033b D402     		.2byte	0x2d4
 1704 033d 01       		.byte	0x1
 1705 033e 6F000000 		.4byte	0x6f
 1706 0342 00000000 		.4byte	.LFB9
 1707 0346 18000000 		.4byte	.LFE9
 1708 034a F8010000 		.4byte	.LLST9
 1709 034e 01       		.byte	0x1
 1710 034f 0E       		.uleb128 0xe
 1711 0350 01       		.byte	0x1
 1712 0351 D7000000 		.4byte	.LASF36
 1713 0355 01       		.byte	0x1
 1714 0356 EE02     		.2byte	0x2ee
 1715 0358 01       		.byte	0x1
 1716 0359 6F000000 		.4byte	0x6f
 1717 035d 00000000 		.4byte	.LFB10
 1718 0361 18000000 		.4byte	.LFE10
 1719 0365 24020000 		.4byte	.LLST10
 1720 0369 01       		.byte	0x1
 1721 036a 0F       		.uleb128 0xf
 1722 036b 01       		.byte	0x1
 1723 036c A3000000 		.4byte	.LASF37
 1724 0370 01       		.byte	0x1
 1725 0371 0A03     		.2byte	0x30a
 1726 0373 01       		.byte	0x1
 1727 0374 00000000 		.4byte	.LFB11
 1728 0378 34000000 		.4byte	.LFE11
ARM GAS  C:\Users\devdev\AppData\Local\Temp\cc720ADm.s 			page 46


 1729 037c 50020000 		.4byte	.LLST11
 1730 0380 01       		.byte	0x1
 1731 0381 0F       		.uleb128 0xf
 1732 0382 01       		.byte	0x1
 1733 0383 D9020000 		.4byte	.LASF38
 1734 0387 01       		.byte	0x1
 1735 0388 2703     		.2byte	0x327
 1736 038a 01       		.byte	0x1
 1737 038b 00000000 		.4byte	.LFB12
 1738 038f 34000000 		.4byte	.LFE12
 1739 0393 7C020000 		.4byte	.LLST12
 1740 0397 01       		.byte	0x1
 1741 0398 0F       		.uleb128 0xf
 1742 0399 01       		.byte	0x1
 1743 039a 92000000 		.4byte	.LASF39
 1744 039e 01       		.byte	0x1
 1745 039f 3F03     		.2byte	0x33f
 1746 03a1 01       		.byte	0x1
 1747 03a2 00000000 		.4byte	.LFB13
 1748 03a6 0A000000 		.4byte	.LFE13
 1749 03aa A8020000 		.4byte	.LLST13
 1750 03ae 01       		.byte	0x1
 1751 03af 10       		.uleb128 0x10
 1752 03b0 8E020000 		.4byte	.LASF40
 1753 03b4 03       		.byte	0x3
 1754 03b5 23       		.byte	0x23
 1755 03b6 A5000000 		.4byte	0xa5
 1756 03ba 01       		.byte	0x1
 1757 03bb 01       		.byte	0x1
 1758 03bc 11       		.uleb128 0x11
 1759 03bd 73010000 		.4byte	.LASF41
 1760 03c1 01       		.byte	0x1
 1761 03c2 19       		.byte	0x19
 1762 03c3 A5000000 		.4byte	0xa5
 1763 03c7 01       		.byte	0x1
 1764 03c8 05       		.byte	0x5
 1765 03c9 03       		.byte	0x3
 1766 03ca 00000000 		.4byte	I2C_3_mstrStatus
 1767 03ce 11       		.uleb128 0x11
 1768 03cf F3000000 		.4byte	.LASF42
 1769 03d3 01       		.byte	0x1
 1770 03d4 1A       		.byte	0x1a
 1771 03d5 A5000000 		.4byte	0xa5
 1772 03d9 01       		.byte	0x1
 1773 03da 05       		.byte	0x5
 1774 03db 03       		.byte	0x3
 1775 03dc 00000000 		.4byte	I2C_3_mstrControl
 1776 03e0 11       		.uleb128 0x11
 1777 03e1 65030000 		.4byte	.LASF43
 1778 03e5 01       		.byte	0x1
 1779 03e6 1D       		.byte	0x1d
 1780 03e7 F2030000 		.4byte	0x3f2
 1781 03eb 01       		.byte	0x1
 1782 03ec 05       		.byte	0x5
 1783 03ed 03       		.byte	0x3
 1784 03ee 00000000 		.4byte	I2C_3_mstrRdBufPtr
 1785 03f2 0A       		.uleb128 0xa
ARM GAS  C:\Users\devdev\AppData\Local\Temp\cc720ADm.s 			page 47


 1786 03f3 04       		.byte	0x4
 1787 03f4 A5000000 		.4byte	0xa5
 1788 03f8 11       		.uleb128 0x11
 1789 03f9 51030000 		.4byte	.LASF44
 1790 03fd 01       		.byte	0x1
 1791 03fe 1E       		.byte	0x1e
 1792 03ff A5000000 		.4byte	0xa5
 1793 0403 01       		.byte	0x1
 1794 0404 05       		.byte	0x5
 1795 0405 03       		.byte	0x3
 1796 0406 00000000 		.4byte	I2C_3_mstrRdBufSize
 1797 040a 11       		.uleb128 0x11
 1798 040b 9F020000 		.4byte	.LASF45
 1799 040f 01       		.byte	0x1
 1800 0410 1F       		.byte	0x1f
 1801 0411 A5000000 		.4byte	0xa5
 1802 0415 01       		.byte	0x1
 1803 0416 05       		.byte	0x5
 1804 0417 03       		.byte	0x3
 1805 0418 00000000 		.4byte	I2C_3_mstrRdBufIndex
 1806 041c 11       		.uleb128 0x11
 1807 041d 29000000 		.4byte	.LASF46
 1808 0421 01       		.byte	0x1
 1809 0422 22       		.byte	0x22
 1810 0423 F2030000 		.4byte	0x3f2
 1811 0427 01       		.byte	0x1
 1812 0428 05       		.byte	0x5
 1813 0429 03       		.byte	0x3
 1814 042a 00000000 		.4byte	I2C_3_mstrWrBufPtr
 1815 042e 11       		.uleb128 0x11
 1816 042f 5C000000 		.4byte	.LASF47
 1817 0433 01       		.byte	0x1
 1818 0434 23       		.byte	0x23
 1819 0435 A5000000 		.4byte	0xa5
 1820 0439 01       		.byte	0x1
 1821 043a 05       		.byte	0x5
 1822 043b 03       		.byte	0x3
 1823 043c 00000000 		.4byte	I2C_3_mstrWrBufSize
 1824 0440 11       		.uleb128 0x11
 1825 0441 E7010000 		.4byte	.LASF48
 1826 0445 01       		.byte	0x1
 1827 0446 24       		.byte	0x24
 1828 0447 A5000000 		.4byte	0xa5
 1829 044b 01       		.byte	0x1
 1830 044c 05       		.byte	0x5
 1831 044d 03       		.byte	0x3
 1832 044e 00000000 		.4byte	I2C_3_mstrWrBufIndex
 1833 0452 00       		.byte	0
 1834              		.section	.debug_abbrev,"",%progbits
 1835              	.Ldebug_abbrev0:
 1836 0000 01       		.uleb128 0x1
 1837 0001 11       		.uleb128 0x11
 1838 0002 01       		.byte	0x1
 1839 0003 25       		.uleb128 0x25
 1840 0004 0E       		.uleb128 0xe
 1841 0005 13       		.uleb128 0x13
 1842 0006 0B       		.uleb128 0xb
ARM GAS  C:\Users\devdev\AppData\Local\Temp\cc720ADm.s 			page 48


 1843 0007 03       		.uleb128 0x3
 1844 0008 0E       		.uleb128 0xe
 1845 0009 1B       		.uleb128 0x1b
 1846 000a 0E       		.uleb128 0xe
 1847 000b 55       		.uleb128 0x55
 1848 000c 06       		.uleb128 0x6
 1849 000d 11       		.uleb128 0x11
 1850 000e 01       		.uleb128 0x1
 1851 000f 52       		.uleb128 0x52
 1852 0010 01       		.uleb128 0x1
 1853 0011 10       		.uleb128 0x10
 1854 0012 06       		.uleb128 0x6
 1855 0013 00       		.byte	0
 1856 0014 00       		.byte	0
 1857 0015 02       		.uleb128 0x2
 1858 0016 24       		.uleb128 0x24
 1859 0017 00       		.byte	0
 1860 0018 0B       		.uleb128 0xb
 1861 0019 0B       		.uleb128 0xb
 1862 001a 3E       		.uleb128 0x3e
 1863 001b 0B       		.uleb128 0xb
 1864 001c 03       		.uleb128 0x3
 1865 001d 0E       		.uleb128 0xe
 1866 001e 00       		.byte	0
 1867 001f 00       		.byte	0
 1868 0020 03       		.uleb128 0x3
 1869 0021 24       		.uleb128 0x24
 1870 0022 00       		.byte	0
 1871 0023 0B       		.uleb128 0xb
 1872 0024 0B       		.uleb128 0xb
 1873 0025 3E       		.uleb128 0x3e
 1874 0026 0B       		.uleb128 0xb
 1875 0027 03       		.uleb128 0x3
 1876 0028 08       		.uleb128 0x8
 1877 0029 00       		.byte	0
 1878 002a 00       		.byte	0
 1879 002b 04       		.uleb128 0x4
 1880 002c 16       		.uleb128 0x16
 1881 002d 00       		.byte	0
 1882 002e 03       		.uleb128 0x3
 1883 002f 0E       		.uleb128 0xe
 1884 0030 3A       		.uleb128 0x3a
 1885 0031 0B       		.uleb128 0xb
 1886 0032 3B       		.uleb128 0x3b
 1887 0033 0B       		.uleb128 0xb
 1888 0034 49       		.uleb128 0x49
 1889 0035 13       		.uleb128 0x13
 1890 0036 00       		.byte	0
 1891 0037 00       		.byte	0
 1892 0038 05       		.uleb128 0x5
 1893 0039 35       		.uleb128 0x35
 1894 003a 00       		.byte	0
 1895 003b 49       		.uleb128 0x49
 1896 003c 13       		.uleb128 0x13
 1897 003d 00       		.byte	0
 1898 003e 00       		.byte	0
 1899 003f 06       		.uleb128 0x6
ARM GAS  C:\Users\devdev\AppData\Local\Temp\cc720ADm.s 			page 49


 1900 0040 2E       		.uleb128 0x2e
 1901 0041 01       		.byte	0x1
 1902 0042 3F       		.uleb128 0x3f
 1903 0043 0C       		.uleb128 0xc
 1904 0044 03       		.uleb128 0x3
 1905 0045 0E       		.uleb128 0xe
 1906 0046 3A       		.uleb128 0x3a
 1907 0047 0B       		.uleb128 0xb
 1908 0048 3B       		.uleb128 0x3b
 1909 0049 0B       		.uleb128 0xb
 1910 004a 27       		.uleb128 0x27
 1911 004b 0C       		.uleb128 0xc
 1912 004c 49       		.uleb128 0x49
 1913 004d 13       		.uleb128 0x13
 1914 004e 11       		.uleb128 0x11
 1915 004f 01       		.uleb128 0x1
 1916 0050 12       		.uleb128 0x12
 1917 0051 01       		.uleb128 0x1
 1918 0052 40       		.uleb128 0x40
 1919 0053 06       		.uleb128 0x6
 1920 0054 9742     		.uleb128 0x2117
 1921 0056 0C       		.uleb128 0xc
 1922 0057 01       		.uleb128 0x1
 1923 0058 13       		.uleb128 0x13
 1924 0059 00       		.byte	0
 1925 005a 00       		.byte	0
 1926 005b 07       		.uleb128 0x7
 1927 005c 05       		.uleb128 0x5
 1928 005d 00       		.byte	0
 1929 005e 03       		.uleb128 0x3
 1930 005f 0E       		.uleb128 0xe
 1931 0060 3A       		.uleb128 0x3a
 1932 0061 0B       		.uleb128 0xb
 1933 0062 3B       		.uleb128 0x3b
 1934 0063 0B       		.uleb128 0xb
 1935 0064 49       		.uleb128 0x49
 1936 0065 13       		.uleb128 0x13
 1937 0066 02       		.uleb128 0x2
 1938 0067 0A       		.uleb128 0xa
 1939 0068 00       		.byte	0
 1940 0069 00       		.byte	0
 1941 006a 08       		.uleb128 0x8
 1942 006b 05       		.uleb128 0x5
 1943 006c 00       		.byte	0
 1944 006d 03       		.uleb128 0x3
 1945 006e 08       		.uleb128 0x8
 1946 006f 3A       		.uleb128 0x3a
 1947 0070 0B       		.uleb128 0xb
 1948 0071 3B       		.uleb128 0x3b
 1949 0072 0B       		.uleb128 0xb
 1950 0073 49       		.uleb128 0x49
 1951 0074 13       		.uleb128 0x13
 1952 0075 02       		.uleb128 0x2
 1953 0076 0A       		.uleb128 0xa
 1954 0077 00       		.byte	0
 1955 0078 00       		.byte	0
 1956 0079 09       		.uleb128 0x9
ARM GAS  C:\Users\devdev\AppData\Local\Temp\cc720ADm.s 			page 50


 1957 007a 34       		.uleb128 0x34
 1958 007b 00       		.byte	0
 1959 007c 03       		.uleb128 0x3
 1960 007d 0E       		.uleb128 0xe
 1961 007e 3A       		.uleb128 0x3a
 1962 007f 0B       		.uleb128 0xb
 1963 0080 3B       		.uleb128 0x3b
 1964 0081 0B       		.uleb128 0xb
 1965 0082 49       		.uleb128 0x49
 1966 0083 13       		.uleb128 0x13
 1967 0084 02       		.uleb128 0x2
 1968 0085 0A       		.uleb128 0xa
 1969 0086 00       		.byte	0
 1970 0087 00       		.byte	0
 1971 0088 0A       		.uleb128 0xa
 1972 0089 0F       		.uleb128 0xf
 1973 008a 00       		.byte	0
 1974 008b 0B       		.uleb128 0xb
 1975 008c 0B       		.uleb128 0xb
 1976 008d 49       		.uleb128 0x49
 1977 008e 13       		.uleb128 0x13
 1978 008f 00       		.byte	0
 1979 0090 00       		.byte	0
 1980 0091 0B       		.uleb128 0xb
 1981 0092 2E       		.uleb128 0x2e
 1982 0093 01       		.byte	0x1
 1983 0094 3F       		.uleb128 0x3f
 1984 0095 0C       		.uleb128 0xc
 1985 0096 03       		.uleb128 0x3
 1986 0097 0E       		.uleb128 0xe
 1987 0098 3A       		.uleb128 0x3a
 1988 0099 0B       		.uleb128 0xb
 1989 009a 3B       		.uleb128 0x3b
 1990 009b 05       		.uleb128 0x5
 1991 009c 27       		.uleb128 0x27
 1992 009d 0C       		.uleb128 0xc
 1993 009e 49       		.uleb128 0x49
 1994 009f 13       		.uleb128 0x13
 1995 00a0 11       		.uleb128 0x11
 1996 00a1 01       		.uleb128 0x1
 1997 00a2 12       		.uleb128 0x12
 1998 00a3 01       		.uleb128 0x1
 1999 00a4 40       		.uleb128 0x40
 2000 00a5 06       		.uleb128 0x6
 2001 00a6 9742     		.uleb128 0x2117
 2002 00a8 0C       		.uleb128 0xc
 2003 00a9 01       		.uleb128 0x1
 2004 00aa 13       		.uleb128 0x13
 2005 00ab 00       		.byte	0
 2006 00ac 00       		.byte	0
 2007 00ad 0C       		.uleb128 0xc
 2008 00ae 05       		.uleb128 0x5
 2009 00af 00       		.byte	0
 2010 00b0 03       		.uleb128 0x3
 2011 00b1 0E       		.uleb128 0xe
 2012 00b2 3A       		.uleb128 0x3a
 2013 00b3 0B       		.uleb128 0xb
ARM GAS  C:\Users\devdev\AppData\Local\Temp\cc720ADm.s 			page 51


 2014 00b4 3B       		.uleb128 0x3b
 2015 00b5 05       		.uleb128 0x5
 2016 00b6 49       		.uleb128 0x49
 2017 00b7 13       		.uleb128 0x13
 2018 00b8 02       		.uleb128 0x2
 2019 00b9 0A       		.uleb128 0xa
 2020 00ba 00       		.byte	0
 2021 00bb 00       		.byte	0
 2022 00bc 0D       		.uleb128 0xd
 2023 00bd 34       		.uleb128 0x34
 2024 00be 00       		.byte	0
 2025 00bf 03       		.uleb128 0x3
 2026 00c0 0E       		.uleb128 0xe
 2027 00c1 3A       		.uleb128 0x3a
 2028 00c2 0B       		.uleb128 0xb
 2029 00c3 3B       		.uleb128 0x3b
 2030 00c4 05       		.uleb128 0x5
 2031 00c5 49       		.uleb128 0x49
 2032 00c6 13       		.uleb128 0x13
 2033 00c7 02       		.uleb128 0x2
 2034 00c8 0A       		.uleb128 0xa
 2035 00c9 00       		.byte	0
 2036 00ca 00       		.byte	0
 2037 00cb 0E       		.uleb128 0xe
 2038 00cc 2E       		.uleb128 0x2e
 2039 00cd 00       		.byte	0
 2040 00ce 3F       		.uleb128 0x3f
 2041 00cf 0C       		.uleb128 0xc
 2042 00d0 03       		.uleb128 0x3
 2043 00d1 0E       		.uleb128 0xe
 2044 00d2 3A       		.uleb128 0x3a
 2045 00d3 0B       		.uleb128 0xb
 2046 00d4 3B       		.uleb128 0x3b
 2047 00d5 05       		.uleb128 0x5
 2048 00d6 27       		.uleb128 0x27
 2049 00d7 0C       		.uleb128 0xc
 2050 00d8 49       		.uleb128 0x49
 2051 00d9 13       		.uleb128 0x13
 2052 00da 11       		.uleb128 0x11
 2053 00db 01       		.uleb128 0x1
 2054 00dc 12       		.uleb128 0x12
 2055 00dd 01       		.uleb128 0x1
 2056 00de 40       		.uleb128 0x40
 2057 00df 06       		.uleb128 0x6
 2058 00e0 9742     		.uleb128 0x2117
 2059 00e2 0C       		.uleb128 0xc
 2060 00e3 00       		.byte	0
 2061 00e4 00       		.byte	0
 2062 00e5 0F       		.uleb128 0xf
 2063 00e6 2E       		.uleb128 0x2e
 2064 00e7 00       		.byte	0
 2065 00e8 3F       		.uleb128 0x3f
 2066 00e9 0C       		.uleb128 0xc
 2067 00ea 03       		.uleb128 0x3
 2068 00eb 0E       		.uleb128 0xe
 2069 00ec 3A       		.uleb128 0x3a
 2070 00ed 0B       		.uleb128 0xb
ARM GAS  C:\Users\devdev\AppData\Local\Temp\cc720ADm.s 			page 52


 2071 00ee 3B       		.uleb128 0x3b
 2072 00ef 05       		.uleb128 0x5
 2073 00f0 27       		.uleb128 0x27
 2074 00f1 0C       		.uleb128 0xc
 2075 00f2 11       		.uleb128 0x11
 2076 00f3 01       		.uleb128 0x1
 2077 00f4 12       		.uleb128 0x12
 2078 00f5 01       		.uleb128 0x1
 2079 00f6 40       		.uleb128 0x40
 2080 00f7 06       		.uleb128 0x6
 2081 00f8 9742     		.uleb128 0x2117
 2082 00fa 0C       		.uleb128 0xc
 2083 00fb 00       		.byte	0
 2084 00fc 00       		.byte	0
 2085 00fd 10       		.uleb128 0x10
 2086 00fe 34       		.uleb128 0x34
 2087 00ff 00       		.byte	0
 2088 0100 03       		.uleb128 0x3
 2089 0101 0E       		.uleb128 0xe
 2090 0102 3A       		.uleb128 0x3a
 2091 0103 0B       		.uleb128 0xb
 2092 0104 3B       		.uleb128 0x3b
 2093 0105 0B       		.uleb128 0xb
 2094 0106 49       		.uleb128 0x49
 2095 0107 13       		.uleb128 0x13
 2096 0108 3F       		.uleb128 0x3f
 2097 0109 0C       		.uleb128 0xc
 2098 010a 3C       		.uleb128 0x3c
 2099 010b 0C       		.uleb128 0xc
 2100 010c 00       		.byte	0
 2101 010d 00       		.byte	0
 2102 010e 11       		.uleb128 0x11
 2103 010f 34       		.uleb128 0x34
 2104 0110 00       		.byte	0
 2105 0111 03       		.uleb128 0x3
 2106 0112 0E       		.uleb128 0xe
 2107 0113 3A       		.uleb128 0x3a
 2108 0114 0B       		.uleb128 0xb
 2109 0115 3B       		.uleb128 0x3b
 2110 0116 0B       		.uleb128 0xb
 2111 0117 49       		.uleb128 0x49
 2112 0118 13       		.uleb128 0x13
 2113 0119 3F       		.uleb128 0x3f
 2114 011a 0C       		.uleb128 0xc
 2115 011b 02       		.uleb128 0x2
 2116 011c 0A       		.uleb128 0xa
 2117 011d 00       		.byte	0
 2118 011e 00       		.byte	0
 2119 011f 00       		.byte	0
 2120              		.section	.debug_loc,"",%progbits
 2121              	.Ldebug_loc0:
 2122              	.LLST0:
 2123 0000 00000000 		.4byte	.LFB0
 2124 0004 02000000 		.4byte	.LCFI0
 2125 0008 0200     		.2byte	0x2
 2126 000a 7D       		.byte	0x7d
 2127 000b 00       		.sleb128 0
ARM GAS  C:\Users\devdev\AppData\Local\Temp\cc720ADm.s 			page 53


 2128 000c 02000000 		.4byte	.LCFI0
 2129 0010 04000000 		.4byte	.LCFI1
 2130 0014 0200     		.2byte	0x2
 2131 0016 7D       		.byte	0x7d
 2132 0017 04       		.sleb128 4
 2133 0018 04000000 		.4byte	.LCFI1
 2134 001c 06000000 		.4byte	.LCFI2
 2135 0020 0200     		.2byte	0x2
 2136 0022 7D       		.byte	0x7d
 2137 0023 18       		.sleb128 24
 2138 0024 06000000 		.4byte	.LCFI2
 2139 0028 58010000 		.4byte	.LFE0
 2140 002c 0200     		.2byte	0x2
 2141 002e 77       		.byte	0x77
 2142 002f 18       		.sleb128 24
 2143 0030 00000000 		.4byte	0
 2144 0034 00000000 		.4byte	0
 2145              	.LLST1:
 2146 0038 00000000 		.4byte	.LFB1
 2147 003c 02000000 		.4byte	.LCFI3
 2148 0040 0200     		.2byte	0x2
 2149 0042 7D       		.byte	0x7d
 2150 0043 00       		.sleb128 0
 2151 0044 02000000 		.4byte	.LCFI3
 2152 0048 04000000 		.4byte	.LCFI4
 2153 004c 0200     		.2byte	0x2
 2154 004e 7D       		.byte	0x7d
 2155 004f 04       		.sleb128 4
 2156 0050 04000000 		.4byte	.LCFI4
 2157 0054 06000000 		.4byte	.LCFI5
 2158 0058 0200     		.2byte	0x2
 2159 005a 7D       		.byte	0x7d
 2160 005b 18       		.sleb128 24
 2161 005c 06000000 		.4byte	.LCFI5
 2162 0060 5E010000 		.4byte	.LFE1
 2163 0064 0200     		.2byte	0x2
 2164 0066 77       		.byte	0x77
 2165 0067 18       		.sleb128 24
 2166 0068 00000000 		.4byte	0
 2167 006c 00000000 		.4byte	0
 2168              	.LLST2:
 2169 0070 00000000 		.4byte	.LFB2
 2170 0074 02000000 		.4byte	.LCFI6
 2171 0078 0200     		.2byte	0x2
 2172 007a 7D       		.byte	0x7d
 2173 007b 00       		.sleb128 0
 2174 007c 02000000 		.4byte	.LCFI6
 2175 0080 04000000 		.4byte	.LCFI7
 2176 0084 0200     		.2byte	0x2
 2177 0086 7D       		.byte	0x7d
 2178 0087 04       		.sleb128 4
 2179 0088 04000000 		.4byte	.LCFI7
 2180 008c 06000000 		.4byte	.LCFI8
 2181 0090 0200     		.2byte	0x2
 2182 0092 7D       		.byte	0x7d
 2183 0093 18       		.sleb128 24
 2184 0094 06000000 		.4byte	.LCFI8
ARM GAS  C:\Users\devdev\AppData\Local\Temp\cc720ADm.s 			page 54


 2185 0098 88010000 		.4byte	.LFE2
 2186 009c 0200     		.2byte	0x2
 2187 009e 77       		.byte	0x77
 2188 009f 18       		.sleb128 24
 2189 00a0 00000000 		.4byte	0
 2190 00a4 00000000 		.4byte	0
 2191              	.LLST3:
 2192 00a8 00000000 		.4byte	.LFB3
 2193 00ac 02000000 		.4byte	.LCFI9
 2194 00b0 0200     		.2byte	0x2
 2195 00b2 7D       		.byte	0x7d
 2196 00b3 00       		.sleb128 0
 2197 00b4 02000000 		.4byte	.LCFI9
 2198 00b8 04000000 		.4byte	.LCFI10
 2199 00bc 0200     		.2byte	0x2
 2200 00be 7D       		.byte	0x7d
 2201 00bf 04       		.sleb128 4
 2202 00c0 04000000 		.4byte	.LCFI10
 2203 00c4 06000000 		.4byte	.LCFI11
 2204 00c8 0200     		.2byte	0x2
 2205 00ca 7D       		.byte	0x7d
 2206 00cb 18       		.sleb128 24
 2207 00cc 06000000 		.4byte	.LCFI11
 2208 00d0 12010000 		.4byte	.LFE3
 2209 00d4 0200     		.2byte	0x2
 2210 00d6 77       		.byte	0x77
 2211 00d7 18       		.sleb128 24
 2212 00d8 00000000 		.4byte	0
 2213 00dc 00000000 		.4byte	0
 2214              	.LLST4:
 2215 00e0 00000000 		.4byte	.LFB4
 2216 00e4 02000000 		.4byte	.LCFI12
 2217 00e8 0200     		.2byte	0x2
 2218 00ea 7D       		.byte	0x7d
 2219 00eb 00       		.sleb128 0
 2220 00ec 02000000 		.4byte	.LCFI12
 2221 00f0 04000000 		.4byte	.LCFI13
 2222 00f4 0200     		.2byte	0x2
 2223 00f6 7D       		.byte	0x7d
 2224 00f7 04       		.sleb128 4
 2225 00f8 04000000 		.4byte	.LCFI13
 2226 00fc 06000000 		.4byte	.LCFI14
 2227 0100 0200     		.2byte	0x2
 2228 0102 7D       		.byte	0x7d
 2229 0103 10       		.sleb128 16
 2230 0104 06000000 		.4byte	.LCFI14
 2231 0108 9C000000 		.4byte	.LFE4
 2232 010c 0200     		.2byte	0x2
 2233 010e 77       		.byte	0x77
 2234 010f 10       		.sleb128 16
 2235 0110 00000000 		.4byte	0
 2236 0114 00000000 		.4byte	0
 2237              	.LLST5:
 2238 0118 00000000 		.4byte	.LFB5
 2239 011c 02000000 		.4byte	.LCFI15
 2240 0120 0200     		.2byte	0x2
 2241 0122 7D       		.byte	0x7d
ARM GAS  C:\Users\devdev\AppData\Local\Temp\cc720ADm.s 			page 55


 2242 0123 00       		.sleb128 0
 2243 0124 02000000 		.4byte	.LCFI15
 2244 0128 04000000 		.4byte	.LCFI16
 2245 012c 0200     		.2byte	0x2
 2246 012e 7D       		.byte	0x7d
 2247 012f 04       		.sleb128 4
 2248 0130 04000000 		.4byte	.LCFI16
 2249 0134 06000000 		.4byte	.LCFI17
 2250 0138 0200     		.2byte	0x2
 2251 013a 7D       		.byte	0x7d
 2252 013b 18       		.sleb128 24
 2253 013c 06000000 		.4byte	.LCFI17
 2254 0140 E6000000 		.4byte	.LFE5
 2255 0144 0200     		.2byte	0x2
 2256 0146 77       		.byte	0x77
 2257 0147 18       		.sleb128 24
 2258 0148 00000000 		.4byte	0
 2259 014c 00000000 		.4byte	0
 2260              	.LLST6:
 2261 0150 00000000 		.4byte	.LFB6
 2262 0154 02000000 		.4byte	.LCFI18
 2263 0158 0200     		.2byte	0x2
 2264 015a 7D       		.byte	0x7d
 2265 015b 00       		.sleb128 0
 2266 015c 02000000 		.4byte	.LCFI18
 2267 0160 04000000 		.4byte	.LCFI19
 2268 0164 0200     		.2byte	0x2
 2269 0166 7D       		.byte	0x7d
 2270 0167 04       		.sleb128 4
 2271 0168 04000000 		.4byte	.LCFI19
 2272 016c 06000000 		.4byte	.LCFI20
 2273 0170 0200     		.2byte	0x2
 2274 0172 7D       		.byte	0x7d
 2275 0173 18       		.sleb128 24
 2276 0174 06000000 		.4byte	.LCFI20
 2277 0178 A4000000 		.4byte	.LFE6
 2278 017c 0200     		.2byte	0x2
 2279 017e 77       		.byte	0x77
 2280 017f 18       		.sleb128 24
 2281 0180 00000000 		.4byte	0
 2282 0184 00000000 		.4byte	0
 2283              	.LLST7:
 2284 0188 00000000 		.4byte	.LFB7
 2285 018c 02000000 		.4byte	.LCFI21
 2286 0190 0200     		.2byte	0x2
 2287 0192 7D       		.byte	0x7d
 2288 0193 00       		.sleb128 0
 2289 0194 02000000 		.4byte	.LCFI21
 2290 0198 04000000 		.4byte	.LCFI22
 2291 019c 0200     		.2byte	0x2
 2292 019e 7D       		.byte	0x7d
 2293 019f 04       		.sleb128 4
 2294 01a0 04000000 		.4byte	.LCFI22
 2295 01a4 06000000 		.4byte	.LCFI23
 2296 01a8 0200     		.2byte	0x2
 2297 01aa 7D       		.byte	0x7d
 2298 01ab 10       		.sleb128 16
ARM GAS  C:\Users\devdev\AppData\Local\Temp\cc720ADm.s 			page 56


 2299 01ac 06000000 		.4byte	.LCFI23
 2300 01b0 3E000000 		.4byte	.LFE7
 2301 01b4 0200     		.2byte	0x2
 2302 01b6 77       		.byte	0x77
 2303 01b7 10       		.sleb128 16
 2304 01b8 00000000 		.4byte	0
 2305 01bc 00000000 		.4byte	0
 2306              	.LLST8:
 2307 01c0 00000000 		.4byte	.LFB8
 2308 01c4 02000000 		.4byte	.LCFI24
 2309 01c8 0200     		.2byte	0x2
 2310 01ca 7D       		.byte	0x7d
 2311 01cb 00       		.sleb128 0
 2312 01cc 02000000 		.4byte	.LCFI24
 2313 01d0 04000000 		.4byte	.LCFI25
 2314 01d4 0200     		.2byte	0x2
 2315 01d6 7D       		.byte	0x7d
 2316 01d7 04       		.sleb128 4
 2317 01d8 04000000 		.4byte	.LCFI25
 2318 01dc 06000000 		.4byte	.LCFI26
 2319 01e0 0200     		.2byte	0x2
 2320 01e2 7D       		.byte	0x7d
 2321 01e3 10       		.sleb128 16
 2322 01e4 06000000 		.4byte	.LCFI26
 2323 01e8 2E000000 		.4byte	.LFE8
 2324 01ec 0200     		.2byte	0x2
 2325 01ee 77       		.byte	0x77
 2326 01ef 10       		.sleb128 16
 2327 01f0 00000000 		.4byte	0
 2328 01f4 00000000 		.4byte	0
 2329              	.LLST9:
 2330 01f8 00000000 		.4byte	.LFB9
 2331 01fc 02000000 		.4byte	.LCFI27
 2332 0200 0200     		.2byte	0x2
 2333 0202 7D       		.byte	0x7d
 2334 0203 00       		.sleb128 0
 2335 0204 02000000 		.4byte	.LCFI27
 2336 0208 04000000 		.4byte	.LCFI28
 2337 020c 0200     		.2byte	0x2
 2338 020e 7D       		.byte	0x7d
 2339 020f 04       		.sleb128 4
 2340 0210 04000000 		.4byte	.LCFI28
 2341 0214 18000000 		.4byte	.LFE9
 2342 0218 0200     		.2byte	0x2
 2343 021a 77       		.byte	0x77
 2344 021b 04       		.sleb128 4
 2345 021c 00000000 		.4byte	0
 2346 0220 00000000 		.4byte	0
 2347              	.LLST10:
 2348 0224 00000000 		.4byte	.LFB10
 2349 0228 02000000 		.4byte	.LCFI29
 2350 022c 0200     		.2byte	0x2
 2351 022e 7D       		.byte	0x7d
 2352 022f 00       		.sleb128 0
 2353 0230 02000000 		.4byte	.LCFI29
 2354 0234 04000000 		.4byte	.LCFI30
 2355 0238 0200     		.2byte	0x2
ARM GAS  C:\Users\devdev\AppData\Local\Temp\cc720ADm.s 			page 57


 2356 023a 7D       		.byte	0x7d
 2357 023b 04       		.sleb128 4
 2358 023c 04000000 		.4byte	.LCFI30
 2359 0240 18000000 		.4byte	.LFE10
 2360 0244 0200     		.2byte	0x2
 2361 0246 77       		.byte	0x77
 2362 0247 04       		.sleb128 4
 2363 0248 00000000 		.4byte	0
 2364 024c 00000000 		.4byte	0
 2365              	.LLST11:
 2366 0250 00000000 		.4byte	.LFB11
 2367 0254 02000000 		.4byte	.LCFI31
 2368 0258 0200     		.2byte	0x2
 2369 025a 7D       		.byte	0x7d
 2370 025b 00       		.sleb128 0
 2371 025c 02000000 		.4byte	.LCFI31
 2372 0260 04000000 		.4byte	.LCFI32
 2373 0264 0200     		.2byte	0x2
 2374 0266 7D       		.byte	0x7d
 2375 0267 04       		.sleb128 4
 2376 0268 04000000 		.4byte	.LCFI32
 2377 026c 34000000 		.4byte	.LFE11
 2378 0270 0200     		.2byte	0x2
 2379 0272 77       		.byte	0x77
 2380 0273 04       		.sleb128 4
 2381 0274 00000000 		.4byte	0
 2382 0278 00000000 		.4byte	0
 2383              	.LLST12:
 2384 027c 00000000 		.4byte	.LFB12
 2385 0280 02000000 		.4byte	.LCFI33
 2386 0284 0200     		.2byte	0x2
 2387 0286 7D       		.byte	0x7d
 2388 0287 00       		.sleb128 0
 2389 0288 02000000 		.4byte	.LCFI33
 2390 028c 04000000 		.4byte	.LCFI34
 2391 0290 0200     		.2byte	0x2
 2392 0292 7D       		.byte	0x7d
 2393 0293 04       		.sleb128 4
 2394 0294 04000000 		.4byte	.LCFI34
 2395 0298 34000000 		.4byte	.LFE12
 2396 029c 0200     		.2byte	0x2
 2397 029e 77       		.byte	0x77
 2398 029f 04       		.sleb128 4
 2399 02a0 00000000 		.4byte	0
 2400 02a4 00000000 		.4byte	0
 2401              	.LLST13:
 2402 02a8 00000000 		.4byte	.LFB13
 2403 02ac 02000000 		.4byte	.LCFI35
 2404 02b0 0200     		.2byte	0x2
 2405 02b2 7D       		.byte	0x7d
 2406 02b3 00       		.sleb128 0
 2407 02b4 02000000 		.4byte	.LCFI35
 2408 02b8 04000000 		.4byte	.LCFI36
 2409 02bc 0200     		.2byte	0x2
 2410 02be 7D       		.byte	0x7d
 2411 02bf 04       		.sleb128 4
 2412 02c0 04000000 		.4byte	.LCFI36
ARM GAS  C:\Users\devdev\AppData\Local\Temp\cc720ADm.s 			page 58


 2413 02c4 0A000000 		.4byte	.LFE13
 2414 02c8 0200     		.2byte	0x2
 2415 02ca 77       		.byte	0x77
 2416 02cb 04       		.sleb128 4
 2417 02cc 00000000 		.4byte	0
 2418 02d0 00000000 		.4byte	0
 2419              		.section	.debug_aranges,"",%progbits
 2420 0000 84000000 		.4byte	0x84
 2421 0004 0200     		.2byte	0x2
 2422 0006 00000000 		.4byte	.Ldebug_info0
 2423 000a 04       		.byte	0x4
 2424 000b 00       		.byte	0
 2425 000c 0000     		.2byte	0
 2426 000e 0000     		.2byte	0
 2427 0010 00000000 		.4byte	.LFB0
 2428 0014 58010000 		.4byte	.LFE0-.LFB0
 2429 0018 00000000 		.4byte	.LFB1
 2430 001c 5E010000 		.4byte	.LFE1-.LFB1
 2431 0020 00000000 		.4byte	.LFB2
 2432 0024 88010000 		.4byte	.LFE2-.LFB2
 2433 0028 00000000 		.4byte	.LFB3
 2434 002c 12010000 		.4byte	.LFE3-.LFB3
 2435 0030 00000000 		.4byte	.LFB4
 2436 0034 9C000000 		.4byte	.LFE4-.LFB4
 2437 0038 00000000 		.4byte	.LFB5
 2438 003c E6000000 		.4byte	.LFE5-.LFB5
 2439 0040 00000000 		.4byte	.LFB6
 2440 0044 A4000000 		.4byte	.LFE6-.LFB6
 2441 0048 00000000 		.4byte	.LFB7
 2442 004c 3E000000 		.4byte	.LFE7-.LFB7
 2443 0050 00000000 		.4byte	.LFB8
 2444 0054 2E000000 		.4byte	.LFE8-.LFB8
 2445 0058 00000000 		.4byte	.LFB9
 2446 005c 18000000 		.4byte	.LFE9-.LFB9
 2447 0060 00000000 		.4byte	.LFB10
 2448 0064 18000000 		.4byte	.LFE10-.LFB10
 2449 0068 00000000 		.4byte	.LFB11
 2450 006c 34000000 		.4byte	.LFE11-.LFB11
 2451 0070 00000000 		.4byte	.LFB12
 2452 0074 34000000 		.4byte	.LFE12-.LFB12
 2453 0078 00000000 		.4byte	.LFB13
 2454 007c 0A000000 		.4byte	.LFE13-.LFB13
 2455 0080 00000000 		.4byte	0
 2456 0084 00000000 		.4byte	0
 2457              		.section	.debug_ranges,"",%progbits
 2458              	.Ldebug_ranges0:
 2459 0000 00000000 		.4byte	.LFB0
 2460 0004 58010000 		.4byte	.LFE0
 2461 0008 00000000 		.4byte	.LFB1
 2462 000c 5E010000 		.4byte	.LFE1
 2463 0010 00000000 		.4byte	.LFB2
 2464 0014 88010000 		.4byte	.LFE2
 2465 0018 00000000 		.4byte	.LFB3
 2466 001c 12010000 		.4byte	.LFE3
 2467 0020 00000000 		.4byte	.LFB4
 2468 0024 9C000000 		.4byte	.LFE4
 2469 0028 00000000 		.4byte	.LFB5
ARM GAS  C:\Users\devdev\AppData\Local\Temp\cc720ADm.s 			page 59


 2470 002c E6000000 		.4byte	.LFE5
 2471 0030 00000000 		.4byte	.LFB6
 2472 0034 A4000000 		.4byte	.LFE6
 2473 0038 00000000 		.4byte	.LFB7
 2474 003c 3E000000 		.4byte	.LFE7
 2475 0040 00000000 		.4byte	.LFB8
 2476 0044 2E000000 		.4byte	.LFE8
 2477 0048 00000000 		.4byte	.LFB9
 2478 004c 18000000 		.4byte	.LFE9
 2479 0050 00000000 		.4byte	.LFB10
 2480 0054 18000000 		.4byte	.LFE10
 2481 0058 00000000 		.4byte	.LFB11
 2482 005c 34000000 		.4byte	.LFE11
 2483 0060 00000000 		.4byte	.LFB12
 2484 0064 34000000 		.4byte	.LFE12
 2485 0068 00000000 		.4byte	.LFB13
 2486 006c 0A000000 		.4byte	.LFE13
 2487 0070 00000000 		.4byte	0
 2488 0074 00000000 		.4byte	0
 2489              		.section	.debug_line,"",%progbits
 2490              	.Ldebug_line0:
 2491 0000 0A020000 		.section	.debug_str,"MS",%progbits,1
 2491      02005A00 
 2491      00000201 
 2491      FB0E0D00 
 2491      01010101 
 2492              	.LASF15:
 2493 0000 72656733 		.ascii	"reg32\000"
 2493      3200
 2494              	.LASF33:
 2495 0006 73746174 		.ascii	"status\000"
 2495      757300
 2496              	.LASF11:
 2497 000d 666C6F61 		.ascii	"float\000"
 2497      7400
 2498              	.LASF28:
 2499 0013 4932435F 		.ascii	"I2C_3_MasterWriteByte\000"
 2499      335F4D61 
 2499      73746572 
 2499      57726974 
 2499      65427974 
 2500              	.LASF46:
 2501 0029 4932435F 		.ascii	"I2C_3_mstrWrBufPtr\000"
 2501      335F6D73 
 2501      74725772 
 2501      42756650 
 2501      747200
 2502              	.LASF3:
 2503 003c 73686F72 		.ascii	"short unsigned int\000"
 2503      7420756E 
 2503      7369676E 
 2503      65642069 
 2503      6E7400
 2504              	.LASF8:
 2505 004f 756E7369 		.ascii	"unsigned int\000"
 2505      676E6564 
 2505      20696E74 
ARM GAS  C:\Users\devdev\AppData\Local\Temp\cc720ADm.s 			page 60


 2505      00
 2506              	.LASF47:
 2507 005c 4932435F 		.ascii	"I2C_3_mstrWrBufSize\000"
 2507      335F6D73 
 2507      74725772 
 2507      42756653 
 2507      697A6500 
 2508              	.LASF30:
 2509 0070 4932435F 		.ascii	"I2C_3_MasterReadByte\000"
 2509      335F4D61 
 2509      73746572 
 2509      52656164 
 2509      42797465 
 2510              	.LASF17:
 2511 0085 736C6176 		.ascii	"slaveAddress\000"
 2511      65416464 
 2511      72657373 
 2511      00
 2512              	.LASF39:
 2513 0092 4932435F 		.ascii	"I2C_3_Workaround\000"
 2513      335F576F 
 2513      726B6172 
 2513      6F756E64 
 2513      00
 2514              	.LASF37:
 2515 00a3 4932435F 		.ascii	"I2C_3_MasterClearReadBuf\000"
 2515      335F4D61 
 2515      73746572 
 2515      436C6561 
 2515      72526561 
 2516              	.LASF35:
 2517 00bc 4932435F 		.ascii	"I2C_3_MasterGetReadBufSize\000"
 2517      335F4D61 
 2517      73746572 
 2517      47657452 
 2517      65616442 
 2518              	.LASF36:
 2519 00d7 4932435F 		.ascii	"I2C_3_MasterGetWriteBufSize\000"
 2519      335F4D61 
 2519      73746572 
 2519      47657457 
 2519      72697465 
 2520              	.LASF42:
 2521 00f3 4932435F 		.ascii	"I2C_3_mstrControl\000"
 2521      335F6D73 
 2521      7472436F 
 2521      6E74726F 
 2521      6C00
 2522              	.LASF14:
 2523 0105 72656738 		.ascii	"reg8\000"
 2523      00
 2524              	.LASF5:
 2525 010a 6C6F6E67 		.ascii	"long unsigned int\000"
 2525      20756E73 
 2525      69676E65 
 2525      6420696E 
 2525      7400
ARM GAS  C:\Users\devdev\AppData\Local\Temp\cc720ADm.s 			page 61


 2526              	.LASF24:
 2527 011c 4932435F 		.ascii	"I2C_3_MasterSendStart\000"
 2527      335F4D61 
 2527      73746572 
 2527      53656E64 
 2527      53746172 
 2528              	.LASF9:
 2529 0132 75696E74 		.ascii	"uint8\000"
 2529      3800
 2530              	.LASF18:
 2531 0138 77724461 		.ascii	"wrData\000"
 2531      746100
 2532              	.LASF23:
 2533 013f 65727253 		.ascii	"errStatus\000"
 2533      74617475 
 2533      7300
 2534              	.LASF1:
 2535 0149 756E7369 		.ascii	"unsigned char\000"
 2535      676E6564 
 2535      20636861 
 2535      7200
 2536              	.LASF27:
 2537 0157 4932435F 		.ascii	"I2C_3_MasterSendStop\000"
 2537      335F4D61 
 2537      73746572 
 2537      53656E64 
 2537      53746F70 
 2538              	.LASF12:
 2539 016c 646F7562 		.ascii	"double\000"
 2539      6C6500
 2540              	.LASF41:
 2541 0173 4932435F 		.ascii	"I2C_3_mstrStatus\000"
 2541      335F6D73 
 2541      74725374 
 2541      61747573 
 2541      00
 2542              	.LASF25:
 2543 0184 525F6E57 		.ascii	"R_nW\000"
 2543      00
 2544              	.LASF22:
 2545 0189 72644461 		.ascii	"rdData\000"
 2545      746100
 2546              	.LASF10:
 2547 0190 75696E74 		.ascii	"uint32\000"
 2547      333200
 2548              	.LASF26:
 2549 0197 4932435F 		.ascii	"I2C_3_MasterSendRestart\000"
 2549      335F4D61 
 2549      73746572 
 2549      53656E64 
 2549      52657374 
 2550              	.LASF31:
 2551 01af 61636B6E 		.ascii	"acknNak\000"
 2551      4E616B00 
 2552              	.LASF21:
 2553 01b7 4932435F 		.ascii	"I2C_3_MasterReadBuf\000"
 2553      335F4D61 
ARM GAS  C:\Users\devdev\AppData\Local\Temp\cc720ADm.s 			page 62


 2553      73746572 
 2553      52656164 
 2553      42756600 
 2554              	.LASF7:
 2555 01cb 6C6F6E67 		.ascii	"long long unsigned int\000"
 2555      206C6F6E 
 2555      6720756E 
 2555      7369676E 
 2555      65642069 
 2556              	.LASF19:
 2557 01e2 6D6F6465 		.ascii	"mode\000"
 2557      00
 2558              	.LASF48:
 2559 01e7 4932435F 		.ascii	"I2C_3_mstrWrBufIndex\000"
 2559      335F6D73 
 2559      74725772 
 2559      42756649 
 2559      6E646578 
 2560              	.LASF50:
 2561 01fc 2E5C4765 		.ascii	".\\Generated_Source\\PSoC5\\I2C_3_MASTER.c\000"
 2561      6E657261 
 2561      7465645F 
 2561      536F7572 
 2561      63655C50 
 2562              	.LASF51:
 2563 0224 433A5C55 		.ascii	"C:\\Users\\devdev\\Documents\\PSoC Creator\\SFT1.0v"
 2563      73657273 
 2563      5C646576 
 2563      6465765C 
 2563      446F6375 
 2564 0252 5C446573 		.ascii	"\\Design01.cydsn\000"
 2564      69676E30 
 2564      312E6379 
 2564      64736E00 
 2565              	.LASF16:
 2566 0262 73697A65 		.ascii	"sizetype\000"
 2566      74797065 
 2566      00
 2567              	.LASF20:
 2568 026b 4932435F 		.ascii	"I2C_3_MasterWriteBuf\000"
 2568      335F4D61 
 2568      73746572 
 2568      57726974 
 2568      65427566 
 2569              	.LASF6:
 2570 0280 6C6F6E67 		.ascii	"long long int\000"
 2570      206C6F6E 
 2570      6720696E 
 2570      7400
 2571              	.LASF40:
 2572 028e 4932435F 		.ascii	"I2C_3_state\000"
 2572      335F7374 
 2572      61746500 
 2573              	.LASF13:
 2574 029a 63686172 		.ascii	"char\000"
 2574      00
 2575              	.LASF45:
ARM GAS  C:\Users\devdev\AppData\Local\Temp\cc720ADm.s 			page 63


 2576 029f 4932435F 		.ascii	"I2C_3_mstrRdBufIndex\000"
 2576      335F6D73 
 2576      74725264 
 2576      42756649 
 2576      6E646578 
 2577              	.LASF2:
 2578 02b4 73686F72 		.ascii	"short int\000"
 2578      7420696E 
 2578      7400
 2579              	.LASF29:
 2580 02be 74686542 		.ascii	"theByte\000"
 2580      79746500 
 2581              	.LASF32:
 2582 02c6 4932435F 		.ascii	"I2C_3_MasterStatus\000"
 2582      335F4D61 
 2582      73746572 
 2582      53746174 
 2582      757300
 2583              	.LASF38:
 2584 02d9 4932435F 		.ascii	"I2C_3_MasterClearWriteBuf\000"
 2584      335F4D61 
 2584      73746572 
 2584      436C6561 
 2584      72577269 
 2585              	.LASF49:
 2586 02f3 474E5520 		.ascii	"GNU C 4.7.3 20130312 (release) [ARM/embedded-4_7-br"
 2586      4320342E 
 2586      372E3320 
 2586      32303133 
 2586      30333132 
 2587 0326 616E6368 		.ascii	"anch revision 196615]\000"
 2587      20726576 
 2587      6973696F 
 2587      6E203139 
 2587      36363135 
 2588              	.LASF4:
 2589 033c 6C6F6E67 		.ascii	"long int\000"
 2589      20696E74 
 2589      00
 2590              	.LASF0:
 2591 0345 7369676E 		.ascii	"signed char\000"
 2591      65642063 
 2591      68617200 
 2592              	.LASF44:
 2593 0351 4932435F 		.ascii	"I2C_3_mstrRdBufSize\000"
 2593      335F6D73 
 2593      74725264 
 2593      42756653 
 2593      697A6500 
 2594              	.LASF43:
 2595 0365 4932435F 		.ascii	"I2C_3_mstrRdBufPtr\000"
 2595      335F6D73 
 2595      74725264 
 2595      42756650 
 2595      747200
 2596              	.LASF34:
 2597 0378 4932435F 		.ascii	"I2C_3_MasterClearStatus\000"
ARM GAS  C:\Users\devdev\AppData\Local\Temp\cc720ADm.s 			page 64


 2597      335F4D61 
 2597      73746572 
 2597      436C6561 
 2597      72537461 
 2598              		.ident	"GCC: (GNU Tools for ARM Embedded Processors) 4.7.3 20130312 (release) [ARM/embedded-4_7-br
