ARM GAS  C:\Users\devdev\AppData\Local\Temp\ccu4icWL.s 			page 1


   1              		.syntax unified
   2              		.cpu cortex-m3
   3              		.fpu softvfp
   4              		.eabi_attribute 20, 1
   5              		.eabi_attribute 21, 1
   6              		.eabi_attribute 23, 3
   7              		.eabi_attribute 24, 1
   8              		.eabi_attribute 25, 1
   9              		.eabi_attribute 26, 1
  10              		.eabi_attribute 30, 6
  11              		.eabi_attribute 34, 1
  12              		.eabi_attribute 18, 4
  13              		.thumb
  14              		.file	"UART_1.c"
  15              		.text
  16              	.Ltext0:
  17              		.cfi_sections	.debug_frame
  18              		.global	UART_1_initVar
  19              		.bss
  20              		.type	UART_1_initVar, %object
  21              		.size	UART_1_initVar, 1
  22              	UART_1_initVar:
  23 0000 00       		.space	1
  24              		.comm	UART_1_rxBuffer,16,4
  25              		.global	UART_1_rxBufferRead
  26              		.type	UART_1_rxBufferRead, %object
  27              		.size	UART_1_rxBufferRead, 1
  28              	UART_1_rxBufferRead:
  29 0001 00       		.space	1
  30              		.global	UART_1_rxBufferWrite
  31              		.type	UART_1_rxBufferWrite, %object
  32              		.size	UART_1_rxBufferWrite, 1
  33              	UART_1_rxBufferWrite:
  34 0002 00       		.space	1
  35              		.global	UART_1_rxBufferLoopDetect
  36              		.type	UART_1_rxBufferLoopDetect, %object
  37              		.size	UART_1_rxBufferLoopDetect, 1
  38              	UART_1_rxBufferLoopDetect:
  39 0003 00       		.space	1
  40              		.global	UART_1_rxBufferOverflow
  41              		.type	UART_1_rxBufferOverflow, %object
  42              		.size	UART_1_rxBufferOverflow, 1
  43              	UART_1_rxBufferOverflow:
  44 0004 00       		.space	1
  45              		.section	.text.UART_1_Start,"ax",%progbits
  46              		.align	2
  47              		.global	UART_1_Start
  48              		.thumb
  49              		.thumb_func
  50              		.type	UART_1_Start, %function
  51              	UART_1_Start:
  52              	.LFB0:
  53              		.file 1 ".\\Generated_Source\\PSoC5\\UART_1.c"
   1:.\Generated_Source\PSoC5/UART_1.c **** /*******************************************************************************
   2:.\Generated_Source\PSoC5/UART_1.c **** * File Name: UART_1.c
   3:.\Generated_Source\PSoC5/UART_1.c **** * Version 2.30
   4:.\Generated_Source\PSoC5/UART_1.c **** *
ARM GAS  C:\Users\devdev\AppData\Local\Temp\ccu4icWL.s 			page 2


   5:.\Generated_Source\PSoC5/UART_1.c **** * Description:
   6:.\Generated_Source\PSoC5/UART_1.c **** *  This file provides all API functionality of the UART component
   7:.\Generated_Source\PSoC5/UART_1.c **** *
   8:.\Generated_Source\PSoC5/UART_1.c **** * Note:
   9:.\Generated_Source\PSoC5/UART_1.c **** *
  10:.\Generated_Source\PSoC5/UART_1.c **** ********************************************************************************
  11:.\Generated_Source\PSoC5/UART_1.c **** * Copyright 2008-2012, Cypress Semiconductor Corporation.  All rights reserved.
  12:.\Generated_Source\PSoC5/UART_1.c **** * You may use this file only in accordance with the license, terms, conditions,
  13:.\Generated_Source\PSoC5/UART_1.c **** * disclaimers, and limitations in the end user license agreement accompanying
  14:.\Generated_Source\PSoC5/UART_1.c **** * the software package with which this file was provided.
  15:.\Generated_Source\PSoC5/UART_1.c **** *******************************************************************************/
  16:.\Generated_Source\PSoC5/UART_1.c **** 
  17:.\Generated_Source\PSoC5/UART_1.c **** #include "UART_1.h"
  18:.\Generated_Source\PSoC5/UART_1.c **** #include "CyLib.h"
  19:.\Generated_Source\PSoC5/UART_1.c **** #if(UART_1_INTERNAL_CLOCK_USED)
  20:.\Generated_Source\PSoC5/UART_1.c ****     #include "UART_1_IntClock.h"
  21:.\Generated_Source\PSoC5/UART_1.c **** #endif /* End UART_1_INTERNAL_CLOCK_USED */
  22:.\Generated_Source\PSoC5/UART_1.c **** 
  23:.\Generated_Source\PSoC5/UART_1.c **** 
  24:.\Generated_Source\PSoC5/UART_1.c **** /***************************************
  25:.\Generated_Source\PSoC5/UART_1.c **** * Global data allocation
  26:.\Generated_Source\PSoC5/UART_1.c **** ***************************************/
  27:.\Generated_Source\PSoC5/UART_1.c **** 
  28:.\Generated_Source\PSoC5/UART_1.c **** uint8 UART_1_initVar = 0u;
  29:.\Generated_Source\PSoC5/UART_1.c **** #if( UART_1_TX_ENABLED && (UART_1_TXBUFFERSIZE > UART_1_FIFO_LENGTH))
  30:.\Generated_Source\PSoC5/UART_1.c ****     volatile uint8 UART_1_txBuffer[UART_1_TXBUFFERSIZE];
  31:.\Generated_Source\PSoC5/UART_1.c ****     volatile uint8 UART_1_txBufferRead = 0u;
  32:.\Generated_Source\PSoC5/UART_1.c ****     uint8 UART_1_txBufferWrite = 0u;
  33:.\Generated_Source\PSoC5/UART_1.c **** #endif /* End UART_1_TX_ENABLED */
  34:.\Generated_Source\PSoC5/UART_1.c **** #if( ( UART_1_RX_ENABLED || UART_1_HD_ENABLED ) && \
  35:.\Generated_Source\PSoC5/UART_1.c ****      (UART_1_RXBUFFERSIZE > UART_1_FIFO_LENGTH) )
  36:.\Generated_Source\PSoC5/UART_1.c ****     volatile uint8 UART_1_rxBuffer[UART_1_RXBUFFERSIZE];
  37:.\Generated_Source\PSoC5/UART_1.c ****     volatile uint8 UART_1_rxBufferRead = 0u;
  38:.\Generated_Source\PSoC5/UART_1.c ****     volatile uint8 UART_1_rxBufferWrite = 0u;
  39:.\Generated_Source\PSoC5/UART_1.c ****     volatile uint8 UART_1_rxBufferLoopDetect = 0u;
  40:.\Generated_Source\PSoC5/UART_1.c ****     volatile uint8 UART_1_rxBufferOverflow = 0u;
  41:.\Generated_Source\PSoC5/UART_1.c ****     #if (UART_1_RXHW_ADDRESS_ENABLED)
  42:.\Generated_Source\PSoC5/UART_1.c ****         volatile uint8 UART_1_rxAddressMode = UART_1_RXADDRESSMODE;
  43:.\Generated_Source\PSoC5/UART_1.c ****         volatile uint8 UART_1_rxAddressDetected = 0u;
  44:.\Generated_Source\PSoC5/UART_1.c ****     #endif /* End EnableHWAddress */
  45:.\Generated_Source\PSoC5/UART_1.c **** #endif /* End UART_1_RX_ENABLED */
  46:.\Generated_Source\PSoC5/UART_1.c **** 
  47:.\Generated_Source\PSoC5/UART_1.c **** 
  48:.\Generated_Source\PSoC5/UART_1.c **** /*******************************************************************************
  49:.\Generated_Source\PSoC5/UART_1.c **** * Function Name: UART_1_Start
  50:.\Generated_Source\PSoC5/UART_1.c **** ********************************************************************************
  51:.\Generated_Source\PSoC5/UART_1.c **** *
  52:.\Generated_Source\PSoC5/UART_1.c **** * Summary:
  53:.\Generated_Source\PSoC5/UART_1.c **** *  Initialize and Enable the UART component.
  54:.\Generated_Source\PSoC5/UART_1.c **** *  Enable the clock input to enable operation.
  55:.\Generated_Source\PSoC5/UART_1.c **** *
  56:.\Generated_Source\PSoC5/UART_1.c **** * Parameters:
  57:.\Generated_Source\PSoC5/UART_1.c **** *  None.
  58:.\Generated_Source\PSoC5/UART_1.c **** *
  59:.\Generated_Source\PSoC5/UART_1.c **** * Return:
  60:.\Generated_Source\PSoC5/UART_1.c **** *  None.
  61:.\Generated_Source\PSoC5/UART_1.c **** *
ARM GAS  C:\Users\devdev\AppData\Local\Temp\ccu4icWL.s 			page 3


  62:.\Generated_Source\PSoC5/UART_1.c **** * Global variables:
  63:.\Generated_Source\PSoC5/UART_1.c **** *  The UART_1_intiVar variable is used to indicate initial
  64:.\Generated_Source\PSoC5/UART_1.c **** *  configuration of this component. The variable is initialized to zero (0u)
  65:.\Generated_Source\PSoC5/UART_1.c **** *  and set to one (1u) the first time UART_Start() is called. This allows for
  66:.\Generated_Source\PSoC5/UART_1.c **** *  component initialization without re-initialization in all subsequent calls
  67:.\Generated_Source\PSoC5/UART_1.c **** *  to the UART_1_Start() routine.
  68:.\Generated_Source\PSoC5/UART_1.c **** *
  69:.\Generated_Source\PSoC5/UART_1.c **** * Reentrant:
  70:.\Generated_Source\PSoC5/UART_1.c **** *  No.
  71:.\Generated_Source\PSoC5/UART_1.c **** *
  72:.\Generated_Source\PSoC5/UART_1.c **** *******************************************************************************/
  73:.\Generated_Source\PSoC5/UART_1.c **** void UART_1_Start(void) 
  74:.\Generated_Source\PSoC5/UART_1.c **** {
  54              		.loc 1 74 0
  55              		.cfi_startproc
  56              		@ args = 0, pretend = 0, frame = 0
  57              		@ frame_needed = 1, uses_anonymous_args = 0
  58 0000 80B5     		push	{r7, lr}
  59              	.LCFI0:
  60              		.cfi_def_cfa_offset 8
  61              		.cfi_offset 7, -8
  62              		.cfi_offset 14, -4
  63 0002 00AF     		add	r7, sp, #0
  64              	.LCFI1:
  65              		.cfi_def_cfa_register 7
  75:.\Generated_Source\PSoC5/UART_1.c ****     /* If not Initialized then initialize all required hardware and software */
  76:.\Generated_Source\PSoC5/UART_1.c ****     if(UART_1_initVar == 0u)
  66              		.loc 1 76 0
  67 0004 40F20003 		movw	r3, #:lower16:UART_1_initVar
  68 0008 C0F20003 		movt	r3, #:upper16:UART_1_initVar
  69 000c 1B78     		ldrb	r3, [r3, #0]	@ zero_extendqisi2
  70 000e 002B     		cmp	r3, #0
  71 0010 08D1     		bne	.L2
  77:.\Generated_Source\PSoC5/UART_1.c ****     {
  78:.\Generated_Source\PSoC5/UART_1.c ****         UART_1_Init();
  72              		.loc 1 78 0
  73 0012 FFF7FEFF 		bl	UART_1_Init
  79:.\Generated_Source\PSoC5/UART_1.c ****         UART_1_initVar = 1u;
  74              		.loc 1 79 0
  75 0016 40F20003 		movw	r3, #:lower16:UART_1_initVar
  76 001a C0F20003 		movt	r3, #:upper16:UART_1_initVar
  77 001e 4FF00102 		mov	r2, #1
  78 0022 1A70     		strb	r2, [r3, #0]
  79              	.L2:
  80:.\Generated_Source\PSoC5/UART_1.c ****     }
  81:.\Generated_Source\PSoC5/UART_1.c ****     UART_1_Enable();
  80              		.loc 1 81 0
  81 0024 FFF7FEFF 		bl	UART_1_Enable
  82:.\Generated_Source\PSoC5/UART_1.c **** }
  82              		.loc 1 82 0
  83 0028 80BD     		pop	{r7, pc}
  84              		.cfi_endproc
  85              	.LFE0:
  86              		.size	UART_1_Start, .-UART_1_Start
  87 002a 00BF     		.section	.text.UART_1_Init,"ax",%progbits
  88              		.align	2
  89              		.global	UART_1_Init
ARM GAS  C:\Users\devdev\AppData\Local\Temp\ccu4icWL.s 			page 4


  90              		.thumb
  91              		.thumb_func
  92              		.type	UART_1_Init, %function
  93              	UART_1_Init:
  94              	.LFB1:
  83:.\Generated_Source\PSoC5/UART_1.c **** 
  84:.\Generated_Source\PSoC5/UART_1.c **** 
  85:.\Generated_Source\PSoC5/UART_1.c **** /*******************************************************************************
  86:.\Generated_Source\PSoC5/UART_1.c **** * Function Name: UART_1_Init
  87:.\Generated_Source\PSoC5/UART_1.c **** ********************************************************************************
  88:.\Generated_Source\PSoC5/UART_1.c **** *
  89:.\Generated_Source\PSoC5/UART_1.c **** * Summary:
  90:.\Generated_Source\PSoC5/UART_1.c **** *  Initialize component's parameters to the parameters set by user in the
  91:.\Generated_Source\PSoC5/UART_1.c **** *  customizer of the component placed onto schematic. Usually called in
  92:.\Generated_Source\PSoC5/UART_1.c **** *  UART_1_Start().
  93:.\Generated_Source\PSoC5/UART_1.c **** *
  94:.\Generated_Source\PSoC5/UART_1.c **** * Parameters:
  95:.\Generated_Source\PSoC5/UART_1.c **** *  None.
  96:.\Generated_Source\PSoC5/UART_1.c **** *
  97:.\Generated_Source\PSoC5/UART_1.c **** * Return:
  98:.\Generated_Source\PSoC5/UART_1.c **** *  None.
  99:.\Generated_Source\PSoC5/UART_1.c **** *
 100:.\Generated_Source\PSoC5/UART_1.c **** *******************************************************************************/
 101:.\Generated_Source\PSoC5/UART_1.c **** void UART_1_Init(void) 
 102:.\Generated_Source\PSoC5/UART_1.c **** {
  95              		.loc 1 102 0
  96              		.cfi_startproc
  97              		@ args = 0, pretend = 0, frame = 0
  98              		@ frame_needed = 1, uses_anonymous_args = 0
  99 0000 80B5     		push	{r7, lr}
 100              	.LCFI2:
 101              		.cfi_def_cfa_offset 8
 102              		.cfi_offset 7, -8
 103              		.cfi_offset 14, -4
 104 0002 00AF     		add	r7, sp, #0
 105              	.LCFI3:
 106              		.cfi_def_cfa_register 7
 103:.\Generated_Source\PSoC5/UART_1.c ****     #if(UART_1_RX_ENABLED || UART_1_HD_ENABLED)
 104:.\Generated_Source\PSoC5/UART_1.c **** 
 105:.\Generated_Source\PSoC5/UART_1.c ****         #if(UART_1_RX_INTERRUPT_ENABLED && (UART_1_RXBUFFERSIZE > UART_1_FIFO_LENGTH))
 106:.\Generated_Source\PSoC5/UART_1.c ****             /* Set the RX Interrupt. */
 107:.\Generated_Source\PSoC5/UART_1.c ****             (void)CyIntSetVector(UART_1_RX_VECT_NUM, &UART_1_RXISR);
 107              		.loc 1 107 0
 108 0004 4FF00200 		mov	r0, #2
 109 0008 40F20001 		movw	r1, #:lower16:UART_1_RXISR
 110 000c C0F20001 		movt	r1, #:upper16:UART_1_RXISR
 111 0010 FFF7FEFF 		bl	CyIntSetVector
 108:.\Generated_Source\PSoC5/UART_1.c ****             CyIntSetPriority(UART_1_RX_VECT_NUM, UART_1_RX_PRIOR_NUM);
 112              		.loc 1 108 0
 113 0014 4FF00200 		mov	r0, #2
 114 0018 4FF00701 		mov	r1, #7
 115 001c FFF7FEFF 		bl	CyIntSetPriority
 109:.\Generated_Source\PSoC5/UART_1.c ****         #endif /* End UART_1_RX_INTERRUPT_ENABLED */
 110:.\Generated_Source\PSoC5/UART_1.c **** 
 111:.\Generated_Source\PSoC5/UART_1.c ****         #if (UART_1_RXHW_ADDRESS_ENABLED)
 112:.\Generated_Source\PSoC5/UART_1.c ****             UART_1_SetRxAddressMode(UART_1_RXAddressMode);
 113:.\Generated_Source\PSoC5/UART_1.c ****             UART_1_SetRxAddress1(UART_1_RXHWADDRESS1);
ARM GAS  C:\Users\devdev\AppData\Local\Temp\ccu4icWL.s 			page 5


 114:.\Generated_Source\PSoC5/UART_1.c ****             UART_1_SetRxAddress2(UART_1_RXHWADDRESS2);
 115:.\Generated_Source\PSoC5/UART_1.c ****         #endif /* End UART_1_RXHW_ADDRESS_ENABLED */
 116:.\Generated_Source\PSoC5/UART_1.c **** 
 117:.\Generated_Source\PSoC5/UART_1.c ****         /* Init Count7 period */
 118:.\Generated_Source\PSoC5/UART_1.c ****         UART_1_RXBITCTR_PERIOD_REG = UART_1_RXBITCTR_INIT;
 116              		.loc 1 118 0
 117 0020 46F28343 		movw	r3, #25731
 118 0024 C4F20003 		movt	r3, 16384
 119 0028 4FF07202 		mov	r2, #114
 120 002c 1A70     		strb	r2, [r3, #0]
 119:.\Generated_Source\PSoC5/UART_1.c ****         /* Configure the Initial RX interrupt mask */
 120:.\Generated_Source\PSoC5/UART_1.c ****         UART_1_RXSTATUS_MASK_REG  = UART_1_INIT_RX_INTERRUPTS_MASK;
 121              		.loc 1 120 0
 122 002e 46F28143 		movw	r3, #25729
 123 0032 C4F20003 		movt	r3, 16384
 124 0036 4FF02002 		mov	r2, #32
 125 003a 1A70     		strb	r2, [r3, #0]
 121:.\Generated_Source\PSoC5/UART_1.c ****     #endif /* End UART_1_RX_ENABLED || UART_1_HD_ENABLED*/
 122:.\Generated_Source\PSoC5/UART_1.c **** 
 123:.\Generated_Source\PSoC5/UART_1.c ****     #if(UART_1_TX_ENABLED)
 124:.\Generated_Source\PSoC5/UART_1.c ****         #if(UART_1_TX_INTERRUPT_ENABLED && (UART_1_TXBUFFERSIZE > UART_1_FIFO_LENGTH))
 125:.\Generated_Source\PSoC5/UART_1.c ****             /* Set the TX Interrupt. */
 126:.\Generated_Source\PSoC5/UART_1.c ****             (void)CyIntSetVector(UART_1_TX_VECT_NUM, &UART_1_TXISR);
 127:.\Generated_Source\PSoC5/UART_1.c ****             CyIntSetPriority(UART_1_TX_VECT_NUM, UART_1_TX_PRIOR_NUM);
 128:.\Generated_Source\PSoC5/UART_1.c ****         #endif /* End UART_1_TX_INTERRUPT_ENABLED */
 129:.\Generated_Source\PSoC5/UART_1.c **** 
 130:.\Generated_Source\PSoC5/UART_1.c ****         /* Write Counter Value for TX Bit Clk Generator*/
 131:.\Generated_Source\PSoC5/UART_1.c ****         #if(UART_1_TXCLKGEN_DP)
 132:.\Generated_Source\PSoC5/UART_1.c ****             UART_1_TXBITCLKGEN_CTR_REG = UART_1_BIT_CENTER;
 133:.\Generated_Source\PSoC5/UART_1.c ****             UART_1_TXBITCLKTX_COMPLETE_REG = (UART_1_NUMBER_OF_DATA_BITS +
 134:.\Generated_Source\PSoC5/UART_1.c ****                         UART_1_NUMBER_OF_START_BIT) * UART_1_OVER_SAMPLE_COUNT;
 135:.\Generated_Source\PSoC5/UART_1.c ****         #else
 136:.\Generated_Source\PSoC5/UART_1.c ****             UART_1_TXBITCTR_PERIOD_REG = ((UART_1_NUMBER_OF_DATA_BITS +
 137:.\Generated_Source\PSoC5/UART_1.c ****                         UART_1_NUMBER_OF_START_BIT) * UART_1_OVER_SAMPLE_8) - 1u;
 138:.\Generated_Source\PSoC5/UART_1.c ****         #endif /* End UART_1_TXCLKGEN_DP */
 139:.\Generated_Source\PSoC5/UART_1.c **** 
 140:.\Generated_Source\PSoC5/UART_1.c ****         /* Configure the Initial TX interrupt mask */
 141:.\Generated_Source\PSoC5/UART_1.c ****         #if(UART_1_TX_INTERRUPT_ENABLED && (UART_1_TXBUFFERSIZE > UART_1_FIFO_LENGTH))
 142:.\Generated_Source\PSoC5/UART_1.c ****             UART_1_TXSTATUS_MASK_REG = UART_1_TX_STS_FIFO_EMPTY;
 143:.\Generated_Source\PSoC5/UART_1.c ****         #else
 144:.\Generated_Source\PSoC5/UART_1.c ****             UART_1_TXSTATUS_MASK_REG = UART_1_INIT_TX_INTERRUPTS_MASK;
 145:.\Generated_Source\PSoC5/UART_1.c ****         #endif /*End UART_1_TX_INTERRUPT_ENABLED*/
 146:.\Generated_Source\PSoC5/UART_1.c **** 
 147:.\Generated_Source\PSoC5/UART_1.c ****     #endif /* End UART_1_TX_ENABLED */
 148:.\Generated_Source\PSoC5/UART_1.c **** 
 149:.\Generated_Source\PSoC5/UART_1.c ****     #if(UART_1_PARITY_TYPE_SW)  /* Write Parity to Control Register */
 150:.\Generated_Source\PSoC5/UART_1.c ****         UART_1_WriteControlRegister( \
 151:.\Generated_Source\PSoC5/UART_1.c ****             (UART_1_ReadControlRegister() & (uint8)~UART_1_CTRL_PARITY_TYPE_MASK) | \
 152:.\Generated_Source\PSoC5/UART_1.c ****             (uint8)(UART_1_PARITY_TYPE << UART_1_CTRL_PARITY_TYPE0_SHIFT) );
 153:.\Generated_Source\PSoC5/UART_1.c ****     #endif /* End UART_1_PARITY_TYPE_SW */
 154:.\Generated_Source\PSoC5/UART_1.c **** }
 126              		.loc 1 154 0
 127 003c 80BD     		pop	{r7, pc}
 128              		.cfi_endproc
 129              	.LFE1:
 130              		.size	UART_1_Init, .-UART_1_Init
 131 003e 00BF     		.section	.text.UART_1_Enable,"ax",%progbits
ARM GAS  C:\Users\devdev\AppData\Local\Temp\ccu4icWL.s 			page 6


 132              		.align	2
 133              		.global	UART_1_Enable
 134              		.thumb
 135              		.thumb_func
 136              		.type	UART_1_Enable, %function
 137              	UART_1_Enable:
 138              	.LFB2:
 155:.\Generated_Source\PSoC5/UART_1.c **** 
 156:.\Generated_Source\PSoC5/UART_1.c **** 
 157:.\Generated_Source\PSoC5/UART_1.c **** /*******************************************************************************
 158:.\Generated_Source\PSoC5/UART_1.c **** * Function Name: UART_1_Enable
 159:.\Generated_Source\PSoC5/UART_1.c **** ********************************************************************************
 160:.\Generated_Source\PSoC5/UART_1.c **** *
 161:.\Generated_Source\PSoC5/UART_1.c **** * Summary:
 162:.\Generated_Source\PSoC5/UART_1.c **** *  Enables the UART block operation
 163:.\Generated_Source\PSoC5/UART_1.c **** *
 164:.\Generated_Source\PSoC5/UART_1.c **** * Parameters:
 165:.\Generated_Source\PSoC5/UART_1.c **** *  None.
 166:.\Generated_Source\PSoC5/UART_1.c **** *
 167:.\Generated_Source\PSoC5/UART_1.c **** * Return:
 168:.\Generated_Source\PSoC5/UART_1.c **** *  None.
 169:.\Generated_Source\PSoC5/UART_1.c **** *
 170:.\Generated_Source\PSoC5/UART_1.c **** * Global Variables:
 171:.\Generated_Source\PSoC5/UART_1.c **** *  UART_1_rxAddressDetected - set to initial state (0).
 172:.\Generated_Source\PSoC5/UART_1.c **** *
 173:.\Generated_Source\PSoC5/UART_1.c **** *******************************************************************************/
 174:.\Generated_Source\PSoC5/UART_1.c **** void UART_1_Enable(void) 
 175:.\Generated_Source\PSoC5/UART_1.c **** {
 139              		.loc 1 175 0
 140              		.cfi_startproc
 141              		@ args = 0, pretend = 0, frame = 8
 142              		@ frame_needed = 1, uses_anonymous_args = 0
 143 0000 80B5     		push	{r7, lr}
 144              	.LCFI4:
 145              		.cfi_def_cfa_offset 8
 146              		.cfi_offset 7, -8
 147              		.cfi_offset 14, -4
 148 0002 82B0     		sub	sp, sp, #8
 149              	.LCFI5:
 150              		.cfi_def_cfa_offset 16
 151 0004 00AF     		add	r7, sp, #0
 152              	.LCFI6:
 153              		.cfi_def_cfa_register 7
 176:.\Generated_Source\PSoC5/UART_1.c ****     uint8 enableInterrupts;
 177:.\Generated_Source\PSoC5/UART_1.c ****     enableInterrupts = CyEnterCriticalSection();
 154              		.loc 1 177 0
 155 0006 FFF7FEFF 		bl	CyEnterCriticalSection
 156 000a 0346     		mov	r3, r0
 157 000c FB71     		strb	r3, [r7, #7]
 178:.\Generated_Source\PSoC5/UART_1.c **** 
 179:.\Generated_Source\PSoC5/UART_1.c ****     #if(UART_1_RX_ENABLED || UART_1_HD_ENABLED)
 180:.\Generated_Source\PSoC5/UART_1.c ****         /*RX Counter (Count7) Enable */
 181:.\Generated_Source\PSoC5/UART_1.c ****         UART_1_RXBITCTR_CONTROL_REG |= UART_1_CNTR_ENABLE;
 158              		.loc 1 181 0
 159 000e 46F29343 		movw	r3, #25747
 160 0012 C4F20003 		movt	r3, 16384
 161 0016 46F29342 		movw	r2, #25747
ARM GAS  C:\Users\devdev\AppData\Local\Temp\ccu4icWL.s 			page 7


 162 001a C4F20002 		movt	r2, 16384
 163 001e 1278     		ldrb	r2, [r2, #0]
 164 0020 D2B2     		uxtb	r2, r2
 165 0022 42F02002 		orr	r2, r2, #32
 166 0026 D2B2     		uxtb	r2, r2
 167 0028 1A70     		strb	r2, [r3, #0]
 182:.\Generated_Source\PSoC5/UART_1.c ****         /* Enable the RX Interrupt. */
 183:.\Generated_Source\PSoC5/UART_1.c ****         UART_1_RXSTATUS_ACTL_REG  |= UART_1_INT_ENABLE;
 168              		.loc 1 183 0
 169 002a 46F29143 		movw	r3, #25745
 170 002e C4F20003 		movt	r3, 16384
 171 0032 46F29142 		movw	r2, #25745
 172 0036 C4F20002 		movt	r2, 16384
 173 003a 1278     		ldrb	r2, [r2, #0]
 174 003c D2B2     		uxtb	r2, r2
 175 003e 42F01002 		orr	r2, r2, #16
 176 0042 D2B2     		uxtb	r2, r2
 177 0044 1A70     		strb	r2, [r3, #0]
 184:.\Generated_Source\PSoC5/UART_1.c ****         #if(UART_1_RX_INTERRUPT_ENABLED && (UART_1_RXBUFFERSIZE > UART_1_FIFO_LENGTH))
 185:.\Generated_Source\PSoC5/UART_1.c ****             CyIntEnable(UART_1_RX_VECT_NUM);
 178              		.loc 1 185 0
 179 0046 4FF46143 		mov	r3, #57600
 180 004a CEF20003 		movt	r3, 57344
 181 004e 4FF00402 		mov	r2, #4
 182 0052 1A60     		str	r2, [r3, #0]
 186:.\Generated_Source\PSoC5/UART_1.c ****             #if (UART_1_RXHW_ADDRESS_ENABLED)
 187:.\Generated_Source\PSoC5/UART_1.c ****                 UART_1_rxAddressDetected = 0u;
 188:.\Generated_Source\PSoC5/UART_1.c ****             #endif /* End UART_1_RXHW_ADDRESS_ENABLED */
 189:.\Generated_Source\PSoC5/UART_1.c ****         #endif /* End UART_1_RX_INTERRUPT_ENABLED */
 190:.\Generated_Source\PSoC5/UART_1.c ****     #endif /* End UART_1_RX_ENABLED || UART_1_HD_ENABLED*/
 191:.\Generated_Source\PSoC5/UART_1.c **** 
 192:.\Generated_Source\PSoC5/UART_1.c ****     #if(UART_1_TX_ENABLED)
 193:.\Generated_Source\PSoC5/UART_1.c ****         /*TX Counter (DP/Count7) Enable */
 194:.\Generated_Source\PSoC5/UART_1.c ****         #if(!UART_1_TXCLKGEN_DP)
 195:.\Generated_Source\PSoC5/UART_1.c ****             UART_1_TXBITCTR_CONTROL_REG |= UART_1_CNTR_ENABLE;
 196:.\Generated_Source\PSoC5/UART_1.c ****         #endif /* End UART_1_TXCLKGEN_DP */
 197:.\Generated_Source\PSoC5/UART_1.c ****         /* Enable the TX Interrupt. */
 198:.\Generated_Source\PSoC5/UART_1.c ****         UART_1_TXSTATUS_ACTL_REG |= UART_1_INT_ENABLE;
 199:.\Generated_Source\PSoC5/UART_1.c ****         #if(UART_1_TX_INTERRUPT_ENABLED && (UART_1_TXBUFFERSIZE > UART_1_FIFO_LENGTH))
 200:.\Generated_Source\PSoC5/UART_1.c ****             CyIntEnable(UART_1_TX_VECT_NUM);
 201:.\Generated_Source\PSoC5/UART_1.c ****         #endif /* End UART_1_TX_INTERRUPT_ENABLED*/
 202:.\Generated_Source\PSoC5/UART_1.c ****      #endif /* End UART_1_TX_ENABLED */
 203:.\Generated_Source\PSoC5/UART_1.c **** 
 204:.\Generated_Source\PSoC5/UART_1.c ****     #if(UART_1_INTERNAL_CLOCK_USED)
 205:.\Generated_Source\PSoC5/UART_1.c ****         /* Enable the clock. */
 206:.\Generated_Source\PSoC5/UART_1.c ****         UART_1_IntClock_Start();
 183              		.loc 1 206 0
 184 0054 FFF7FEFF 		bl	UART_1_IntClock_Start
 207:.\Generated_Source\PSoC5/UART_1.c ****     #endif /* End UART_1_INTERNAL_CLOCK_USED */
 208:.\Generated_Source\PSoC5/UART_1.c **** 
 209:.\Generated_Source\PSoC5/UART_1.c ****     CyExitCriticalSection(enableInterrupts);
 185              		.loc 1 209 0
 186 0058 FB79     		ldrb	r3, [r7, #7]	@ zero_extendqisi2
 187 005a 1846     		mov	r0, r3
 188 005c FFF7FEFF 		bl	CyExitCriticalSection
 210:.\Generated_Source\PSoC5/UART_1.c **** }
 189              		.loc 1 210 0
ARM GAS  C:\Users\devdev\AppData\Local\Temp\ccu4icWL.s 			page 8


 190 0060 07F10807 		add	r7, r7, #8
 191 0064 BD46     		mov	sp, r7
 192 0066 80BD     		pop	{r7, pc}
 193              		.cfi_endproc
 194              	.LFE2:
 195              		.size	UART_1_Enable, .-UART_1_Enable
 196              		.section	.text.UART_1_Stop,"ax",%progbits
 197              		.align	2
 198              		.global	UART_1_Stop
 199              		.thumb
 200              		.thumb_func
 201              		.type	UART_1_Stop, %function
 202              	UART_1_Stop:
 203              	.LFB3:
 211:.\Generated_Source\PSoC5/UART_1.c **** 
 212:.\Generated_Source\PSoC5/UART_1.c **** 
 213:.\Generated_Source\PSoC5/UART_1.c **** /*******************************************************************************
 214:.\Generated_Source\PSoC5/UART_1.c **** * Function Name: UART_1_Stop
 215:.\Generated_Source\PSoC5/UART_1.c **** ********************************************************************************
 216:.\Generated_Source\PSoC5/UART_1.c **** *
 217:.\Generated_Source\PSoC5/UART_1.c **** * Summary:
 218:.\Generated_Source\PSoC5/UART_1.c **** *  Disable the UART component
 219:.\Generated_Source\PSoC5/UART_1.c **** *
 220:.\Generated_Source\PSoC5/UART_1.c **** * Parameters:
 221:.\Generated_Source\PSoC5/UART_1.c **** *  None.
 222:.\Generated_Source\PSoC5/UART_1.c **** *
 223:.\Generated_Source\PSoC5/UART_1.c **** * Return:
 224:.\Generated_Source\PSoC5/UART_1.c **** *  None.
 225:.\Generated_Source\PSoC5/UART_1.c **** *
 226:.\Generated_Source\PSoC5/UART_1.c **** *******************************************************************************/
 227:.\Generated_Source\PSoC5/UART_1.c **** void UART_1_Stop(void) 
 228:.\Generated_Source\PSoC5/UART_1.c **** {
 204              		.loc 1 228 0
 205              		.cfi_startproc
 206              		@ args = 0, pretend = 0, frame = 8
 207              		@ frame_needed = 1, uses_anonymous_args = 0
 208 0000 80B5     		push	{r7, lr}
 209              	.LCFI7:
 210              		.cfi_def_cfa_offset 8
 211              		.cfi_offset 7, -8
 212              		.cfi_offset 14, -4
 213 0002 82B0     		sub	sp, sp, #8
 214              	.LCFI8:
 215              		.cfi_def_cfa_offset 16
 216 0004 00AF     		add	r7, sp, #0
 217              	.LCFI9:
 218              		.cfi_def_cfa_register 7
 229:.\Generated_Source\PSoC5/UART_1.c ****     uint8 enableInterrupts;
 230:.\Generated_Source\PSoC5/UART_1.c ****     enableInterrupts = CyEnterCriticalSection();
 219              		.loc 1 230 0
 220 0006 FFF7FEFF 		bl	CyEnterCriticalSection
 221 000a 0346     		mov	r3, r0
 222 000c FB71     		strb	r3, [r7, #7]
 231:.\Generated_Source\PSoC5/UART_1.c **** 
 232:.\Generated_Source\PSoC5/UART_1.c ****     /* Write Bit Counter Disable */
 233:.\Generated_Source\PSoC5/UART_1.c ****     #if(UART_1_RX_ENABLED || UART_1_HD_ENABLED)
 234:.\Generated_Source\PSoC5/UART_1.c ****         UART_1_RXBITCTR_CONTROL_REG &= (uint8)~UART_1_CNTR_ENABLE;
ARM GAS  C:\Users\devdev\AppData\Local\Temp\ccu4icWL.s 			page 9


 223              		.loc 1 234 0
 224 000e 46F29343 		movw	r3, #25747
 225 0012 C4F20003 		movt	r3, 16384
 226 0016 46F29342 		movw	r2, #25747
 227 001a C4F20002 		movt	r2, 16384
 228 001e 1278     		ldrb	r2, [r2, #0]
 229 0020 D2B2     		uxtb	r2, r2
 230 0022 22F02002 		bic	r2, r2, #32
 231 0026 D2B2     		uxtb	r2, r2
 232 0028 1A70     		strb	r2, [r3, #0]
 235:.\Generated_Source\PSoC5/UART_1.c ****     #endif /* End UART_1_RX_ENABLED */
 236:.\Generated_Source\PSoC5/UART_1.c **** 
 237:.\Generated_Source\PSoC5/UART_1.c ****     #if(UART_1_TX_ENABLED)
 238:.\Generated_Source\PSoC5/UART_1.c ****         #if(!UART_1_TXCLKGEN_DP)
 239:.\Generated_Source\PSoC5/UART_1.c ****             UART_1_TXBITCTR_CONTROL_REG &= (uint8)~UART_1_CNTR_ENABLE;
 240:.\Generated_Source\PSoC5/UART_1.c ****         #endif /* End UART_1_TXCLKGEN_DP */
 241:.\Generated_Source\PSoC5/UART_1.c ****     #endif /* UART_1_TX_ENABLED */
 242:.\Generated_Source\PSoC5/UART_1.c **** 
 243:.\Generated_Source\PSoC5/UART_1.c ****     #if(UART_1_INTERNAL_CLOCK_USED)
 244:.\Generated_Source\PSoC5/UART_1.c ****         /* Disable the clock. */
 245:.\Generated_Source\PSoC5/UART_1.c ****         UART_1_IntClock_Stop();
 233              		.loc 1 245 0
 234 002a FFF7FEFF 		bl	UART_1_IntClock_Stop
 246:.\Generated_Source\PSoC5/UART_1.c ****     #endif /* End UART_1_INTERNAL_CLOCK_USED */
 247:.\Generated_Source\PSoC5/UART_1.c **** 
 248:.\Generated_Source\PSoC5/UART_1.c ****     /* Disable internal interrupt component */
 249:.\Generated_Source\PSoC5/UART_1.c ****     #if(UART_1_RX_ENABLED || UART_1_HD_ENABLED)
 250:.\Generated_Source\PSoC5/UART_1.c ****         UART_1_RXSTATUS_ACTL_REG  &= (uint8)~UART_1_INT_ENABLE;
 235              		.loc 1 250 0
 236 002e 46F29143 		movw	r3, #25745
 237 0032 C4F20003 		movt	r3, 16384
 238 0036 46F29142 		movw	r2, #25745
 239 003a C4F20002 		movt	r2, 16384
 240 003e 1278     		ldrb	r2, [r2, #0]
 241 0040 D2B2     		uxtb	r2, r2
 242 0042 22F01002 		bic	r2, r2, #16
 243 0046 D2B2     		uxtb	r2, r2
 244 0048 1A70     		strb	r2, [r3, #0]
 251:.\Generated_Source\PSoC5/UART_1.c ****         #if(UART_1_RX_INTERRUPT_ENABLED && (UART_1_RXBUFFERSIZE > UART_1_FIFO_LENGTH))
 252:.\Generated_Source\PSoC5/UART_1.c ****             UART_1_DisableRxInt();
 245              		.loc 1 252 0
 246 004a FFF7FEFF 		bl	UART_1_DisableRxInt
 253:.\Generated_Source\PSoC5/UART_1.c ****         #endif /* End UART_1_RX_INTERRUPT_ENABLED */
 254:.\Generated_Source\PSoC5/UART_1.c ****     #endif /* End UART_1_RX_ENABLED */
 255:.\Generated_Source\PSoC5/UART_1.c **** 
 256:.\Generated_Source\PSoC5/UART_1.c ****     #if(UART_1_TX_ENABLED)
 257:.\Generated_Source\PSoC5/UART_1.c ****         UART_1_TXSTATUS_ACTL_REG &= (uint8)~UART_1_INT_ENABLE;
 258:.\Generated_Source\PSoC5/UART_1.c ****         #if(UART_1_TX_INTERRUPT_ENABLED && (UART_1_TXBUFFERSIZE > UART_1_FIFO_LENGTH))
 259:.\Generated_Source\PSoC5/UART_1.c ****             UART_1_DisableTxInt();
 260:.\Generated_Source\PSoC5/UART_1.c ****         #endif /* End UART_1_TX_INTERRUPT_ENABLED */
 261:.\Generated_Source\PSoC5/UART_1.c ****     #endif /* End UART_1_TX_ENABLED */
 262:.\Generated_Source\PSoC5/UART_1.c **** 
 263:.\Generated_Source\PSoC5/UART_1.c ****     CyExitCriticalSection(enableInterrupts);
 247              		.loc 1 263 0
 248 004e FB79     		ldrb	r3, [r7, #7]	@ zero_extendqisi2
 249 0050 1846     		mov	r0, r3
 250 0052 FFF7FEFF 		bl	CyExitCriticalSection
ARM GAS  C:\Users\devdev\AppData\Local\Temp\ccu4icWL.s 			page 10


 264:.\Generated_Source\PSoC5/UART_1.c **** }
 251              		.loc 1 264 0
 252 0056 07F10807 		add	r7, r7, #8
 253 005a BD46     		mov	sp, r7
 254 005c 80BD     		pop	{r7, pc}
 255              		.cfi_endproc
 256              	.LFE3:
 257              		.size	UART_1_Stop, .-UART_1_Stop
 258 005e 00BF     		.section	.text.UART_1_ReadControlRegister,"ax",%progbits
 259              		.align	2
 260              		.global	UART_1_ReadControlRegister
 261              		.thumb
 262              		.thumb_func
 263              		.type	UART_1_ReadControlRegister, %function
 264              	UART_1_ReadControlRegister:
 265              	.LFB4:
 265:.\Generated_Source\PSoC5/UART_1.c **** 
 266:.\Generated_Source\PSoC5/UART_1.c **** 
 267:.\Generated_Source\PSoC5/UART_1.c **** /*******************************************************************************
 268:.\Generated_Source\PSoC5/UART_1.c **** * Function Name: UART_1_ReadControlRegister
 269:.\Generated_Source\PSoC5/UART_1.c **** ********************************************************************************
 270:.\Generated_Source\PSoC5/UART_1.c **** *
 271:.\Generated_Source\PSoC5/UART_1.c **** * Summary:
 272:.\Generated_Source\PSoC5/UART_1.c **** *  Read the current state of the control register
 273:.\Generated_Source\PSoC5/UART_1.c **** *
 274:.\Generated_Source\PSoC5/UART_1.c **** * Parameters:
 275:.\Generated_Source\PSoC5/UART_1.c **** *  None.
 276:.\Generated_Source\PSoC5/UART_1.c **** *
 277:.\Generated_Source\PSoC5/UART_1.c **** * Return:
 278:.\Generated_Source\PSoC5/UART_1.c **** *  Current state of the control register.
 279:.\Generated_Source\PSoC5/UART_1.c **** *
 280:.\Generated_Source\PSoC5/UART_1.c **** *******************************************************************************/
 281:.\Generated_Source\PSoC5/UART_1.c **** uint8 UART_1_ReadControlRegister(void) 
 282:.\Generated_Source\PSoC5/UART_1.c **** {
 266              		.loc 1 282 0
 267              		.cfi_startproc
 268              		@ args = 0, pretend = 0, frame = 0
 269              		@ frame_needed = 1, uses_anonymous_args = 0
 270              		@ link register save eliminated.
 271 0000 80B4     		push	{r7}
 272              	.LCFI10:
 273              		.cfi_def_cfa_offset 4
 274              		.cfi_offset 7, -4
 275 0002 00AF     		add	r7, sp, #0
 276              	.LCFI11:
 277              		.cfi_def_cfa_register 7
 283:.\Generated_Source\PSoC5/UART_1.c ****     #if( UART_1_CONTROL_REG_REMOVED )
 284:.\Generated_Source\PSoC5/UART_1.c ****         return(0u);
 278              		.loc 1 284 0
 279 0004 4FF00003 		mov	r3, #0
 285:.\Generated_Source\PSoC5/UART_1.c ****     #else
 286:.\Generated_Source\PSoC5/UART_1.c ****         return(UART_1_CONTROL_REG);
 287:.\Generated_Source\PSoC5/UART_1.c ****     #endif /* End UART_1_CONTROL_REG_REMOVED */
 288:.\Generated_Source\PSoC5/UART_1.c **** }
 280              		.loc 1 288 0
 281 0008 1846     		mov	r0, r3
 282 000a BD46     		mov	sp, r7
ARM GAS  C:\Users\devdev\AppData\Local\Temp\ccu4icWL.s 			page 11


 283 000c 80BC     		pop	{r7}
 284 000e 7047     		bx	lr
 285              		.cfi_endproc
 286              	.LFE4:
 287              		.size	UART_1_ReadControlRegister, .-UART_1_ReadControlRegister
 288              		.section	.text.UART_1_WriteControlRegister,"ax",%progbits
 289              		.align	2
 290              		.global	UART_1_WriteControlRegister
 291              		.thumb
 292              		.thumb_func
 293              		.type	UART_1_WriteControlRegister, %function
 294              	UART_1_WriteControlRegister:
 295              	.LFB5:
 289:.\Generated_Source\PSoC5/UART_1.c **** 
 290:.\Generated_Source\PSoC5/UART_1.c **** 
 291:.\Generated_Source\PSoC5/UART_1.c **** /*******************************************************************************
 292:.\Generated_Source\PSoC5/UART_1.c **** * Function Name: UART_1_WriteControlRegister
 293:.\Generated_Source\PSoC5/UART_1.c **** ********************************************************************************
 294:.\Generated_Source\PSoC5/UART_1.c **** *
 295:.\Generated_Source\PSoC5/UART_1.c **** * Summary:
 296:.\Generated_Source\PSoC5/UART_1.c **** *  Writes an 8-bit value into the control register
 297:.\Generated_Source\PSoC5/UART_1.c **** *
 298:.\Generated_Source\PSoC5/UART_1.c **** * Parameters:
 299:.\Generated_Source\PSoC5/UART_1.c **** *  control:  control register value
 300:.\Generated_Source\PSoC5/UART_1.c **** *
 301:.\Generated_Source\PSoC5/UART_1.c **** * Return:
 302:.\Generated_Source\PSoC5/UART_1.c **** *  None.
 303:.\Generated_Source\PSoC5/UART_1.c **** *
 304:.\Generated_Source\PSoC5/UART_1.c **** *******************************************************************************/
 305:.\Generated_Source\PSoC5/UART_1.c **** void  UART_1_WriteControlRegister(uint8 control) 
 306:.\Generated_Source\PSoC5/UART_1.c **** {
 296              		.loc 1 306 0
 297              		.cfi_startproc
 298              		@ args = 0, pretend = 0, frame = 8
 299              		@ frame_needed = 1, uses_anonymous_args = 0
 300              		@ link register save eliminated.
 301 0000 80B4     		push	{r7}
 302              	.LCFI12:
 303              		.cfi_def_cfa_offset 4
 304              		.cfi_offset 7, -4
 305 0002 83B0     		sub	sp, sp, #12
 306              	.LCFI13:
 307              		.cfi_def_cfa_offset 16
 308 0004 00AF     		add	r7, sp, #0
 309              	.LCFI14:
 310              		.cfi_def_cfa_register 7
 311 0006 0346     		mov	r3, r0
 312 0008 FB71     		strb	r3, [r7, #7]
 307:.\Generated_Source\PSoC5/UART_1.c ****     #if( UART_1_CONTROL_REG_REMOVED )
 308:.\Generated_Source\PSoC5/UART_1.c ****         if(control != 0u) { }      /* release compiler warning */
 309:.\Generated_Source\PSoC5/UART_1.c ****     #else
 310:.\Generated_Source\PSoC5/UART_1.c ****        UART_1_CONTROL_REG = control;
 311:.\Generated_Source\PSoC5/UART_1.c ****     #endif /* End UART_1_CONTROL_REG_REMOVED */
 312:.\Generated_Source\PSoC5/UART_1.c **** }
 313              		.loc 1 312 0
 314 000a 07F10C07 		add	r7, r7, #12
 315 000e BD46     		mov	sp, r7
ARM GAS  C:\Users\devdev\AppData\Local\Temp\ccu4icWL.s 			page 12


 316 0010 80BC     		pop	{r7}
 317 0012 7047     		bx	lr
 318              		.cfi_endproc
 319              	.LFE5:
 320              		.size	UART_1_WriteControlRegister, .-UART_1_WriteControlRegister
 321              		.section	.text.UART_1_EnableRxInt,"ax",%progbits
 322              		.align	2
 323              		.global	UART_1_EnableRxInt
 324              		.thumb
 325              		.thumb_func
 326              		.type	UART_1_EnableRxInt, %function
 327              	UART_1_EnableRxInt:
 328              	.LFB6:
 313:.\Generated_Source\PSoC5/UART_1.c **** 
 314:.\Generated_Source\PSoC5/UART_1.c **** 
 315:.\Generated_Source\PSoC5/UART_1.c **** #if(UART_1_RX_ENABLED || UART_1_HD_ENABLED)
 316:.\Generated_Source\PSoC5/UART_1.c **** 
 317:.\Generated_Source\PSoC5/UART_1.c ****     #if(UART_1_RX_INTERRUPT_ENABLED)
 318:.\Generated_Source\PSoC5/UART_1.c **** 
 319:.\Generated_Source\PSoC5/UART_1.c ****         /*******************************************************************************
 320:.\Generated_Source\PSoC5/UART_1.c ****         * Function Name: UART_1_EnableRxInt
 321:.\Generated_Source\PSoC5/UART_1.c ****         ********************************************************************************
 322:.\Generated_Source\PSoC5/UART_1.c ****         *
 323:.\Generated_Source\PSoC5/UART_1.c ****         * Summary:
 324:.\Generated_Source\PSoC5/UART_1.c ****         *  Enable RX interrupt generation
 325:.\Generated_Source\PSoC5/UART_1.c ****         *
 326:.\Generated_Source\PSoC5/UART_1.c ****         * Parameters:
 327:.\Generated_Source\PSoC5/UART_1.c ****         *  None.
 328:.\Generated_Source\PSoC5/UART_1.c ****         *
 329:.\Generated_Source\PSoC5/UART_1.c ****         * Return:
 330:.\Generated_Source\PSoC5/UART_1.c ****         *  None.
 331:.\Generated_Source\PSoC5/UART_1.c ****         *
 332:.\Generated_Source\PSoC5/UART_1.c ****         * Theory:
 333:.\Generated_Source\PSoC5/UART_1.c ****         *  Enable the interrupt output -or- the interrupt component itself
 334:.\Generated_Source\PSoC5/UART_1.c ****         *
 335:.\Generated_Source\PSoC5/UART_1.c ****         *******************************************************************************/
 336:.\Generated_Source\PSoC5/UART_1.c ****         void UART_1_EnableRxInt(void) 
 337:.\Generated_Source\PSoC5/UART_1.c ****         {
 329              		.loc 1 337 0
 330              		.cfi_startproc
 331              		@ args = 0, pretend = 0, frame = 0
 332              		@ frame_needed = 1, uses_anonymous_args = 0
 333              		@ link register save eliminated.
 334 0000 80B4     		push	{r7}
 335              	.LCFI15:
 336              		.cfi_def_cfa_offset 4
 337              		.cfi_offset 7, -4
 338 0002 00AF     		add	r7, sp, #0
 339              	.LCFI16:
 340              		.cfi_def_cfa_register 7
 338:.\Generated_Source\PSoC5/UART_1.c ****             CyIntEnable(UART_1_RX_VECT_NUM);
 341              		.loc 1 338 0
 342 0004 4FF46143 		mov	r3, #57600
 343 0008 CEF20003 		movt	r3, 57344
 344 000c 4FF00402 		mov	r2, #4
 345 0010 1A60     		str	r2, [r3, #0]
 339:.\Generated_Source\PSoC5/UART_1.c ****         }
ARM GAS  C:\Users\devdev\AppData\Local\Temp\ccu4icWL.s 			page 13


 346              		.loc 1 339 0
 347 0012 BD46     		mov	sp, r7
 348 0014 80BC     		pop	{r7}
 349 0016 7047     		bx	lr
 350              		.cfi_endproc
 351              	.LFE6:
 352              		.size	UART_1_EnableRxInt, .-UART_1_EnableRxInt
 353              		.section	.text.UART_1_DisableRxInt,"ax",%progbits
 354              		.align	2
 355              		.global	UART_1_DisableRxInt
 356              		.thumb
 357              		.thumb_func
 358              		.type	UART_1_DisableRxInt, %function
 359              	UART_1_DisableRxInt:
 360              	.LFB7:
 340:.\Generated_Source\PSoC5/UART_1.c **** 
 341:.\Generated_Source\PSoC5/UART_1.c **** 
 342:.\Generated_Source\PSoC5/UART_1.c ****         /*******************************************************************************
 343:.\Generated_Source\PSoC5/UART_1.c ****         * Function Name: UART_1_DisableRxInt
 344:.\Generated_Source\PSoC5/UART_1.c ****         ********************************************************************************
 345:.\Generated_Source\PSoC5/UART_1.c ****         *
 346:.\Generated_Source\PSoC5/UART_1.c ****         * Summary:
 347:.\Generated_Source\PSoC5/UART_1.c ****         *  Disable RX interrupt generation
 348:.\Generated_Source\PSoC5/UART_1.c ****         *
 349:.\Generated_Source\PSoC5/UART_1.c ****         * Parameters:
 350:.\Generated_Source\PSoC5/UART_1.c ****         *  None.
 351:.\Generated_Source\PSoC5/UART_1.c ****         *
 352:.\Generated_Source\PSoC5/UART_1.c ****         * Return:
 353:.\Generated_Source\PSoC5/UART_1.c ****         *  None.
 354:.\Generated_Source\PSoC5/UART_1.c ****         *
 355:.\Generated_Source\PSoC5/UART_1.c ****         * Theory:
 356:.\Generated_Source\PSoC5/UART_1.c ****         *  Disable the interrupt output -or- the interrupt component itself
 357:.\Generated_Source\PSoC5/UART_1.c ****         *
 358:.\Generated_Source\PSoC5/UART_1.c ****         *******************************************************************************/
 359:.\Generated_Source\PSoC5/UART_1.c ****         void UART_1_DisableRxInt(void) 
 360:.\Generated_Source\PSoC5/UART_1.c ****         {
 361              		.loc 1 360 0
 362              		.cfi_startproc
 363              		@ args = 0, pretend = 0, frame = 0
 364              		@ frame_needed = 1, uses_anonymous_args = 0
 365              		@ link register save eliminated.
 366 0000 80B4     		push	{r7}
 367              	.LCFI17:
 368              		.cfi_def_cfa_offset 4
 369              		.cfi_offset 7, -4
 370 0002 00AF     		add	r7, sp, #0
 371              	.LCFI18:
 372              		.cfi_def_cfa_register 7
 361:.\Generated_Source\PSoC5/UART_1.c ****             CyIntDisable(UART_1_RX_VECT_NUM);
 373              		.loc 1 361 0
 374 0004 4EF28013 		movw	r3, #57728
 375 0008 CEF20003 		movt	r3, 57344
 376 000c 4FF00402 		mov	r2, #4
 377 0010 1A60     		str	r2, [r3, #0]
 362:.\Generated_Source\PSoC5/UART_1.c ****         }
 378              		.loc 1 362 0
 379 0012 BD46     		mov	sp, r7
ARM GAS  C:\Users\devdev\AppData\Local\Temp\ccu4icWL.s 			page 14


 380 0014 80BC     		pop	{r7}
 381 0016 7047     		bx	lr
 382              		.cfi_endproc
 383              	.LFE7:
 384              		.size	UART_1_DisableRxInt, .-UART_1_DisableRxInt
 385              		.section	.text.UART_1_SetRxInterruptMode,"ax",%progbits
 386              		.align	2
 387              		.global	UART_1_SetRxInterruptMode
 388              		.thumb
 389              		.thumb_func
 390              		.type	UART_1_SetRxInterruptMode, %function
 391              	UART_1_SetRxInterruptMode:
 392              	.LFB8:
 363:.\Generated_Source\PSoC5/UART_1.c **** 
 364:.\Generated_Source\PSoC5/UART_1.c ****     #endif /* UART_1_RX_INTERRUPT_ENABLED */
 365:.\Generated_Source\PSoC5/UART_1.c **** 
 366:.\Generated_Source\PSoC5/UART_1.c **** 
 367:.\Generated_Source\PSoC5/UART_1.c ****     /*******************************************************************************
 368:.\Generated_Source\PSoC5/UART_1.c ****     * Function Name: UART_1_SetRxInterruptMode
 369:.\Generated_Source\PSoC5/UART_1.c ****     ********************************************************************************
 370:.\Generated_Source\PSoC5/UART_1.c ****     *
 371:.\Generated_Source\PSoC5/UART_1.c ****     * Summary:
 372:.\Generated_Source\PSoC5/UART_1.c ****     *  Configure which status bits trigger an interrupt event
 373:.\Generated_Source\PSoC5/UART_1.c ****     *
 374:.\Generated_Source\PSoC5/UART_1.c ****     * Parameters:
 375:.\Generated_Source\PSoC5/UART_1.c ****     *  IntSrc:  An or'd combination of the desired status bit masks (defined in
 376:.\Generated_Source\PSoC5/UART_1.c ****     *           the header file)
 377:.\Generated_Source\PSoC5/UART_1.c ****     *
 378:.\Generated_Source\PSoC5/UART_1.c ****     * Return:
 379:.\Generated_Source\PSoC5/UART_1.c ****     *  None.
 380:.\Generated_Source\PSoC5/UART_1.c ****     *
 381:.\Generated_Source\PSoC5/UART_1.c ****     * Theory:
 382:.\Generated_Source\PSoC5/UART_1.c ****     *  Enables the output of specific status bits to the interrupt controller
 383:.\Generated_Source\PSoC5/UART_1.c ****     *
 384:.\Generated_Source\PSoC5/UART_1.c ****     *******************************************************************************/
 385:.\Generated_Source\PSoC5/UART_1.c ****     void UART_1_SetRxInterruptMode(uint8 intSrc) 
 386:.\Generated_Source\PSoC5/UART_1.c ****     {
 393              		.loc 1 386 0
 394              		.cfi_startproc
 395              		@ args = 0, pretend = 0, frame = 8
 396              		@ frame_needed = 1, uses_anonymous_args = 0
 397              		@ link register save eliminated.
 398 0000 80B4     		push	{r7}
 399              	.LCFI19:
 400              		.cfi_def_cfa_offset 4
 401              		.cfi_offset 7, -4
 402 0002 83B0     		sub	sp, sp, #12
 403              	.LCFI20:
 404              		.cfi_def_cfa_offset 16
 405 0004 00AF     		add	r7, sp, #0
 406              	.LCFI21:
 407              		.cfi_def_cfa_register 7
 408 0006 0346     		mov	r3, r0
 409 0008 FB71     		strb	r3, [r7, #7]
 387:.\Generated_Source\PSoC5/UART_1.c ****         UART_1_RXSTATUS_MASK_REG  = intSrc;
 410              		.loc 1 387 0
 411 000a 46F28143 		movw	r3, #25729
ARM GAS  C:\Users\devdev\AppData\Local\Temp\ccu4icWL.s 			page 15


 412 000e C4F20003 		movt	r3, 16384
 413 0012 FA79     		ldrb	r2, [r7, #7]
 414 0014 1A70     		strb	r2, [r3, #0]
 388:.\Generated_Source\PSoC5/UART_1.c ****     }
 415              		.loc 1 388 0
 416 0016 07F10C07 		add	r7, r7, #12
 417 001a BD46     		mov	sp, r7
 418 001c 80BC     		pop	{r7}
 419 001e 7047     		bx	lr
 420              		.cfi_endproc
 421              	.LFE8:
 422              		.size	UART_1_SetRxInterruptMode, .-UART_1_SetRxInterruptMode
 423              		.section	.text.UART_1_ReadRxData,"ax",%progbits
 424              		.align	2
 425              		.global	UART_1_ReadRxData
 426              		.thumb
 427              		.thumb_func
 428              		.type	UART_1_ReadRxData, %function
 429              	UART_1_ReadRxData:
 430              	.LFB9:
 389:.\Generated_Source\PSoC5/UART_1.c **** 
 390:.\Generated_Source\PSoC5/UART_1.c **** 
 391:.\Generated_Source\PSoC5/UART_1.c ****     /*******************************************************************************
 392:.\Generated_Source\PSoC5/UART_1.c ****     * Function Name: UART_1_ReadRxData
 393:.\Generated_Source\PSoC5/UART_1.c ****     ********************************************************************************
 394:.\Generated_Source\PSoC5/UART_1.c ****     *
 395:.\Generated_Source\PSoC5/UART_1.c ****     * Summary:
 396:.\Generated_Source\PSoC5/UART_1.c ****     *  Returns data in RX Data register without checking status register to
 397:.\Generated_Source\PSoC5/UART_1.c ****     *  determine if data is valid
 398:.\Generated_Source\PSoC5/UART_1.c ****     *
 399:.\Generated_Source\PSoC5/UART_1.c ****     * Parameters:
 400:.\Generated_Source\PSoC5/UART_1.c ****     *  None.
 401:.\Generated_Source\PSoC5/UART_1.c ****     *
 402:.\Generated_Source\PSoC5/UART_1.c ****     * Return:
 403:.\Generated_Source\PSoC5/UART_1.c ****     *  Received data from RX register
 404:.\Generated_Source\PSoC5/UART_1.c ****     *
 405:.\Generated_Source\PSoC5/UART_1.c ****     * Global Variables:
 406:.\Generated_Source\PSoC5/UART_1.c ****     *  UART_1_rxBuffer - RAM buffer pointer for save received data.
 407:.\Generated_Source\PSoC5/UART_1.c ****     *  UART_1_rxBufferWrite - cyclic index for write to rxBuffer,
 408:.\Generated_Source\PSoC5/UART_1.c ****     *     checked to identify new data.
 409:.\Generated_Source\PSoC5/UART_1.c ****     *  UART_1_rxBufferRead - cyclic index for read from rxBuffer,
 410:.\Generated_Source\PSoC5/UART_1.c ****     *     incremented after each byte has been read from buffer.
 411:.\Generated_Source\PSoC5/UART_1.c ****     *  UART_1_rxBufferLoopDetect - creared if loop condition was detected
 412:.\Generated_Source\PSoC5/UART_1.c ****     *     in RX ISR.
 413:.\Generated_Source\PSoC5/UART_1.c ****     *
 414:.\Generated_Source\PSoC5/UART_1.c ****     * Reentrant:
 415:.\Generated_Source\PSoC5/UART_1.c ****     *  No.
 416:.\Generated_Source\PSoC5/UART_1.c ****     *
 417:.\Generated_Source\PSoC5/UART_1.c ****     *******************************************************************************/
 418:.\Generated_Source\PSoC5/UART_1.c ****     uint8 UART_1_ReadRxData(void) 
 419:.\Generated_Source\PSoC5/UART_1.c ****     {
 431              		.loc 1 419 0
 432              		.cfi_startproc
 433              		@ args = 0, pretend = 0, frame = 8
 434              		@ frame_needed = 1, uses_anonymous_args = 0
 435 0000 80B5     		push	{r7, lr}
 436              	.LCFI22:
ARM GAS  C:\Users\devdev\AppData\Local\Temp\ccu4icWL.s 			page 16


 437              		.cfi_def_cfa_offset 8
 438              		.cfi_offset 7, -8
 439              		.cfi_offset 14, -4
 440 0002 82B0     		sub	sp, sp, #8
 441              	.LCFI23:
 442              		.cfi_def_cfa_offset 16
 443 0004 00AF     		add	r7, sp, #0
 444              	.LCFI24:
 445              		.cfi_def_cfa_register 7
 420:.\Generated_Source\PSoC5/UART_1.c ****         uint8 rxData;
 421:.\Generated_Source\PSoC5/UART_1.c **** 
 422:.\Generated_Source\PSoC5/UART_1.c ****         #if(UART_1_RXBUFFERSIZE > UART_1_FIFO_LENGTH)
 423:.\Generated_Source\PSoC5/UART_1.c ****             uint8 loc_rxBufferRead;
 424:.\Generated_Source\PSoC5/UART_1.c ****             uint8 loc_rxBufferWrite;
 425:.\Generated_Source\PSoC5/UART_1.c ****             /* Protect variables that could change on interrupt. */
 426:.\Generated_Source\PSoC5/UART_1.c ****             /* Disable Rx interrupt. */
 427:.\Generated_Source\PSoC5/UART_1.c ****             #if(UART_1_RX_INTERRUPT_ENABLED)
 428:.\Generated_Source\PSoC5/UART_1.c ****                 UART_1_DisableRxInt();
 446              		.loc 1 428 0
 447 0006 FFF7FEFF 		bl	UART_1_DisableRxInt
 429:.\Generated_Source\PSoC5/UART_1.c ****             #endif /* UART_1_RX_INTERRUPT_ENABLED */
 430:.\Generated_Source\PSoC5/UART_1.c ****             loc_rxBufferRead = UART_1_rxBufferRead;
 448              		.loc 1 430 0
 449 000a 40F20003 		movw	r3, #:lower16:UART_1_rxBufferRead
 450 000e C0F20003 		movt	r3, #:upper16:UART_1_rxBufferRead
 451 0012 1B78     		ldrb	r3, [r3, #0]
 452 0014 BB71     		strb	r3, [r7, #6]
 431:.\Generated_Source\PSoC5/UART_1.c ****             loc_rxBufferWrite = UART_1_rxBufferWrite;
 453              		.loc 1 431 0
 454 0016 40F20003 		movw	r3, #:lower16:UART_1_rxBufferWrite
 455 001a C0F20003 		movt	r3, #:upper16:UART_1_rxBufferWrite
 456 001e 1B78     		ldrb	r3, [r3, #0]
 457 0020 7B71     		strb	r3, [r7, #5]
 432:.\Generated_Source\PSoC5/UART_1.c **** 
 433:.\Generated_Source\PSoC5/UART_1.c ****             if( (UART_1_rxBufferLoopDetect != 0u) || (loc_rxBufferRead != loc_rxBufferWrite) )
 458              		.loc 1 433 0
 459 0022 40F20003 		movw	r3, #:lower16:UART_1_rxBufferLoopDetect
 460 0026 C0F20003 		movt	r3, #:upper16:UART_1_rxBufferLoopDetect
 461 002a 1B78     		ldrb	r3, [r3, #0]
 462 002c DBB2     		uxtb	r3, r3
 463 002e 002B     		cmp	r3, #0
 464 0030 03D1     		bne	.L13
 465              		.loc 1 433 0 is_stmt 0 discriminator 1
 466 0032 BA79     		ldrb	r2, [r7, #6]	@ zero_extendqisi2
 467 0034 7B79     		ldrb	r3, [r7, #5]	@ zero_extendqisi2
 468 0036 9A42     		cmp	r2, r3
 469 0038 34D0     		beq	.L14
 470              	.L13:
 434:.\Generated_Source\PSoC5/UART_1.c ****             {
 435:.\Generated_Source\PSoC5/UART_1.c ****                 rxData = UART_1_rxBuffer[loc_rxBufferRead];
 471              		.loc 1 435 0 is_stmt 1
 472 003a BA79     		ldrb	r2, [r7, #6]	@ zero_extendqisi2
 473 003c 40F20003 		movw	r3, #:lower16:UART_1_rxBuffer
 474 0040 C0F20003 		movt	r3, #:upper16:UART_1_rxBuffer
 475 0044 9B5C     		ldrb	r3, [r3, r2]
 476 0046 FB71     		strb	r3, [r7, #7]
 436:.\Generated_Source\PSoC5/UART_1.c ****                 loc_rxBufferRead++;
ARM GAS  C:\Users\devdev\AppData\Local\Temp\ccu4icWL.s 			page 17


 477              		.loc 1 436 0
 478 0048 BB79     		ldrb	r3, [r7, #6]
 479 004a 03F10103 		add	r3, r3, #1
 480 004e BB71     		strb	r3, [r7, #6]
 437:.\Generated_Source\PSoC5/UART_1.c **** 
 438:.\Generated_Source\PSoC5/UART_1.c ****                 if(loc_rxBufferRead >= UART_1_RXBUFFERSIZE)
 481              		.loc 1 438 0
 482 0050 BB79     		ldrb	r3, [r7, #6]	@ zero_extendqisi2
 483 0052 0F2B     		cmp	r3, #15
 484 0054 02D9     		bls	.L15
 439:.\Generated_Source\PSoC5/UART_1.c ****                 {
 440:.\Generated_Source\PSoC5/UART_1.c ****                     loc_rxBufferRead = 0u;
 485              		.loc 1 440 0
 486 0056 4FF00003 		mov	r3, #0
 487 005a BB71     		strb	r3, [r7, #6]
 488              	.L15:
 441:.\Generated_Source\PSoC5/UART_1.c ****                 }
 442:.\Generated_Source\PSoC5/UART_1.c ****                 /* Update the real pointer */
 443:.\Generated_Source\PSoC5/UART_1.c ****                 UART_1_rxBufferRead = loc_rxBufferRead;
 489              		.loc 1 443 0
 490 005c 40F20003 		movw	r3, #:lower16:UART_1_rxBufferRead
 491 0060 C0F20003 		movt	r3, #:upper16:UART_1_rxBufferRead
 492 0064 BA79     		ldrb	r2, [r7, #6]
 493 0066 1A70     		strb	r2, [r3, #0]
 444:.\Generated_Source\PSoC5/UART_1.c **** 
 445:.\Generated_Source\PSoC5/UART_1.c ****                 if(UART_1_rxBufferLoopDetect != 0u )
 494              		.loc 1 445 0
 495 0068 40F20003 		movw	r3, #:lower16:UART_1_rxBufferLoopDetect
 496 006c C0F20003 		movt	r3, #:upper16:UART_1_rxBufferLoopDetect
 497 0070 1B78     		ldrb	r3, [r3, #0]
 498 0072 DBB2     		uxtb	r3, r3
 499 0074 002B     		cmp	r3, #0
 500 0076 1BD0     		beq	.L17
 446:.\Generated_Source\PSoC5/UART_1.c ****                 {
 447:.\Generated_Source\PSoC5/UART_1.c ****                     UART_1_rxBufferLoopDetect = 0u;
 501              		.loc 1 447 0
 502 0078 40F20003 		movw	r3, #:lower16:UART_1_rxBufferLoopDetect
 503 007c C0F20003 		movt	r3, #:upper16:UART_1_rxBufferLoopDetect
 504 0080 4FF00002 		mov	r2, #0
 505 0084 1A70     		strb	r2, [r3, #0]
 448:.\Generated_Source\PSoC5/UART_1.c ****                     #if( (UART_1_RX_INTERRUPT_ENABLED) && (UART_1_FLOW_CONTROL != 0u) && \
 449:.\Generated_Source\PSoC5/UART_1.c ****                          (UART_1_RXBUFFERSIZE > UART_1_FIFO_LENGTH) )
 450:.\Generated_Source\PSoC5/UART_1.c ****                         /* When Hardware Flow Control selected - return RX mask */
 451:.\Generated_Source\PSoC5/UART_1.c ****                         #if( UART_1_HD_ENABLED )
 452:.\Generated_Source\PSoC5/UART_1.c ****                             if((UART_1_CONTROL_REG & UART_1_CTRL_HD_SEND) == 0u)
 453:.\Generated_Source\PSoC5/UART_1.c ****                             {   /* In Half duplex mode return RX mask only in RX
 454:.\Generated_Source\PSoC5/UART_1.c ****                                 *  configuration set, otherwise
 455:.\Generated_Source\PSoC5/UART_1.c ****                                 *  mask will be returned in LoadRxConfig() API.
 456:.\Generated_Source\PSoC5/UART_1.c ****                                 */
 457:.\Generated_Source\PSoC5/UART_1.c ****                                 UART_1_RXSTATUS_MASK_REG  |= UART_1_RX_STS_FIFO_NOTEMPTY;
 458:.\Generated_Source\PSoC5/UART_1.c ****                             }
 459:.\Generated_Source\PSoC5/UART_1.c ****                         #else
 460:.\Generated_Source\PSoC5/UART_1.c ****                             UART_1_RXSTATUS_MASK_REG  |= UART_1_RX_STS_FIFO_NOTEMPTY;
 506              		.loc 1 460 0
 507 0086 46F28143 		movw	r3, #25729
 508 008a C4F20003 		movt	r3, 16384
 509 008e 46F28142 		movw	r2, #25729
ARM GAS  C:\Users\devdev\AppData\Local\Temp\ccu4icWL.s 			page 18


 510 0092 C4F20002 		movt	r2, 16384
 511 0096 1278     		ldrb	r2, [r2, #0]
 512 0098 D2B2     		uxtb	r2, r2
 513 009a 42F02002 		orr	r2, r2, #32
 514 009e D2B2     		uxtb	r2, r2
 515 00a0 1A70     		strb	r2, [r3, #0]
 445:.\Generated_Source\PSoC5/UART_1.c ****                 if(UART_1_rxBufferLoopDetect != 0u )
 516              		.loc 1 445 0
 517 00a2 05E0     		b	.L17
 518              	.L14:
 461:.\Generated_Source\PSoC5/UART_1.c ****                         #endif /* end UART_1_HD_ENABLED */
 462:.\Generated_Source\PSoC5/UART_1.c ****                     #endif /* UART_1_RX_INTERRUPT_ENABLED and Hardware flow control*/
 463:.\Generated_Source\PSoC5/UART_1.c ****                 }
 464:.\Generated_Source\PSoC5/UART_1.c ****             }
 465:.\Generated_Source\PSoC5/UART_1.c ****             else
 466:.\Generated_Source\PSoC5/UART_1.c ****             {   /* Needs to check status for RX_STS_FIFO_NOTEMPTY bit*/
 467:.\Generated_Source\PSoC5/UART_1.c ****                 rxData = UART_1_RXDATA_REG;
 519              		.loc 1 467 0
 520 00a4 46F24F43 		movw	r3, #25679
 521 00a8 C4F20003 		movt	r3, 16384
 522 00ac 1B78     		ldrb	r3, [r3, #0]
 523 00ae FB71     		strb	r3, [r7, #7]
 524              	.L17:
 468:.\Generated_Source\PSoC5/UART_1.c ****             }
 469:.\Generated_Source\PSoC5/UART_1.c **** 
 470:.\Generated_Source\PSoC5/UART_1.c ****             /* Enable Rx interrupt. */
 471:.\Generated_Source\PSoC5/UART_1.c ****             #if(UART_1_RX_INTERRUPT_ENABLED)
 472:.\Generated_Source\PSoC5/UART_1.c ****                 UART_1_EnableRxInt();
 525              		.loc 1 472 0
 526 00b0 FFF7FEFF 		bl	UART_1_EnableRxInt
 473:.\Generated_Source\PSoC5/UART_1.c ****             #endif /* End UART_1_RX_INTERRUPT_ENABLED */
 474:.\Generated_Source\PSoC5/UART_1.c **** 
 475:.\Generated_Source\PSoC5/UART_1.c ****         #else /* UART_1_RXBUFFERSIZE > UART_1_FIFO_LENGTH */
 476:.\Generated_Source\PSoC5/UART_1.c **** 
 477:.\Generated_Source\PSoC5/UART_1.c ****             /* Needs to check status for RX_STS_FIFO_NOTEMPTY bit*/
 478:.\Generated_Source\PSoC5/UART_1.c ****             rxData = UART_1_RXDATA_REG;
 479:.\Generated_Source\PSoC5/UART_1.c **** 
 480:.\Generated_Source\PSoC5/UART_1.c ****         #endif /* UART_1_RXBUFFERSIZE > UART_1_FIFO_LENGTH */
 481:.\Generated_Source\PSoC5/UART_1.c **** 
 482:.\Generated_Source\PSoC5/UART_1.c ****         return(rxData);
 527              		.loc 1 482 0
 528 00b4 FB79     		ldrb	r3, [r7, #7]	@ zero_extendqisi2
 483:.\Generated_Source\PSoC5/UART_1.c ****     }
 529              		.loc 1 483 0
 530 00b6 1846     		mov	r0, r3
 531 00b8 07F10807 		add	r7, r7, #8
 532 00bc BD46     		mov	sp, r7
 533 00be 80BD     		pop	{r7, pc}
 534              		.cfi_endproc
 535              	.LFE9:
 536              		.size	UART_1_ReadRxData, .-UART_1_ReadRxData
 537              		.section	.text.UART_1_ReadRxStatus,"ax",%progbits
 538              		.align	2
 539              		.global	UART_1_ReadRxStatus
 540              		.thumb
 541              		.thumb_func
 542              		.type	UART_1_ReadRxStatus, %function
ARM GAS  C:\Users\devdev\AppData\Local\Temp\ccu4icWL.s 			page 19


 543              	UART_1_ReadRxStatus:
 544              	.LFB10:
 484:.\Generated_Source\PSoC5/UART_1.c **** 
 485:.\Generated_Source\PSoC5/UART_1.c **** 
 486:.\Generated_Source\PSoC5/UART_1.c ****     /*******************************************************************************
 487:.\Generated_Source\PSoC5/UART_1.c ****     * Function Name: UART_1_ReadRxStatus
 488:.\Generated_Source\PSoC5/UART_1.c ****     ********************************************************************************
 489:.\Generated_Source\PSoC5/UART_1.c ****     *
 490:.\Generated_Source\PSoC5/UART_1.c ****     * Summary:
 491:.\Generated_Source\PSoC5/UART_1.c ****     *  Read the current state of the status register
 492:.\Generated_Source\PSoC5/UART_1.c ****     *  And detect software buffer overflow.
 493:.\Generated_Source\PSoC5/UART_1.c ****     *
 494:.\Generated_Source\PSoC5/UART_1.c ****     * Parameters:
 495:.\Generated_Source\PSoC5/UART_1.c ****     *  None.
 496:.\Generated_Source\PSoC5/UART_1.c ****     *
 497:.\Generated_Source\PSoC5/UART_1.c ****     * Return:
 498:.\Generated_Source\PSoC5/UART_1.c ****     *  Current state of the status register.
 499:.\Generated_Source\PSoC5/UART_1.c ****     *
 500:.\Generated_Source\PSoC5/UART_1.c ****     * Global Variables:
 501:.\Generated_Source\PSoC5/UART_1.c ****     *  UART_1_rxBufferOverflow - used to indicate overload condition.
 502:.\Generated_Source\PSoC5/UART_1.c ****     *   It set to one in RX interrupt when there isn?t free space in
 503:.\Generated_Source\PSoC5/UART_1.c ****     *   UART_1_rxBufferRead to write new data. This condition returned
 504:.\Generated_Source\PSoC5/UART_1.c ****     *   and cleared to zero by this API as an
 505:.\Generated_Source\PSoC5/UART_1.c ****     *   UART_1_RX_STS_SOFT_BUFF_OVER bit along with RX Status register
 506:.\Generated_Source\PSoC5/UART_1.c ****     *   bits.
 507:.\Generated_Source\PSoC5/UART_1.c ****     *
 508:.\Generated_Source\PSoC5/UART_1.c ****     *******************************************************************************/
 509:.\Generated_Source\PSoC5/UART_1.c ****     uint8 UART_1_ReadRxStatus(void) 
 510:.\Generated_Source\PSoC5/UART_1.c ****     {
 545              		.loc 1 510 0
 546              		.cfi_startproc
 547              		@ args = 0, pretend = 0, frame = 8
 548              		@ frame_needed = 1, uses_anonymous_args = 0
 549              		@ link register save eliminated.
 550 0000 80B4     		push	{r7}
 551              	.LCFI25:
 552              		.cfi_def_cfa_offset 4
 553              		.cfi_offset 7, -4
 554 0002 83B0     		sub	sp, sp, #12
 555              	.LCFI26:
 556              		.cfi_def_cfa_offset 16
 557 0004 00AF     		add	r7, sp, #0
 558              	.LCFI27:
 559              		.cfi_def_cfa_register 7
 511:.\Generated_Source\PSoC5/UART_1.c ****         uint8 status;
 512:.\Generated_Source\PSoC5/UART_1.c **** 
 513:.\Generated_Source\PSoC5/UART_1.c ****         status = UART_1_RXSTATUS_REG & UART_1_RX_HW_MASK;
 560              		.loc 1 513 0
 561 0006 46F26143 		movw	r3, #25697
 562 000a C4F20003 		movt	r3, 16384
 563 000e 1B78     		ldrb	r3, [r3, #0]
 564 0010 DBB2     		uxtb	r3, r3
 565 0012 03F07F03 		and	r3, r3, #127
 566 0016 FB71     		strb	r3, [r7, #7]
 514:.\Generated_Source\PSoC5/UART_1.c **** 
 515:.\Generated_Source\PSoC5/UART_1.c ****         #if(UART_1_RXBUFFERSIZE > UART_1_FIFO_LENGTH)
 516:.\Generated_Source\PSoC5/UART_1.c ****             if( UART_1_rxBufferOverflow != 0u )
ARM GAS  C:\Users\devdev\AppData\Local\Temp\ccu4icWL.s 			page 20


 567              		.loc 1 516 0
 568 0018 40F20003 		movw	r3, #:lower16:UART_1_rxBufferOverflow
 569 001c C0F20003 		movt	r3, #:upper16:UART_1_rxBufferOverflow
 570 0020 1B78     		ldrb	r3, [r3, #0]
 571 0022 DBB2     		uxtb	r3, r3
 572 0024 002B     		cmp	r3, #0
 573 0026 0AD0     		beq	.L20
 517:.\Generated_Source\PSoC5/UART_1.c ****             {
 518:.\Generated_Source\PSoC5/UART_1.c ****                 status |= UART_1_RX_STS_SOFT_BUFF_OVER;
 574              		.loc 1 518 0
 575 0028 FB79     		ldrb	r3, [r7, #7]
 576 002a 63F07F03 		orn	r3, r3, #127
 577 002e FB71     		strb	r3, [r7, #7]
 519:.\Generated_Source\PSoC5/UART_1.c ****                 UART_1_rxBufferOverflow = 0u;
 578              		.loc 1 519 0
 579 0030 40F20003 		movw	r3, #:lower16:UART_1_rxBufferOverflow
 580 0034 C0F20003 		movt	r3, #:upper16:UART_1_rxBufferOverflow
 581 0038 4FF00002 		mov	r2, #0
 582 003c 1A70     		strb	r2, [r3, #0]
 583              	.L20:
 520:.\Generated_Source\PSoC5/UART_1.c ****             }
 521:.\Generated_Source\PSoC5/UART_1.c ****         #endif /* UART_1_RXBUFFERSIZE */
 522:.\Generated_Source\PSoC5/UART_1.c **** 
 523:.\Generated_Source\PSoC5/UART_1.c ****         return(status);
 584              		.loc 1 523 0
 585 003e FB79     		ldrb	r3, [r7, #7]	@ zero_extendqisi2
 524:.\Generated_Source\PSoC5/UART_1.c ****     }
 586              		.loc 1 524 0
 587 0040 1846     		mov	r0, r3
 588 0042 07F10C07 		add	r7, r7, #12
 589 0046 BD46     		mov	sp, r7
 590 0048 80BC     		pop	{r7}
 591 004a 7047     		bx	lr
 592              		.cfi_endproc
 593              	.LFE10:
 594              		.size	UART_1_ReadRxStatus, .-UART_1_ReadRxStatus
 595              		.section	.text.UART_1_GetChar,"ax",%progbits
 596              		.align	2
 597              		.global	UART_1_GetChar
 598              		.thumb
 599              		.thumb_func
 600              		.type	UART_1_GetChar, %function
 601              	UART_1_GetChar:
 602              	.LFB11:
 525:.\Generated_Source\PSoC5/UART_1.c **** 
 526:.\Generated_Source\PSoC5/UART_1.c **** 
 527:.\Generated_Source\PSoC5/UART_1.c ****     /*******************************************************************************
 528:.\Generated_Source\PSoC5/UART_1.c ****     * Function Name: UART_1_GetChar
 529:.\Generated_Source\PSoC5/UART_1.c ****     ********************************************************************************
 530:.\Generated_Source\PSoC5/UART_1.c ****     *
 531:.\Generated_Source\PSoC5/UART_1.c ****     * Summary:
 532:.\Generated_Source\PSoC5/UART_1.c ****     *  Reads UART RX buffer immediately, if data is not available or an error
 533:.\Generated_Source\PSoC5/UART_1.c ****     *  condition exists, zero is returned; otherwise, character is read and
 534:.\Generated_Source\PSoC5/UART_1.c ****     *  returned.
 535:.\Generated_Source\PSoC5/UART_1.c ****     *
 536:.\Generated_Source\PSoC5/UART_1.c ****     * Parameters:
 537:.\Generated_Source\PSoC5/UART_1.c ****     *  None.
ARM GAS  C:\Users\devdev\AppData\Local\Temp\ccu4icWL.s 			page 21


 538:.\Generated_Source\PSoC5/UART_1.c ****     *
 539:.\Generated_Source\PSoC5/UART_1.c ****     * Return:
 540:.\Generated_Source\PSoC5/UART_1.c ****     *  Character read from UART RX buffer. ASCII characters from 1 to 255 are valid.
 541:.\Generated_Source\PSoC5/UART_1.c ****     *  A returned zero signifies an error condition or no data available.
 542:.\Generated_Source\PSoC5/UART_1.c ****     *
 543:.\Generated_Source\PSoC5/UART_1.c ****     * Global Variables:
 544:.\Generated_Source\PSoC5/UART_1.c ****     *  UART_1_rxBuffer - RAM buffer pointer for save received data.
 545:.\Generated_Source\PSoC5/UART_1.c ****     *  UART_1_rxBufferWrite - cyclic index for write to rxBuffer,
 546:.\Generated_Source\PSoC5/UART_1.c ****     *     checked to identify new data.
 547:.\Generated_Source\PSoC5/UART_1.c ****     *  UART_1_rxBufferRead - cyclic index for read from rxBuffer,
 548:.\Generated_Source\PSoC5/UART_1.c ****     *     incremented after each byte has been read from buffer.
 549:.\Generated_Source\PSoC5/UART_1.c ****     *  UART_1_rxBufferLoopDetect - creared if loop condition was detected
 550:.\Generated_Source\PSoC5/UART_1.c ****     *     in RX ISR.
 551:.\Generated_Source\PSoC5/UART_1.c ****     *
 552:.\Generated_Source\PSoC5/UART_1.c ****     * Reentrant:
 553:.\Generated_Source\PSoC5/UART_1.c ****     *  No.
 554:.\Generated_Source\PSoC5/UART_1.c ****     *
 555:.\Generated_Source\PSoC5/UART_1.c ****     *******************************************************************************/
 556:.\Generated_Source\PSoC5/UART_1.c ****     uint8 UART_1_GetChar(void) 
 557:.\Generated_Source\PSoC5/UART_1.c ****     {
 603              		.loc 1 557 0
 604              		.cfi_startproc
 605              		@ args = 0, pretend = 0, frame = 8
 606              		@ frame_needed = 1, uses_anonymous_args = 0
 607 0000 80B5     		push	{r7, lr}
 608              	.LCFI28:
 609              		.cfi_def_cfa_offset 8
 610              		.cfi_offset 7, -8
 611              		.cfi_offset 14, -4
 612 0002 82B0     		sub	sp, sp, #8
 613              	.LCFI29:
 614              		.cfi_def_cfa_offset 16
 615 0004 00AF     		add	r7, sp, #0
 616              	.LCFI30:
 617              		.cfi_def_cfa_register 7
 558:.\Generated_Source\PSoC5/UART_1.c ****         uint8 rxData = 0u;
 618              		.loc 1 558 0
 619 0006 4FF00003 		mov	r3, #0
 620 000a FB71     		strb	r3, [r7, #7]
 559:.\Generated_Source\PSoC5/UART_1.c ****         uint8 rxStatus;
 560:.\Generated_Source\PSoC5/UART_1.c **** 
 561:.\Generated_Source\PSoC5/UART_1.c ****         #if(UART_1_RXBUFFERSIZE > UART_1_FIFO_LENGTH)
 562:.\Generated_Source\PSoC5/UART_1.c ****             uint8 loc_rxBufferRead;
 563:.\Generated_Source\PSoC5/UART_1.c ****             uint8 loc_rxBufferWrite;
 564:.\Generated_Source\PSoC5/UART_1.c ****             /* Protect variables that could change on interrupt. */
 565:.\Generated_Source\PSoC5/UART_1.c ****             /* Disable Rx interrupt. */
 566:.\Generated_Source\PSoC5/UART_1.c ****             #if(UART_1_RX_INTERRUPT_ENABLED)
 567:.\Generated_Source\PSoC5/UART_1.c ****                 UART_1_DisableRxInt();
 621              		.loc 1 567 0
 622 000c FFF7FEFF 		bl	UART_1_DisableRxInt
 568:.\Generated_Source\PSoC5/UART_1.c ****             #endif /* UART_1_RX_INTERRUPT_ENABLED */
 569:.\Generated_Source\PSoC5/UART_1.c ****             loc_rxBufferRead = UART_1_rxBufferRead;
 623              		.loc 1 569 0
 624 0010 40F20003 		movw	r3, #:lower16:UART_1_rxBufferRead
 625 0014 C0F20003 		movt	r3, #:upper16:UART_1_rxBufferRead
 626 0018 1B78     		ldrb	r3, [r3, #0]
 627 001a BB71     		strb	r3, [r7, #6]
ARM GAS  C:\Users\devdev\AppData\Local\Temp\ccu4icWL.s 			page 22


 570:.\Generated_Source\PSoC5/UART_1.c ****             loc_rxBufferWrite = UART_1_rxBufferWrite;
 628              		.loc 1 570 0
 629 001c 40F20003 		movw	r3, #:lower16:UART_1_rxBufferWrite
 630 0020 C0F20003 		movt	r3, #:upper16:UART_1_rxBufferWrite
 631 0024 1B78     		ldrb	r3, [r3, #0]
 632 0026 7B71     		strb	r3, [r7, #5]
 571:.\Generated_Source\PSoC5/UART_1.c **** 
 572:.\Generated_Source\PSoC5/UART_1.c ****             if( (UART_1_rxBufferLoopDetect != 0u) || (loc_rxBufferRead != loc_rxBufferWrite) )
 633              		.loc 1 572 0
 634 0028 40F20003 		movw	r3, #:lower16:UART_1_rxBufferLoopDetect
 635 002c C0F20003 		movt	r3, #:upper16:UART_1_rxBufferLoopDetect
 636 0030 1B78     		ldrb	r3, [r3, #0]
 637 0032 DBB2     		uxtb	r3, r3
 638 0034 002B     		cmp	r3, #0
 639 0036 03D1     		bne	.L23
 640              		.loc 1 572 0 is_stmt 0 discriminator 1
 641 0038 BA79     		ldrb	r2, [r7, #6]	@ zero_extendqisi2
 642 003a 7B79     		ldrb	r3, [r7, #5]	@ zero_extendqisi2
 643 003c 9A42     		cmp	r2, r3
 644 003e 34D0     		beq	.L24
 645              	.L23:
 573:.\Generated_Source\PSoC5/UART_1.c ****             {
 574:.\Generated_Source\PSoC5/UART_1.c ****                 rxData = UART_1_rxBuffer[loc_rxBufferRead];
 646              		.loc 1 574 0 is_stmt 1
 647 0040 BA79     		ldrb	r2, [r7, #6]	@ zero_extendqisi2
 648 0042 40F20003 		movw	r3, #:lower16:UART_1_rxBuffer
 649 0046 C0F20003 		movt	r3, #:upper16:UART_1_rxBuffer
 650 004a 9B5C     		ldrb	r3, [r3, r2]
 651 004c FB71     		strb	r3, [r7, #7]
 575:.\Generated_Source\PSoC5/UART_1.c ****                 loc_rxBufferRead++;
 652              		.loc 1 575 0
 653 004e BB79     		ldrb	r3, [r7, #6]
 654 0050 03F10103 		add	r3, r3, #1
 655 0054 BB71     		strb	r3, [r7, #6]
 576:.\Generated_Source\PSoC5/UART_1.c ****                 if(loc_rxBufferRead >= UART_1_RXBUFFERSIZE)
 656              		.loc 1 576 0
 657 0056 BB79     		ldrb	r3, [r7, #6]	@ zero_extendqisi2
 658 0058 0F2B     		cmp	r3, #15
 659 005a 02D9     		bls	.L25
 577:.\Generated_Source\PSoC5/UART_1.c ****                 {
 578:.\Generated_Source\PSoC5/UART_1.c ****                     loc_rxBufferRead = 0u;
 660              		.loc 1 578 0
 661 005c 4FF00003 		mov	r3, #0
 662 0060 BB71     		strb	r3, [r7, #6]
 663              	.L25:
 579:.\Generated_Source\PSoC5/UART_1.c ****                 }
 580:.\Generated_Source\PSoC5/UART_1.c ****                 /* Update the real pointer */
 581:.\Generated_Source\PSoC5/UART_1.c ****                 UART_1_rxBufferRead = loc_rxBufferRead;
 664              		.loc 1 581 0
 665 0062 40F20003 		movw	r3, #:lower16:UART_1_rxBufferRead
 666 0066 C0F20003 		movt	r3, #:upper16:UART_1_rxBufferRead
 667 006a BA79     		ldrb	r2, [r7, #6]
 668 006c 1A70     		strb	r2, [r3, #0]
 582:.\Generated_Source\PSoC5/UART_1.c **** 
 583:.\Generated_Source\PSoC5/UART_1.c ****                 if(UART_1_rxBufferLoopDetect > 0u )
 669              		.loc 1 583 0
 670 006e 40F20003 		movw	r3, #:lower16:UART_1_rxBufferLoopDetect
ARM GAS  C:\Users\devdev\AppData\Local\Temp\ccu4icWL.s 			page 23


 671 0072 C0F20003 		movt	r3, #:upper16:UART_1_rxBufferLoopDetect
 672 0076 1B78     		ldrb	r3, [r3, #0]
 673 0078 DBB2     		uxtb	r3, r3
 674 007a 002B     		cmp	r3, #0
 675 007c 2ED0     		beq	.L27
 584:.\Generated_Source\PSoC5/UART_1.c ****                 {
 585:.\Generated_Source\PSoC5/UART_1.c ****                     UART_1_rxBufferLoopDetect = 0u;
 676              		.loc 1 585 0
 677 007e 40F20003 		movw	r3, #:lower16:UART_1_rxBufferLoopDetect
 678 0082 C0F20003 		movt	r3, #:upper16:UART_1_rxBufferLoopDetect
 679 0086 4FF00002 		mov	r2, #0
 680 008a 1A70     		strb	r2, [r3, #0]
 586:.\Generated_Source\PSoC5/UART_1.c ****                     #if( (UART_1_RX_INTERRUPT_ENABLED) && (UART_1_FLOW_CONTROL != 0u) )
 587:.\Generated_Source\PSoC5/UART_1.c ****                         /* When Hardware Flow Control selected - return RX mask */
 588:.\Generated_Source\PSoC5/UART_1.c ****                         #if( UART_1_HD_ENABLED )
 589:.\Generated_Source\PSoC5/UART_1.c ****                             if((UART_1_CONTROL_REG & UART_1_CTRL_HD_SEND) == 0u)
 590:.\Generated_Source\PSoC5/UART_1.c ****                             {   /* In Half duplex mode return RX mask only if
 591:.\Generated_Source\PSoC5/UART_1.c ****                                 *  RX configuration set, otherwise
 592:.\Generated_Source\PSoC5/UART_1.c ****                                 *  mask will be returned in LoadRxConfig() API.
 593:.\Generated_Source\PSoC5/UART_1.c ****                                 */
 594:.\Generated_Source\PSoC5/UART_1.c ****                                 UART_1_RXSTATUS_MASK_REG  |= UART_1_RX_STS_FIFO_NOTEMPTY;
 595:.\Generated_Source\PSoC5/UART_1.c ****                             }
 596:.\Generated_Source\PSoC5/UART_1.c ****                         #else
 597:.\Generated_Source\PSoC5/UART_1.c ****                             UART_1_RXSTATUS_MASK_REG  |= UART_1_RX_STS_FIFO_NOTEMPTY;
 681              		.loc 1 597 0
 682 008c 46F28143 		movw	r3, #25729
 683 0090 C4F20003 		movt	r3, 16384
 684 0094 46F28142 		movw	r2, #25729
 685 0098 C4F20002 		movt	r2, 16384
 686 009c 1278     		ldrb	r2, [r2, #0]
 687 009e D2B2     		uxtb	r2, r2
 688 00a0 42F02002 		orr	r2, r2, #32
 689 00a4 D2B2     		uxtb	r2, r2
 690 00a6 1A70     		strb	r2, [r3, #0]
 583:.\Generated_Source\PSoC5/UART_1.c ****                 if(UART_1_rxBufferLoopDetect > 0u )
 691              		.loc 1 583 0
 692 00a8 18E0     		b	.L27
 693              	.L24:
 598:.\Generated_Source\PSoC5/UART_1.c ****                         #endif /* end UART_1_HD_ENABLED */
 599:.\Generated_Source\PSoC5/UART_1.c ****                     #endif /* UART_1_RX_INTERRUPT_ENABLED and Hardware flow control*/
 600:.\Generated_Source\PSoC5/UART_1.c ****                 }
 601:.\Generated_Source\PSoC5/UART_1.c **** 
 602:.\Generated_Source\PSoC5/UART_1.c ****             }
 603:.\Generated_Source\PSoC5/UART_1.c ****             else
 604:.\Generated_Source\PSoC5/UART_1.c ****             {   rxStatus = UART_1_RXSTATUS_REG;
 694              		.loc 1 604 0
 695 00aa 46F26143 		movw	r3, #25697
 696 00ae C4F20003 		movt	r3, 16384
 697 00b2 1B78     		ldrb	r3, [r3, #0]
 698 00b4 3B71     		strb	r3, [r7, #4]
 605:.\Generated_Source\PSoC5/UART_1.c ****                 if((rxStatus & UART_1_RX_STS_FIFO_NOTEMPTY) != 0u)
 699              		.loc 1 605 0
 700 00b6 3B79     		ldrb	r3, [r7, #4]	@ zero_extendqisi2
 701 00b8 03F02003 		and	r3, r3, #32
 702 00bc 002B     		cmp	r3, #0
 703 00be 0DD0     		beq	.L27
 606:.\Generated_Source\PSoC5/UART_1.c ****                 {   /* Read received data from FIFO*/
ARM GAS  C:\Users\devdev\AppData\Local\Temp\ccu4icWL.s 			page 24


 607:.\Generated_Source\PSoC5/UART_1.c ****                     rxData = UART_1_RXDATA_REG;
 704              		.loc 1 607 0
 705 00c0 46F24F43 		movw	r3, #25679
 706 00c4 C4F20003 		movt	r3, 16384
 707 00c8 1B78     		ldrb	r3, [r3, #0]
 708 00ca FB71     		strb	r3, [r7, #7]
 608:.\Generated_Source\PSoC5/UART_1.c ****                     /*Check status on error*/
 609:.\Generated_Source\PSoC5/UART_1.c ****                     if((rxStatus & (UART_1_RX_STS_BREAK | UART_1_RX_STS_PAR_ERROR |
 610:.\Generated_Source\PSoC5/UART_1.c ****                                    UART_1_RX_STS_STOP_ERROR | UART_1_RX_STS_OVERRUN)) != 0u)
 709              		.loc 1 610 0
 710 00cc 3B79     		ldrb	r3, [r7, #4]	@ zero_extendqisi2
 711 00ce 03F01E03 		and	r3, r3, #30
 609:.\Generated_Source\PSoC5/UART_1.c ****                     if((rxStatus & (UART_1_RX_STS_BREAK | UART_1_RX_STS_PAR_ERROR |
 712              		.loc 1 609 0
 713 00d2 002B     		cmp	r3, #0
 714 00d4 02D0     		beq	.L27
 611:.\Generated_Source\PSoC5/UART_1.c ****                     {
 612:.\Generated_Source\PSoC5/UART_1.c ****                         rxData = 0u;
 715              		.loc 1 612 0
 716 00d6 4FF00003 		mov	r3, #0
 717 00da FB71     		strb	r3, [r7, #7]
 718              	.L27:
 613:.\Generated_Source\PSoC5/UART_1.c ****                     }
 614:.\Generated_Source\PSoC5/UART_1.c ****                 }
 615:.\Generated_Source\PSoC5/UART_1.c ****             }
 616:.\Generated_Source\PSoC5/UART_1.c **** 
 617:.\Generated_Source\PSoC5/UART_1.c ****             /* Enable Rx interrupt. */
 618:.\Generated_Source\PSoC5/UART_1.c ****             #if(UART_1_RX_INTERRUPT_ENABLED)
 619:.\Generated_Source\PSoC5/UART_1.c ****                 UART_1_EnableRxInt();
 719              		.loc 1 619 0
 720 00dc FFF7FEFF 		bl	UART_1_EnableRxInt
 620:.\Generated_Source\PSoC5/UART_1.c ****             #endif /* UART_1_RX_INTERRUPT_ENABLED */
 621:.\Generated_Source\PSoC5/UART_1.c **** 
 622:.\Generated_Source\PSoC5/UART_1.c ****         #else /* UART_1_RXBUFFERSIZE > UART_1_FIFO_LENGTH */
 623:.\Generated_Source\PSoC5/UART_1.c **** 
 624:.\Generated_Source\PSoC5/UART_1.c ****             rxStatus =UART_1_RXSTATUS_REG;
 625:.\Generated_Source\PSoC5/UART_1.c ****             if((rxStatus & UART_1_RX_STS_FIFO_NOTEMPTY) != 0u)
 626:.\Generated_Source\PSoC5/UART_1.c ****             {   /* Read received data from FIFO*/
 627:.\Generated_Source\PSoC5/UART_1.c ****                 rxData = UART_1_RXDATA_REG;
 628:.\Generated_Source\PSoC5/UART_1.c ****                 /*Check status on error*/
 629:.\Generated_Source\PSoC5/UART_1.c ****                 if((rxStatus & (UART_1_RX_STS_BREAK | UART_1_RX_STS_PAR_ERROR |
 630:.\Generated_Source\PSoC5/UART_1.c ****                                UART_1_RX_STS_STOP_ERROR | UART_1_RX_STS_OVERRUN)) != 0u)
 631:.\Generated_Source\PSoC5/UART_1.c ****                 {
 632:.\Generated_Source\PSoC5/UART_1.c ****                     rxData = 0u;
 633:.\Generated_Source\PSoC5/UART_1.c ****                 }
 634:.\Generated_Source\PSoC5/UART_1.c ****             }
 635:.\Generated_Source\PSoC5/UART_1.c ****         #endif /* UART_1_RXBUFFERSIZE > UART_1_FIFO_LENGTH */
 636:.\Generated_Source\PSoC5/UART_1.c **** 
 637:.\Generated_Source\PSoC5/UART_1.c ****         return(rxData);
 721              		.loc 1 637 0
 722 00e0 FB79     		ldrb	r3, [r7, #7]	@ zero_extendqisi2
 638:.\Generated_Source\PSoC5/UART_1.c ****     }
 723              		.loc 1 638 0
 724 00e2 1846     		mov	r0, r3
 725 00e4 07F10807 		add	r7, r7, #8
 726 00e8 BD46     		mov	sp, r7
 727 00ea 80BD     		pop	{r7, pc}
ARM GAS  C:\Users\devdev\AppData\Local\Temp\ccu4icWL.s 			page 25


 728              		.cfi_endproc
 729              	.LFE11:
 730              		.size	UART_1_GetChar, .-UART_1_GetChar
 731              		.section	.text.UART_1_GetByte,"ax",%progbits
 732              		.align	2
 733              		.global	UART_1_GetByte
 734              		.thumb
 735              		.thumb_func
 736              		.type	UART_1_GetByte, %function
 737              	UART_1_GetByte:
 738              	.LFB12:
 639:.\Generated_Source\PSoC5/UART_1.c **** 
 640:.\Generated_Source\PSoC5/UART_1.c **** 
 641:.\Generated_Source\PSoC5/UART_1.c ****     /*******************************************************************************
 642:.\Generated_Source\PSoC5/UART_1.c ****     * Function Name: UART_1_GetByte
 643:.\Generated_Source\PSoC5/UART_1.c ****     ********************************************************************************
 644:.\Generated_Source\PSoC5/UART_1.c ****     *
 645:.\Generated_Source\PSoC5/UART_1.c ****     * Summary:
 646:.\Generated_Source\PSoC5/UART_1.c ****     *  Grab the next available byte of data from the recieve FIFO
 647:.\Generated_Source\PSoC5/UART_1.c ****     *
 648:.\Generated_Source\PSoC5/UART_1.c ****     * Parameters:
 649:.\Generated_Source\PSoC5/UART_1.c ****     *  None.
 650:.\Generated_Source\PSoC5/UART_1.c ****     *
 651:.\Generated_Source\PSoC5/UART_1.c ****     * Return:
 652:.\Generated_Source\PSoC5/UART_1.c ****     *  MSB contains Status Register and LSB contains UART RX data
 653:.\Generated_Source\PSoC5/UART_1.c ****     *
 654:.\Generated_Source\PSoC5/UART_1.c ****     * Reentrant:
 655:.\Generated_Source\PSoC5/UART_1.c ****     *  No.
 656:.\Generated_Source\PSoC5/UART_1.c ****     *
 657:.\Generated_Source\PSoC5/UART_1.c ****     *******************************************************************************/
 658:.\Generated_Source\PSoC5/UART_1.c ****     uint16 UART_1_GetByte(void) 
 659:.\Generated_Source\PSoC5/UART_1.c ****     {
 739              		.loc 1 659 0
 740              		.cfi_startproc
 741              		@ args = 0, pretend = 0, frame = 0
 742              		@ frame_needed = 1, uses_anonymous_args = 0
 743 0000 98B5     		push	{r3, r4, r7, lr}
 744              	.LCFI31:
 745              		.cfi_def_cfa_offset 16
 746              		.cfi_offset 3, -16
 747              		.cfi_offset 4, -12
 748              		.cfi_offset 7, -8
 749              		.cfi_offset 14, -4
 750 0002 00AF     		add	r7, sp, #0
 751              	.LCFI32:
 752              		.cfi_def_cfa_register 7
 660:.\Generated_Source\PSoC5/UART_1.c ****         return ( ((uint16)UART_1_ReadRxStatus() << 8u) | UART_1_ReadRxData() );
 753              		.loc 1 660 0
 754 0004 FFF7FEFF 		bl	UART_1_ReadRxStatus
 755 0008 0346     		mov	r3, r0
 756 000a 4FEA0323 		lsl	r3, r3, #8
 757 000e 9CB2     		uxth	r4, r3
 758 0010 FFF7FEFF 		bl	UART_1_ReadRxData
 759 0014 0346     		mov	r3, r0
 760 0016 2246     		mov	r2, r4	@ movhi
 761 0018 1343     		orrs	r3, r3, r2
 762 001a 9BB2     		uxth	r3, r3
ARM GAS  C:\Users\devdev\AppData\Local\Temp\ccu4icWL.s 			page 26


 763 001c 9BB2     		uxth	r3, r3
 661:.\Generated_Source\PSoC5/UART_1.c ****     }
 764              		.loc 1 661 0
 765 001e 1846     		mov	r0, r3
 766 0020 98BD     		pop	{r3, r4, r7, pc}
 767              		.cfi_endproc
 768              	.LFE12:
 769              		.size	UART_1_GetByte, .-UART_1_GetByte
 770 0022 00BF     		.section	.text.UART_1_GetRxBufferSize,"ax",%progbits
 771              		.align	2
 772              		.global	UART_1_GetRxBufferSize
 773              		.thumb
 774              		.thumb_func
 775              		.type	UART_1_GetRxBufferSize, %function
 776              	UART_1_GetRxBufferSize:
 777              	.LFB13:
 662:.\Generated_Source\PSoC5/UART_1.c **** 
 663:.\Generated_Source\PSoC5/UART_1.c **** 
 664:.\Generated_Source\PSoC5/UART_1.c ****     /*******************************************************************************
 665:.\Generated_Source\PSoC5/UART_1.c ****     * Function Name: UART_1_GetRxBufferSize
 666:.\Generated_Source\PSoC5/UART_1.c ****     ********************************************************************************
 667:.\Generated_Source\PSoC5/UART_1.c ****     *
 668:.\Generated_Source\PSoC5/UART_1.c ****     * Summary:
 669:.\Generated_Source\PSoC5/UART_1.c ****     *  Determine the amount of bytes left in the RX buffer and return the count in
 670:.\Generated_Source\PSoC5/UART_1.c ****     *  bytes
 671:.\Generated_Source\PSoC5/UART_1.c ****     *
 672:.\Generated_Source\PSoC5/UART_1.c ****     * Parameters:
 673:.\Generated_Source\PSoC5/UART_1.c ****     *  None.
 674:.\Generated_Source\PSoC5/UART_1.c ****     *
 675:.\Generated_Source\PSoC5/UART_1.c ****     * Return:
 676:.\Generated_Source\PSoC5/UART_1.c ****     *  uint8: Integer count of the number of bytes left
 677:.\Generated_Source\PSoC5/UART_1.c ****     *  in the RX buffer
 678:.\Generated_Source\PSoC5/UART_1.c ****     *
 679:.\Generated_Source\PSoC5/UART_1.c ****     * Global Variables:
 680:.\Generated_Source\PSoC5/UART_1.c ****     *  UART_1_rxBufferWrite - used to calculate left bytes.
 681:.\Generated_Source\PSoC5/UART_1.c ****     *  UART_1_rxBufferRead - used to calculate left bytes.
 682:.\Generated_Source\PSoC5/UART_1.c ****     *  UART_1_rxBufferLoopDetect - checked to decide left bytes amount.
 683:.\Generated_Source\PSoC5/UART_1.c ****     *
 684:.\Generated_Source\PSoC5/UART_1.c ****     * Reentrant:
 685:.\Generated_Source\PSoC5/UART_1.c ****     *  No.
 686:.\Generated_Source\PSoC5/UART_1.c ****     *
 687:.\Generated_Source\PSoC5/UART_1.c ****     * Theory:
 688:.\Generated_Source\PSoC5/UART_1.c ****     *  Allows the user to find out how full the RX Buffer is.
 689:.\Generated_Source\PSoC5/UART_1.c ****     *
 690:.\Generated_Source\PSoC5/UART_1.c ****     *******************************************************************************/
 691:.\Generated_Source\PSoC5/UART_1.c ****     uint8 UART_1_GetRxBufferSize(void)
 692:.\Generated_Source\PSoC5/UART_1.c ****                                                             
 693:.\Generated_Source\PSoC5/UART_1.c ****     {
 778              		.loc 1 693 0
 779              		.cfi_startproc
 780              		@ args = 0, pretend = 0, frame = 8
 781              		@ frame_needed = 1, uses_anonymous_args = 0
 782 0000 80B5     		push	{r7, lr}
 783              	.LCFI33:
 784              		.cfi_def_cfa_offset 8
 785              		.cfi_offset 7, -8
 786              		.cfi_offset 14, -4
ARM GAS  C:\Users\devdev\AppData\Local\Temp\ccu4icWL.s 			page 27


 787 0002 82B0     		sub	sp, sp, #8
 788              	.LCFI34:
 789              		.cfi_def_cfa_offset 16
 790 0004 00AF     		add	r7, sp, #0
 791              	.LCFI35:
 792              		.cfi_def_cfa_register 7
 694:.\Generated_Source\PSoC5/UART_1.c ****         uint8 size;
 695:.\Generated_Source\PSoC5/UART_1.c **** 
 696:.\Generated_Source\PSoC5/UART_1.c ****         #if(UART_1_RXBUFFERSIZE > UART_1_FIFO_LENGTH)
 697:.\Generated_Source\PSoC5/UART_1.c **** 
 698:.\Generated_Source\PSoC5/UART_1.c ****             /* Disable Rx interrupt. */
 699:.\Generated_Source\PSoC5/UART_1.c ****             /* Protect variables that could change on interrupt. */
 700:.\Generated_Source\PSoC5/UART_1.c ****             #if(UART_1_RX_INTERRUPT_ENABLED)
 701:.\Generated_Source\PSoC5/UART_1.c ****                 UART_1_DisableRxInt();
 793              		.loc 1 701 0
 794 0006 FFF7FEFF 		bl	UART_1_DisableRxInt
 702:.\Generated_Source\PSoC5/UART_1.c ****             #endif /* UART_1_RX_INTERRUPT_ENABLED */
 703:.\Generated_Source\PSoC5/UART_1.c **** 
 704:.\Generated_Source\PSoC5/UART_1.c ****             if(UART_1_rxBufferRead == UART_1_rxBufferWrite)
 795              		.loc 1 704 0
 796 000a 40F20003 		movw	r3, #:lower16:UART_1_rxBufferRead
 797 000e C0F20003 		movt	r3, #:upper16:UART_1_rxBufferRead
 798 0012 1B78     		ldrb	r3, [r3, #0]
 799 0014 DAB2     		uxtb	r2, r3
 800 0016 40F20003 		movw	r3, #:lower16:UART_1_rxBufferWrite
 801 001a C0F20003 		movt	r3, #:upper16:UART_1_rxBufferWrite
 802 001e 1B78     		ldrb	r3, [r3, #0]
 803 0020 DBB2     		uxtb	r3, r3
 804 0022 9A42     		cmp	r2, r3
 805 0024 0FD1     		bne	.L32
 705:.\Generated_Source\PSoC5/UART_1.c ****             {
 706:.\Generated_Source\PSoC5/UART_1.c ****                 if(UART_1_rxBufferLoopDetect > 0u)
 806              		.loc 1 706 0
 807 0026 40F20003 		movw	r3, #:lower16:UART_1_rxBufferLoopDetect
 808 002a C0F20003 		movt	r3, #:upper16:UART_1_rxBufferLoopDetect
 809 002e 1B78     		ldrb	r3, [r3, #0]
 810 0030 DBB2     		uxtb	r3, r3
 811 0032 002B     		cmp	r3, #0
 812 0034 03D0     		beq	.L33
 707:.\Generated_Source\PSoC5/UART_1.c ****                 {
 708:.\Generated_Source\PSoC5/UART_1.c ****                     size = UART_1_RXBUFFERSIZE;
 813              		.loc 1 708 0
 814 0036 4FF01003 		mov	r3, #16
 815 003a FB71     		strb	r3, [r7, #7]
 816 003c 31E0     		b	.L34
 817              	.L33:
 709:.\Generated_Source\PSoC5/UART_1.c ****                 }
 710:.\Generated_Source\PSoC5/UART_1.c ****                 else
 711:.\Generated_Source\PSoC5/UART_1.c ****                 {
 712:.\Generated_Source\PSoC5/UART_1.c ****                     size = 0u;
 818              		.loc 1 712 0
 819 003e 4FF00003 		mov	r3, #0
 820 0042 FB71     		strb	r3, [r7, #7]
 821 0044 2DE0     		b	.L34
 822              	.L32:
 713:.\Generated_Source\PSoC5/UART_1.c ****                 }
 714:.\Generated_Source\PSoC5/UART_1.c ****             }
ARM GAS  C:\Users\devdev\AppData\Local\Temp\ccu4icWL.s 			page 28


 715:.\Generated_Source\PSoC5/UART_1.c ****             else if(UART_1_rxBufferRead < UART_1_rxBufferWrite)
 823              		.loc 1 715 0
 824 0046 40F20003 		movw	r3, #:lower16:UART_1_rxBufferRead
 825 004a C0F20003 		movt	r3, #:upper16:UART_1_rxBufferRead
 826 004e 1B78     		ldrb	r3, [r3, #0]
 827 0050 DAB2     		uxtb	r2, r3
 828 0052 40F20003 		movw	r3, #:lower16:UART_1_rxBufferWrite
 829 0056 C0F20003 		movt	r3, #:upper16:UART_1_rxBufferWrite
 830 005a 1B78     		ldrb	r3, [r3, #0]
 831 005c DBB2     		uxtb	r3, r3
 832 005e 9A42     		cmp	r2, r3
 833 0060 0ED2     		bcs	.L35
 716:.\Generated_Source\PSoC5/UART_1.c ****             {
 717:.\Generated_Source\PSoC5/UART_1.c ****                 size = (UART_1_rxBufferWrite - UART_1_rxBufferRead);
 834              		.loc 1 717 0
 835 0062 40F20003 		movw	r3, #:lower16:UART_1_rxBufferWrite
 836 0066 C0F20003 		movt	r3, #:upper16:UART_1_rxBufferWrite
 837 006a 1B78     		ldrb	r3, [r3, #0]
 838 006c DAB2     		uxtb	r2, r3
 839 006e 40F20003 		movw	r3, #:lower16:UART_1_rxBufferRead
 840 0072 C0F20003 		movt	r3, #:upper16:UART_1_rxBufferRead
 841 0076 1B78     		ldrb	r3, [r3, #0]
 842 0078 DBB2     		uxtb	r3, r3
 843 007a D31A     		subs	r3, r2, r3
 844 007c FB71     		strb	r3, [r7, #7]
 845 007e 10E0     		b	.L34
 846              	.L35:
 718:.\Generated_Source\PSoC5/UART_1.c ****             }
 719:.\Generated_Source\PSoC5/UART_1.c ****             else
 720:.\Generated_Source\PSoC5/UART_1.c ****             {
 721:.\Generated_Source\PSoC5/UART_1.c ****                 size = (UART_1_RXBUFFERSIZE - UART_1_rxBufferRead) + UART_1_rxBufferWrite;
 847              		.loc 1 721 0
 848 0080 40F20003 		movw	r3, #:lower16:UART_1_rxBufferWrite
 849 0084 C0F20003 		movt	r3, #:upper16:UART_1_rxBufferWrite
 850 0088 1B78     		ldrb	r3, [r3, #0]
 851 008a DAB2     		uxtb	r2, r3
 852 008c 40F20003 		movw	r3, #:lower16:UART_1_rxBufferRead
 853 0090 C0F20003 		movt	r3, #:upper16:UART_1_rxBufferRead
 854 0094 1B78     		ldrb	r3, [r3, #0]
 855 0096 DBB2     		uxtb	r3, r3
 856 0098 D31A     		subs	r3, r2, r3
 857 009a DBB2     		uxtb	r3, r3
 858 009c 03F11003 		add	r3, r3, #16
 859 00a0 FB71     		strb	r3, [r7, #7]
 860              	.L34:
 722:.\Generated_Source\PSoC5/UART_1.c ****             }
 723:.\Generated_Source\PSoC5/UART_1.c **** 
 724:.\Generated_Source\PSoC5/UART_1.c ****             /* Enable Rx interrupt. */
 725:.\Generated_Source\PSoC5/UART_1.c ****             #if(UART_1_RX_INTERRUPT_ENABLED)
 726:.\Generated_Source\PSoC5/UART_1.c ****                 UART_1_EnableRxInt();
 861              		.loc 1 726 0
 862 00a2 FFF7FEFF 		bl	UART_1_EnableRxInt
 727:.\Generated_Source\PSoC5/UART_1.c ****             #endif /* End UART_1_RX_INTERRUPT_ENABLED */
 728:.\Generated_Source\PSoC5/UART_1.c **** 
 729:.\Generated_Source\PSoC5/UART_1.c ****         #else /* UART_1_RXBUFFERSIZE > UART_1_FIFO_LENGTH */
 730:.\Generated_Source\PSoC5/UART_1.c **** 
 731:.\Generated_Source\PSoC5/UART_1.c ****             /* We can only know if there is data in the fifo. */
ARM GAS  C:\Users\devdev\AppData\Local\Temp\ccu4icWL.s 			page 29


 732:.\Generated_Source\PSoC5/UART_1.c ****             size = ((UART_1_RXSTATUS_REG & UART_1_RX_STS_FIFO_NOTEMPTY) != 0u) ? 1u : 0u;
 733:.\Generated_Source\PSoC5/UART_1.c **** 
 734:.\Generated_Source\PSoC5/UART_1.c ****         #endif /* End UART_1_RXBUFFERSIZE > UART_1_FIFO_LENGTH */
 735:.\Generated_Source\PSoC5/UART_1.c **** 
 736:.\Generated_Source\PSoC5/UART_1.c ****         return(size);
 863              		.loc 1 736 0
 864 00a6 FB79     		ldrb	r3, [r7, #7]	@ zero_extendqisi2
 737:.\Generated_Source\PSoC5/UART_1.c ****     }
 865              		.loc 1 737 0
 866 00a8 1846     		mov	r0, r3
 867 00aa 07F10807 		add	r7, r7, #8
 868 00ae BD46     		mov	sp, r7
 869 00b0 80BD     		pop	{r7, pc}
 870              		.cfi_endproc
 871              	.LFE13:
 872              		.size	UART_1_GetRxBufferSize, .-UART_1_GetRxBufferSize
 873 00b2 00BF     		.section	.text.UART_1_ClearRxBuffer,"ax",%progbits
 874              		.align	2
 875              		.global	UART_1_ClearRxBuffer
 876              		.thumb
 877              		.thumb_func
 878              		.type	UART_1_ClearRxBuffer, %function
 879              	UART_1_ClearRxBuffer:
 880              	.LFB14:
 738:.\Generated_Source\PSoC5/UART_1.c **** 
 739:.\Generated_Source\PSoC5/UART_1.c **** 
 740:.\Generated_Source\PSoC5/UART_1.c ****     /*******************************************************************************
 741:.\Generated_Source\PSoC5/UART_1.c ****     * Function Name: UART_1_ClearRxBuffer
 742:.\Generated_Source\PSoC5/UART_1.c ****     ********************************************************************************
 743:.\Generated_Source\PSoC5/UART_1.c ****     *
 744:.\Generated_Source\PSoC5/UART_1.c ****     * Summary:
 745:.\Generated_Source\PSoC5/UART_1.c ****     *  Clears the RX RAM buffer by setting the read and write pointers both to zero.
 746:.\Generated_Source\PSoC5/UART_1.c ****     *  Clears hardware RX FIFO.
 747:.\Generated_Source\PSoC5/UART_1.c ****     *
 748:.\Generated_Source\PSoC5/UART_1.c ****     * Parameters:
 749:.\Generated_Source\PSoC5/UART_1.c ****     *  None.
 750:.\Generated_Source\PSoC5/UART_1.c ****     *
 751:.\Generated_Source\PSoC5/UART_1.c ****     * Return:
 752:.\Generated_Source\PSoC5/UART_1.c ****     *  None.
 753:.\Generated_Source\PSoC5/UART_1.c ****     *
 754:.\Generated_Source\PSoC5/UART_1.c ****     * Global Variables:
 755:.\Generated_Source\PSoC5/UART_1.c ****     *  UART_1_rxBufferWrite - cleared to zero.
 756:.\Generated_Source\PSoC5/UART_1.c ****     *  UART_1_rxBufferRead - cleared to zero.
 757:.\Generated_Source\PSoC5/UART_1.c ****     *  UART_1_rxBufferLoopDetect - cleared to zero.
 758:.\Generated_Source\PSoC5/UART_1.c ****     *  UART_1_rxBufferOverflow - cleared to zero.
 759:.\Generated_Source\PSoC5/UART_1.c ****     *
 760:.\Generated_Source\PSoC5/UART_1.c ****     * Reentrant:
 761:.\Generated_Source\PSoC5/UART_1.c ****     *  No.
 762:.\Generated_Source\PSoC5/UART_1.c ****     *
 763:.\Generated_Source\PSoC5/UART_1.c ****     * Theory:
 764:.\Generated_Source\PSoC5/UART_1.c ****     *  Setting the pointers to zero makes the system believe there is no data to
 765:.\Generated_Source\PSoC5/UART_1.c ****     *  read and writing will resume at address 0 overwriting any data that may
 766:.\Generated_Source\PSoC5/UART_1.c ****     *  have remained in the RAM.
 767:.\Generated_Source\PSoC5/UART_1.c ****     *
 768:.\Generated_Source\PSoC5/UART_1.c ****     * Side Effects:
 769:.\Generated_Source\PSoC5/UART_1.c ****     *  Any received data not read from the RAM or FIFO buffer will be lost.
 770:.\Generated_Source\PSoC5/UART_1.c ****     *******************************************************************************/
ARM GAS  C:\Users\devdev\AppData\Local\Temp\ccu4icWL.s 			page 30


 771:.\Generated_Source\PSoC5/UART_1.c ****     void UART_1_ClearRxBuffer(void) 
 772:.\Generated_Source\PSoC5/UART_1.c ****     {
 881              		.loc 1 772 0
 882              		.cfi_startproc
 883              		@ args = 0, pretend = 0, frame = 8
 884              		@ frame_needed = 1, uses_anonymous_args = 0
 885 0000 80B5     		push	{r7, lr}
 886              	.LCFI36:
 887              		.cfi_def_cfa_offset 8
 888              		.cfi_offset 7, -8
 889              		.cfi_offset 14, -4
 890 0002 82B0     		sub	sp, sp, #8
 891              	.LCFI37:
 892              		.cfi_def_cfa_offset 16
 893 0004 00AF     		add	r7, sp, #0
 894              	.LCFI38:
 895              		.cfi_def_cfa_register 7
 773:.\Generated_Source\PSoC5/UART_1.c ****         uint8 enableInterrupts;
 774:.\Generated_Source\PSoC5/UART_1.c **** 
 775:.\Generated_Source\PSoC5/UART_1.c ****         /* clear the HW FIFO */
 776:.\Generated_Source\PSoC5/UART_1.c ****         /* Enter critical section */
 777:.\Generated_Source\PSoC5/UART_1.c ****         enableInterrupts = CyEnterCriticalSection();
 896              		.loc 1 777 0
 897 0006 FFF7FEFF 		bl	CyEnterCriticalSection
 898 000a 0346     		mov	r3, r0
 899 000c FB71     		strb	r3, [r7, #7]
 778:.\Generated_Source\PSoC5/UART_1.c ****         UART_1_RXDATA_AUX_CTL_REG |=  UART_1_RX_FIFO_CLR;
 900              		.loc 1 778 0
 901 000e 46F29F43 		movw	r3, #25759
 902 0012 C4F20003 		movt	r3, 16384
 903 0016 46F29F42 		movw	r2, #25759
 904 001a C4F20002 		movt	r2, 16384
 905 001e 1278     		ldrb	r2, [r2, #0]
 906 0020 D2B2     		uxtb	r2, r2
 907 0022 42F00102 		orr	r2, r2, #1
 908 0026 D2B2     		uxtb	r2, r2
 909 0028 1A70     		strb	r2, [r3, #0]
 779:.\Generated_Source\PSoC5/UART_1.c ****         UART_1_RXDATA_AUX_CTL_REG &= (uint8)~UART_1_RX_FIFO_CLR;
 910              		.loc 1 779 0
 911 002a 46F29F43 		movw	r3, #25759
 912 002e C4F20003 		movt	r3, 16384
 913 0032 46F29F42 		movw	r2, #25759
 914 0036 C4F20002 		movt	r2, 16384
 915 003a 1278     		ldrb	r2, [r2, #0]
 916 003c D2B2     		uxtb	r2, r2
 917 003e 22F00102 		bic	r2, r2, #1
 918 0042 D2B2     		uxtb	r2, r2
 919 0044 1A70     		strb	r2, [r3, #0]
 780:.\Generated_Source\PSoC5/UART_1.c ****         /* Exit critical section */
 781:.\Generated_Source\PSoC5/UART_1.c ****         CyExitCriticalSection(enableInterrupts);
 920              		.loc 1 781 0
 921 0046 FB79     		ldrb	r3, [r7, #7]	@ zero_extendqisi2
 922 0048 1846     		mov	r0, r3
 923 004a FFF7FEFF 		bl	CyExitCriticalSection
 782:.\Generated_Source\PSoC5/UART_1.c **** 
 783:.\Generated_Source\PSoC5/UART_1.c ****         #if(UART_1_RXBUFFERSIZE > UART_1_FIFO_LENGTH)
 784:.\Generated_Source\PSoC5/UART_1.c ****             /* Disable Rx interrupt. */
ARM GAS  C:\Users\devdev\AppData\Local\Temp\ccu4icWL.s 			page 31


 785:.\Generated_Source\PSoC5/UART_1.c ****             /* Protect variables that could change on interrupt. */
 786:.\Generated_Source\PSoC5/UART_1.c ****             #if(UART_1_RX_INTERRUPT_ENABLED)
 787:.\Generated_Source\PSoC5/UART_1.c ****                 UART_1_DisableRxInt();
 924              		.loc 1 787 0
 925 004e FFF7FEFF 		bl	UART_1_DisableRxInt
 788:.\Generated_Source\PSoC5/UART_1.c ****             #endif /* End UART_1_RX_INTERRUPT_ENABLED */
 789:.\Generated_Source\PSoC5/UART_1.c **** 
 790:.\Generated_Source\PSoC5/UART_1.c ****             UART_1_rxBufferRead = 0u;
 926              		.loc 1 790 0
 927 0052 40F20003 		movw	r3, #:lower16:UART_1_rxBufferRead
 928 0056 C0F20003 		movt	r3, #:upper16:UART_1_rxBufferRead
 929 005a 4FF00002 		mov	r2, #0
 930 005e 1A70     		strb	r2, [r3, #0]
 791:.\Generated_Source\PSoC5/UART_1.c ****             UART_1_rxBufferWrite = 0u;
 931              		.loc 1 791 0
 932 0060 40F20003 		movw	r3, #:lower16:UART_1_rxBufferWrite
 933 0064 C0F20003 		movt	r3, #:upper16:UART_1_rxBufferWrite
 934 0068 4FF00002 		mov	r2, #0
 935 006c 1A70     		strb	r2, [r3, #0]
 792:.\Generated_Source\PSoC5/UART_1.c ****             UART_1_rxBufferLoopDetect = 0u;
 936              		.loc 1 792 0
 937 006e 40F20003 		movw	r3, #:lower16:UART_1_rxBufferLoopDetect
 938 0072 C0F20003 		movt	r3, #:upper16:UART_1_rxBufferLoopDetect
 939 0076 4FF00002 		mov	r2, #0
 940 007a 1A70     		strb	r2, [r3, #0]
 793:.\Generated_Source\PSoC5/UART_1.c ****             UART_1_rxBufferOverflow = 0u;
 941              		.loc 1 793 0
 942 007c 40F20003 		movw	r3, #:lower16:UART_1_rxBufferOverflow
 943 0080 C0F20003 		movt	r3, #:upper16:UART_1_rxBufferOverflow
 944 0084 4FF00002 		mov	r2, #0
 945 0088 1A70     		strb	r2, [r3, #0]
 794:.\Generated_Source\PSoC5/UART_1.c **** 
 795:.\Generated_Source\PSoC5/UART_1.c ****             /* Enable Rx interrupt. */
 796:.\Generated_Source\PSoC5/UART_1.c ****             #if(UART_1_RX_INTERRUPT_ENABLED)
 797:.\Generated_Source\PSoC5/UART_1.c ****                 UART_1_EnableRxInt();
 946              		.loc 1 797 0
 947 008a FFF7FEFF 		bl	UART_1_EnableRxInt
 798:.\Generated_Source\PSoC5/UART_1.c ****             #endif /* End UART_1_RX_INTERRUPT_ENABLED */
 799:.\Generated_Source\PSoC5/UART_1.c ****         #endif /* End UART_1_RXBUFFERSIZE > UART_1_FIFO_LENGTH */
 800:.\Generated_Source\PSoC5/UART_1.c **** 
 801:.\Generated_Source\PSoC5/UART_1.c ****     }
 948              		.loc 1 801 0
 949 008e 07F10807 		add	r7, r7, #8
 950 0092 BD46     		mov	sp, r7
 951 0094 80BD     		pop	{r7, pc}
 952              		.cfi_endproc
 953              	.LFE14:
 954              		.size	UART_1_ClearRxBuffer, .-UART_1_ClearRxBuffer
 955 0096 00BF     		.section	.text.UART_1_SetRxAddressMode,"ax",%progbits
 956              		.align	2
 957              		.global	UART_1_SetRxAddressMode
 958              		.thumb
 959              		.thumb_func
 960              		.type	UART_1_SetRxAddressMode, %function
 961              	UART_1_SetRxAddressMode:
 962              	.LFB15:
 802:.\Generated_Source\PSoC5/UART_1.c **** 
ARM GAS  C:\Users\devdev\AppData\Local\Temp\ccu4icWL.s 			page 32


 803:.\Generated_Source\PSoC5/UART_1.c **** 
 804:.\Generated_Source\PSoC5/UART_1.c ****     /*******************************************************************************
 805:.\Generated_Source\PSoC5/UART_1.c ****     * Function Name: UART_1_SetRxAddressMode
 806:.\Generated_Source\PSoC5/UART_1.c ****     ********************************************************************************
 807:.\Generated_Source\PSoC5/UART_1.c ****     *
 808:.\Generated_Source\PSoC5/UART_1.c ****     * Summary:
 809:.\Generated_Source\PSoC5/UART_1.c ****     *  Set the receive addressing mode
 810:.\Generated_Source\PSoC5/UART_1.c ****     *
 811:.\Generated_Source\PSoC5/UART_1.c ****     * Parameters:
 812:.\Generated_Source\PSoC5/UART_1.c ****     *  addressMode: Enumerated value indicating the mode of RX addressing
 813:.\Generated_Source\PSoC5/UART_1.c ****     *  UART_1__B_UART__AM_SW_BYTE_BYTE -  Software Byte-by-Byte address
 814:.\Generated_Source\PSoC5/UART_1.c ****     *                                               detection
 815:.\Generated_Source\PSoC5/UART_1.c ****     *  UART_1__B_UART__AM_SW_DETECT_TO_BUFFER - Software Detect to Buffer
 816:.\Generated_Source\PSoC5/UART_1.c ****     *                                               address detection
 817:.\Generated_Source\PSoC5/UART_1.c ****     *  UART_1__B_UART__AM_HW_BYTE_BY_BYTE - Hardware Byte-by-Byte address
 818:.\Generated_Source\PSoC5/UART_1.c ****     *                                               detection
 819:.\Generated_Source\PSoC5/UART_1.c ****     *  UART_1__B_UART__AM_HW_DETECT_TO_BUFFER - Hardware Detect to Buffer
 820:.\Generated_Source\PSoC5/UART_1.c ****     *                                               address detection
 821:.\Generated_Source\PSoC5/UART_1.c ****     *  UART_1__B_UART__AM_NONE - No address detection
 822:.\Generated_Source\PSoC5/UART_1.c ****     *
 823:.\Generated_Source\PSoC5/UART_1.c ****     * Return:
 824:.\Generated_Source\PSoC5/UART_1.c ****     *  None.
 825:.\Generated_Source\PSoC5/UART_1.c ****     *
 826:.\Generated_Source\PSoC5/UART_1.c ****     * Global Variables:
 827:.\Generated_Source\PSoC5/UART_1.c ****     *  UART_1_rxAddressMode - the parameter stored in this variable for
 828:.\Generated_Source\PSoC5/UART_1.c ****     *   the farther usage in RX ISR.
 829:.\Generated_Source\PSoC5/UART_1.c ****     *  UART_1_rxAddressDetected - set to initial state (0).
 830:.\Generated_Source\PSoC5/UART_1.c ****     *
 831:.\Generated_Source\PSoC5/UART_1.c ****     *******************************************************************************/
 832:.\Generated_Source\PSoC5/UART_1.c ****     void UART_1_SetRxAddressMode(uint8 addressMode)
 833:.\Generated_Source\PSoC5/UART_1.c ****                                                         
 834:.\Generated_Source\PSoC5/UART_1.c ****     {
 963              		.loc 1 834 0
 964              		.cfi_startproc
 965              		@ args = 0, pretend = 0, frame = 8
 966              		@ frame_needed = 1, uses_anonymous_args = 0
 967              		@ link register save eliminated.
 968 0000 80B4     		push	{r7}
 969              	.LCFI39:
 970              		.cfi_def_cfa_offset 4
 971              		.cfi_offset 7, -4
 972 0002 83B0     		sub	sp, sp, #12
 973              	.LCFI40:
 974              		.cfi_def_cfa_offset 16
 975 0004 00AF     		add	r7, sp, #0
 976              	.LCFI41:
 977              		.cfi_def_cfa_register 7
 978 0006 0346     		mov	r3, r0
 979 0008 FB71     		strb	r3, [r7, #7]
 835:.\Generated_Source\PSoC5/UART_1.c ****         #if(UART_1_RXHW_ADDRESS_ENABLED)
 836:.\Generated_Source\PSoC5/UART_1.c ****             #if(UART_1_CONTROL_REG_REMOVED)
 837:.\Generated_Source\PSoC5/UART_1.c ****                 if(addressMode != 0u) { }     /* release compiler warning */
 838:.\Generated_Source\PSoC5/UART_1.c ****             #else /* UART_1_CONTROL_REG_REMOVED */
 839:.\Generated_Source\PSoC5/UART_1.c ****                 uint8 tmpCtrl;
 840:.\Generated_Source\PSoC5/UART_1.c ****                 tmpCtrl = UART_1_CONTROL_REG & (uint8)~UART_1_CTRL_RXADDR_MODE_MASK;
 841:.\Generated_Source\PSoC5/UART_1.c ****                 tmpCtrl |= (uint8)(addressMode << UART_1_CTRL_RXADDR_MODE0_SHIFT);
 842:.\Generated_Source\PSoC5/UART_1.c ****                 UART_1_CONTROL_REG = tmpCtrl;
ARM GAS  C:\Users\devdev\AppData\Local\Temp\ccu4icWL.s 			page 33


 843:.\Generated_Source\PSoC5/UART_1.c ****                 #if(UART_1_RX_INTERRUPT_ENABLED && \
 844:.\Generated_Source\PSoC5/UART_1.c ****                    (UART_1_RXBUFFERSIZE > UART_1_FIFO_LENGTH) )
 845:.\Generated_Source\PSoC5/UART_1.c ****                     UART_1_rxAddressMode = addressMode;
 846:.\Generated_Source\PSoC5/UART_1.c ****                     UART_1_rxAddressDetected = 0u;
 847:.\Generated_Source\PSoC5/UART_1.c ****                 #endif /* End UART_1_RXBUFFERSIZE > UART_1_FIFO_LENGTH*/
 848:.\Generated_Source\PSoC5/UART_1.c ****             #endif /* End UART_1_CONTROL_REG_REMOVED */
 849:.\Generated_Source\PSoC5/UART_1.c ****         #else /* UART_1_RXHW_ADDRESS_ENABLED */
 850:.\Generated_Source\PSoC5/UART_1.c ****             if(addressMode != 0u) { }     /* release compiler warning */
 851:.\Generated_Source\PSoC5/UART_1.c ****         #endif /* End UART_1_RXHW_ADDRESS_ENABLED */
 852:.\Generated_Source\PSoC5/UART_1.c ****     }
 980              		.loc 1 852 0
 981 000a 07F10C07 		add	r7, r7, #12
 982 000e BD46     		mov	sp, r7
 983 0010 80BC     		pop	{r7}
 984 0012 7047     		bx	lr
 985              		.cfi_endproc
 986              	.LFE15:
 987              		.size	UART_1_SetRxAddressMode, .-UART_1_SetRxAddressMode
 988              		.section	.text.UART_1_SetRxAddress1,"ax",%progbits
 989              		.align	2
 990              		.global	UART_1_SetRxAddress1
 991              		.thumb
 992              		.thumb_func
 993              		.type	UART_1_SetRxAddress1, %function
 994              	UART_1_SetRxAddress1:
 995              	.LFB16:
 853:.\Generated_Source\PSoC5/UART_1.c **** 
 854:.\Generated_Source\PSoC5/UART_1.c **** 
 855:.\Generated_Source\PSoC5/UART_1.c ****     /*******************************************************************************
 856:.\Generated_Source\PSoC5/UART_1.c ****     * Function Name: UART_1_SetRxAddress1
 857:.\Generated_Source\PSoC5/UART_1.c ****     ********************************************************************************
 858:.\Generated_Source\PSoC5/UART_1.c ****     *
 859:.\Generated_Source\PSoC5/UART_1.c ****     * Summary:
 860:.\Generated_Source\PSoC5/UART_1.c ****     *  Set the first hardware address compare value
 861:.\Generated_Source\PSoC5/UART_1.c ****     *
 862:.\Generated_Source\PSoC5/UART_1.c ****     * Parameters:
 863:.\Generated_Source\PSoC5/UART_1.c ****     *  address
 864:.\Generated_Source\PSoC5/UART_1.c ****     *
 865:.\Generated_Source\PSoC5/UART_1.c ****     * Return:
 866:.\Generated_Source\PSoC5/UART_1.c ****     *  None.
 867:.\Generated_Source\PSoC5/UART_1.c ****     *
 868:.\Generated_Source\PSoC5/UART_1.c ****     *******************************************************************************/
 869:.\Generated_Source\PSoC5/UART_1.c ****     void UART_1_SetRxAddress1(uint8 address) 
 870:.\Generated_Source\PSoC5/UART_1.c **** 
 871:.\Generated_Source\PSoC5/UART_1.c ****     {
 996              		.loc 1 871 0
 997              		.cfi_startproc
 998              		@ args = 0, pretend = 0, frame = 8
 999              		@ frame_needed = 1, uses_anonymous_args = 0
 1000              		@ link register save eliminated.
 1001 0000 80B4     		push	{r7}
 1002              	.LCFI42:
 1003              		.cfi_def_cfa_offset 4
 1004              		.cfi_offset 7, -4
 1005 0002 83B0     		sub	sp, sp, #12
 1006              	.LCFI43:
 1007              		.cfi_def_cfa_offset 16
ARM GAS  C:\Users\devdev\AppData\Local\Temp\ccu4icWL.s 			page 34


 1008 0004 00AF     		add	r7, sp, #0
 1009              	.LCFI44:
 1010              		.cfi_def_cfa_register 7
 1011 0006 0346     		mov	r3, r0
 1012 0008 FB71     		strb	r3, [r7, #7]
 872:.\Generated_Source\PSoC5/UART_1.c ****         UART_1_RXADDRESS1_REG = address;
 1013              		.loc 1 872 0
 1014 000a 46F22F43 		movw	r3, #25647
 1015 000e C4F20003 		movt	r3, 16384
 1016 0012 FA79     		ldrb	r2, [r7, #7]
 1017 0014 1A70     		strb	r2, [r3, #0]
 873:.\Generated_Source\PSoC5/UART_1.c ****     }
 1018              		.loc 1 873 0
 1019 0016 07F10C07 		add	r7, r7, #12
 1020 001a BD46     		mov	sp, r7
 1021 001c 80BC     		pop	{r7}
 1022 001e 7047     		bx	lr
 1023              		.cfi_endproc
 1024              	.LFE16:
 1025              		.size	UART_1_SetRxAddress1, .-UART_1_SetRxAddress1
 1026              		.section	.text.UART_1_SetRxAddress2,"ax",%progbits
 1027              		.align	2
 1028              		.global	UART_1_SetRxAddress2
 1029              		.thumb
 1030              		.thumb_func
 1031              		.type	UART_1_SetRxAddress2, %function
 1032              	UART_1_SetRxAddress2:
 1033              	.LFB17:
 874:.\Generated_Source\PSoC5/UART_1.c **** 
 875:.\Generated_Source\PSoC5/UART_1.c **** 
 876:.\Generated_Source\PSoC5/UART_1.c ****     /*******************************************************************************
 877:.\Generated_Source\PSoC5/UART_1.c ****     * Function Name: UART_1_SetRxAddress2
 878:.\Generated_Source\PSoC5/UART_1.c ****     ********************************************************************************
 879:.\Generated_Source\PSoC5/UART_1.c ****     *
 880:.\Generated_Source\PSoC5/UART_1.c ****     * Summary:
 881:.\Generated_Source\PSoC5/UART_1.c ****     *  Set the second hardware address compare value
 882:.\Generated_Source\PSoC5/UART_1.c ****     *
 883:.\Generated_Source\PSoC5/UART_1.c ****     * Parameters:
 884:.\Generated_Source\PSoC5/UART_1.c ****     *  address
 885:.\Generated_Source\PSoC5/UART_1.c ****     *
 886:.\Generated_Source\PSoC5/UART_1.c ****     * Return:
 887:.\Generated_Source\PSoC5/UART_1.c ****     *  None.
 888:.\Generated_Source\PSoC5/UART_1.c ****     *
 889:.\Generated_Source\PSoC5/UART_1.c ****     *******************************************************************************/
 890:.\Generated_Source\PSoC5/UART_1.c ****     void UART_1_SetRxAddress2(uint8 address) 
 891:.\Generated_Source\PSoC5/UART_1.c ****     {
 1034              		.loc 1 891 0
 1035              		.cfi_startproc
 1036              		@ args = 0, pretend = 0, frame = 8
 1037              		@ frame_needed = 1, uses_anonymous_args = 0
 1038              		@ link register save eliminated.
 1039 0000 80B4     		push	{r7}
 1040              	.LCFI45:
 1041              		.cfi_def_cfa_offset 4
 1042              		.cfi_offset 7, -4
 1043 0002 83B0     		sub	sp, sp, #12
 1044              	.LCFI46:
ARM GAS  C:\Users\devdev\AppData\Local\Temp\ccu4icWL.s 			page 35


 1045              		.cfi_def_cfa_offset 16
 1046 0004 00AF     		add	r7, sp, #0
 1047              	.LCFI47:
 1048              		.cfi_def_cfa_register 7
 1049 0006 0346     		mov	r3, r0
 1050 0008 FB71     		strb	r3, [r7, #7]
 892:.\Generated_Source\PSoC5/UART_1.c ****         UART_1_RXADDRESS2_REG = address;
 1051              		.loc 1 892 0
 1052 000a 46F23F43 		movw	r3, #25663
 1053 000e C4F20003 		movt	r3, 16384
 1054 0012 FA79     		ldrb	r2, [r7, #7]
 1055 0014 1A70     		strb	r2, [r3, #0]
 893:.\Generated_Source\PSoC5/UART_1.c ****     }
 1056              		.loc 1 893 0
 1057 0016 07F10C07 		add	r7, r7, #12
 1058 001a BD46     		mov	sp, r7
 1059 001c 80BC     		pop	{r7}
 1060 001e 7047     		bx	lr
 1061              		.cfi_endproc
 1062              	.LFE17:
 1063              		.size	UART_1_SetRxAddress2, .-UART_1_SetRxAddress2
 1064              		.text
 1065              	.Letext0:
 1066              		.file 2 ".\\Generated_Source\\PSoC5\\cytypes.h"