ARM GAS  C:\Users\devdev\AppData\Local\Temp\ccu4icWL.s 			page 1


   1              		.syntax unified
   2              		.cpu cortex-m3
   3              		.fpu softvfp
   4              		.eabi_attribute 20, 1
   5              		.eabi_attribute 21, 1
   6              		.eabi_attribute 23, 3
   7              		.eabi_attribute 24, 1
   8              		.eabi_attribute 25, 1
   9              		.eabi_attribute 26, 1
  10              		.eabi_attribute 30, 6
  11              		.eabi_attribute 34, 1
  12              		.eabi_attribute 18, 4
  13              		.thumb
  14              		.file	"UART_1.c"
  15              		.text
  16              	.Ltext0:
  17              		.cfi_sections	.debug_frame
  18              		.global	UART_1_initVar
  19              		.bss
  20              		.type	UART_1_initVar, %object
  21              		.size	UART_1_initVar, 1
  22              	UART_1_initVar:
  23 0000 00       		.space	1
  24              		.comm	UART_1_rxBuffer,16,4
  25              		.global	UART_1_rxBufferRead
  26              		.type	UART_1_rxBufferRead, %object
  27              		.size	UART_1_rxBufferRead, 1
  28              	UART_1_rxBufferRead:
  29 0001 00       		.space	1
  30              		.global	UART_1_rxBufferWrite
  31              		.type	UART_1_rxBufferWrite, %object
  32              		.size	UART_1_rxBufferWrite, 1
  33              	UART_1_rxBufferWrite:
  34 0002 00       		.space	1
  35              		.global	UART_1_rxBufferLoopDetect
  36              		.type	UART_1_rxBufferLoopDetect, %object
  37              		.size	UART_1_rxBufferLoopDetect, 1
  38              	UART_1_rxBufferLoopDetect:
  39 0003 00       		.space	1
  40              		.global	UART_1_rxBufferOverflow
  41              		.type	UART_1_rxBufferOverflow, %object
  42              		.size	UART_1_rxBufferOverflow, 1
  43              	UART_1_rxBufferOverflow:
  44 0004 00       		.space	1
  45              		.section	.text.UART_1_Start,"ax",%progbits
  46              		.align	2
  47              		.global	UART_1_Start
  48              		.thumb
  49              		.thumb_func
  50              		.type	UART_1_Start, %function
  51              	UART_1_Start:
  52              	.LFB0:
  53              		.file 1 ".\\Generated_Source\\PSoC5\\UART_1.c"
   1:.\Generated_Source\PSoC5/UART_1.c **** /*******************************************************************************
   2:.\Generated_Source\PSoC5/UART_1.c **** * File Name: UART_1.c
   3:.\Generated_Source\PSoC5/UART_1.c **** * Version 2.30
   4:.\Generated_Source\PSoC5/UART_1.c **** *
ARM GAS  C:\Users\devdev\AppData\Local\Temp\ccu4icWL.s 			page 2


   5:.\Generated_Source\PSoC5/UART_1.c **** * Description:
   6:.\Generated_Source\PSoC5/UART_1.c **** *  This file provides all API functionality of the UART component
   7:.\Generated_Source\PSoC5/UART_1.c **** *
   8:.\Generated_Source\PSoC5/UART_1.c **** * Note:
   9:.\Generated_Source\PSoC5/UART_1.c **** *
  10:.\Generated_Source\PSoC5/UART_1.c **** ********************************************************************************
  11:.\Generated_Source\PSoC5/UART_1.c **** * Copyright 2008-2012, Cypress Semiconductor Corporation.  All rights reserved.
  12:.\Generated_Source\PSoC5/UART_1.c **** * You may use this file only in accordance with the license, terms, conditions,
  13:.\Generated_Source\PSoC5/UART_1.c **** * disclaimers, and limitations in the end user license agreement accompanying
  14:.\Generated_Source\PSoC5/UART_1.c **** * the software package with which this file was provided.
  15:.\Generated_Source\PSoC5/UART_1.c **** *******************************************************************************/
  16:.\Generated_Source\PSoC5/UART_1.c **** 
  17:.\Generated_Source\PSoC5/UART_1.c **** #include "UART_1.h"
  18:.\Generated_Source\PSoC5/UART_1.c **** #include "CyLib.h"
  19:.\Generated_Source\PSoC5/UART_1.c **** #if(UART_1_INTERNAL_CLOCK_USED)
  20:.\Generated_Source\PSoC5/UART_1.c ****     #include "UART_1_IntClock.h"
  21:.\Generated_Source\PSoC5/UART_1.c **** #endif /* End UART_1_INTERNAL_CLOCK_USED */
  22:.\Generated_Source\PSoC5/UART_1.c **** 
  23:.\Generated_Source\PSoC5/UART_1.c **** 
  24:.\Generated_Source\PSoC5/UART_1.c **** /***************************************
  25:.\Generated_Source\PSoC5/UART_1.c **** * Global data allocation
  26:.\Generated_Source\PSoC5/UART_1.c **** ***************************************/
  27:.\Generated_Source\PSoC5/UART_1.c **** 
  28:.\Generated_Source\PSoC5/UART_1.c **** uint8 UART_1_initVar = 0u;
  29:.\Generated_Source\PSoC5/UART_1.c **** #if( UART_1_TX_ENABLED && (UART_1_TXBUFFERSIZE > UART_1_FIFO_LENGTH))
  30:.\Generated_Source\PSoC5/UART_1.c ****     volatile uint8 UART_1_txBuffer[UART_1_TXBUFFERSIZE];
  31:.\Generated_Source\PSoC5/UART_1.c ****     volatile uint8 UART_1_txBufferRead = 0u;
  32:.\Generated_Source\PSoC5/UART_1.c ****     uint8 UART_1_txBufferWrite = 0u;
  33:.\Generated_Source\PSoC5/UART_1.c **** #endif /* End UART_1_TX_ENABLED */
  34:.\Generated_Source\PSoC5/UART_1.c **** #if( ( UART_1_RX_ENABLED || UART_1_HD_ENABLED ) && \
  35:.\Generated_Source\PSoC5/UART_1.c ****      (UART_1_RXBUFFERSIZE > UART_1_FIFO_LENGTH) )
  36:.\Generated_Source\PSoC5/UART_1.c ****     volatile uint8 UART_1_rxBuffer[UART_1_RXBUFFERSIZE];
  37:.\Generated_Source\PSoC5/UART_1.c ****     volatile uint8 UART_1_rxBufferRead = 0u;
  38:.\Generated_Source\PSoC5/UART_1.c ****     volatile uint8 UART_1_rxBufferWrite = 0u;
  39:.\Generated_Source\PSoC5/UART_1.c ****     volatile uint8 UART_1_rxBufferLoopDetect = 0u;
  40:.\Generated_Source\PSoC5/UART_1.c ****     volatile uint8 UART_1_rxBufferOverflow = 0u;
  41:.\Generated_Source\PSoC5/UART_1.c ****     #if (UART_1_RXHW_ADDRESS_ENABLED)
  42:.\Generated_Source\PSoC5/UART_1.c ****         volatile uint8 UART_1_rxAddressMode = UART_1_RXADDRESSMODE;
  43:.\Generated_Source\PSoC5/UART_1.c ****         volatile uint8 UART_1_rxAddressDetected = 0u;
  44:.\Generated_Source\PSoC5/UART_1.c ****     #endif /* End EnableHWAddress */
  45:.\Generated_Source\PSoC5/UART_1.c **** #endif /* End UART_1_RX_ENABLED */
  46:.\Generated_Source\PSoC5/UART_1.c **** 
  47:.\Generated_Source\PSoC5/UART_1.c **** 
  48:.\Generated_Source\PSoC5/UART_1.c **** /*******************************************************************************
  49:.\Generated_Source\PSoC5/UART_1.c **** * Function Name: UART_1_Start
  50:.\Generated_Source\PSoC5/UART_1.c **** ********************************************************************************
  51:.\Generated_Source\PSoC5/UART_1.c **** *
  52:.\Generated_Source\PSoC5/UART_1.c **** * Summary:
  53:.\Generated_Source\PSoC5/UART_1.c **** *  Initialize and Enable the UART component.
  54:.\Generated_Source\PSoC5/UART_1.c **** *  Enable the clock input to enable operation.
  55:.\Generated_Source\PSoC5/UART_1.c **** *
  56:.\Generated_Source\PSoC5/UART_1.c **** * Parameters:
  57:.\Generated_Source\PSoC5/UART_1.c **** *  None.
  58:.\Generated_Source\PSoC5/UART_1.c **** *
  59:.\Generated_Source\PSoC5/UART_1.c **** * Return:
  60:.\Generated_Source\PSoC5/UART_1.c **** *  None.
  61:.\Generated_Source\PSoC5/UART_1.c **** *
ARM GAS  C:\Users\devdev\AppData\Local\Temp\ccu4icWL.s 			page 3


  62:.\Generated_Source\PSoC5/UART_1.c **** * Global variables:
  63:.\Generated_Source\PSoC5/UART_1.c **** *  The UART_1_intiVar variable is used to indicate initial
  64:.\Generated_Source\PSoC5/UART_1.c **** *  configuration of this component. The variable is initialized to zero (0u)
  65:.\Generated_Source\PSoC5/UART_1.c **** *  and set to one (1u) the first time UART_Start() is called. This allows for
  66:.\Generated_Source\PSoC5/UART_1.c **** *  component initialization without re-initialization in all subsequent calls
  67:.\Generated_Source\PSoC5/UART_1.c **** *  to the UART_1_Start() routine.
  68:.\Generated_Source\PSoC5/UART_1.c **** *
  69:.\Generated_Source\PSoC5/UART_1.c **** * Reentrant:
  70:.\Generated_Source\PSoC5/UART_1.c **** *  No.
  71:.\Generated_Source\PSoC5/UART_1.c **** *
  72:.\Generated_Source\PSoC5/UART_1.c **** *******************************************************************************/
  73:.\Generated_Source\PSoC5/UART_1.c **** void UART_1_Start(void) 
  74:.\Generated_Source\PSoC5/UART_1.c **** {
  54              		.loc 1 74 0
  55              		.cfi_startproc
  56              		@ args = 0, pretend = 0, frame = 0
  57              		@ frame_needed = 1, uses_anonymous_args = 0
  58 0000 80B5     		push	{r7, lr}
  59              	.LCFI0:
  60              		.cfi_def_cfa_offset 8
  61              		.cfi_offset 7, -8
  62              		.cfi_offset 14, -4
  63 0002 00AF     		add	r7, sp, #0
  64              	.LCFI1:
  65              		.cfi_def_cfa_register 7
  75:.\Generated_Source\PSoC5/UART_1.c ****     /* If not Initialized then initialize all required hardware and software */
  76:.\Generated_Source\PSoC5/UART_1.c ****     if(UART_1_initVar == 0u)
  66              		.loc 1 76 0
  67 0004 40F20003 		movw	r3, #:lower16:UART_1_initVar
  68 0008 C0F20003 		movt	r3, #:upper16:UART_1_initVar
  69 000c 1B78     		ldrb	r3, [r3, #0]	@ zero_extendqisi2
  70 000e 002B     		cmp	r3, #0
  71 0010 08D1     		bne	.L2
  77:.\Generated_Source\PSoC5/UART_1.c ****     {
  78:.\Generated_Source\PSoC5/UART_1.c ****         UART_1_Init();
  72              		.loc 1 78 0
  73 0012 FFF7FEFF 		bl	UART_1_Init
  79:.\Generated_Source\PSoC5/UART_1.c ****         UART_1_initVar = 1u;
  74              		.loc 1 79 0
  75 0016 40F20003 		movw	r3, #:lower16:UART_1_initVar
  76 001a C0F20003 		movt	r3, #:upper16:UART_1_initVar
  77 001e 4FF00102 		mov	r2, #1
  78 0022 1A70     		strb	r2, [r3, #0]
  79              	.L2:
  80:.\Generated_Source\PSoC5/UART_1.c ****     }
  81:.\Generated_Source\PSoC5/UART_1.c ****     UART_1_Enable();
  80              		.loc 1 81 0
  81 0024 FFF7FEFF 		bl	UART_1_Enable
  82:.\Generated_Source\PSoC5/UART_1.c **** }
  82              		.loc 1 82 0
  83 0028 80BD     		pop	{r7, pc}
  84              		.cfi_endproc
  85              	.LFE0:
  86              		.size	UART_1_Start, .-UART_1_Start
  87 002a 00BF     		.section	.text.UART_1_Init,"ax",%progbits
  88              		.align	2
  89              		.global	UART_1_Init
ARM GAS  C:\Users\devdev\AppData\Local\Temp\ccu4icWL.s 			page 4


  90              		.thumb
  91              		.thumb_func
  92              		.type	UART_1_Init, %function
  93              	UART_1_Init:
  94              	.LFB1:
  83:.\Generated_Source\PSoC5/UART_1.c **** 
  84:.\Generated_Source\PSoC5/UART_1.c **** 
  85:.\Generated_Source\PSoC5/UART_1.c **** /*******************************************************************************
  86:.\Generated_Source\PSoC5/UART_1.c **** * Function Name: UART_1_Init
  87:.\Generated_Source\PSoC5/UART_1.c **** ********************************************************************************
  88:.\Generated_Source\PSoC5/UART_1.c **** *
  89:.\Generated_Source\PSoC5/UART_1.c **** * Summary:
  90:.\Generated_Source\PSoC5/UART_1.c **** *  Initialize component's parameters to the parameters set by user in the
  91:.\Generated_Source\PSoC5/UART_1.c **** *  customizer of the component placed onto schematic. Usually called in
  92:.\Generated_Source\PSoC5/UART_1.c **** *  UART_1_Start().
  93:.\Generated_Source\PSoC5/UART_1.c **** *
  94:.\Generated_Source\PSoC5/UART_1.c **** * Parameters:
  95:.\Generated_Source\PSoC5/UART_1.c **** *  None.
  96:.\Generated_Source\PSoC5/UART_1.c **** *
  97:.\Generated_Source\PSoC5/UART_1.c **** * Return:
  98:.\Generated_Source\PSoC5/UART_1.c **** *  None.
  99:.\Generated_Source\PSoC5/UART_1.c **** *
 100:.\Generated_Source\PSoC5/UART_1.c **** *******************************************************************************/
 101:.\Generated_Source\PSoC5/UART_1.c **** void UART_1_Init(void) 
 102:.\Generated_Source\PSoC5/UART_1.c **** {
  95              		.loc 1 102 0
  96              		.cfi_startproc
  97              		@ args = 0, pretend = 0, frame = 0
  98              		@ frame_needed = 1, uses_anonymous_args = 0
  99 0000 80B5     		push	{r7, lr}
 100              	.LCFI2:
 101              		.cfi_def_cfa_offset 8
 102              		.cfi_offset 7, -8
 103              		.cfi_offset 14, -4
 104 0002 00AF     		add	r7, sp, #0
 105              	.LCFI3:
 106              		.cfi_def_cfa_register 7
 103:.\Generated_Source\PSoC5/UART_1.c ****     #if(UART_1_RX_ENABLED || UART_1_HD_ENABLED)
 104:.\Generated_Source\PSoC5/UART_1.c **** 
 105:.\Generated_Source\PSoC5/UART_1.c ****         #if(UART_1_RX_INTERRUPT_ENABLED && (UART_1_RXBUFFERSIZE > UART_1_FIFO_LENGTH))
 106:.\Generated_Source\PSoC5/UART_1.c ****             /* Set the RX Interrupt. */
 107:.\Generated_Source\PSoC5/UART_1.c ****             (void)CyIntSetVector(UART_1_RX_VECT_NUM, &UART_1_RXISR);
 107              		.loc 1 107 0
 108 0004 4FF00200 		mov	r0, #2
 109 0008 40F20001 		movw	r1, #:lower16:UART_1_RXISR
 110 000c C0F20001 		movt	r1, #:upper16:UART_1_RXISR
 111 0010 FFF7FEFF 		bl	CyIntSetVector
 108:.\Generated_Source\PSoC5/UART_1.c ****             CyIntSetPriority(UART_1_RX_VECT_NUM, UART_1_RX_PRIOR_NUM);
 112              		.loc 1 108 0
 113 0014 4FF00200 		mov	r0, #2
 114 0018 4FF00701 		mov	r1, #7
 115 001c FFF7FEFF 		bl	CyIntSetPriority
 109:.\Generated_Source\PSoC5/UART_1.c ****         #endif /* End UART_1_RX_INTERRUPT_ENABLED */
 110:.\Generated_Source\PSoC5/UART_1.c **** 
 111:.\Generated_Source\PSoC5/UART_1.c ****         #if (UART_1_RXHW_ADDRESS_ENABLED)
 112:.\Generated_Source\PSoC5/UART_1.c ****             UART_1_SetRxAddressMode(UART_1_RXAddressMode);
 113:.\Generated_Source\PSoC5/UART_1.c ****             UART_1_SetRxAddress1(UART_1_RXHWADDRESS1);
ARM GAS  C:\Users\devdev\AppData\Local\Temp\ccu4icWL.s 			page 5


 114:.\Generated_Source\PSoC5/UART_1.c ****             UART_1_SetRxAddress2(UART_1_RXHWADDRESS2);
 115:.\Generated_Source\PSoC5/UART_1.c ****         #endif /* End UART_1_RXHW_ADDRESS_ENABLED */
 116:.\Generated_Source\PSoC5/UART_1.c **** 
 117:.\Generated_Source\PSoC5/UART_1.c ****         /* Init Count7 period */
 118:.\Generated_Source\PSoC5/UART_1.c ****         UART_1_RXBITCTR_PERIOD_REG = UART_1_RXBITCTR_INIT;
 116              		.loc 1 118 0
 117 0020 46F28343 		movw	r3, #25731
 118 0024 C4F20003 		movt	r3, 16384
 119 0028 4FF07202 		mov	r2, #114
 120 002c 1A70     		strb	r2, [r3, #0]
 119:.\Generated_Source\PSoC5/UART_1.c ****         /* Configure the Initial RX interrupt mask */
 120:.\Generated_Source\PSoC5/UART_1.c ****         UART_1_RXSTATUS_MASK_REG  = UART_1_INIT_RX_INTERRUPTS_MASK;
 121              		.loc 1 120 0
 122 002e 46F28143 		movw	r3, #25729
 123 0032 C4F20003 		movt	r3, 16384
 124 0036 4FF02002 		mov	r2, #32
 125 003a 1A70     		strb	r2, [r3, #0]
 121:.\Generated_Source\PSoC5/UART_1.c ****     #endif /* End UART_1_RX_ENABLED || UART_1_HD_ENABLED*/
 122:.\Generated_Source\PSoC5/UART_1.c **** 
 123:.\Generated_Source\PSoC5/UART_1.c ****     #if(UART_1_TX_ENABLED)
 124:.\Generated_Source\PSoC5/UART_1.c ****         #if(UART_1_TX_INTERRUPT_ENABLED && (UART_1_TXBUFFERSIZE > UART_1_FIFO_LENGTH))
 125:.\Generated_Source\PSoC5/UART_1.c ****             /* Set the TX Interrupt. */
 126:.\Generated_Source\PSoC5/UART_1.c ****             (void)CyIntSetVector(UART_1_TX_VECT_NUM, &UART_1_TXISR);
 127:.\Generated_Source\PSoC5/UART_1.c ****             CyIntSetPriority(UART_1_TX_VECT_NUM, UART_1_TX_PRIOR_NUM);
 128:.\Generated_Source\PSoC5/UART_1.c ****         #endif /* End UART_1_TX_INTERRUPT_ENABLED */
 129:.\Generated_Source\PSoC5/UART_1.c **** 
 130:.\Generated_Source\PSoC5/UART_1.c ****         /* Write Counter Value for TX Bit Clk Generator*/
 131:.\Generated_Source\PSoC5/UART_1.c ****         #if(UART_1_TXCLKGEN_DP)
 132:.\Generated_Source\PSoC5/UART_1.c ****             UART_1_TXBITCLKGEN_CTR_REG = UART_1_BIT_CENTER;
 133:.\Generated_Source\PSoC5/UART_1.c ****             UART_1_TXBITCLKTX_COMPLETE_REG = (UART_1_NUMBER_OF_DATA_BITS +
 134:.\Generated_Source\PSoC5/UART_1.c ****                         UART_1_NUMBER_OF_START_BIT) * UART_1_OVER_SAMPLE_COUNT;
 135:.\Generated_Source\PSoC5/UART_1.c ****         #else
 136:.\Generated_Source\PSoC5/UART_1.c ****             UART_1_TXBITCTR_PERIOD_REG = ((UART_1_NUMBER_OF_DATA_BITS +
 137:.\Generated_Source\PSoC5/UART_1.c ****                         UART_1_NUMBER_OF_START_BIT) * UART_1_OVER_SAMPLE_8) - 1u;
 138:.\Generated_Source\PSoC5/UART_1.c ****         #endif /* End UART_1_TXCLKGEN_DP */
 139:.\Generated_Source\PSoC5/UART_1.c **** 
 140:.\Generated_Source\PSoC5/UART_1.c ****         /* Configure the Initial TX interrupt mask */
 141:.\Generated_Source\PSoC5/UART_1.c ****         #if(UART_1_TX_INTERRUPT_ENABLED && (UART_1_TXBUFFERSIZE > UART_1_FIFO_LENGTH))
 142:.\Generated_Source\PSoC5/UART_1.c ****             UART_1_TXSTATUS_MASK_REG = UART_1_TX_STS_FIFO_EMPTY;
 143:.\Generated_Source\PSoC5/UART_1.c ****         #else
 144:.\Generated_Source\PSoC5/UART_1.c ****             UART_1_TXSTATUS_MASK_REG = UART_1_INIT_TX_INTERRUPTS_MASK;
 145:.\Generated_Source\PSoC5/UART_1.c ****         #endif /*End UART_1_TX_INTERRUPT_ENABLED*/
 146:.\Generated_Source\PSoC5/UART_1.c **** 
 147:.\Generated_Source\PSoC5/UART_1.c ****     #endif /* End UART_1_TX_ENABLED */
 148:.\Generated_Source\PSoC5/UART_1.c **** 
 149:.\Generated_Source\PSoC5/UART_1.c ****     #if(UART_1_PARITY_TYPE_SW)  /* Write Parity to Control Register */
 150:.\Generated_Source\PSoC5/UART_1.c ****         UART_1_WriteControlRegister( \
 151:.\Generated_Source\PSoC5/UART_1.c ****             (UART_1_ReadControlRegister() & (uint8)~UART_1_CTRL_PARITY_TYPE_MASK) | \
 152:.\Generated_Source\PSoC5/UART_1.c ****             (uint8)(UART_1_PARITY_TYPE << UART_1_CTRL_PARITY_TYPE0_SHIFT) );
 153:.\Generated_Source\PSoC5/UART_1.c ****     #endif /* End UART_1_PARITY_TYPE_SW */
 154:.\Generated_Source\PSoC5/UART_1.c **** }
 126              		.loc 1 154 0
 127 003c 80BD     		pop	{r7, pc}
 128              		.cfi_endproc
 129              	.LFE1:
 130              		.size	UART_1_Init, .-UART_1_Init
 131 003e 00BF     		.section	.text.UART_1_Enable,"ax",%progbits
ARM GAS  C:\Users\devdev\AppData\Local\Temp\ccu4icWL.s 			page 6


 132              		.align	2
 133              		.global	UART_1_Enable
 134              		.thumb
 135              		.thumb_func
 136              		.type	UART_1_Enable, %function
 137              	UART_1_Enable:
 138              	.LFB2:
 155:.\Generated_Source\PSoC5/UART_1.c **** 
 156:.\Generated_Source\PSoC5/UART_1.c **** 
 157:.\Generated_Source\PSoC5/UART_1.c **** /*******************************************************************************
 158:.\Generated_Source\PSoC5/UART_1.c **** * Function Name: UART_1_Enable
 159:.\Generated_Source\PSoC5/UART_1.c **** ********************************************************************************
 160:.\Generated_Source\PSoC5/UART_1.c **** *
 161:.\Generated_Source\PSoC5/UART_1.c **** * Summary:
 162:.\Generated_Source\PSoC5/UART_1.c **** *  Enables the UART block operation
 163:.\Generated_Source\PSoC5/UART_1.c **** *
 164:.\Generated_Source\PSoC5/UART_1.c **** * Parameters:
 165:.\Generated_Source\PSoC5/UART_1.c **** *  None.
 166:.\Generated_Source\PSoC5/UART_1.c **** *
 167:.\Generated_Source\PSoC5/UART_1.c **** * Return:
 168:.\Generated_Source\PSoC5/UART_1.c **** *  None.
 169:.\Generated_Source\PSoC5/UART_1.c **** *
 170:.\Generated_Source\PSoC5/UART_1.c **** * Global Variables:
 171:.\Generated_Source\PSoC5/UART_1.c **** *  UART_1_rxAddressDetected - set to initial state (0).
 172:.\Generated_Source\PSoC5/UART_1.c **** *
 173:.\Generated_Source\PSoC5/UART_1.c **** *******************************************************************************/
 174:.\Generated_Source\PSoC5/UART_1.c **** void UART_1_Enable(void) 
 175:.\Generated_Source\PSoC5/UART_1.c **** {
 139              		.loc 1 175 0
 140              		.cfi_startproc
 141              		@ args = 0, pretend = 0, frame = 8
 142              		@ frame_needed = 1, uses_anonymous_args = 0
 143 0000 80B5     		push	{r7, lr}
 144              	.LCFI4:
 145              		.cfi_def_cfa_offset 8
 146              		.cfi_offset 7, -8
 147              		.cfi_offset 14, -4
 148 0002 82B0     		sub	sp, sp, #8
 149              	.LCFI5:
 150              		.cfi_def_cfa_offset 16
 151 0004 00AF     		add	r7, sp, #0
 152              	.LCFI6:
 153              		.cfi_def_cfa_register 7
 176:.\Generated_Source\PSoC5/UART_1.c ****     uint8 enableInterrupts;
 177:.\Generated_Source\PSoC5/UART_1.c ****     enableInterrupts = CyEnterCriticalSection();
 154              		.loc 1 177 0
 155 0006 FFF7FEFF 		bl	CyEnterCriticalSection
 156 000a 0346     		mov	r3, r0
 157 000c FB71     		strb	r3, [r7, #7]
 178:.\Generated_Source\PSoC5/UART_1.c **** 
 179:.\Generated_Source\PSoC5/UART_1.c ****     #if(UART_1_RX_ENABLED || UART_1_HD_ENABLED)
 180:.\Generated_Source\PSoC5/UART_1.c ****         /*RX Counter (Count7) Enable */
 181:.\Generated_Source\PSoC5/UART_1.c ****         UART_1_RXBITCTR_CONTROL_REG |= UART_1_CNTR_ENABLE;
 158              		.loc 1 181 0
 159 000e 46F29343 		movw	r3, #25747
 160 0012 C4F20003 		movt	r3, 16384
 161 0016 46F29342 		movw	r2, #25747
ARM GAS  C:\Users\devdev\AppData\Local\Temp\ccu4icWL.s 			page 7


 162 001a C4F20002 		movt	r2, 16384
 163 001e 1278     		ldrb	r2, [r2, #0]
 164 0020 D2B2     		uxtb	r2, r2
 165 0022 42F02002 		orr	r2, r2, #32
 166 0026 D2B2     		uxtb	r2, r2
 167 0028 1A70     		strb	r2, [r3, #0]
 182:.\Generated_Source\PSoC5/UART_1.c ****         /* Enable the RX Interrupt. */
 183:.\Generated_Source\PSoC5/UART_1.c ****         UART_1_RXSTATUS_ACTL_REG  |= UART_1_INT_ENABLE;
 168              		.loc 1 183 0
 169 002a 46F29143 		movw	r3, #25745
 170 002e C4F20003 		movt	r3, 16384
 171 0032 46F29142 		movw	r2, #25745
 172 0036 C4F20002 		movt	r2, 16384
 173 003a 1278     		ldrb	r2, [r2, #0]
 174 003c D2B2     		uxtb	r2, r2
 175 003e 42F01002 		orr	r2, r2, #16
 176 0042 D2B2     		uxtb	r2, r2
 177 0044 1A70     		strb	r2, [r3, #0]
 184:.\Generated_Source\PSoC5/UART_1.c ****         #if(UART_1_RX_INTERRUPT_ENABLED && (UART_1_RXBUFFERSIZE > UART_1_FIFO_LENGTH))
 185:.\Generated_Source\PSoC5/UART_1.c ****             CyIntEnable(UART_1_RX_VECT_NUM);
 178              		.loc 1 185 0
 179 0046 4FF46143 		mov	r3, #57600
 180 004a CEF20003 		movt	r3, 57344
 181 004e 4FF00402 		mov	r2, #4
 182 0052 1A60     		str	r2, [r3, #0]
 186:.\Generated_Source\PSoC5/UART_1.c ****             #if (UART_1_RXHW_ADDRESS_ENABLED)
 187:.\Generated_Source\PSoC5/UART_1.c ****                 UART_1_rxAddressDetected = 0u;
 188:.\Generated_Source\PSoC5/UART_1.c ****             #endif /* End UART_1_RXHW_ADDRESS_ENABLED */
 189:.\Generated_Source\PSoC5/UART_1.c ****         #endif /* End UART_1_RX_INTERRUPT_ENABLED */
 190:.\Generated_Source\PSoC5/UART_1.c ****     #endif /* End UART_1_RX_ENABLED || UART_1_HD_ENABLED*/
 191:.\Generated_Source\PSoC5/UART_1.c **** 
 192:.\Generated_Source\PSoC5/UART_1.c ****     #if(UART_1_TX_ENABLED)
 193:.\Generated_Source\PSoC5/UART_1.c ****         /*TX Counter (DP/Count7) Enable */
 194:.\Generated_Source\PSoC5/UART_1.c ****         #if(!UART_1_TXCLKGEN_DP)
 195:.\Generated_Source\PSoC5/UART_1.c ****             UART_1_TXBITCTR_CONTROL_REG |= UART_1_CNTR_ENABLE;
 196:.\Generated_Source\PSoC5/UART_1.c ****         #endif /* End UART_1_TXCLKGEN_DP */
 197:.\Generated_Source\PSoC5/UART_1.c ****         /* Enable the TX Interrupt. */
 198:.\Generated_Source\PSoC5/UART_1.c ****         UART_1_TXSTATUS_ACTL_REG |= UART_1_INT_ENABLE;
 199:.\Generated_Source\PSoC5/UART_1.c ****         #if(UART_1_TX_INTERRUPT_ENABLED && (UART_1_TXBUFFERSIZE > UART_1_FIFO_LENGTH))
 200:.\Generated_Source\PSoC5/UART_1.c ****             CyIntEnable(UART_1_TX_VECT_NUM);
 201:.\Generated_Source\PSoC5/UART_1.c ****         #endif /* End UART_1_TX_INTERRUPT_ENABLED*/
 202:.\Generated_Source\PSoC5/UART_1.c ****      #endif /* End UART_1_TX_ENABLED */
 203:.\Generated_Source\PSoC5/UART_1.c **** 
 204:.\Generated_Source\PSoC5/UART_1.c ****     #if(UART_1_INTERNAL_CLOCK_USED)
 205:.\Generated_Source\PSoC5/UART_1.c ****         /* Enable the clock. */
 206:.\Generated_Source\PSoC5/UART_1.c ****         UART_1_IntClock_Start();
 183              		.loc 1 206 0
 184 0054 FFF7FEFF 		bl	UART_1_IntClock_Start
 207:.\Generated_Source\PSoC5/UART_1.c ****     #endif /* End UART_1_INTERNAL_CLOCK_USED */
 208:.\Generated_Source\PSoC5/UART_1.c **** 
 209:.\Generated_Source\PSoC5/UART_1.c ****     CyExitCriticalSection(enableInterrupts);
 185              		.loc 1 209 0
 186 0058 FB79     		ldrb	r3, [r7, #7]	@ zero_extendqisi2
 187 005a 1846     		mov	r0, r3
 188 005c FFF7FEFF 		bl	CyExitCriticalSection
 210:.\Generated_Source\PSoC5/UART_1.c **** }
 189              		.loc 1 210 0
ARM GAS  C:\Users\devdev\AppData\Local\Temp\ccu4icWL.s 			page 8


 190 0060 07F10807 		add	r7, r7, #8
 191 0064 BD46     		mov	sp, r7
 192 0066 80BD     		pop	{r7, pc}
 193              		.cfi_endproc
 194              	.LFE2:
 195              		.size	UART_1_Enable, .-UART_1_Enable
 196              		.section	.text.UART_1_Stop,"ax",%progbits
 197              		.align	2
 198              		.global	UART_1_Stop
 199              		.thumb
 200              		.thumb_func
 201              		.type	UART_1_Stop, %function
 202              	UART_1_Stop:
 203              	.LFB3:
 211:.\Generated_Source\PSoC5/UART_1.c **** 
 212:.\Generated_Source\PSoC5/UART_1.c **** 
 213:.\Generated_Source\PSoC5/UART_1.c **** /*******************************************************************************
 214:.\Generated_Source\PSoC5/UART_1.c **** * Function Name: UART_1_Stop
 215:.\Generated_Source\PSoC5/UART_1.c **** ********************************************************************************
 216:.\Generated_Source\PSoC5/UART_1.c **** *
 217:.\Generated_Source\PSoC5/UART_1.c **** * Summary:
 218:.\Generated_Source\PSoC5/UART_1.c **** *  Disable the UART component
 219:.\Generated_Source\PSoC5/UART_1.c **** *
 220:.\Generated_Source\PSoC5/UART_1.c **** * Parameters:
 221:.\Generated_Source\PSoC5/UART_1.c **** *  None.
 222:.\Generated_Source\PSoC5/UART_1.c **** *
 223:.\Generated_Source\PSoC5/UART_1.c **** * Return:
 224:.\Generated_Source\PSoC5/UART_1.c **** *  None.
 225:.\Generated_Source\PSoC5/UART_1.c **** *
 226:.\Generated_Source\PSoC5/UART_1.c **** *******************************************************************************/
 227:.\Generated_Source\PSoC5/UART_1.c **** void UART_1_Stop(void) 
 228:.\Generated_Source\PSoC5/UART_1.c **** {
 204              		.loc 1 228 0
 205              		.cfi_startproc
 206              		@ args = 0, pretend = 0, frame = 8
 207              		@ frame_needed = 1, uses_anonymous_args = 0
 208 0000 80B5     		push	{r7, lr}
 209              	.LCFI7:
 210              		.cfi_def_cfa_offset 8
 211              		.cfi_offset 7, -8
 212              		.cfi_offset 14, -4
 213 0002 82B0     		sub	sp, sp, #8
 214              	.LCFI8:
 215              		.cfi_def_cfa_offset 16
 216 0004 00AF     		add	r7, sp, #0
 217              	.LCFI9:
 218              		.cfi_def_cfa_register 7
 229:.\Generated_Source\PSoC5/UART_1.c ****     uint8 enableInterrupts;
 230:.\Generated_Source\PSoC5/UART_1.c ****     enableInterrupts = CyEnterCriticalSection();
 219              		.loc 1 230 0
 220 0006 FFF7FEFF 		bl	CyEnterCriticalSection
 221 000a 0346     		mov	r3, r0
 222 000c FB71     		strb	r3, [r7, #7]
 231:.\Generated_Source\PSoC5/UART_1.c **** 
 232:.\Generated_Source\PSoC5/UART_1.c ****     /* Write Bit Counter Disable */
 233:.\Generated_Source\PSoC5/UART_1.c ****     #if(UART_1_RX_ENABLED || UART_1_HD_ENABLED)
 234:.\Generated_Source\PSoC5/UART_1.c ****         UART_1_RXBITCTR_CONTROL_REG &= (uint8)~UART_1_CNTR_ENABLE;
ARM GAS  C:\Users\devdev\AppData\Local\Temp\ccu4icWL.s 			page 9


 223              		.loc 1 234 0
 224 000e 46F29343 		movw	r3, #25747
 225 0012 C4F20003 		movt	r3, 16384
 226 0016 46F29342 		movw	r2, #25747
 227 001a C4F20002 		movt	r2, 16384
 228 001e 1278     		ldrb	r2, [r2, #0]
 229 0020 D2B2     		uxtb	r2, r2
 230 0022 22F02002 		bic	r2, r2, #32
 231 0026 D2B2     		uxtb	r2, r2
 232 0028 1A70     		strb	r2, [r3, #0]
 235:.\Generated_Source\PSoC5/UART_1.c ****     #endif /* End UART_1_RX_ENABLED */
 236:.\Generated_Source\PSoC5/UART_1.c **** 
 237:.\Generated_Source\PSoC5/UART_1.c ****     #if(UART_1_TX_ENABLED)
 238:.\Generated_Source\PSoC5/UART_1.c ****         #if(!UART_1_TXCLKGEN_DP)
 239:.\Generated_Source\PSoC5/UART_1.c ****             UART_1_TXBITCTR_CONTROL_REG &= (uint8)~UART_1_CNTR_ENABLE;
 240:.\Generated_Source\PSoC5/UART_1.c ****         #endif /* End UART_1_TXCLKGEN_DP */
 241:.\Generated_Source\PSoC5/UART_1.c ****     #endif /* UART_1_TX_ENABLED */
 242:.\Generated_Source\PSoC5/UART_1.c **** 
 243:.\Generated_Source\PSoC5/UART_1.c ****     #if(UART_1_INTERNAL_CLOCK_USED)
 244:.\Generated_Source\PSoC5/UART_1.c ****         /* Disable the clock. */
 245:.\Generated_Source\PSoC5/UART_1.c ****         UART_1_IntClock_Stop();
 233              		.loc 1 245 0
 234 002a FFF7FEFF 		bl	UART_1_IntClock_Stop
 246:.\Generated_Source\PSoC5/UART_1.c ****     #endif /* End UART_1_INTERNAL_CLOCK_USED */
 247:.\Generated_Source\PSoC5/UART_1.c **** 
 248:.\Generated_Source\PSoC5/UART_1.c ****     /* Disable internal interrupt component */
 249:.\Generated_Source\PSoC5/UART_1.c ****     #if(UART_1_RX_ENABLED || UART_1_HD_ENABLED)
 250:.\Generated_Source\PSoC5/UART_1.c ****         UART_1_RXSTATUS_ACTL_REG  &= (uint8)~UART_1_INT_ENABLE;
 235              		.loc 1 250 0
 236 002e 46F29143 		movw	r3, #25745
 237 0032 C4F20003 		movt	r3, 16384
 238 0036 46F29142 		movw	r2, #25745
 239 003a C4F20002 		movt	r2, 16384
 240 003e 1278     		ldrb	r2, [r2, #0]
 241 0040 D2B2     		uxtb	r2, r2
 242 0042 22F01002 		bic	r2, r2, #16
 243 0046 D2B2     		uxtb	r2, r2
 244 0048 1A70     		strb	r2, [r3, #0]
 251:.\Generated_Source\PSoC5/UART_1.c ****         #if(UART_1_RX_INTERRUPT_ENABLED && (UART_1_RXBUFFERSIZE > UART_1_FIFO_LENGTH))
 252:.\Generated_Source\PSoC5/UART_1.c ****             UART_1_DisableRxInt();
 245              		.loc 1 252 0
 246 004a FFF7FEFF 		bl	UART_1_DisableRxInt
 253:.\Generated_Source\PSoC5/UART_1.c ****         #endif /* End UART_1_RX_INTERRUPT_ENABLED */
 254:.\Generated_Source\PSoC5/UART_1.c ****     #endif /* End UART_1_RX_ENABLED */
 255:.\Generated_Source\PSoC5/UART_1.c **** 
 256:.\Generated_Source\PSoC5/UART_1.c ****     #if(UART_1_TX_ENABLED)
 257:.\Generated_Source\PSoC5/UART_1.c ****         UART_1_TXSTATUS_ACTL_REG &= (uint8)~UART_1_INT_ENABLE;
 258:.\Generated_Source\PSoC5/UART_1.c ****         #if(UART_1_TX_INTERRUPT_ENABLED && (UART_1_TXBUFFERSIZE > UART_1_FIFO_LENGTH))
 259:.\Generated_Source\PSoC5/UART_1.c ****             UART_1_DisableTxInt();
 260:.\Generated_Source\PSoC5/UART_1.c ****         #endif /* End UART_1_TX_INTERRUPT_ENABLED */
 261:.\Generated_Source\PSoC5/UART_1.c ****     #endif /* End UART_1_TX_ENABLED */
 262:.\Generated_Source\PSoC5/UART_1.c **** 
 263:.\Generated_Source\PSoC5/UART_1.c ****     CyExitCriticalSection(enableInterrupts);
 247              		.loc 1 263 0
 248 004e FB79     		ldrb	r3, [r7, #7]	@ zero_extendqisi2
 249 0050 1846     		mov	r0, r3
 250 0052 FFF7FEFF 		bl	CyExitCriticalSection
ARM GAS  C:\Users\devdev\AppData\Local\Temp\ccu4icWL.s 			page 10


 264:.\Generated_Source\PSoC5/UART_1.c **** }
 251              		.loc 1 264 0
 252 0056 07F10807 		add	r7, r7, #8
 253 005a BD46     		mov	sp, r7
 254 005c 80BD     		pop	{r7, pc}
 255              		.cfi_endproc
 256              	.LFE3:
 257              		.size	UART_1_Stop, .-UART_1_Stop
 258 005e 00BF     		.section	.text.UART_1_ReadControlRegister,"ax",%progbits
 259              		.align	2
 260              		.global	UART_1_ReadControlRegister
 261              		.thumb
 262              		.thumb_func
 263              		.type	UART_1_ReadControlRegister, %function
 264              	UART_1_ReadControlRegister:
 265              	.LFB4:
 265:.\Generated_Source\PSoC5/UART_1.c **** 
 266:.\Generated_Source\PSoC5/UART_1.c **** 
 267:.\Generated_Source\PSoC5/UART_1.c **** /*******************************************************************************
 268:.\Generated_Source\PSoC5/UART_1.c **** * Function Name: UART_1_ReadControlRegister
 269:.\Generated_Source\PSoC5/UART_1.c **** ********************************************************************************
 270:.\Generated_Source\PSoC5/UART_1.c **** *
 271:.\Generated_Source\PSoC5/UART_1.c **** * Summary:
 272:.\Generated_Source\PSoC5/UART_1.c **** *  Read the current state of the control register
 273:.\Generated_Source\PSoC5/UART_1.c **** *
 274:.\Generated_Source\PSoC5/UART_1.c **** * Parameters:
 275:.\Generated_Source\PSoC5/UART_1.c **** *  None.
 276:.\Generated_Source\PSoC5/UART_1.c **** *
 277:.\Generated_Source\PSoC5/UART_1.c **** * Return:
 278:.\Generated_Source\PSoC5/UART_1.c **** *  Current state of the control register.
 279:.\Generated_Source\PSoC5/UART_1.c **** *
 280:.\Generated_Source\PSoC5/UART_1.c **** *******************************************************************************/
 281:.\Generated_Source\PSoC5/UART_1.c **** uint8 UART_1_ReadControlRegister(void) 
 282:.\Generated_Source\PSoC5/UART_1.c **** {
 266              		.loc 1 282 0
 267              		.cfi_startproc
 268              		@ args = 0, pretend = 0, frame = 0
 269              		@ frame_needed = 1, uses_anonymous_args = 0
 270              		@ link register save eliminated.
 271 0000 80B4     		push	{r7}
 272              	.LCFI10:
 273              		.cfi_def_cfa_offset 4
 274              		.cfi_offset 7, -4
 275 0002 00AF     		add	r7, sp, #0
 276              	.LCFI11:
 277              		.cfi_def_cfa_register 7
 283:.\Generated_Source\PSoC5/UART_1.c ****     #if( UART_1_CONTROL_REG_REMOVED )
 284:.\Generated_Source\PSoC5/UART_1.c ****         return(0u);
 278              		.loc 1 284 0
 279 0004 4FF00003 		mov	r3, #0
 285:.\Generated_Source\PSoC5/UART_1.c ****     #else
 286:.\Generated_Source\PSoC5/UART_1.c ****         return(UART_1_CONTROL_REG);
 287:.\Generated_Source\PSoC5/UART_1.c ****     #endif /* End UART_1_CONTROL_REG_REMOVED */
 288:.\Generated_Source\PSoC5/UART_1.c **** }
 280              		.loc 1 288 0
 281 0008 1846     		mov	r0, r3
 282 000a BD46     		mov	sp, r7
ARM GAS  C:\Users\devdev\AppData\Local\Temp\ccu4icWL.s 			page 11


 283 000c 80BC     		pop	{r7}
 284 000e 7047     		bx	lr
 285              		.cfi_endproc
 286              	.LFE4:
 287              		.size	UART_1_ReadControlRegister, .-UART_1_ReadControlRegister
 288              		.section	.text.UART_1_WriteControlRegister,"ax",%progbits
 289              		.align	2
 290              		.global	UART_1_WriteControlRegister
 291              		.thumb
 292              		.thumb_func
 293              		.type	UART_1_WriteControlRegister, %function
 294              	UART_1_WriteControlRegister:
 295              	.LFB5:
 289:.\Generated_Source\PSoC5/UART_1.c **** 
 290:.\Generated_Source\PSoC5/UART_1.c **** 
 291:.\Generated_Source\PSoC5/UART_1.c **** /*******************************************************************************
 292:.\Generated_Source\PSoC5/UART_1.c **** * Function Name: UART_1_WriteControlRegister
 293:.\Generated_Source\PSoC5/UART_1.c **** ********************************************************************************
 294:.\Generated_Source\PSoC5/UART_1.c **** *
 295:.\Generated_Source\PSoC5/UART_1.c **** * Summary:
 296:.\Generated_Source\PSoC5/UART_1.c **** *  Writes an 8-bit value into the control register
 297:.\Generated_Source\PSoC5/UART_1.c **** *
 298:.\Generated_Source\PSoC5/UART_1.c **** * Parameters:
 299:.\Generated_Source\PSoC5/UART_1.c **** *  control:  control register value
 300:.\Generated_Source\PSoC5/UART_1.c **** *
 301:.\Generated_Source\PSoC5/UART_1.c **** * Return:
 302:.\Generated_Source\PSoC5/UART_1.c **** *  None.
 303:.\Generated_Source\PSoC5/UART_1.c **** *
 304:.\Generated_Source\PSoC5/UART_1.c **** *******************************************************************************/
 305:.\Generated_Source\PSoC5/UART_1.c **** void  UART_1_WriteControlRegister(uint8 control) 
 306:.\Generated_Source\PSoC5/UART_1.c **** {
 296              		.loc 1 306 0
 297              		.cfi_startproc
 298              		@ args = 0, pretend = 0, frame = 8
 299              		@ frame_needed = 1, uses_anonymous_args = 0
 300              		@ link register save eliminated.
 301 0000 80B4     		push	{r7}
 302              	.LCFI12:
 303              		.cfi_def_cfa_offset 4
 304              		.cfi_offset 7, -4
 305 0002 83B0     		sub	sp, sp, #12
 306              	.LCFI13:
 307              		.cfi_def_cfa_offset 16
 308 0004 00AF     		add	r7, sp, #0
 309              	.LCFI14:
 310              		.cfi_def_cfa_register 7
 311 0006 0346     		mov	r3, r0
 312 0008 FB71     		strb	r3, [r7, #7]
 307:.\Generated_Source\PSoC5/UART_1.c ****     #if( UART_1_CONTROL_REG_REMOVED )
 308:.\Generated_Source\PSoC5/UART_1.c ****         if(control != 0u) { }      /* release compiler warning */
 309:.\Generated_Source\PSoC5/UART_1.c ****     #else
 310:.\Generated_Source\PSoC5/UART_1.c ****        UART_1_CONTROL_REG = control;
 311:.\Generated_Source\PSoC5/UART_1.c ****     #endif /* End UART_1_CONTROL_REG_REMOVED */
 312:.\Generated_Source\PSoC5/UART_1.c **** }
 313              		.loc 1 312 0
 314 000a 07F10C07 		add	r7, r7, #12
 315 000e BD46     		mov	sp, r7
ARM GAS  C:\Users\devdev\AppData\Local\Temp\ccu4icWL.s 			page 12


 316 0010 80BC     		pop	{r7}
 317 0012 7047     		bx	lr
 318              		.cfi_endproc
 319              	.LFE5:
 320              		.size	UART_1_WriteControlRegister, .-UART_1_WriteControlRegister
 321              		.section	.text.UART_1_EnableRxInt,"ax",%progbits
 322              		.align	2
 323              		.global	UART_1_EnableRxInt
 324              		.thumb
 325              		.thumb_func
 326              		.type	UART_1_EnableRxInt, %function
 327              	UART_1_EnableRxInt:
 328              	.LFB6:
 313:.\Generated_Source\PSoC5/UART_1.c **** 
 314:.\Generated_Source\PSoC5/UART_1.c **** 
 315:.\Generated_Source\PSoC5/UART_1.c **** #if(UART_1_RX_ENABLED || UART_1_HD_ENABLED)
 316:.\Generated_Source\PSoC5/UART_1.c **** 
 317:.\Generated_Source\PSoC5/UART_1.c ****     #if(UART_1_RX_INTERRUPT_ENABLED)
 318:.\Generated_Source\PSoC5/UART_1.c **** 
 319:.\Generated_Source\PSoC5/UART_1.c ****         /*******************************************************************************
 320:.\Generated_Source\PSoC5/UART_1.c ****         * Function Name: UART_1_EnableRxInt
 321:.\Generated_Source\PSoC5/UART_1.c ****         ********************************************************************************
 322:.\Generated_Source\PSoC5/UART_1.c ****         *
 323:.\Generated_Source\PSoC5/UART_1.c ****         * Summary:
 324:.\Generated_Source\PSoC5/UART_1.c ****         *  Enable RX interrupt generation
 325:.\Generated_Source\PSoC5/UART_1.c ****         *
 326:.\Generated_Source\PSoC5/UART_1.c ****         * Parameters:
 327:.\Generated_Source\PSoC5/UART_1.c ****         *  None.
 328:.\Generated_Source\PSoC5/UART_1.c ****         *
 329:.\Generated_Source\PSoC5/UART_1.c ****         * Return:
 330:.\Generated_Source\PSoC5/UART_1.c ****         *  None.
 331:.\Generated_Source\PSoC5/UART_1.c ****         *
 332:.\Generated_Source\PSoC5/UART_1.c ****         * Theory:
 333:.\Generated_Source\PSoC5/UART_1.c ****         *  Enable the interrupt output -or- the interrupt component itself
 334:.\Generated_Source\PSoC5/UART_1.c ****         *
 335:.\Generated_Source\PSoC5/UART_1.c ****         *******************************************************************************/
 336:.\Generated_Source\PSoC5/UART_1.c ****         void UART_1_EnableRxInt(void) 
 337:.\Generated_Source\PSoC5/UART_1.c ****         {
 329              		.loc 1 337 0
 330              		.cfi_startproc
 331              		@ args = 0, pretend = 0, frame = 0
 332              		@ frame_needed = 1, uses_anonymous_args = 0
 333              		@ link register save eliminated.
 334 0000 80B4     		push	{r7}
 335              	.LCFI15:
 336              		.cfi_def_cfa_offset 4
 337              		.cfi_offset 7, -4
 338 0002 00AF     		add	r7, sp, #0
 339              	.LCFI16:
 340              		.cfi_def_cfa_register 7
 338:.\Generated_Source\PSoC5/UART_1.c ****             CyIntEnable(UART_1_RX_VECT_NUM);
 341              		.loc 1 338 0
 342 0004 4FF46143 		mov	r3, #57600
 343 0008 CEF20003 		movt	r3, 57344
 344 000c 4FF00402 		mov	r2, #4
 345 0010 1A60     		str	r2, [r3, #0]
 339:.\Generated_Source\PSoC5/UART_1.c ****         }
ARM GAS  C:\Users\devdev\AppData\Local\Temp\ccu4icWL.s 			page 13


 346              		.loc 1 339 0
 347 0012 BD46     		mov	sp, r7
 348 0014 80BC     		pop	{r7}
 349 0016 7047     		bx	lr
 350              		.cfi_endproc
 351              	.LFE6:
 352              		.size	UART_1_EnableRxInt, .-UART_1_EnableRxInt
 353              		.section	.text.UART_1_DisableRxInt,"ax",%progbits
 354              		.align	2
 355              		.global	UART_1_DisableRxInt
 356              		.thumb
 357              		.thumb_func
 358              		.type	UART_1_DisableRxInt, %function
 359              	UART_1_DisableRxInt:
 360              	.LFB7:
 340:.\Generated_Source\PSoC5/UART_1.c **** 
 341:.\Generated_Source\PSoC5/UART_1.c **** 
 342:.\Generated_Source\PSoC5/UART_1.c ****         /*******************************************************************************
 343:.\Generated_Source\PSoC5/UART_1.c ****         * Function Name: UART_1_DisableRxInt
 344:.\Generated_Source\PSoC5/UART_1.c ****         ********************************************************************************
 345:.\Generated_Source\PSoC5/UART_1.c ****         *
 346:.\Generated_Source\PSoC5/UART_1.c ****         * Summary:
 347:.\Generated_Source\PSoC5/UART_1.c ****         *  Disable RX interrupt generation
 348:.\Generated_Source\PSoC5/UART_1.c ****         *
 349:.\Generated_Source\PSoC5/UART_1.c ****         * Parameters:
 350:.\Generated_Source\PSoC5/UART_1.c ****         *  None.
 351:.\Generated_Source\PSoC5/UART_1.c ****         *
 352:.\Generated_Source\PSoC5/UART_1.c ****         * Return:
 353:.\Generated_Source\PSoC5/UART_1.c ****         *  None.
 354:.\Generated_Source\PSoC5/UART_1.c ****         *
 355:.\Generated_Source\PSoC5/UART_1.c ****         * Theory:
 356:.\Generated_Source\PSoC5/UART_1.c ****         *  Disable the interrupt output -or- the interrupt component itself
 357:.\Generated_Source\PSoC5/UART_1.c ****         *
 358:.\Generated_Source\PSoC5/UART_1.c ****         *******************************************************************************/
 359:.\Generated_Source\PSoC5/UART_1.c ****         void UART_1_DisableRxInt(void) 
 360:.\Generated_Source\PSoC5/UART_1.c ****         {
 361              		.loc 1 360 0
 362              		.cfi_startproc
 363              		@ args = 0, pretend = 0, frame = 0
 364              		@ frame_needed = 1, uses_anonymous_args = 0
 365              		@ link register save eliminated.
 366 0000 80B4     		push	{r7}
 367              	.LCFI17:
 368              		.cfi_def_cfa_offset 4
 369              		.cfi_offset 7, -4
 370 0002 00AF     		add	r7, sp, #0
 371              	.LCFI18:
 372              		.cfi_def_cfa_register 7
 361:.\Generated_Source\PSoC5/UART_1.c ****             CyIntDisable(UART_1_RX_VECT_NUM);
 373              		.loc 1 361 0
 374 0004 4EF28013 		movw	r3, #57728
 375 0008 CEF20003 		movt	r3, 57344
 376 000c 4FF00402 		mov	r2, #4
 377 0010 1A60     		str	r2, [r3, #0]
 362:.\Generated_Source\PSoC5/UART_1.c ****         }
 378              		.loc 1 362 0
 379 0012 BD46     		mov	sp, r7
ARM GAS  C:\Users\devdev\AppData\Local\Temp\ccu4icWL.s 			page 14


 380 0014 80BC     		pop	{r7}
 381 0016 7047     		bx	lr
 382              		.cfi_endproc
 383              	.LFE7:
 384              		.size	UART_1_DisableRxInt, .-UART_1_DisableRxInt
 385              		.section	.text.UART_1_SetRxInterruptMode,"ax",%progbits
 386              		.align	2
 387              		.global	UART_1_SetRxInterruptMode
 388              		.thumb
 389              		.thumb_func
 390              		.type	UART_1_SetRxInterruptMode, %function
 391              	UART_1_SetRxInterruptMode:
 392              	.LFB8:
 363:.\Generated_Source\PSoC5/UART_1.c **** 
 364:.\Generated_Source\PSoC5/UART_1.c ****     #endif /* UART_1_RX_INTERRUPT_ENABLED */
 365:.\Generated_Source\PSoC5/UART_1.c **** 
 366:.\Generated_Source\PSoC5/UART_1.c **** 
 367:.\Generated_Source\PSoC5/UART_1.c ****     /*******************************************************************************
 368:.\Generated_Source\PSoC5/UART_1.c ****     * Function Name: UART_1_SetRxInterruptMode
 369:.\Generated_Source\PSoC5/UART_1.c ****     ********************************************************************************
 370:.\Generated_Source\PSoC5/UART_1.c ****     *
 371:.\Generated_Source\PSoC5/UART_1.c ****     * Summary:
 372:.\Generated_Source\PSoC5/UART_1.c ****     *  Configure which status bits trigger an interrupt event
 373:.\Generated_Source\PSoC5/UART_1.c ****     *
 374:.\Generated_Source\PSoC5/UART_1.c ****     * Parameters:
 375:.\Generated_Source\PSoC5/UART_1.c ****     *  IntSrc:  An or'd combination of the desired status bit masks (defined in
 376:.\Generated_Source\PSoC5/UART_1.c ****     *           the header file)
 377:.\Generated_Source\PSoC5/UART_1.c ****     *
 378:.\Generated_Source\PSoC5/UART_1.c ****     * Return:
 379:.\Generated_Source\PSoC5/UART_1.c ****     *  None.
 380:.\Generated_Source\PSoC5/UART_1.c ****     *
 381:.\Generated_Source\PSoC5/UART_1.c ****     * Theory:
 382:.\Generated_Source\PSoC5/UART_1.c ****     *  Enables the output of specific status bits to the interrupt controller
 383:.\Generated_Source\PSoC5/UART_1.c ****     *
 384:.\Generated_Source\PSoC5/UART_1.c ****     *******************************************************************************/
 385:.\Generated_Source\PSoC5/UART_1.c ****     void UART_1_SetRxInterruptMode(uint8 intSrc) 
 386:.\Generated_Source\PSoC5/UART_1.c ****     {
 393              		.loc 1 386 0
 394              		.cfi_startproc
 395              		@ args = 0, pretend = 0, frame = 8
 396              		@ frame_needed = 1, uses_anonymous_args = 0
 397              		@ link register save eliminated.
 398 0000 80B4     		push	{r7}
 399              	.LCFI19:
 400              		.cfi_def_cfa_offset 4
 401              		.cfi_offset 7, -4
 402 0002 83B0     		sub	sp, sp, #12
 403              	.LCFI20:
 404              		.cfi_def_cfa_offset 16
 405 0004 00AF     		add	r7, sp, #0
 406              	.LCFI21:
 407              		.cfi_def_cfa_register 7
 408 0006 0346     		mov	r3, r0
 409 0008 FB71     		strb	r3, [r7, #7]
 387:.\Generated_Source\PSoC5/UART_1.c ****         UART_1_RXSTATUS_MASK_REG  = intSrc;
 410              		.loc 1 387 0
 411 000a 46F28143 		movw	r3, #25729
ARM GAS  C:\Users\devdev\AppData\Local\Temp\ccu4icWL.s 			page 15


 412 000e C4F20003 		movt	r3, 16384
 413 0012 FA79     		ldrb	r2, [r7, #7]
 414 0014 1A70     		strb	r2, [r3, #0]
 388:.\Generated_Source\PSoC5/UART_1.c ****     }
 415              		.loc 1 388 0
 416 0016 07F10C07 		add	r7, r7, #12
 417 001a BD46     		mov	sp, r7
 418 001c 80BC     		pop	{r7}
 419 001e 7047     		bx	lr
 420              		.cfi_endproc
 421              	.LFE8:
 422              		.size	UART_1_SetRxInterruptMode, .-UART_1_SetRxInterruptMode
 423              		.section	.text.UART_1_ReadRxData,"ax",%progbits
 424              		.align	2
 425              		.global	UART_1_ReadRxData
 426              		.thumb
 427              		.thumb_func
 428              		.type	UART_1_ReadRxData, %function
 429              	UART_1_ReadRxData:
 430              	.LFB9:
 389:.\Generated_Source\PSoC5/UART_1.c **** 
 390:.\Generated_Source\PSoC5/UART_1.c **** 
 391:.\Generated_Source\PSoC5/UART_1.c ****     /*******************************************************************************
 392:.\Generated_Source\PSoC5/UART_1.c ****     * Function Name: UART_1_ReadRxData
 393:.\Generated_Source\PSoC5/UART_1.c ****     ********************************************************************************
 394:.\Generated_Source\PSoC5/UART_1.c ****     *
 395:.\Generated_Source\PSoC5/UART_1.c ****     * Summary:
 396:.\Generated_Source\PSoC5/UART_1.c ****     *  Returns data in RX Data register without checking status register to
 397:.\Generated_Source\PSoC5/UART_1.c ****     *  determine if data is valid
 398:.\Generated_Source\PSoC5/UART_1.c ****     *
 399:.\Generated_Source\PSoC5/UART_1.c ****     * Parameters:
 400:.\Generated_Source\PSoC5/UART_1.c ****     *  None.
 401:.\Generated_Source\PSoC5/UART_1.c ****     *
 402:.\Generated_Source\PSoC5/UART_1.c ****     * Return:
 403:.\Generated_Source\PSoC5/UART_1.c ****     *  Received data from RX register
 404:.\Generated_Source\PSoC5/UART_1.c ****     *
 405:.\Generated_Source\PSoC5/UART_1.c ****     * Global Variables:
 406:.\Generated_Source\PSoC5/UART_1.c ****     *  UART_1_rxBuffer - RAM buffer pointer for save received data.
 407:.\Generated_Source\PSoC5/UART_1.c ****     *  UART_1_rxBufferWrite - cyclic index for write to rxBuffer,
 408:.\Generated_Source\PSoC5/UART_1.c ****     *     checked to identify new data.
 409:.\Generated_Source\PSoC5/UART_1.c ****     *  UART_1_rxBufferRead - cyclic index for read from rxBuffer,
 410:.\Generated_Source\PSoC5/UART_1.c ****     *     incremented after each byte has been read from buffer.
 411:.\Generated_Source\PSoC5/UART_1.c ****     *  UART_1_rxBufferLoopDetect - creared if loop condition was detected
 412:.\Generated_Source\PSoC5/UART_1.c ****     *     in RX ISR.
 413:.\Generated_Source\PSoC5/UART_1.c ****     *
 414:.\Generated_Source\PSoC5/UART_1.c ****     * Reentrant:
 415:.\Generated_Source\PSoC5/UART_1.c ****     *  No.
 416:.\Generated_Source\PSoC5/UART_1.c ****     *
 417:.\Generated_Source\PSoC5/UART_1.c ****     *******************************************************************************/
 418:.\Generated_Source\PSoC5/UART_1.c ****     uint8 UART_1_ReadRxData(void) 
 419:.\Generated_Source\PSoC5/UART_1.c ****     {
 431              		.loc 1 419 0
 432              		.cfi_startproc
 433              		@ args = 0, pretend = 0, frame = 8
 434              		@ frame_needed = 1, uses_anonymous_args = 0
 435 0000 80B5     		push	{r7, lr}
 436              	.LCFI22:
ARM GAS  C:\Users\devdev\AppData\Local\Temp\ccu4icWL.s 			page 16


 437              		.cfi_def_cfa_offset 8
 438              		.cfi_offset 7, -8
 439              		.cfi_offset 14, -4
 440 0002 82B0     		sub	sp, sp, #8
 441              	.LCFI23:
 442              		.cfi_def_cfa_offset 16
 443 0004 00AF     		add	r7, sp, #0
 444              	.LCFI24:
 445              		.cfi_def_cfa_register 7
 420:.\Generated_Source\PSoC5/UART_1.c ****         uint8 rxData;
 421:.\Generated_Source\PSoC5/UART_1.c **** 
 422:.\Generated_Source\PSoC5/UART_1.c ****         #if(UART_1_RXBUFFERSIZE > UART_1_FIFO_LENGTH)
 423:.\Generated_Source\PSoC5/UART_1.c ****             uint8 loc_rxBufferRead;
 424:.\Generated_Source\PSoC5/UART_1.c ****             uint8 loc_rxBufferWrite;
 425:.\Generated_Source\PSoC5/UART_1.c ****             /* Protect variables that could change on interrupt. */
 426:.\Generated_Source\PSoC5/UART_1.c ****             /* Disable Rx interrupt. */
 427:.\Generated_Source\PSoC5/UART_1.c ****             #if(UART_1_RX_INTERRUPT_ENABLED)
 428:.\Generated_Source\PSoC5/UART_1.c ****                 UART_1_DisableRxInt();
 446              		.loc 1 428 0
 447 0006 FFF7FEFF 		bl	UART_1_DisableRxInt
 429:.\Generated_Source\PSoC5/UART_1.c ****             #endif /* UART_1_RX_INTERRUPT_ENABLED */
 430:.\Generated_Source\PSoC5/UART_1.c ****             loc_rxBufferRead = UART_1_rxBufferRead;
 448              		.loc 1 430 0
 449 000a 40F20003 		movw	r3, #:lower16:UART_1_rxBufferRead
 450 000e C0F20003 		movt	r3, #:upper16:UART_1_rxBufferRead
 451 0012 1B78     		ldrb	r3, [r3, #0]
 452 0014 BB71     		strb	r3, [r7, #6]
 431:.\Generated_Source\PSoC5/UART_1.c ****             loc_rxBufferWrite = UART_1_rxBufferWrite;
 453              		.loc 1 431 0
 454 0016 40F20003 		movw	r3, #:lower16:UART_1_rxBufferWrite
 455 001a C0F20003 		movt	r3, #:upper16:UART_1_rxBufferWrite
 456 001e 1B78     		ldrb	r3, [r3, #0]
 457 0020 7B71     		strb	r3, [r7, #5]
 432:.\Generated_Source\PSoC5/UART_1.c **** 
 433:.\Generated_Source\PSoC5/UART_1.c ****             if( (UART_1_rxBufferLoopDetect != 0u) || (loc_rxBufferRead != loc_rxBufferWrite) )
 458              		.loc 1 433 0
 459 0022 40F20003 		movw	r3, #:lower16:UART_1_rxBufferLoopDetect
 460 0026 C0F20003 		movt	r3, #:upper16:UART_1_rxBufferLoopDetect
 461 002a 1B78     		ldrb	r3, [r3, #0]
 462 002c DBB2     		uxtb	r3, r3
 463 002e 002B     		cmp	r3, #0
 464 0030 03D1     		bne	.L13
 465              		.loc 1 433 0 is_stmt 0 discriminator 1
 466 0032 BA79     		ldrb	r2, [r7, #6]	@ zero_extendqisi2
 467 0034 7B79     		ldrb	r3, [r7, #5]	@ zero_extendqisi2
 468 0036 9A42     		cmp	r2, r3
 469 0038 34D0     		beq	.L14
 470              	.L13:
 434:.\Generated_Source\PSoC5/UART_1.c ****             {
 435:.\Generated_Source\PSoC5/UART_1.c ****                 rxData = UART_1_rxBuffer[loc_rxBufferRead];
 471              		.loc 1 435 0 is_stmt 1
 472 003a BA79     		ldrb	r2, [r7, #6]	@ zero_extendqisi2
 473 003c 40F20003 		movw	r3, #:lower16:UART_1_rxBuffer
 474 0040 C0F20003 		movt	r3, #:upper16:UART_1_rxBuffer
 475 0044 9B5C     		ldrb	r3, [r3, r2]
 476 0046 FB71     		strb	r3, [r7, #7]
 436:.\Generated_Source\PSoC5/UART_1.c ****                 loc_rxBufferRead++;
ARM GAS  C:\Users\devdev\AppData\Local\Temp\ccu4icWL.s 			page 17


 477              		.loc 1 436 0
 478 0048 BB79     		ldrb	r3, [r7, #6]
 479 004a 03F10103 		add	r3, r3, #1
 480 004e BB71     		strb	r3, [r7, #6]
 437:.\Generated_Source\PSoC5/UART_1.c **** 
 438:.\Generated_Source\PSoC5/UART_1.c ****                 if(loc_rxBufferRead >= UART_1_RXBUFFERSIZE)
 481              		.loc 1 438 0
 482 0050 BB79     		ldrb	r3, [r7, #6]	@ zero_extendqisi2
 483 0052 0F2B     		cmp	r3, #15
 484 0054 02D9     		bls	.L15
 439:.\Generated_Source\PSoC5/UART_1.c ****                 {
 440:.\Generated_Source\PSoC5/UART_1.c ****                     loc_rxBufferRead = 0u;
 485              		.loc 1 440 0
 486 0056 4FF00003 		mov	r3, #0
 487 005a BB71     		strb	r3, [r7, #6]
 488              	.L15:
 441:.\Generated_Source\PSoC5/UART_1.c ****                 }
 442:.\Generated_Source\PSoC5/UART_1.c ****                 /* Update the real pointer */
 443:.\Generated_Source\PSoC5/UART_1.c ****                 UART_1_rxBufferRead = loc_rxBufferRead;
 489              		.loc 1 443 0
 490 005c 40F20003 		movw	r3, #:lower16:UART_1_rxBufferRead
 491 0060 C0F20003 		movt	r3, #:upper16:UART_1_rxBufferRead
 492 0064 BA79     		ldrb	r2, [r7, #6]
 493 0066 1A70     		strb	r2, [r3, #0]
 444:.\Generated_Source\PSoC5/UART_1.c **** 
 445:.\Generated_Source\PSoC5/UART_1.c ****                 if(UART_1_rxBufferLoopDetect != 0u )
 494              		.loc 1 445 0
 495 0068 40F20003 		movw	r3, #:lower16:UART_1_rxBufferLoopDetect
 496 006c C0F20003 		movt	r3, #:upper16:UART_1_rxBufferLoopDetect
 497 0070 1B78     		ldrb	r3, [r3, #0]
 498 0072 DBB2     		uxtb	r3, r3
 499 0074 002B     		cmp	r3, #0
 500 0076 1BD0     		beq	.L17
 446:.\Generated_Source\PSoC5/UART_1.c ****                 {
 447:.\Generated_Source\PSoC5/UART_1.c ****                     UART_1_rxBufferLoopDetect = 0u;
 501              		.loc 1 447 0
 502 0078 40F20003 		movw	r3, #:lower16:UART_1_rxBufferLoopDetect
 503 007c C0F20003 		movt	r3, #:upper16:UART_1_rxBufferLoopDetect
 504 0080 4FF00002 		mov	r2, #0
 505 0084 1A70     		strb	r2, [r3, #0]
 448:.\Generated_Source\PSoC5/UART_1.c ****                     #if( (UART_1_RX_INTERRUPT_ENABLED) && (UART_1_FLOW_CONTROL != 0u) && \
 449:.\Generated_Source\PSoC5/UART_1.c ****                          (UART_1_RXBUFFERSIZE > UART_1_FIFO_LENGTH) )
 450:.\Generated_Source\PSoC5/UART_1.c ****                         /* When Hardware Flow Control selected - return RX mask */
 451:.\Generated_Source\PSoC5/UART_1.c ****                         #if( UART_1_HD_ENABLED )
 452:.\Generated_Source\PSoC5/UART_1.c ****                             if((UART_1_CONTROL_REG & UART_1_CTRL_HD_SEND) == 0u)
 453:.\Generated_Source\PSoC5/UART_1.c ****                             {   /* In Half duplex mode return RX mask only in RX
 454:.\Generated_Source\PSoC5/UART_1.c ****                                 *  configuration set, otherwise
 455:.\Generated_Source\PSoC5/UART_1.c ****                                 *  mask will be returned in LoadRxConfig() API.
 456:.\Generated_Source\PSoC5/UART_1.c ****                                 */
 457:.\Generated_Source\PSoC5/UART_1.c ****                                 UART_1_RXSTATUS_MASK_REG  |= UART_1_RX_STS_FIFO_NOTEMPTY;
 458:.\Generated_Source\PSoC5/UART_1.c ****                             }
 459:.\Generated_Source\PSoC5/UART_1.c ****                         #else
 460:.\Generated_Source\PSoC5/UART_1.c ****                             UART_1_RXSTATUS_MASK_REG  |= UART_1_RX_STS_FIFO_NOTEMPTY;
 506              		.loc 1 460 0
 507 0086 46F28143 		movw	r3, #25729
 508 008a C4F20003 		movt	r3, 16384
 509 008e 46F28142 		movw	r2, #25729
ARM GAS  C:\Users\devdev\AppData\Local\Temp\ccu4icWL.s 			page 18


 510 0092 C4F20002 		movt	r2, 16384
 511 0096 1278     		ldrb	r2, [r2, #0]
 512 0098 D2B2     		uxtb	r2, r2
 513 009a 42F02002 		orr	r2, r2, #32
 514 009e D2B2     		uxtb	r2, r2
 515 00a0 1A70     		strb	r2, [r3, #0]
 445:.\Generated_Source\PSoC5/UART_1.c ****                 if(UART_1_rxBufferLoopDetect != 0u )
 516              		.loc 1 445 0
 517 00a2 05E0     		b	.L17
 518              	.L14:
 461:.\Generated_Source\PSoC5/UART_1.c ****                         #endif /* end UART_1_HD_ENABLED */
 462:.\Generated_Source\PSoC5/UART_1.c ****                     #endif /* UART_1_RX_INTERRUPT_ENABLED and Hardware flow control*/
 463:.\Generated_Source\PSoC5/UART_1.c ****                 }
 464:.\Generated_Source\PSoC5/UART_1.c ****             }
 465:.\Generated_Source\PSoC5/UART_1.c ****             else
 466:.\Generated_Source\PSoC5/UART_1.c ****             {   /* Needs to check status for RX_STS_FIFO_NOTEMPTY bit*/
 467:.\Generated_Source\PSoC5/UART_1.c ****                 rxData = UART_1_RXDATA_REG;
 519              		.loc 1 467 0
 520 00a4 46F24F43 		movw	r3, #25679
 521 00a8 C4F20003 		movt	r3, 16384
 522 00ac 1B78     		ldrb	r3, [r3, #0]
 523 00ae FB71     		strb	r3, [r7, #7]
 524              	.L17:
 468:.\Generated_Source\PSoC5/UART_1.c ****             }
 469:.\Generated_Source\PSoC5/UART_1.c **** 
 470:.\Generated_Source\PSoC5/UART_1.c ****             /* Enable Rx interrupt. */
 471:.\Generated_Source\PSoC5/UART_1.c ****             #if(UART_1_RX_INTERRUPT_ENABLED)
 472:.\Generated_Source\PSoC5/UART_1.c ****                 UART_1_EnableRxInt();
 525              		.loc 1 472 0
 526 00b0 FFF7FEFF 		bl	UART_1_EnableRxInt
 473:.\Generated_Source\PSoC5/UART_1.c ****             #endif /* End UART_1_RX_INTERRUPT_ENABLED */
 474:.\Generated_Source\PSoC5/UART_1.c **** 
 475:.\Generated_Source\PSoC5/UART_1.c ****         #else /* UART_1_RXBUFFERSIZE > UART_1_FIFO_LENGTH */
 476:.\Generated_Source\PSoC5/UART_1.c **** 
 477:.\Generated_Source\PSoC5/UART_1.c ****             /* Needs to check status for RX_STS_FIFO_NOTEMPTY bit*/
 478:.\Generated_Source\PSoC5/UART_1.c ****             rxData = UART_1_RXDATA_REG;
 479:.\Generated_Source\PSoC5/UART_1.c **** 
 480:.\Generated_Source\PSoC5/UART_1.c ****         #endif /* UART_1_RXBUFFERSIZE > UART_1_FIFO_LENGTH */
 481:.\Generated_Source\PSoC5/UART_1.c **** 
 482:.\Generated_Source\PSoC5/UART_1.c ****         return(rxData);
 527              		.loc 1 482 0
 528 00b4 FB79     		ldrb	r3, [r7, #7]	@ zero_extendqisi2
 483:.\Generated_Source\PSoC5/UART_1.c ****     }
 529              		.loc 1 483 0
 530 00b6 1846     		mov	r0, r3
 531 00b8 07F10807 		add	r7, r7, #8
 532 00bc BD46     		mov	sp, r7
 533 00be 80BD     		pop	{r7, pc}
 534              		.cfi_endproc
 535              	.LFE9:
 536              		.size	UART_1_ReadRxData, .-UART_1_ReadRxData
 537              		.section	.text.UART_1_ReadRxStatus,"ax",%progbits
 538              		.align	2
 539              		.global	UART_1_ReadRxStatus
 540              		.thumb
 541              		.thumb_func
 542              		.type	UART_1_ReadRxStatus, %function
ARM GAS  C:\Users\devdev\AppData\Local\Temp\ccu4icWL.s 			page 19


 543              	UART_1_ReadRxStatus:
 544              	.LFB10:
 484:.\Generated_Source\PSoC5/UART_1.c **** 
 485:.\Generated_Source\PSoC5/UART_1.c **** 
 486:.\Generated_Source\PSoC5/UART_1.c ****     /*******************************************************************************
 487:.\Generated_Source\PSoC5/UART_1.c ****     * Function Name: UART_1_ReadRxStatus
 488:.\Generated_Source\PSoC5/UART_1.c ****     ********************************************************************************
 489:.\Generated_Source\PSoC5/UART_1.c ****     *
 490:.\Generated_Source\PSoC5/UART_1.c ****     * Summary:
 491:.\Generated_Source\PSoC5/UART_1.c ****     *  Read the current state of the status register
 492:.\Generated_Source\PSoC5/UART_1.c ****     *  And detect software buffer overflow.
 493:.\Generated_Source\PSoC5/UART_1.c ****     *
 494:.\Generated_Source\PSoC5/UART_1.c ****     * Parameters:
 495:.\Generated_Source\PSoC5/UART_1.c ****     *  None.
 496:.\Generated_Source\PSoC5/UART_1.c ****     *
 497:.\Generated_Source\PSoC5/UART_1.c ****     * Return:
 498:.\Generated_Source\PSoC5/UART_1.c ****     *  Current state of the status register.
 499:.\Generated_Source\PSoC5/UART_1.c ****     *
 500:.\Generated_Source\PSoC5/UART_1.c ****     * Global Variables:
 501:.\Generated_Source\PSoC5/UART_1.c ****     *  UART_1_rxBufferOverflow - used to indicate overload condition.
 502:.\Generated_Source\PSoC5/UART_1.c ****     *   It set to one in RX interrupt when there isn?t free space in
 503:.\Generated_Source\PSoC5/UART_1.c ****     *   UART_1_rxBufferRead to write new data. This condition returned
 504:.\Generated_Source\PSoC5/UART_1.c ****     *   and cleared to zero by this API as an
 505:.\Generated_Source\PSoC5/UART_1.c ****     *   UART_1_RX_STS_SOFT_BUFF_OVER bit along with RX Status register
 506:.\Generated_Source\PSoC5/UART_1.c ****     *   bits.
 507:.\Generated_Source\PSoC5/UART_1.c ****     *
 508:.\Generated_Source\PSoC5/UART_1.c ****     *******************************************************************************/
 509:.\Generated_Source\PSoC5/UART_1.c ****     uint8 UART_1_ReadRxStatus(void) 
 510:.\Generated_Source\PSoC5/UART_1.c ****     {
 545              		.loc 1 510 0
 546              		.cfi_startproc
 547              		@ args = 0, pretend = 0, frame = 8
 548              		@ frame_needed = 1, uses_anonymous_args = 0
 549              		@ link register save eliminated.
 550 0000 80B4     		push	{r7}
 551              	.LCFI25:
 552              		.cfi_def_cfa_offset 4
 553              		.cfi_offset 7, -4
 554 0002 83B0     		sub	sp, sp, #12
 555              	.LCFI26:
 556              		.cfi_def_cfa_offset 16
 557 0004 00AF     		add	r7, sp, #0
 558              	.LCFI27:
 559              		.cfi_def_cfa_register 7
 511:.\Generated_Source\PSoC5/UART_1.c ****         uint8 status;
 512:.\Generated_Source\PSoC5/UART_1.c **** 
 513:.\Generated_Source\PSoC5/UART_1.c ****         status = UART_1_RXSTATUS_REG & UART_1_RX_HW_MASK;
 560              		.loc 1 513 0
 561 0006 46F26143 		movw	r3, #25697
 562 000a C4F20003 		movt	r3, 16384
 563 000e 1B78     		ldrb	r3, [r3, #0]
 564 0010 DBB2     		uxtb	r3, r3
 565 0012 03F07F03 		and	r3, r3, #127
 566 0016 FB71     		strb	r3, [r7, #7]
 514:.\Generated_Source\PSoC5/UART_1.c **** 
 515:.\Generated_Source\PSoC5/UART_1.c ****         #if(UART_1_RXBUFFERSIZE > UART_1_FIFO_LENGTH)
 516:.\Generated_Source\PSoC5/UART_1.c ****             if( UART_1_rxBufferOverflow != 0u )
ARM GAS  C:\Users\devdev\AppData\Local\Temp\ccu4icWL.s 			page 20


 567              		.loc 1 516 0
 568 0018 40F20003 		movw	r3, #:lower16:UART_1_rxBufferOverflow
 569 001c C0F20003 		movt	r3, #:upper16:UART_1_rxBufferOverflow
 570 0020 1B78     		ldrb	r3, [r3, #0]
 571 0022 DBB2     		uxtb	r3, r3
 572 0024 002B     		cmp	r3, #0
 573 0026 0AD0     		beq	.L20
 517:.\Generated_Source\PSoC5/UART_1.c ****             {
 518:.\Generated_Source\PSoC5/UART_1.c ****                 status |= UART_1_RX_STS_SOFT_BUFF_OVER;
 574              		.loc 1 518 0
 575 0028 FB79     		ldrb	r3, [r7, #7]
 576 002a 63F07F03 		orn	r3, r3, #127
 577 002e FB71     		strb	r3, [r7, #7]
 519:.\Generated_Source\PSoC5/UART_1.c ****                 UART_1_rxBufferOverflow = 0u;
 578              		.loc 1 519 0
 579 0030 40F20003 		movw	r3, #:lower16:UART_1_rxBufferOverflow
 580 0034 C0F20003 		movt	r3, #:upper16:UART_1_rxBufferOverflow
 581 0038 4FF00002 		mov	r2, #0
 582 003c 1A70     		strb	r2, [r3, #0]
 583              	.L20:
 520:.\Generated_Source\PSoC5/UART_1.c ****             }
 521:.\Generated_Source\PSoC5/UART_1.c ****         #endif /* UART_1_RXBUFFERSIZE */
 522:.\Generated_Source\PSoC5/UART_1.c **** 
 523:.\Generated_Source\PSoC5/UART_1.c ****         return(status);
 584              		.loc 1 523 0
 585 003e FB79     		ldrb	r3, [r7, #7]	@ zero_extendqisi2
 524:.\Generated_Source\PSoC5/UART_1.c ****     }
 586              		.loc 1 524 0
 587 0040 1846     		mov	r0, r3
 588 0042 07F10C07 		add	r7, r7, #12
 589 0046 BD46     		mov	sp, r7
 590 0048 80BC     		pop	{r7}
 591 004a 7047     		bx	lr
 592              		.cfi_endproc
 593              	.LFE10:
 594              		.size	UART_1_ReadRxStatus, .-UART_1_ReadRxStatus
 595              		.section	.text.UART_1_GetChar,"ax",%progbits
 596              		.align	2
 597              		.global	UART_1_GetChar
 598              		.thumb
 599              		.thumb_func
 600              		.type	UART_1_GetChar, %function
 601              	UART_1_GetChar:
 602              	.LFB11:
 525:.\Generated_Source\PSoC5/UART_1.c **** 
 526:.\Generated_Source\PSoC5/UART_1.c **** 
 527:.\Generated_Source\PSoC5/UART_1.c ****     /*******************************************************************************
 528:.\Generated_Source\PSoC5/UART_1.c ****     * Function Name: UART_1_GetChar
 529:.\Generated_Source\PSoC5/UART_1.c ****     ********************************************************************************
 530:.\Generated_Source\PSoC5/UART_1.c ****     *
 531:.\Generated_Source\PSoC5/UART_1.c ****     * Summary:
 532:.\Generated_Source\PSoC5/UART_1.c ****     *  Reads UART RX buffer immediately, if data is not available or an error
 533:.\Generated_Source\PSoC5/UART_1.c ****     *  condition exists, zero is returned; otherwise, character is read and
 534:.\Generated_Source\PSoC5/UART_1.c ****     *  returned.
 535:.\Generated_Source\PSoC5/UART_1.c ****     *
 536:.\Generated_Source\PSoC5/UART_1.c ****     * Parameters:
 537:.\Generated_Source\PSoC5/UART_1.c ****     *  None.
ARM GAS  C:\Users\devdev\AppData\Local\Temp\ccu4icWL.s 			page 21


 538:.\Generated_Source\PSoC5/UART_1.c ****     *
 539:.\Generated_Source\PSoC5/UART_1.c ****     * Return:
 540:.\Generated_Source\PSoC5/UART_1.c ****     *  Character read from UART RX buffer. ASCII characters from 1 to 255 are valid.
 541:.\Generated_Source\PSoC5/UART_1.c ****     *  A returned zero signifies an error condition or no data available.
 542:.\Generated_Source\PSoC5/UART_1.c ****     *
 543:.\Generated_Source\PSoC5/UART_1.c ****     * Global Variables:
 544:.\Generated_Source\PSoC5/UART_1.c ****     *  UART_1_rxBuffer - RAM buffer pointer for save received data.
 545:.\Generated_Source\PSoC5/UART_1.c ****     *  UART_1_rxBufferWrite - cyclic index for write to rxBuffer,
 546:.\Generated_Source\PSoC5/UART_1.c ****     *     checked to identify new data.
 547:.\Generated_Source\PSoC5/UART_1.c ****     *  UART_1_rxBufferRead - cyclic index for read from rxBuffer,
 548:.\Generated_Source\PSoC5/UART_1.c ****     *     incremented after each byte has been read from buffer.
 549:.\Generated_Source\PSoC5/UART_1.c ****     *  UART_1_rxBufferLoopDetect - creared if loop condition was detected
 550:.\Generated_Source\PSoC5/UART_1.c ****     *     in RX ISR.
 551:.\Generated_Source\PSoC5/UART_1.c ****     *
 552:.\Generated_Source\PSoC5/UART_1.c ****     * Reentrant:
 553:.\Generated_Source\PSoC5/UART_1.c ****     *  No.
 554:.\Generated_Source\PSoC5/UART_1.c ****     *
 555:.\Generated_Source\PSoC5/UART_1.c ****     *******************************************************************************/
 556:.\Generated_Source\PSoC5/UART_1.c ****     uint8 UART_1_GetChar(void) 
 557:.\Generated_Source\PSoC5/UART_1.c ****     {
 603              		.loc 1 557 0
 604              		.cfi_startproc
 605              		@ args = 0, pretend = 0, frame = 8
 606              		@ frame_needed = 1, uses_anonymous_args = 0
 607 0000 80B5     		push	{r7, lr}
 608              	.LCFI28:
 609              		.cfi_def_cfa_offset 8
 610              		.cfi_offset 7, -8
 611              		.cfi_offset 14, -4
 612 0002 82B0     		sub	sp, sp, #8
 613              	.LCFI29:
 614              		.cfi_def_cfa_offset 16
 615 0004 00AF     		add	r7, sp, #0
 616              	.LCFI30:
 617              		.cfi_def_cfa_register 7
 558:.\Generated_Source\PSoC5/UART_1.c ****         uint8 rxData = 0u;
 618              		.loc 1 558 0
 619 0006 4FF00003 		mov	r3, #0
 620 000a FB71     		strb	r3, [r7, #7]
 559:.\Generated_Source\PSoC5/UART_1.c ****         uint8 rxStatus;
 560:.\Generated_Source\PSoC5/UART_1.c **** 
 561:.\Generated_Source\PSoC5/UART_1.c ****         #if(UART_1_RXBUFFERSIZE > UART_1_FIFO_LENGTH)
 562:.\Generated_Source\PSoC5/UART_1.c ****             uint8 loc_rxBufferRead;
 563:.\Generated_Source\PSoC5/UART_1.c ****             uint8 loc_rxBufferWrite;
 564:.\Generated_Source\PSoC5/UART_1.c ****             /* Protect variables that could change on interrupt. */
 565:.\Generated_Source\PSoC5/UART_1.c ****             /* Disable Rx interrupt. */
 566:.\Generated_Source\PSoC5/UART_1.c ****             #if(UART_1_RX_INTERRUPT_ENABLED)
 567:.\Generated_Source\PSoC5/UART_1.c ****                 UART_1_DisableRxInt();
 621              		.loc 1 567 0
 622 000c FFF7FEFF 		bl	UART_1_DisableRxInt
 568:.\Generated_Source\PSoC5/UART_1.c ****             #endif /* UART_1_RX_INTERRUPT_ENABLED */
 569:.\Generated_Source\PSoC5/UART_1.c ****             loc_rxBufferRead = UART_1_rxBufferRead;
 623              		.loc 1 569 0
 624 0010 40F20003 		movw	r3, #:lower16:UART_1_rxBufferRead
 625 0014 C0F20003 		movt	r3, #:upper16:UART_1_rxBufferRead
 626 0018 1B78     		ldrb	r3, [r3, #0]
 627 001a BB71     		strb	r3, [r7, #6]
ARM GAS  C:\Users\devdev\AppData\Local\Temp\ccu4icWL.s 			page 22


 570:.\Generated_Source\PSoC5/UART_1.c ****             loc_rxBufferWrite = UART_1_rxBufferWrite;
 628              		.loc 1 570 0
 629 001c 40F20003 		movw	r3, #:lower16:UART_1_rxBufferWrite
 630 0020 C0F20003 		movt	r3, #:upper16:UART_1_rxBufferWrite
 631 0024 1B78     		ldrb	r3, [r3, #0]
 632 0026 7B71     		strb	r3, [r7, #5]
 571:.\Generated_Source\PSoC5/UART_1.c **** 
 572:.\Generated_Source\PSoC5/UART_1.c ****             if( (UART_1_rxBufferLoopDetect != 0u) || (loc_rxBufferRead != loc_rxBufferWrite) )
 633              		.loc 1 572 0
 634 0028 40F20003 		movw	r3, #:lower16:UART_1_rxBufferLoopDetect
 635 002c C0F20003 		movt	r3, #:upper16:UART_1_rxBufferLoopDetect
 636 0030 1B78     		ldrb	r3, [r3, #0]
 637 0032 DBB2     		uxtb	r3, r3
 638 0034 002B     		cmp	r3, #0
 639 0036 03D1     		bne	.L23
 640              		.loc 1 572 0 is_stmt 0 discriminator 1
 641 0038 BA79     		ldrb	r2, [r7, #6]	@ zero_extendqisi2
 642 003a 7B79     		ldrb	r3, [r7, #5]	@ zero_extendqisi2
 643 003c 9A42     		cmp	r2, r3
 644 003e 34D0     		beq	.L24
 645              	.L23:
 573:.\Generated_Source\PSoC5/UART_1.c ****             {
 574:.\Generated_Source\PSoC5/UART_1.c ****                 rxData = UART_1_rxBuffer[loc_rxBufferRead];
 646              		.loc 1 574 0 is_stmt 1
 647 0040 BA79     		ldrb	r2, [r7, #6]	@ zero_extendqisi2
 648 0042 40F20003 		movw	r3, #:lower16:UART_1_rxBuffer
 649 0046 C0F20003 		movt	r3, #:upper16:UART_1_rxBuffer
 650 004a 9B5C     		ldrb	r3, [r3, r2]
 651 004c FB71     		strb	r3, [r7, #7]
 575:.\Generated_Source\PSoC5/UART_1.c ****                 loc_rxBufferRead++;
 652              		.loc 1 575 0
 653 004e BB79     		ldrb	r3, [r7, #6]
 654 0050 03F10103 		add	r3, r3, #1
 655 0054 BB71     		strb	r3, [r7, #6]
 576:.\Generated_Source\PSoC5/UART_1.c ****                 if(loc_rxBufferRead >= UART_1_RXBUFFERSIZE)
 656              		.loc 1 576 0
 657 0056 BB79     		ldrb	r3, [r7, #6]	@ zero_extendqisi2
 658 0058 0F2B     		cmp	r3, #15
 659 005a 02D9     		bls	.L25
 577:.\Generated_Source\PSoC5/UART_1.c ****                 {
 578:.\Generated_Source\PSoC5/UART_1.c ****                     loc_rxBufferRead = 0u;
 660              		.loc 1 578 0
 661 005c 4FF00003 		mov	r3, #0
 662 0060 BB71     		strb	r3, [r7, #6]
 663              	.L25:
 579:.\Generated_Source\PSoC5/UART_1.c ****                 }
 580:.\Generated_Source\PSoC5/UART_1.c ****                 /* Update the real pointer */
 581:.\Generated_Source\PSoC5/UART_1.c ****                 UART_1_rxBufferRead = loc_rxBufferRead;
 664              		.loc 1 581 0
 665 0062 40F20003 		movw	r3, #:lower16:UART_1_rxBufferRead
 666 0066 C0F20003 		movt	r3, #:upper16:UART_1_rxBufferRead
 667 006a BA79     		ldrb	r2, [r7, #6]
 668 006c 1A70     		strb	r2, [r3, #0]
 582:.\Generated_Source\PSoC5/UART_1.c **** 
 583:.\Generated_Source\PSoC5/UART_1.c ****                 if(UART_1_rxBufferLoopDetect > 0u )
 669              		.loc 1 583 0
 670 006e 40F20003 		movw	r3, #:lower16:UART_1_rxBufferLoopDetect
ARM GAS  C:\Users\devdev\AppData\Local\Temp\ccu4icWL.s 			page 23


 671 0072 C0F20003 		movt	r3, #:upper16:UART_1_rxBufferLoopDetect
 672 0076 1B78     		ldrb	r3, [r3, #0]
 673 0078 DBB2     		uxtb	r3, r3
 674 007a 002B     		cmp	r3, #0
 675 007c 2ED0     		beq	.L27
 584:.\Generated_Source\PSoC5/UART_1.c ****                 {
 585:.\Generated_Source\PSoC5/UART_1.c ****                     UART_1_rxBufferLoopDetect = 0u;
 676              		.loc 1 585 0
 677 007e 40F20003 		movw	r3, #:lower16:UART_1_rxBufferLoopDetect
 678 0082 C0F20003 		movt	r3, #:upper16:UART_1_rxBufferLoopDetect
 679 0086 4FF00002 		mov	r2, #0
 680 008a 1A70     		strb	r2, [r3, #0]
 586:.\Generated_Source\PSoC5/UART_1.c ****                     #if( (UART_1_RX_INTERRUPT_ENABLED) && (UART_1_FLOW_CONTROL != 0u) )
 587:.\Generated_Source\PSoC5/UART_1.c ****                         /* When Hardware Flow Control selected - return RX mask */
 588:.\Generated_Source\PSoC5/UART_1.c ****                         #if( UART_1_HD_ENABLED )
 589:.\Generated_Source\PSoC5/UART_1.c ****                             if((UART_1_CONTROL_REG & UART_1_CTRL_HD_SEND) == 0u)
 590:.\Generated_Source\PSoC5/UART_1.c ****                             {   /* In Half duplex mode return RX mask only if
 591:.\Generated_Source\PSoC5/UART_1.c ****                                 *  RX configuration set, otherwise
 592:.\Generated_Source\PSoC5/UART_1.c ****                                 *  mask will be returned in LoadRxConfig() API.
 593:.\Generated_Source\PSoC5/UART_1.c ****                                 */
 594:.\Generated_Source\PSoC5/UART_1.c ****                                 UART_1_RXSTATUS_MASK_REG  |= UART_1_RX_STS_FIFO_NOTEMPTY;
 595:.\Generated_Source\PSoC5/UART_1.c ****                             }
 596:.\Generated_Source\PSoC5/UART_1.c ****                         #else
 597:.\Generated_Source\PSoC5/UART_1.c ****                             UART_1_RXSTATUS_MASK_REG  |= UART_1_RX_STS_FIFO_NOTEMPTY;
 681              		.loc 1 597 0
 682 008c 46F28143 		movw	r3, #25729
 683 0090 C4F20003 		movt	r3, 16384
 684 0094 46F28142 		movw	r2, #25729
 685 0098 C4F20002 		movt	r2, 16384
 686 009c 1278     		ldrb	r2, [r2, #0]
 687 009e D2B2     		uxtb	r2, r2
 688 00a0 42F02002 		orr	r2, r2, #32
 689 00a4 D2B2     		uxtb	r2, r2
 690 00a6 1A70     		strb	r2, [r3, #0]
 583:.\Generated_Source\PSoC5/UART_1.c ****                 if(UART_1_rxBufferLoopDetect > 0u )
 691              		.loc 1 583 0
 692 00a8 18E0     		b	.L27
 693              	.L24:
 598:.\Generated_Source\PSoC5/UART_1.c ****                         #endif /* end UART_1_HD_ENABLED */
 599:.\Generated_Source\PSoC5/UART_1.c ****                     #endif /* UART_1_RX_INTERRUPT_ENABLED and Hardware flow control*/
 600:.\Generated_Source\PSoC5/UART_1.c ****                 }
 601:.\Generated_Source\PSoC5/UART_1.c **** 
 602:.\Generated_Source\PSoC5/UART_1.c ****             }
 603:.\Generated_Source\PSoC5/UART_1.c ****             else
 604:.\Generated_Source\PSoC5/UART_1.c ****             {   rxStatus = UART_1_RXSTATUS_REG;
 694              		.loc 1 604 0
 695 00aa 46F26143 		movw	r3, #25697
 696 00ae C4F20003 		movt	r3, 16384
 697 00b2 1B78     		ldrb	r3, [r3, #0]
 698 00b4 3B71     		strb	r3, [r7, #4]
 605:.\Generated_Source\PSoC5/UART_1.c ****                 if((rxStatus & UART_1_RX_STS_FIFO_NOTEMPTY) != 0u)
 699              		.loc 1 605 0
 700 00b6 3B79     		ldrb	r3, [r7, #4]	@ zero_extendqisi2
 701 00b8 03F02003 		and	r3, r3, #32
 702 00bc 002B     		cmp	r3, #0
 703 00be 0DD0     		beq	.L27
 606:.\Generated_Source\PSoC5/UART_1.c ****                 {   /* Read received data from FIFO*/
ARM GAS  C:\Users\devdev\AppData\Local\Temp\ccu4icWL.s 			page 24


 607:.\Generated_Source\PSoC5/UART_1.c ****                     rxData = UART_1_RXDATA_REG;
 704              		.loc 1 607 0
 705 00c0 46F24F43 		movw	r3, #25679
 706 00c4 C4F20003 		movt	r3, 16384
 707 00c8 1B78     		ldrb	r3, [r3, #0]
 708 00ca FB71     		strb	r3, [r7, #7]
 608:.\Generated_Source\PSoC5/UART_1.c ****                     /*Check status on error*/
 609:.\Generated_Source\PSoC5/UART_1.c ****                     if((rxStatus & (UART_1_RX_STS_BREAK | UART_1_RX_STS_PAR_ERROR |
 610:.\Generated_Source\PSoC5/UART_1.c ****                                    UART_1_RX_STS_STOP_ERROR | UART_1_RX_STS_OVERRUN)) != 0u)
 709              		.loc 1 610 0
 710 00cc 3B79     		ldrb	r3, [r7, #4]	@ zero_extendqisi2
 711 00ce 03F01E03 		and	r3, r3, #30
 609:.\Generated_Source\PSoC5/UART_1.c ****                     if((rxStatus & (UART_1_RX_STS_BREAK | UART_1_RX_STS_PAR_ERROR |
 712              		.loc 1 609 0
 713 00d2 002B     		cmp	r3, #0
 714 00d4 02D0     		beq	.L27
 611:.\Generated_Source\PSoC5/UART_1.c ****                     {
 612:.\Generated_Source\PSoC5/UART_1.c ****                         rxData = 0u;
 715              		.loc 1 612 0
 716 00d6 4FF00003 		mov	r3, #0
 717 00da FB71     		strb	r3, [r7, #7]
 718              	.L27:
 613:.\Generated_Source\PSoC5/UART_1.c ****                     }
 614:.\Generated_Source\PSoC5/UART_1.c ****                 }
 615:.\Generated_Source\PSoC5/UART_1.c ****             }
 616:.\Generated_Source\PSoC5/UART_1.c **** 
 617:.\Generated_Source\PSoC5/UART_1.c ****             /* Enable Rx interrupt. */
 618:.\Generated_Source\PSoC5/UART_1.c ****             #if(UART_1_RX_INTERRUPT_ENABLED)
 619:.\Generated_Source\PSoC5/UART_1.c ****                 UART_1_EnableRxInt();
 719              		.loc 1 619 0
 720 00dc FFF7FEFF 		bl	UART_1_EnableRxInt
 620:.\Generated_Source\PSoC5/UART_1.c ****             #endif /* UART_1_RX_INTERRUPT_ENABLED */
 621:.\Generated_Source\PSoC5/UART_1.c **** 
 622:.\Generated_Source\PSoC5/UART_1.c ****         #else /* UART_1_RXBUFFERSIZE > UART_1_FIFO_LENGTH */
 623:.\Generated_Source\PSoC5/UART_1.c **** 
 624:.\Generated_Source\PSoC5/UART_1.c ****             rxStatus =UART_1_RXSTATUS_REG;
 625:.\Generated_Source\PSoC5/UART_1.c ****             if((rxStatus & UART_1_RX_STS_FIFO_NOTEMPTY) != 0u)
 626:.\Generated_Source\PSoC5/UART_1.c ****             {   /* Read received data from FIFO*/
 627:.\Generated_Source\PSoC5/UART_1.c ****                 rxData = UART_1_RXDATA_REG;
 628:.\Generated_Source\PSoC5/UART_1.c ****                 /*Check status on error*/
 629:.\Generated_Source\PSoC5/UART_1.c ****                 if((rxStatus & (UART_1_RX_STS_BREAK | UART_1_RX_STS_PAR_ERROR |
 630:.\Generated_Source\PSoC5/UART_1.c ****                                UART_1_RX_STS_STOP_ERROR | UART_1_RX_STS_OVERRUN)) != 0u)
 631:.\Generated_Source\PSoC5/UART_1.c ****                 {
 632:.\Generated_Source\PSoC5/UART_1.c ****                     rxData = 0u;
 633:.\Generated_Source\PSoC5/UART_1.c ****                 }
 634:.\Generated_Source\PSoC5/UART_1.c ****             }
 635:.\Generated_Source\PSoC5/UART_1.c ****         #endif /* UART_1_RXBUFFERSIZE > UART_1_FIFO_LENGTH */
 636:.\Generated_Source\PSoC5/UART_1.c **** 
 637:.\Generated_Source\PSoC5/UART_1.c ****         return(rxData);
 721              		.loc 1 637 0
 722 00e0 FB79     		ldrb	r3, [r7, #7]	@ zero_extendqisi2
 638:.\Generated_Source\PSoC5/UART_1.c ****     }
 723              		.loc 1 638 0
 724 00e2 1846     		mov	r0, r3
 725 00e4 07F10807 		add	r7, r7, #8
 726 00e8 BD46     		mov	sp, r7
 727 00ea 80BD     		pop	{r7, pc}
ARM GAS  C:\Users\devdev\AppData\Local\Temp\ccu4icWL.s 			page 25


 728              		.cfi_endproc
 729              	.LFE11:
 730              		.size	UART_1_GetChar, .-UART_1_GetChar
 731              		.section	.text.UART_1_GetByte,"ax",%progbits
 732              		.align	2
 733              		.global	UART_1_GetByte
 734              		.thumb
 735              		.thumb_func
 736              		.type	UART_1_GetByte, %function
 737              	UART_1_GetByte:
 738              	.LFB12:
 639:.\Generated_Source\PSoC5/UART_1.c **** 
 640:.\Generated_Source\PSoC5/UART_1.c **** 
 641:.\Generated_Source\PSoC5/UART_1.c ****     /*******************************************************************************
 642:.\Generated_Source\PSoC5/UART_1.c ****     * Function Name: UART_1_GetByte
 643:.\Generated_Source\PSoC5/UART_1.c ****     ********************************************************************************
 644:.\Generated_Source\PSoC5/UART_1.c ****     *
 645:.\Generated_Source\PSoC5/UART_1.c ****     * Summary:
 646:.\Generated_Source\PSoC5/UART_1.c ****     *  Grab the next available byte of data from the recieve FIFO
 647:.\Generated_Source\PSoC5/UART_1.c ****     *
 648:.\Generated_Source\PSoC5/UART_1.c ****     * Parameters:
 649:.\Generated_Source\PSoC5/UART_1.c ****     *  None.
 650:.\Generated_Source\PSoC5/UART_1.c ****     *
 651:.\Generated_Source\PSoC5/UART_1.c ****     * Return:
 652:.\Generated_Source\PSoC5/UART_1.c ****     *  MSB contains Status Register and LSB contains UART RX data
 653:.\Generated_Source\PSoC5/UART_1.c ****     *
 654:.\Generated_Source\PSoC5/UART_1.c ****     * Reentrant:
 655:.\Generated_Source\PSoC5/UART_1.c ****     *  No.
 656:.\Generated_Source\PSoC5/UART_1.c ****     *
 657:.\Generated_Source\PSoC5/UART_1.c ****     *******************************************************************************/
 658:.\Generated_Source\PSoC5/UART_1.c ****     uint16 UART_1_GetByte(void) 
 659:.\Generated_Source\PSoC5/UART_1.c ****     {
 739              		.loc 1 659 0
 740              		.cfi_startproc
 741              		@ args = 0, pretend = 0, frame = 0
 742              		@ frame_needed = 1, uses_anonymous_args = 0
 743 0000 98B5     		push	{r3, r4, r7, lr}
 744              	.LCFI31:
 745              		.cfi_def_cfa_offset 16
 746              		.cfi_offset 3, -16
 747              		.cfi_offset 4, -12
 748              		.cfi_offset 7, -8
 749              		.cfi_offset 14, -4
 750 0002 00AF     		add	r7, sp, #0
 751              	.LCFI32:
 752              		.cfi_def_cfa_register 7
 660:.\Generated_Source\PSoC5/UART_1.c ****         return ( ((uint16)UART_1_ReadRxStatus() << 8u) | UART_1_ReadRxData() );
 753              		.loc 1 660 0
 754 0004 FFF7FEFF 		bl	UART_1_ReadRxStatus
 755 0008 0346     		mov	r3, r0
 756 000a 4FEA0323 		lsl	r3, r3, #8
 757 000e 9CB2     		uxth	r4, r3
 758 0010 FFF7FEFF 		bl	UART_1_ReadRxData
 759 0014 0346     		mov	r3, r0
 760 0016 2246     		mov	r2, r4	@ movhi
 761 0018 1343     		orrs	r3, r3, r2
 762 001a 9BB2     		uxth	r3, r3
ARM GAS  C:\Users\devdev\AppData\Local\Temp\ccu4icWL.s 			page 26


 763 001c 9BB2     		uxth	r3, r3
 661:.\Generated_Source\PSoC5/UART_1.c ****     }
 764              		.loc 1 661 0
 765 001e 1846     		mov	r0, r3
 766 0020 98BD     		pop	{r3, r4, r7, pc}
 767              		.cfi_endproc
 768              	.LFE12:
 769              		.size	UART_1_GetByte, .-UART_1_GetByte
 770 0022 00BF     		.section	.text.UART_1_GetRxBufferSize,"ax",%progbits
 771              		.align	2
 772              		.global	UART_1_GetRxBufferSize
 773              		.thumb
 774              		.thumb_func
 775              		.type	UART_1_GetRxBufferSize, %function
 776              	UART_1_GetRxBufferSize:
 777              	.LFB13:
 662:.\Generated_Source\PSoC5/UART_1.c **** 
 663:.\Generated_Source\PSoC5/UART_1.c **** 
 664:.\Generated_Source\PSoC5/UART_1.c ****     /*******************************************************************************
 665:.\Generated_Source\PSoC5/UART_1.c ****     * Function Name: UART_1_GetRxBufferSize
 666:.\Generated_Source\PSoC5/UART_1.c ****     ********************************************************************************
 667:.\Generated_Source\PSoC5/UART_1.c ****     *
 668:.\Generated_Source\PSoC5/UART_1.c ****     * Summary:
 669:.\Generated_Source\PSoC5/UART_1.c ****     *  Determine the amount of bytes left in the RX buffer and return the count in
 670:.\Generated_Source\PSoC5/UART_1.c ****     *  bytes
 671:.\Generated_Source\PSoC5/UART_1.c ****     *
 672:.\Generated_Source\PSoC5/UART_1.c ****     * Parameters:
 673:.\Generated_Source\PSoC5/UART_1.c ****     *  None.
 674:.\Generated_Source\PSoC5/UART_1.c ****     *
 675:.\Generated_Source\PSoC5/UART_1.c ****     * Return:
 676:.\Generated_Source\PSoC5/UART_1.c ****     *  uint8: Integer count of the number of bytes left
 677:.\Generated_Source\PSoC5/UART_1.c ****     *  in the RX buffer
 678:.\Generated_Source\PSoC5/UART_1.c ****     *
 679:.\Generated_Source\PSoC5/UART_1.c ****     * Global Variables:
 680:.\Generated_Source\PSoC5/UART_1.c ****     *  UART_1_rxBufferWrite - used to calculate left bytes.
 681:.\Generated_Source\PSoC5/UART_1.c ****     *  UART_1_rxBufferRead - used to calculate left bytes.
 682:.\Generated_Source\PSoC5/UART_1.c ****     *  UART_1_rxBufferLoopDetect - checked to decide left bytes amount.
 683:.\Generated_Source\PSoC5/UART_1.c ****     *
 684:.\Generated_Source\PSoC5/UART_1.c ****     * Reentrant:
 685:.\Generated_Source\PSoC5/UART_1.c ****     *  No.
 686:.\Generated_Source\PSoC5/UART_1.c ****     *
 687:.\Generated_Source\PSoC5/UART_1.c ****     * Theory:
 688:.\Generated_Source\PSoC5/UART_1.c ****     *  Allows the user to find out how full the RX Buffer is.
 689:.\Generated_Source\PSoC5/UART_1.c ****     *
 690:.\Generated_Source\PSoC5/UART_1.c ****     *******************************************************************************/
 691:.\Generated_Source\PSoC5/UART_1.c ****     uint8 UART_1_GetRxBufferSize(void)
 692:.\Generated_Source\PSoC5/UART_1.c ****                                                             
 693:.\Generated_Source\PSoC5/UART_1.c ****     {
 778              		.loc 1 693 0
 779              		.cfi_startproc
 780              		@ args = 0, pretend = 0, frame = 8
 781              		@ frame_needed = 1, uses_anonymous_args = 0
 782 0000 80B5     		push	{r7, lr}
 783              	.LCFI33:
 784              		.cfi_def_cfa_offset 8
 785              		.cfi_offset 7, -8
 786              		.cfi_offset 14, -4
ARM GAS  C:\Users\devdev\AppData\Local\Temp\ccu4icWL.s 			page 27


 787 0002 82B0     		sub	sp, sp, #8
 788              	.LCFI34:
 789              		.cfi_def_cfa_offset 16
 790 0004 00AF     		add	r7, sp, #0
 791              	.LCFI35:
 792              		.cfi_def_cfa_register 7
 694:.\Generated_Source\PSoC5/UART_1.c ****         uint8 size;
 695:.\Generated_Source\PSoC5/UART_1.c **** 
 696:.\Generated_Source\PSoC5/UART_1.c ****         #if(UART_1_RXBUFFERSIZE > UART_1_FIFO_LENGTH)
 697:.\Generated_Source\PSoC5/UART_1.c **** 
 698:.\Generated_Source\PSoC5/UART_1.c ****             /* Disable Rx interrupt. */
 699:.\Generated_Source\PSoC5/UART_1.c ****             /* Protect variables that could change on interrupt. */
 700:.\Generated_Source\PSoC5/UART_1.c ****             #if(UART_1_RX_INTERRUPT_ENABLED)
 701:.\Generated_Source\PSoC5/UART_1.c ****                 UART_1_DisableRxInt();
 793              		.loc 1 701 0
 794 0006 FFF7FEFF 		bl	UART_1_DisableRxInt
 702:.\Generated_Source\PSoC5/UART_1.c ****             #endif /* UART_1_RX_INTERRUPT_ENABLED */
 703:.\Generated_Source\PSoC5/UART_1.c **** 
 704:.\Generated_Source\PSoC5/UART_1.c ****             if(UART_1_rxBufferRead == UART_1_rxBufferWrite)
 795              		.loc 1 704 0
 796 000a 40F20003 		movw	r3, #:lower16:UART_1_rxBufferRead
 797 000e C0F20003 		movt	r3, #:upper16:UART_1_rxBufferRead
 798 0012 1B78     		ldrb	r3, [r3, #0]
 799 0014 DAB2     		uxtb	r2, r3
 800 0016 40F20003 		movw	r3, #:lower16:UART_1_rxBufferWrite
 801 001a C0F20003 		movt	r3, #:upper16:UART_1_rxBufferWrite
 802 001e 1B78     		ldrb	r3, [r3, #0]
 803 0020 DBB2     		uxtb	r3, r3
 804 0022 9A42     		cmp	r2, r3
 805 0024 0FD1     		bne	.L32
 705:.\Generated_Source\PSoC5/UART_1.c ****             {
 706:.\Generated_Source\PSoC5/UART_1.c ****                 if(UART_1_rxBufferLoopDetect > 0u)
 806              		.loc 1 706 0
 807 0026 40F20003 		movw	r3, #:lower16:UART_1_rxBufferLoopDetect
 808 002a C0F20003 		movt	r3, #:upper16:UART_1_rxBufferLoopDetect
 809 002e 1B78     		ldrb	r3, [r3, #0]
 810 0030 DBB2     		uxtb	r3, r3
 811 0032 002B     		cmp	r3, #0
 812 0034 03D0     		beq	.L33
 707:.\Generated_Source\PSoC5/UART_1.c ****                 {
 708:.\Generated_Source\PSoC5/UART_1.c ****                     size = UART_1_RXBUFFERSIZE;
 813              		.loc 1 708 0
 814 0036 4FF01003 		mov	r3, #16
 815 003a FB71     		strb	r3, [r7, #7]
 816 003c 31E0     		b	.L34
 817              	.L33:
 709:.\Generated_Source\PSoC5/UART_1.c ****                 }
 710:.\Generated_Source\PSoC5/UART_1.c ****                 else
 711:.\Generated_Source\PSoC5/UART_1.c ****                 {
 712:.\Generated_Source\PSoC5/UART_1.c ****                     size = 0u;
 818              		.loc 1 712 0
 819 003e 4FF00003 		mov	r3, #0
 820 0042 FB71     		strb	r3, [r7, #7]
 821 0044 2DE0     		b	.L34
 822              	.L32:
 713:.\Generated_Source\PSoC5/UART_1.c ****                 }
 714:.\Generated_Source\PSoC5/UART_1.c ****             }
ARM GAS  C:\Users\devdev\AppData\Local\Temp\ccu4icWL.s 			page 28


 715:.\Generated_Source\PSoC5/UART_1.c ****             else if(UART_1_rxBufferRead < UART_1_rxBufferWrite)
 823              		.loc 1 715 0
 824 0046 40F20003 		movw	r3, #:lower16:UART_1_rxBufferRead
 825 004a C0F20003 		movt	r3, #:upper16:UART_1_rxBufferRead
 826 004e 1B78     		ldrb	r3, [r3, #0]
 827 0050 DAB2     		uxtb	r2, r3
 828 0052 40F20003 		movw	r3, #:lower16:UART_1_rxBufferWrite
 829 0056 C0F20003 		movt	r3, #:upper16:UART_1_rxBufferWrite
 830 005a 1B78     		ldrb	r3, [r3, #0]
 831 005c DBB2     		uxtb	r3, r3
 832 005e 9A42     		cmp	r2, r3
 833 0060 0ED2     		bcs	.L35
 716:.\Generated_Source\PSoC5/UART_1.c ****             {
 717:.\Generated_Source\PSoC5/UART_1.c ****                 size = (UART_1_rxBufferWrite - UART_1_rxBufferRead);
 834              		.loc 1 717 0
 835 0062 40F20003 		movw	r3, #:lower16:UART_1_rxBufferWrite
 836 0066 C0F20003 		movt	r3, #:upper16:UART_1_rxBufferWrite
 837 006a 1B78     		ldrb	r3, [r3, #0]
 838 006c DAB2     		uxtb	r2, r3
 839 006e 40F20003 		movw	r3, #:lower16:UART_1_rxBufferRead
 840 0072 C0F20003 		movt	r3, #:upper16:UART_1_rxBufferRead
 841 0076 1B78     		ldrb	r3, [r3, #0]
 842 0078 DBB2     		uxtb	r3, r3
 843 007a D31A     		subs	r3, r2, r3
 844 007c FB71     		strb	r3, [r7, #7]
 845 007e 10E0     		b	.L34
 846              	.L35:
 718:.\Generated_Source\PSoC5/UART_1.c ****             }
 719:.\Generated_Source\PSoC5/UART_1.c ****             else
 720:.\Generated_Source\PSoC5/UART_1.c ****             {
 721:.\Generated_Source\PSoC5/UART_1.c ****                 size = (UART_1_RXBUFFERSIZE - UART_1_rxBufferRead) + UART_1_rxBufferWrite;
 847              		.loc 1 721 0
 848 0080 40F20003 		movw	r3, #:lower16:UART_1_rxBufferWrite
 849 0084 C0F20003 		movt	r3, #:upper16:UART_1_rxBufferWrite
 850 0088 1B78     		ldrb	r3, [r3, #0]
 851 008a DAB2     		uxtb	r2, r3
 852 008c 40F20003 		movw	r3, #:lower16:UART_1_rxBufferRead
 853 0090 C0F20003 		movt	r3, #:upper16:UART_1_rxBufferRead
 854 0094 1B78     		ldrb	r3, [r3, #0]
 855 0096 DBB2     		uxtb	r3, r3
 856 0098 D31A     		subs	r3, r2, r3
 857 009a DBB2     		uxtb	r3, r3
 858 009c 03F11003 		add	r3, r3, #16
 859 00a0 FB71     		strb	r3, [r7, #7]
 860              	.L34:
 722:.\Generated_Source\PSoC5/UART_1.c ****             }
 723:.\Generated_Source\PSoC5/UART_1.c **** 
 724:.\Generated_Source\PSoC5/UART_1.c ****             /* Enable Rx interrupt. */
 725:.\Generated_Source\PSoC5/UART_1.c ****             #if(UART_1_RX_INTERRUPT_ENABLED)
 726:.\Generated_Source\PSoC5/UART_1.c ****                 UART_1_EnableRxInt();
 861              		.loc 1 726 0
 862 00a2 FFF7FEFF 		bl	UART_1_EnableRxInt
 727:.\Generated_Source\PSoC5/UART_1.c ****             #endif /* End UART_1_RX_INTERRUPT_ENABLED */
 728:.\Generated_Source\PSoC5/UART_1.c **** 
 729:.\Generated_Source\PSoC5/UART_1.c ****         #else /* UART_1_RXBUFFERSIZE > UART_1_FIFO_LENGTH */
 730:.\Generated_Source\PSoC5/UART_1.c **** 
 731:.\Generated_Source\PSoC5/UART_1.c ****             /* We can only know if there is data in the fifo. */
ARM GAS  C:\Users\devdev\AppData\Local\Temp\ccu4icWL.s 			page 29


 732:.\Generated_Source\PSoC5/UART_1.c ****             size = ((UART_1_RXSTATUS_REG & UART_1_RX_STS_FIFO_NOTEMPTY) != 0u) ? 1u : 0u;
 733:.\Generated_Source\PSoC5/UART_1.c **** 
 734:.\Generated_Source\PSoC5/UART_1.c ****         #endif /* End UART_1_RXBUFFERSIZE > UART_1_FIFO_LENGTH */
 735:.\Generated_Source\PSoC5/UART_1.c **** 
 736:.\Generated_Source\PSoC5/UART_1.c ****         return(size);
 863              		.loc 1 736 0
 864 00a6 FB79     		ldrb	r3, [r7, #7]	@ zero_extendqisi2
 737:.\Generated_Source\PSoC5/UART_1.c ****     }
 865              		.loc 1 737 0
 866 00a8 1846     		mov	r0, r3
 867 00aa 07F10807 		add	r7, r7, #8
 868 00ae BD46     		mov	sp, r7
 869 00b0 80BD     		pop	{r7, pc}
 870              		.cfi_endproc
 871              	.LFE13:
 872              		.size	UART_1_GetRxBufferSize, .-UART_1_GetRxBufferSize
 873 00b2 00BF     		.section	.text.UART_1_ClearRxBuffer,"ax",%progbits
 874              		.align	2
 875              		.global	UART_1_ClearRxBuffer
 876              		.thumb
 877              		.thumb_func
 878              		.type	UART_1_ClearRxBuffer, %function
 879              	UART_1_ClearRxBuffer:
 880              	.LFB14:
 738:.\Generated_Source\PSoC5/UART_1.c **** 
 739:.\Generated_Source\PSoC5/UART_1.c **** 
 740:.\Generated_Source\PSoC5/UART_1.c ****     /*******************************************************************************
 741:.\Generated_Source\PSoC5/UART_1.c ****     * Function Name: UART_1_ClearRxBuffer
 742:.\Generated_Source\PSoC5/UART_1.c ****     ********************************************************************************
 743:.\Generated_Source\PSoC5/UART_1.c ****     *
 744:.\Generated_Source\PSoC5/UART_1.c ****     * Summary:
 745:.\Generated_Source\PSoC5/UART_1.c ****     *  Clears the RX RAM buffer by setting the read and write pointers both to zero.
 746:.\Generated_Source\PSoC5/UART_1.c ****     *  Clears hardware RX FIFO.
 747:.\Generated_Source\PSoC5/UART_1.c ****     *
 748:.\Generated_Source\PSoC5/UART_1.c ****     * Parameters:
 749:.\Generated_Source\PSoC5/UART_1.c ****     *  None.
 750:.\Generated_Source\PSoC5/UART_1.c ****     *
 751:.\Generated_Source\PSoC5/UART_1.c ****     * Return:
 752:.\Generated_Source\PSoC5/UART_1.c ****     *  None.
 753:.\Generated_Source\PSoC5/UART_1.c ****     *
 754:.\Generated_Source\PSoC5/UART_1.c ****     * Global Variables:
 755:.\Generated_Source\PSoC5/UART_1.c ****     *  UART_1_rxBufferWrite - cleared to zero.
 756:.\Generated_Source\PSoC5/UART_1.c ****     *  UART_1_rxBufferRead - cleared to zero.
 757:.\Generated_Source\PSoC5/UART_1.c ****     *  UART_1_rxBufferLoopDetect - cleared to zero.
 758:.\Generated_Source\PSoC5/UART_1.c ****     *  UART_1_rxBufferOverflow - cleared to zero.
 759:.\Generated_Source\PSoC5/UART_1.c ****     *
 760:.\Generated_Source\PSoC5/UART_1.c ****     * Reentrant:
 761:.\Generated_Source\PSoC5/UART_1.c ****     *  No.
 762:.\Generated_Source\PSoC5/UART_1.c ****     *
 763:.\Generated_Source\PSoC5/UART_1.c ****     * Theory:
 764:.\Generated_Source\PSoC5/UART_1.c ****     *  Setting the pointers to zero makes the system believe there is no data to
 765:.\Generated_Source\PSoC5/UART_1.c ****     *  read and writing will resume at address 0 overwriting any data that may
 766:.\Generated_Source\PSoC5/UART_1.c ****     *  have remained in the RAM.
 767:.\Generated_Source\PSoC5/UART_1.c ****     *
 768:.\Generated_Source\PSoC5/UART_1.c ****     * Side Effects:
 769:.\Generated_Source\PSoC5/UART_1.c ****     *  Any received data not read from the RAM or FIFO buffer will be lost.
 770:.\Generated_Source\PSoC5/UART_1.c ****     *******************************************************************************/
ARM GAS  C:\Users\devdev\AppData\Local\Temp\ccu4icWL.s 			page 30


 771:.\Generated_Source\PSoC5/UART_1.c ****     void UART_1_ClearRxBuffer(void) 
 772:.\Generated_Source\PSoC5/UART_1.c ****     {
 881              		.loc 1 772 0
 882              		.cfi_startproc
 883              		@ args = 0, pretend = 0, frame = 8
 884              		@ frame_needed = 1, uses_anonymous_args = 0
 885 0000 80B5     		push	{r7, lr}
 886              	.LCFI36:
 887              		.cfi_def_cfa_offset 8
 888              		.cfi_offset 7, -8
 889              		.cfi_offset 14, -4
 890 0002 82B0     		sub	sp, sp, #8
 891              	.LCFI37:
 892              		.cfi_def_cfa_offset 16
 893 0004 00AF     		add	r7, sp, #0
 894              	.LCFI38:
 895              		.cfi_def_cfa_register 7
 773:.\Generated_Source\PSoC5/UART_1.c ****         uint8 enableInterrupts;
 774:.\Generated_Source\PSoC5/UART_1.c **** 
 775:.\Generated_Source\PSoC5/UART_1.c ****         /* clear the HW FIFO */
 776:.\Generated_Source\PSoC5/UART_1.c ****         /* Enter critical section */
 777:.\Generated_Source\PSoC5/UART_1.c ****         enableInterrupts = CyEnterCriticalSection();
 896              		.loc 1 777 0
 897 0006 FFF7FEFF 		bl	CyEnterCriticalSection
 898 000a 0346     		mov	r3, r0
 899 000c FB71     		strb	r3, [r7, #7]
 778:.\Generated_Source\PSoC5/UART_1.c ****         UART_1_RXDATA_AUX_CTL_REG |=  UART_1_RX_FIFO_CLR;
 900              		.loc 1 778 0
 901 000e 46F29F43 		movw	r3, #25759
 902 0012 C4F20003 		movt	r3, 16384
 903 0016 46F29F42 		movw	r2, #25759
 904 001a C4F20002 		movt	r2, 16384
 905 001e 1278     		ldrb	r2, [r2, #0]
 906 0020 D2B2     		uxtb	r2, r2
 907 0022 42F00102 		orr	r2, r2, #1
 908 0026 D2B2     		uxtb	r2, r2
 909 0028 1A70     		strb	r2, [r3, #0]
 779:.\Generated_Source\PSoC5/UART_1.c ****         UART_1_RXDATA_AUX_CTL_REG &= (uint8)~UART_1_RX_FIFO_CLR;
 910              		.loc 1 779 0
 911 002a 46F29F43 		movw	r3, #25759
 912 002e C4F20003 		movt	r3, 16384
 913 0032 46F29F42 		movw	r2, #25759
 914 0036 C4F20002 		movt	r2, 16384
 915 003a 1278     		ldrb	r2, [r2, #0]
 916 003c D2B2     		uxtb	r2, r2
 917 003e 22F00102 		bic	r2, r2, #1
 918 0042 D2B2     		uxtb	r2, r2
 919 0044 1A70     		strb	r2, [r3, #0]
 780:.\Generated_Source\PSoC5/UART_1.c ****         /* Exit critical section */
 781:.\Generated_Source\PSoC5/UART_1.c ****         CyExitCriticalSection(enableInterrupts);
 920              		.loc 1 781 0
 921 0046 FB79     		ldrb	r3, [r7, #7]	@ zero_extendqisi2
 922 0048 1846     		mov	r0, r3
 923 004a FFF7FEFF 		bl	CyExitCriticalSection
 782:.\Generated_Source\PSoC5/UART_1.c **** 
 783:.\Generated_Source\PSoC5/UART_1.c ****         #if(UART_1_RXBUFFERSIZE > UART_1_FIFO_LENGTH)
 784:.\Generated_Source\PSoC5/UART_1.c ****             /* Disable Rx interrupt. */
ARM GAS  C:\Users\devdev\AppData\Local\Temp\ccu4icWL.s 			page 31


 785:.\Generated_Source\PSoC5/UART_1.c ****             /* Protect variables that could change on interrupt. */
 786:.\Generated_Source\PSoC5/UART_1.c ****             #if(UART_1_RX_INTERRUPT_ENABLED)
 787:.\Generated_Source\PSoC5/UART_1.c ****                 UART_1_DisableRxInt();
 924              		.loc 1 787 0
 925 004e FFF7FEFF 		bl	UART_1_DisableRxInt
 788:.\Generated_Source\PSoC5/UART_1.c ****             #endif /* End UART_1_RX_INTERRUPT_ENABLED */
 789:.\Generated_Source\PSoC5/UART_1.c **** 
 790:.\Generated_Source\PSoC5/UART_1.c ****             UART_1_rxBufferRead = 0u;
 926              		.loc 1 790 0
 927 0052 40F20003 		movw	r3, #:lower16:UART_1_rxBufferRead
 928 0056 C0F20003 		movt	r3, #:upper16:UART_1_rxBufferRead
 929 005a 4FF00002 		mov	r2, #0
 930 005e 1A70     		strb	r2, [r3, #0]
 791:.\Generated_Source\PSoC5/UART_1.c ****             UART_1_rxBufferWrite = 0u;
 931              		.loc 1 791 0
 932 0060 40F20003 		movw	r3, #:lower16:UART_1_rxBufferWrite
 933 0064 C0F20003 		movt	r3, #:upper16:UART_1_rxBufferWrite
 934 0068 4FF00002 		mov	r2, #0
 935 006c 1A70     		strb	r2, [r3, #0]
 792:.\Generated_Source\PSoC5/UART_1.c ****             UART_1_rxBufferLoopDetect = 0u;
 936              		.loc 1 792 0
 937 006e 40F20003 		movw	r3, #:lower16:UART_1_rxBufferLoopDetect
 938 0072 C0F20003 		movt	r3, #:upper16:UART_1_rxBufferLoopDetect
 939 0076 4FF00002 		mov	r2, #0
 940 007a 1A70     		strb	r2, [r3, #0]
 793:.\Generated_Source\PSoC5/UART_1.c ****             UART_1_rxBufferOverflow = 0u;
 941              		.loc 1 793 0
 942 007c 40F20003 		movw	r3, #:lower16:UART_1_rxBufferOverflow
 943 0080 C0F20003 		movt	r3, #:upper16:UART_1_rxBufferOverflow
 944 0084 4FF00002 		mov	r2, #0
 945 0088 1A70     		strb	r2, [r3, #0]
 794:.\Generated_Source\PSoC5/UART_1.c **** 
 795:.\Generated_Source\PSoC5/UART_1.c ****             /* Enable Rx interrupt. */
 796:.\Generated_Source\PSoC5/UART_1.c ****             #if(UART_1_RX_INTERRUPT_ENABLED)
 797:.\Generated_Source\PSoC5/UART_1.c ****                 UART_1_EnableRxInt();
 946              		.loc 1 797 0
 947 008a FFF7FEFF 		bl	UART_1_EnableRxInt
 798:.\Generated_Source\PSoC5/UART_1.c ****             #endif /* End UART_1_RX_INTERRUPT_ENABLED */
 799:.\Generated_Source\PSoC5/UART_1.c ****         #endif /* End UART_1_RXBUFFERSIZE > UART_1_FIFO_LENGTH */
 800:.\Generated_Source\PSoC5/UART_1.c **** 
 801:.\Generated_Source\PSoC5/UART_1.c ****     }
 948              		.loc 1 801 0
 949 008e 07F10807 		add	r7, r7, #8
 950 0092 BD46     		mov	sp, r7
 951 0094 80BD     		pop	{r7, pc}
 952              		.cfi_endproc
 953              	.LFE14:
 954              		.size	UART_1_ClearRxBuffer, .-UART_1_ClearRxBuffer
 955 0096 00BF     		.section	.text.UART_1_SetRxAddressMode,"ax",%progbits
 956              		.align	2
 957              		.global	UART_1_SetRxAddressMode
 958              		.thumb
 959              		.thumb_func
 960              		.type	UART_1_SetRxAddressMode, %function
 961              	UART_1_SetRxAddressMode:
 962              	.LFB15:
 802:.\Generated_Source\PSoC5/UART_1.c **** 
ARM GAS  C:\Users\devdev\AppData\Local\Temp\ccu4icWL.s 			page 32


 803:.\Generated_Source\PSoC5/UART_1.c **** 
 804:.\Generated_Source\PSoC5/UART_1.c ****     /*******************************************************************************
 805:.\Generated_Source\PSoC5/UART_1.c ****     * Function Name: UART_1_SetRxAddressMode
 806:.\Generated_Source\PSoC5/UART_1.c ****     ********************************************************************************
 807:.\Generated_Source\PSoC5/UART_1.c ****     *
 808:.\Generated_Source\PSoC5/UART_1.c ****     * Summary:
 809:.\Generated_Source\PSoC5/UART_1.c ****     *  Set the receive addressing mode
 810:.\Generated_Source\PSoC5/UART_1.c ****     *
 811:.\Generated_Source\PSoC5/UART_1.c ****     * Parameters:
 812:.\Generated_Source\PSoC5/UART_1.c ****     *  addressMode: Enumerated value indicating the mode of RX addressing
 813:.\Generated_Source\PSoC5/UART_1.c ****     *  UART_1__B_UART__AM_SW_BYTE_BYTE -  Software Byte-by-Byte address
 814:.\Generated_Source\PSoC5/UART_1.c ****     *                                               detection
 815:.\Generated_Source\PSoC5/UART_1.c ****     *  UART_1__B_UART__AM_SW_DETECT_TO_BUFFER - Software Detect to Buffer
 816:.\Generated_Source\PSoC5/UART_1.c ****     *                                               address detection
 817:.\Generated_Source\PSoC5/UART_1.c ****     *  UART_1__B_UART__AM_HW_BYTE_BY_BYTE - Hardware Byte-by-Byte address
 818:.\Generated_Source\PSoC5/UART_1.c ****     *                                               detection
 819:.\Generated_Source\PSoC5/UART_1.c ****     *  UART_1__B_UART__AM_HW_DETECT_TO_BUFFER - Hardware Detect to Buffer
 820:.\Generated_Source\PSoC5/UART_1.c ****     *                                               address detection
 821:.\Generated_Source\PSoC5/UART_1.c ****     *  UART_1__B_UART__AM_NONE - No address detection
 822:.\Generated_Source\PSoC5/UART_1.c ****     *
 823:.\Generated_Source\PSoC5/UART_1.c ****     * Return:
 824:.\Generated_Source\PSoC5/UART_1.c ****     *  None.
 825:.\Generated_Source\PSoC5/UART_1.c ****     *
 826:.\Generated_Source\PSoC5/UART_1.c ****     * Global Variables:
 827:.\Generated_Source\PSoC5/UART_1.c ****     *  UART_1_rxAddressMode - the parameter stored in this variable for
 828:.\Generated_Source\PSoC5/UART_1.c ****     *   the farther usage in RX ISR.
 829:.\Generated_Source\PSoC5/UART_1.c ****     *  UART_1_rxAddressDetected - set to initial state (0).
 830:.\Generated_Source\PSoC5/UART_1.c ****     *
 831:.\Generated_Source\PSoC5/UART_1.c ****     *******************************************************************************/
 832:.\Generated_Source\PSoC5/UART_1.c ****     void UART_1_SetRxAddressMode(uint8 addressMode)
 833:.\Generated_Source\PSoC5/UART_1.c ****                                                         
 834:.\Generated_Source\PSoC5/UART_1.c ****     {
 963              		.loc 1 834 0
 964              		.cfi_startproc
 965              		@ args = 0, pretend = 0, frame = 8
 966              		@ frame_needed = 1, uses_anonymous_args = 0
 967              		@ link register save eliminated.
 968 0000 80B4     		push	{r7}
 969              	.LCFI39:
 970              		.cfi_def_cfa_offset 4
 971              		.cfi_offset 7, -4
 972 0002 83B0     		sub	sp, sp, #12
 973              	.LCFI40:
 974              		.cfi_def_cfa_offset 16
 975 0004 00AF     		add	r7, sp, #0
 976              	.LCFI41:
 977              		.cfi_def_cfa_register 7
 978 0006 0346     		mov	r3, r0
 979 0008 FB71     		strb	r3, [r7, #7]
 835:.\Generated_Source\PSoC5/UART_1.c ****         #if(UART_1_RXHW_ADDRESS_ENABLED)
 836:.\Generated_Source\PSoC5/UART_1.c ****             #if(UART_1_CONTROL_REG_REMOVED)
 837:.\Generated_Source\PSoC5/UART_1.c ****                 if(addressMode != 0u) { }     /* release compiler warning */
 838:.\Generated_Source\PSoC5/UART_1.c ****             #else /* UART_1_CONTROL_REG_REMOVED */
 839:.\Generated_Source\PSoC5/UART_1.c ****                 uint8 tmpCtrl;
 840:.\Generated_Source\PSoC5/UART_1.c ****                 tmpCtrl = UART_1_CONTROL_REG & (uint8)~UART_1_CTRL_RXADDR_MODE_MASK;
 841:.\Generated_Source\PSoC5/UART_1.c ****                 tmpCtrl |= (uint8)(addressMode << UART_1_CTRL_RXADDR_MODE0_SHIFT);
 842:.\Generated_Source\PSoC5/UART_1.c ****                 UART_1_CONTROL_REG = tmpCtrl;
ARM GAS  C:\Users\devdev\AppData\Local\Temp\ccu4icWL.s 			page 33


 843:.\Generated_Source\PSoC5/UART_1.c ****                 #if(UART_1_RX_INTERRUPT_ENABLED && \
 844:.\Generated_Source\PSoC5/UART_1.c ****                    (UART_1_RXBUFFERSIZE > UART_1_FIFO_LENGTH) )
 845:.\Generated_Source\PSoC5/UART_1.c ****                     UART_1_rxAddressMode = addressMode;
 846:.\Generated_Source\PSoC5/UART_1.c ****                     UART_1_rxAddressDetected = 0u;
 847:.\Generated_Source\PSoC5/UART_1.c ****                 #endif /* End UART_1_RXBUFFERSIZE > UART_1_FIFO_LENGTH*/
 848:.\Generated_Source\PSoC5/UART_1.c ****             #endif /* End UART_1_CONTROL_REG_REMOVED */
 849:.\Generated_Source\PSoC5/UART_1.c ****         #else /* UART_1_RXHW_ADDRESS_ENABLED */
 850:.\Generated_Source\PSoC5/UART_1.c ****             if(addressMode != 0u) { }     /* release compiler warning */
 851:.\Generated_Source\PSoC5/UART_1.c ****         #endif /* End UART_1_RXHW_ADDRESS_ENABLED */
 852:.\Generated_Source\PSoC5/UART_1.c ****     }
 980              		.loc 1 852 0
 981 000a 07F10C07 		add	r7, r7, #12
 982 000e BD46     		mov	sp, r7
 983 0010 80BC     		pop	{r7}
 984 0012 7047     		bx	lr
 985              		.cfi_endproc
 986              	.LFE15:
 987              		.size	UART_1_SetRxAddressMode, .-UART_1_SetRxAddressMode
 988              		.section	.text.UART_1_SetRxAddress1,"ax",%progbits
 989              		.align	2
 990              		.global	UART_1_SetRxAddress1
 991              		.thumb
 992              		.thumb_func
 993              		.type	UART_1_SetRxAddress1, %function
 994              	UART_1_SetRxAddress1:
 995              	.LFB16:
 853:.\Generated_Source\PSoC5/UART_1.c **** 
 854:.\Generated_Source\PSoC5/UART_1.c **** 
 855:.\Generated_Source\PSoC5/UART_1.c ****     /*******************************************************************************
 856:.\Generated_Source\PSoC5/UART_1.c ****     * Function Name: UART_1_SetRxAddress1
 857:.\Generated_Source\PSoC5/UART_1.c ****     ********************************************************************************
 858:.\Generated_Source\PSoC5/UART_1.c ****     *
 859:.\Generated_Source\PSoC5/UART_1.c ****     * Summary:
 860:.\Generated_Source\PSoC5/UART_1.c ****     *  Set the first hardware address compare value
 861:.\Generated_Source\PSoC5/UART_1.c ****     *
 862:.\Generated_Source\PSoC5/UART_1.c ****     * Parameters:
 863:.\Generated_Source\PSoC5/UART_1.c ****     *  address
 864:.\Generated_Source\PSoC5/UART_1.c ****     *
 865:.\Generated_Source\PSoC5/UART_1.c ****     * Return:
 866:.\Generated_Source\PSoC5/UART_1.c ****     *  None.
 867:.\Generated_Source\PSoC5/UART_1.c ****     *
 868:.\Generated_Source\PSoC5/UART_1.c ****     *******************************************************************************/
 869:.\Generated_Source\PSoC5/UART_1.c ****     void UART_1_SetRxAddress1(uint8 address) 
 870:.\Generated_Source\PSoC5/UART_1.c **** 
 871:.\Generated_Source\PSoC5/UART_1.c ****     {
 996              		.loc 1 871 0
 997              		.cfi_startproc
 998              		@ args = 0, pretend = 0, frame = 8
 999              		@ frame_needed = 1, uses_anonymous_args = 0
 1000              		@ link register save eliminated.
 1001 0000 80B4     		push	{r7}
 1002              	.LCFI42:
 1003              		.cfi_def_cfa_offset 4
 1004              		.cfi_offset 7, -4
 1005 0002 83B0     		sub	sp, sp, #12
 1006              	.LCFI43:
 1007              		.cfi_def_cfa_offset 16
ARM GAS  C:\Users\devdev\AppData\Local\Temp\ccu4icWL.s 			page 34


 1008 0004 00AF     		add	r7, sp, #0
 1009              	.LCFI44:
 1010              		.cfi_def_cfa_register 7
 1011 0006 0346     		mov	r3, r0
 1012 0008 FB71     		strb	r3, [r7, #7]
 872:.\Generated_Source\PSoC5/UART_1.c ****         UART_1_RXADDRESS1_REG = address;
 1013              		.loc 1 872 0
 1014 000a 46F22F43 		movw	r3, #25647
 1015 000e C4F20003 		movt	r3, 16384
 1016 0012 FA79     		ldrb	r2, [r7, #7]
 1017 0014 1A70     		strb	r2, [r3, #0]
 873:.\Generated_Source\PSoC5/UART_1.c ****     }
 1018              		.loc 1 873 0
 1019 0016 07F10C07 		add	r7, r7, #12
 1020 001a BD46     		mov	sp, r7
 1021 001c 80BC     		pop	{r7}
 1022 001e 7047     		bx	lr
 1023              		.cfi_endproc
 1024              	.LFE16:
 1025              		.size	UART_1_SetRxAddress1, .-UART_1_SetRxAddress1
 1026              		.section	.text.UART_1_SetRxAddress2,"ax",%progbits
 1027              		.align	2
 1028              		.global	UART_1_SetRxAddress2
 1029              		.thumb
 1030              		.thumb_func
 1031              		.type	UART_1_SetRxAddress2, %function
 1032              	UART_1_SetRxAddress2:
 1033              	.LFB17:
 874:.\Generated_Source\PSoC5/UART_1.c **** 
 875:.\Generated_Source\PSoC5/UART_1.c **** 
 876:.\Generated_Source\PSoC5/UART_1.c ****     /*******************************************************************************
 877:.\Generated_Source\PSoC5/UART_1.c ****     * Function Name: UART_1_SetRxAddress2
 878:.\Generated_Source\PSoC5/UART_1.c ****     ********************************************************************************
 879:.\Generated_Source\PSoC5/UART_1.c ****     *
 880:.\Generated_Source\PSoC5/UART_1.c ****     * Summary:
 881:.\Generated_Source\PSoC5/UART_1.c ****     *  Set the second hardware address compare value
 882:.\Generated_Source\PSoC5/UART_1.c ****     *
 883:.\Generated_Source\PSoC5/UART_1.c ****     * Parameters:
 884:.\Generated_Source\PSoC5/UART_1.c ****     *  address
 885:.\Generated_Source\PSoC5/UART_1.c ****     *
 886:.\Generated_Source\PSoC5/UART_1.c ****     * Return:
 887:.\Generated_Source\PSoC5/UART_1.c ****     *  None.
 888:.\Generated_Source\PSoC5/UART_1.c ****     *
 889:.\Generated_Source\PSoC5/UART_1.c ****     *******************************************************************************/
 890:.\Generated_Source\PSoC5/UART_1.c ****     void UART_1_SetRxAddress2(uint8 address) 
 891:.\Generated_Source\PSoC5/UART_1.c ****     {
 1034              		.loc 1 891 0
 1035              		.cfi_startproc
 1036              		@ args = 0, pretend = 0, frame = 8
 1037              		@ frame_needed = 1, uses_anonymous_args = 0
 1038              		@ link register save eliminated.
 1039 0000 80B4     		push	{r7}
 1040              	.LCFI45:
 1041              		.cfi_def_cfa_offset 4
 1042              		.cfi_offset 7, -4
 1043 0002 83B0     		sub	sp, sp, #12
 1044              	.LCFI46:
ARM GAS  C:\Users\devdev\AppData\Local\Temp\ccu4icWL.s 			page 35


 1045              		.cfi_def_cfa_offset 16
 1046 0004 00AF     		add	r7, sp, #0
 1047              	.LCFI47:
 1048              		.cfi_def_cfa_register 7
 1049 0006 0346     		mov	r3, r0
 1050 0008 FB71     		strb	r3, [r7, #7]
 892:.\Generated_Source\PSoC5/UART_1.c ****         UART_1_RXADDRESS2_REG = address;
 1051              		.loc 1 892 0
 1052 000a 46F23F43 		movw	r3, #25663
 1053 000e C4F20003 		movt	r3, 16384
 1054 0012 FA79     		ldrb	r2, [r7, #7]
 1055 0014 1A70     		strb	r2, [r3, #0]
 893:.\Generated_Source\PSoC5/UART_1.c ****     }
 1056              		.loc 1 893 0
 1057 0016 07F10C07 		add	r7, r7, #12
 1058 001a BD46     		mov	sp, r7
 1059 001c 80BC     		pop	{r7}
 1060 001e 7047     		bx	lr
 1061              		.cfi_endproc
 1062              	.LFE17:
 1063              		.size	UART_1_SetRxAddress2, .-UART_1_SetRxAddress2
 1064              		.text
 1065              	.Letext0:
 1066              		.file 2 ".\\Generated_Source\\PSoC5\\cytypes.h"
 1067              		.section	.debug_info,"",%progbits
 1068              	.Ldebug_info0:
 1069 0000 35040000 		.4byte	0x435
 1070 0004 0200     		.2byte	0x2
 1071 0006 00000000 		.4byte	.Ldebug_abbrev0
 1072 000a 04       		.byte	0x4
 1073 000b 01       		.uleb128 0x1
 1074 000c D3020000 		.4byte	.LASF53
 1075 0010 01       		.byte	0x1
 1076 0011 96020000 		.4byte	.LASF54
 1077 0015 24020000 		.4byte	.LASF55
 1078 0019 00000000 		.4byte	.Ldebug_ranges0+0
 1079 001d 00000000 		.4byte	0
 1080 0021 00000000 		.4byte	0
 1081 0025 00000000 		.4byte	.Ldebug_line0
 1082 0029 02       		.uleb128 0x2
 1083 002a 01       		.byte	0x1
 1084 002b 06       		.byte	0x6
 1085 002c 91030000 		.4byte	.LASF0
 1086 0030 02       		.uleb128 0x2
 1087 0031 01       		.byte	0x1
 1088 0032 08       		.byte	0x8
 1089 0033 62010000 		.4byte	.LASF1
 1090 0037 02       		.uleb128 0x2
 1091 0038 02       		.byte	0x2
 1092 0039 05       		.byte	0x5
 1093 003a C9020000 		.4byte	.LASF2
 1094 003e 02       		.uleb128 0x2
 1095 003f 02       		.byte	0x2
 1096 0040 07       		.byte	0x7
 1097 0041 78000000 		.4byte	.LASF3
 1098 0045 02       		.uleb128 0x2
 1099 0046 04       		.byte	0x4
ARM GAS  C:\Users\devdev\AppData\Local\Temp\ccu4icWL.s 			page 36


 1100 0047 05       		.byte	0x5
 1101 0048 5A030000 		.4byte	.LASF4
 1102 004c 02       		.uleb128 0x2
 1103 004d 04       		.byte	0x4
 1104 004e 07       		.byte	0x7
 1105 004f 18010000 		.4byte	.LASF5
 1106 0053 02       		.uleb128 0x2
 1107 0054 08       		.byte	0x8
 1108 0055 05       		.byte	0x5
 1109 0056 83020000 		.4byte	.LASF6
 1110 005a 02       		.uleb128 0x2
 1111 005b 08       		.byte	0x8
 1112 005c 07       		.byte	0x7
 1113 005d BE010000 		.4byte	.LASF7
 1114 0061 03       		.uleb128 0x3
 1115 0062 04       		.byte	0x4
 1116 0063 05       		.byte	0x5
 1117 0064 696E7400 		.ascii	"int\000"
 1118 0068 02       		.uleb128 0x2
 1119 0069 04       		.byte	0x4
 1120 006a 07       		.byte	0x7
 1121 006b A9010000 		.4byte	.LASF8
 1122 006f 04       		.uleb128 0x4
 1123 0070 3C010000 		.4byte	.LASF9
 1124 0074 02       		.byte	0x2
 1125 0075 5B       		.byte	0x5b
 1126 0076 30000000 		.4byte	0x30
 1127 007a 04       		.uleb128 0x4
 1128 007b 87010000 		.4byte	.LASF10
 1129 007f 02       		.byte	0x2
 1130 0080 5C       		.byte	0x5c
 1131 0081 3E000000 		.4byte	0x3e
 1132 0085 04       		.uleb128 0x4
 1133 0086 A2010000 		.4byte	.LASF11
 1134 008a 02       		.byte	0x2
 1135 008b 5D       		.byte	0x5d
 1136 008c 4C000000 		.4byte	0x4c
 1137 0090 02       		.uleb128 0x2
 1138 0091 04       		.byte	0x4
 1139 0092 04       		.byte	0x4
 1140 0093 58000000 		.4byte	.LASF12
 1141 0097 02       		.uleb128 0x2
 1142 0098 08       		.byte	0x8
 1143 0099 04       		.byte	0x4
 1144 009a 70010000 		.4byte	.LASF13
 1145 009e 02       		.uleb128 0x2
 1146 009f 01       		.byte	0x1
 1147 00a0 08       		.byte	0x8
 1148 00a1 91020000 		.4byte	.LASF14
 1149 00a5 04       		.uleb128 0x4
 1150 00a6 EC000000 		.4byte	.LASF15
 1151 00aa 02       		.byte	0x2
 1152 00ab F0       		.byte	0xf0
 1153 00ac B0000000 		.4byte	0xb0
 1154 00b0 05       		.uleb128 0x5
 1155 00b1 6F000000 		.4byte	0x6f
 1156 00b5 04       		.uleb128 0x4
ARM GAS  C:\Users\devdev\AppData\Local\Temp\ccu4icWL.s 			page 37


 1157 00b6 63030000 		.4byte	.LASF16
 1158 00ba 02       		.byte	0x2
 1159 00bb F2       		.byte	0xf2
 1160 00bc C0000000 		.4byte	0xc0
 1161 00c0 05       		.uleb128 0x5
 1162 00c1 85000000 		.4byte	0x85
 1163 00c5 02       		.uleb128 0x2
 1164 00c6 04       		.byte	0x4
 1165 00c7 07       		.byte	0x7
 1166 00c8 7A020000 		.4byte	.LASF17
 1167 00cc 06       		.uleb128 0x6
 1168 00cd 01       		.byte	0x1
 1169 00ce 0C000000 		.4byte	.LASF18
 1170 00d2 01       		.byte	0x1
 1171 00d3 49       		.byte	0x49
 1172 00d4 01       		.byte	0x1
 1173 00d5 00000000 		.4byte	.LFB0
 1174 00d9 2A000000 		.4byte	.LFE0
 1175 00dd 00000000 		.4byte	.LLST0
 1176 00e1 01       		.byte	0x1
 1177 00e2 06       		.uleb128 0x6
 1178 00e3 01       		.byte	0x1
 1179 00e4 00000000 		.4byte	.LASF19
 1180 00e8 01       		.byte	0x1
 1181 00e9 65       		.byte	0x65
 1182 00ea 01       		.byte	0x1
 1183 00eb 00000000 		.4byte	.LFB1
 1184 00ef 3E000000 		.4byte	.LFE1
 1185 00f3 2C000000 		.4byte	.LLST1
 1186 00f7 01       		.byte	0x1
 1187 00f8 07       		.uleb128 0x7
 1188 00f9 01       		.byte	0x1
 1189 00fa 69030000 		.4byte	.LASF20
 1190 00fe 01       		.byte	0x1
 1191 00ff AE       		.byte	0xae
 1192 0100 01       		.byte	0x1
 1193 0101 00000000 		.4byte	.LFB2
 1194 0105 68000000 		.4byte	.LFE2
 1195 0109 58000000 		.4byte	.LLST2
 1196 010d 01       		.byte	0x1
 1197 010e 21010000 		.4byte	0x121
 1198 0112 08       		.uleb128 0x8
 1199 0113 51010000 		.4byte	.LASF22
 1200 0117 01       		.byte	0x1
 1201 0118 B0       		.byte	0xb0
 1202 0119 6F000000 		.4byte	0x6f
 1203 011d 02       		.byte	0x2
 1204 011e 91       		.byte	0x91
 1205 011f 77       		.sleb128 -9
 1206 0120 00       		.byte	0
 1207 0121 07       		.uleb128 0x7
 1208 0122 01       		.byte	0x1
 1209 0123 0C010000 		.4byte	.LASF21
 1210 0127 01       		.byte	0x1
 1211 0128 E3       		.byte	0xe3
 1212 0129 01       		.byte	0x1
 1213 012a 00000000 		.4byte	.LFB3
ARM GAS  C:\Users\devdev\AppData\Local\Temp\ccu4icWL.s 			page 38


 1214 012e 5E000000 		.4byte	.LFE3
 1215 0132 90000000 		.4byte	.LLST3
 1216 0136 01       		.byte	0x1
 1217 0137 4A010000 		.4byte	0x14a
 1218 013b 08       		.uleb128 0x8
 1219 013c 51010000 		.4byte	.LASF22
 1220 0140 01       		.byte	0x1
 1221 0141 E5       		.byte	0xe5
 1222 0142 6F000000 		.4byte	0x6f
 1223 0146 02       		.byte	0x2
 1224 0147 91       		.byte	0x91
 1225 0148 77       		.sleb128 -9
 1226 0149 00       		.byte	0
 1227 014a 09       		.uleb128 0x9
 1228 014b 01       		.byte	0x1
 1229 014c F1000000 		.4byte	.LASF37
 1230 0150 01       		.byte	0x1
 1231 0151 1901     		.2byte	0x119
 1232 0153 01       		.byte	0x1
 1233 0154 6F000000 		.4byte	0x6f
 1234 0158 00000000 		.4byte	.LFB4
 1235 015c 10000000 		.4byte	.LFE4
 1236 0160 C8000000 		.4byte	.LLST4
 1237 0164 01       		.byte	0x1
 1238 0165 0A       		.uleb128 0xa
 1239 0166 01       		.byte	0x1
 1240 0167 19000000 		.4byte	.LASF23
 1241 016b 01       		.byte	0x1
 1242 016c 3101     		.2byte	0x131
 1243 016e 01       		.byte	0x1
 1244 016f 00000000 		.4byte	.LFB5
 1245 0173 14000000 		.4byte	.LFE5
 1246 0177 F4000000 		.4byte	.LLST5
 1247 017b 01       		.byte	0x1
 1248 017c 90010000 		.4byte	0x190
 1249 0180 0B       		.uleb128 0xb
 1250 0181 42010000 		.4byte	.LASF27
 1251 0185 01       		.byte	0x1
 1252 0186 3101     		.2byte	0x131
 1253 0188 6F000000 		.4byte	0x6f
 1254 018c 02       		.byte	0x2
 1255 018d 91       		.byte	0x91
 1256 018e 77       		.sleb128 -9
 1257 018f 00       		.byte	0
 1258 0190 0C       		.uleb128 0xc
 1259 0191 01       		.byte	0x1
 1260 0192 11020000 		.4byte	.LASF24
 1261 0196 01       		.byte	0x1
 1262 0197 5001     		.2byte	0x150
 1263 0199 01       		.byte	0x1
 1264 019a 00000000 		.4byte	.LFB6
 1265 019e 18000000 		.4byte	.LFE6
 1266 01a2 2C010000 		.4byte	.LLST6
 1267 01a6 01       		.byte	0x1
 1268 01a7 0C       		.uleb128 0xc
 1269 01a8 01       		.byte	0x1
 1270 01a9 8E010000 		.4byte	.LASF25
ARM GAS  C:\Users\devdev\AppData\Local\Temp\ccu4icWL.s 			page 39


 1271 01ad 01       		.byte	0x1
 1272 01ae 6701     		.2byte	0x167
 1273 01b0 01       		.byte	0x1
 1274 01b1 00000000 		.4byte	.LFB7
 1275 01b5 18000000 		.4byte	.LFE7
 1276 01b9 58010000 		.4byte	.LLST7
 1277 01bd 01       		.byte	0x1
 1278 01be 0A       		.uleb128 0xa
 1279 01bf 01       		.byte	0x1
 1280 01c0 77030000 		.4byte	.LASF26
 1281 01c4 01       		.byte	0x1
 1282 01c5 8101     		.2byte	0x181
 1283 01c7 01       		.byte	0x1
 1284 01c8 00000000 		.4byte	.LFB8
 1285 01cc 20000000 		.4byte	.LFE8
 1286 01d0 84010000 		.4byte	.LLST8
 1287 01d4 01       		.byte	0x1
 1288 01d5 E9010000 		.4byte	0x1e9
 1289 01d9 0B       		.uleb128 0xb
 1290 01da 77010000 		.4byte	.LASF28
 1291 01de 01       		.byte	0x1
 1292 01df 8101     		.2byte	0x181
 1293 01e1 6F000000 		.4byte	0x6f
 1294 01e5 02       		.byte	0x2
 1295 01e6 91       		.byte	0x91
 1296 01e7 77       		.sleb128 -9
 1297 01e8 00       		.byte	0
 1298 01e9 0D       		.uleb128 0xd
 1299 01ea 01       		.byte	0x1
 1300 01eb 2A010000 		.4byte	.LASF32
 1301 01ef 01       		.byte	0x1
 1302 01f0 A201     		.2byte	0x1a2
 1303 01f2 01       		.byte	0x1
 1304 01f3 6F000000 		.4byte	0x6f
 1305 01f7 00000000 		.4byte	.LFB9
 1306 01fb C0000000 		.4byte	.LFE9
 1307 01ff BC010000 		.4byte	.LLST9
 1308 0203 01       		.byte	0x1
 1309 0204 36020000 		.4byte	0x236
 1310 0208 0E       		.uleb128 0xe
 1311 0209 4A010000 		.4byte	.LASF29
 1312 020d 01       		.byte	0x1
 1313 020e A401     		.2byte	0x1a4
 1314 0210 6F000000 		.4byte	0x6f
 1315 0214 02       		.byte	0x2
 1316 0215 91       		.byte	0x91
 1317 0216 77       		.sleb128 -9
 1318 0217 0E       		.uleb128 0xe
 1319 0218 B8020000 		.4byte	.LASF30
 1320 021c 01       		.byte	0x1
 1321 021d A701     		.2byte	0x1a7
 1322 021f 6F000000 		.4byte	0x6f
 1323 0223 02       		.byte	0x2
 1324 0224 91       		.byte	0x91
 1325 0225 76       		.sleb128 -10
 1326 0226 0E       		.uleb128 0xe
 1327 0227 1C030000 		.4byte	.LASF31
ARM GAS  C:\Users\devdev\AppData\Local\Temp\ccu4icWL.s 			page 40


 1328 022b 01       		.byte	0x1
 1329 022c A801     		.2byte	0x1a8
 1330 022e 6F000000 		.4byte	0x6f
 1331 0232 02       		.byte	0x2
 1332 0233 91       		.byte	0x91
 1333 0234 75       		.sleb128 -11
 1334 0235 00       		.byte	0
 1335 0236 0F       		.uleb128 0xf
 1336 0237 01       		.byte	0x1
 1337 0238 46030000 		.4byte	.LASF33
 1338 023c 01       		.byte	0x1
 1339 023d FD01     		.2byte	0x1fd
 1340 023f 01       		.byte	0x1
 1341 0240 6F000000 		.4byte	0x6f
 1342 0244 00000000 		.4byte	.LFB10
 1343 0248 4C000000 		.4byte	.LFE10
 1344 024c F4010000 		.4byte	.LLST10
 1345 0250 01       		.byte	0x1
 1346 0251 65020000 		.4byte	0x265
 1347 0255 0E       		.uleb128 0xe
 1348 0256 A0000000 		.4byte	.LASF34
 1349 025a 01       		.byte	0x1
 1350 025b FF01     		.2byte	0x1ff
 1351 025d 6F000000 		.4byte	0x6f
 1352 0261 02       		.byte	0x2
 1353 0262 91       		.byte	0x91
 1354 0263 77       		.sleb128 -9
 1355 0264 00       		.byte	0
 1356 0265 0D       		.uleb128 0xd
 1357 0266 01       		.byte	0x1
 1358 0267 A2030000 		.4byte	.LASF35
 1359 026b 01       		.byte	0x1
 1360 026c 2C02     		.2byte	0x22c
 1361 026e 01       		.byte	0x1
 1362 026f 6F000000 		.4byte	0x6f
 1363 0273 00000000 		.4byte	.LFB11
 1364 0277 EC000000 		.4byte	.LFE11
 1365 027b 2C020000 		.4byte	.LLST11
 1366 027f 01       		.byte	0x1
 1367 0280 C1020000 		.4byte	0x2c1
 1368 0284 0E       		.uleb128 0xe
 1369 0285 4A010000 		.4byte	.LASF29
 1370 0289 01       		.byte	0x1
 1371 028a 2E02     		.2byte	0x22e
 1372 028c 6F000000 		.4byte	0x6f
 1373 0290 02       		.byte	0x2
 1374 0291 91       		.byte	0x91
 1375 0292 77       		.sleb128 -9
 1376 0293 0E       		.uleb128 0xe
 1377 0294 7E010000 		.4byte	.LASF36
 1378 0298 01       		.byte	0x1
 1379 0299 2F02     		.2byte	0x22f
 1380 029b 6F000000 		.4byte	0x6f
 1381 029f 02       		.byte	0x2
 1382 02a0 91       		.byte	0x91
 1383 02a1 74       		.sleb128 -12
 1384 02a2 0E       		.uleb128 0xe
ARM GAS  C:\Users\devdev\AppData\Local\Temp\ccu4icWL.s 			page 41


 1385 02a3 B8020000 		.4byte	.LASF30
 1386 02a7 01       		.byte	0x1
 1387 02a8 3202     		.2byte	0x232
 1388 02aa 6F000000 		.4byte	0x6f
 1389 02ae 02       		.byte	0x2
 1390 02af 91       		.byte	0x91
 1391 02b0 76       		.sleb128 -10
 1392 02b1 0E       		.uleb128 0xe
 1393 02b2 1C030000 		.4byte	.LASF31
 1394 02b6 01       		.byte	0x1
 1395 02b7 3302     		.2byte	0x233
 1396 02b9 6F000000 		.4byte	0x6f
 1397 02bd 02       		.byte	0x2
 1398 02be 91       		.byte	0x91
 1399 02bf 75       		.sleb128 -11
 1400 02c0 00       		.byte	0
 1401 02c1 10       		.uleb128 0x10
 1402 02c2 01       		.byte	0x1
 1403 02c3 A7000000 		.4byte	.LASF38
 1404 02c7 01       		.byte	0x1
 1405 02c8 9202     		.2byte	0x292
 1406 02ca 01       		.byte	0x1
 1407 02cb 7A000000 		.4byte	0x7a
 1408 02cf 00000000 		.4byte	.LFB12
 1409 02d3 22000000 		.4byte	.LFE12
 1410 02d7 64020000 		.4byte	.LLST12
 1411 02db 01       		.byte	0x1
 1412 02dc 0D       		.uleb128 0xd
 1413 02dd 01       		.byte	0x1
 1414 02de EA010000 		.4byte	.LASF39
 1415 02e2 01       		.byte	0x1
 1416 02e3 B302     		.2byte	0x2b3
 1417 02e5 01       		.byte	0x1
 1418 02e6 6F000000 		.4byte	0x6f
 1419 02ea 00000000 		.4byte	.LFB13
 1420 02ee B2000000 		.4byte	.LFE13
 1421 02f2 90020000 		.4byte	.LLST13
 1422 02f6 01       		.byte	0x1
 1423 02f7 0B030000 		.4byte	0x30b
 1424 02fb 0E       		.uleb128 0xe
 1425 02fc 9D030000 		.4byte	.LASF40
 1426 0300 01       		.byte	0x1
 1427 0301 B602     		.2byte	0x2b6
 1428 0303 6F000000 		.4byte	0x6f
 1429 0307 02       		.byte	0x2
 1430 0308 91       		.byte	0x91
 1431 0309 77       		.sleb128 -9
 1432 030a 00       		.byte	0
 1433 030b 11       		.uleb128 0x11
 1434 030c 01       		.byte	0x1
 1435 030d 8B000000 		.4byte	.LASF41
 1436 0311 01       		.byte	0x1
 1437 0312 0303     		.2byte	0x303
 1438 0314 01       		.byte	0x1
 1439 0315 00000000 		.4byte	.LFB14
 1440 0319 96000000 		.4byte	.LFE14
 1441 031d C8020000 		.4byte	.LLST14
ARM GAS  C:\Users\devdev\AppData\Local\Temp\ccu4icWL.s 			page 42


 1442 0321 01       		.byte	0x1
 1443 0322 36030000 		.4byte	0x336
 1444 0326 0E       		.uleb128 0xe
 1445 0327 51010000 		.4byte	.LASF22
 1446 032b 01       		.byte	0x1
 1447 032c 0503     		.2byte	0x305
 1448 032e 6F000000 		.4byte	0x6f
 1449 0332 02       		.byte	0x2
 1450 0333 91       		.byte	0x91
 1451 0334 77       		.sleb128 -9
 1452 0335 00       		.byte	0
 1453 0336 0A       		.uleb128 0xa
 1454 0337 01       		.byte	0x1
 1455 0338 2E030000 		.4byte	.LASF42
 1456 033c 01       		.byte	0x1
 1457 033d 4003     		.2byte	0x340
 1458 033f 01       		.byte	0x1
 1459 0340 00000000 		.4byte	.LFB15
 1460 0344 14000000 		.4byte	.LFE15
 1461 0348 00030000 		.4byte	.LLST15
 1462 034c 01       		.byte	0x1
 1463 034d 61030000 		.4byte	0x361
 1464 0351 0B       		.uleb128 0xb
 1465 0352 E0000000 		.4byte	.LASF43
 1466 0356 01       		.byte	0x1
 1467 0357 4003     		.2byte	0x340
 1468 0359 6F000000 		.4byte	0x6f
 1469 035d 02       		.byte	0x2
 1470 035e 91       		.byte	0x91
 1471 035f 77       		.sleb128 -9
 1472 0360 00       		.byte	0
 1473 0361 0A       		.uleb128 0xa
 1474 0362 01       		.byte	0x1
 1475 0363 B6000000 		.4byte	.LASF44
 1476 0367 01       		.byte	0x1
 1477 0368 6503     		.2byte	0x365
 1478 036a 01       		.byte	0x1
 1479 036b 00000000 		.4byte	.LFB16
 1480 036f 20000000 		.4byte	.LFE16
 1481 0373 38030000 		.4byte	.LLST16
 1482 0377 01       		.byte	0x1
 1483 0378 8C030000 		.4byte	0x38c
 1484 037c 0B       		.uleb128 0xb
 1485 037d B6010000 		.4byte	.LASF45
 1486 0381 01       		.byte	0x1
 1487 0382 6503     		.2byte	0x365
 1488 0384 6F000000 		.4byte	0x6f
 1489 0388 02       		.byte	0x2
 1490 0389 91       		.byte	0x91
 1491 038a 77       		.sleb128 -9
 1492 038b 00       		.byte	0
 1493 038c 0A       		.uleb128 0xa
 1494 038d 01       		.byte	0x1
 1495 038e CB000000 		.4byte	.LASF46
 1496 0392 01       		.byte	0x1
 1497 0393 7A03     		.2byte	0x37a
 1498 0395 01       		.byte	0x1
ARM GAS  C:\Users\devdev\AppData\Local\Temp\ccu4icWL.s 			page 43


 1499 0396 00000000 		.4byte	.LFB17
 1500 039a 20000000 		.4byte	.LFE17
 1501 039e 70030000 		.4byte	.LLST17
 1502 03a2 01       		.byte	0x1
 1503 03a3 B7030000 		.4byte	0x3b7
 1504 03a7 0B       		.uleb128 0xb
 1505 03a8 B6010000 		.4byte	.LASF45
 1506 03ac 01       		.byte	0x1
 1507 03ad 7A03     		.2byte	0x37a
 1508 03af 6F000000 		.4byte	0x6f
 1509 03b3 02       		.byte	0x2
 1510 03b4 91       		.byte	0x91
 1511 03b5 77       		.sleb128 -9
 1512 03b6 00       		.byte	0
 1513 03b7 12       		.uleb128 0x12
 1514 03b8 35000000 		.4byte	.LASF47
 1515 03bc 01       		.byte	0x1
 1516 03bd 1C       		.byte	0x1c
 1517 03be 6F000000 		.4byte	0x6f
 1518 03c2 01       		.byte	0x1
 1519 03c3 05       		.byte	0x5
 1520 03c4 03       		.byte	0x3
 1521 03c5 00000000 		.4byte	UART_1_initVar
 1522 03c9 13       		.uleb128 0x13
 1523 03ca 6F000000 		.4byte	0x6f
 1524 03ce D9030000 		.4byte	0x3d9
 1525 03d2 14       		.uleb128 0x14
 1526 03d3 C5000000 		.4byte	0xc5
 1527 03d7 0F       		.byte	0xf
 1528 03d8 00       		.byte	0
 1529 03d9 12       		.uleb128 0x12
 1530 03da 01020000 		.4byte	.LASF48
 1531 03de 01       		.byte	0x1
 1532 03df 24       		.byte	0x24
 1533 03e0 EB030000 		.4byte	0x3eb
 1534 03e4 01       		.byte	0x1
 1535 03e5 05       		.byte	0x5
 1536 03e6 03       		.byte	0x3
 1537 03e7 00000000 		.4byte	UART_1_rxBuffer
 1538 03eb 05       		.uleb128 0x5
 1539 03ec C9030000 		.4byte	0x3c9
 1540 03f0 12       		.uleb128 0x12
 1541 03f1 44000000 		.4byte	.LASF49
 1542 03f5 01       		.byte	0x1
 1543 03f6 25       		.byte	0x25
 1544 03f7 B0000000 		.4byte	0xb0
 1545 03fb 01       		.byte	0x1
 1546 03fc 05       		.byte	0x5
 1547 03fd 03       		.byte	0x3
 1548 03fe 00000000 		.4byte	UART_1_rxBufferRead
 1549 0402 12       		.uleb128 0x12
 1550 0403 D5010000 		.4byte	.LASF50
 1551 0407 01       		.byte	0x1
 1552 0408 26       		.byte	0x26
 1553 0409 B0000000 		.4byte	0xb0
 1554 040d 01       		.byte	0x1
 1555 040e 05       		.byte	0x5
ARM GAS  C:\Users\devdev\AppData\Local\Temp\ccu4icWL.s 			page 44


 1556 040f 03       		.byte	0x3
 1557 0410 00000000 		.4byte	UART_1_rxBufferWrite
 1558 0414 12       		.uleb128 0x12
 1559 0415 5E000000 		.4byte	.LASF51
 1560 0419 01       		.byte	0x1
 1561 041a 27       		.byte	0x27
 1562 041b B0000000 		.4byte	0xb0
 1563 041f 01       		.byte	0x1
 1564 0420 05       		.byte	0x5
 1565 0421 03       		.byte	0x3
 1566 0422 00000000 		.4byte	UART_1_rxBufferLoopDetect
 1567 0426 12       		.uleb128 0x12
 1568 0427 62020000 		.4byte	.LASF52
 1569 042b 01       		.byte	0x1
 1570 042c 28       		.byte	0x28
 1571 042d B0000000 		.4byte	0xb0
 1572 0431 01       		.byte	0x1
 1573 0432 05       		.byte	0x5
 1574 0433 03       		.byte	0x3
 1575 0434 00000000 		.4byte	UART_1_rxBufferOverflow
 1576 0438 00       		.byte	0
 1577              		.section	.debug_abbrev,"",%progbits
 1578              	.Ldebug_abbrev0:
 1579 0000 01       		.uleb128 0x1
 1580 0001 11       		.uleb128 0x11
 1581 0002 01       		.byte	0x1
 1582 0003 25       		.uleb128 0x25
 1583 0004 0E       		.uleb128 0xe
 1584 0005 13       		.uleb128 0x13
 1585 0006 0B       		.uleb128 0xb
 1586 0007 03       		.uleb128 0x3
 1587 0008 0E       		.uleb128 0xe
 1588 0009 1B       		.uleb128 0x1b
 1589 000a 0E       		.uleb128 0xe
 1590 000b 55       		.uleb128 0x55
 1591 000c 06       		.uleb128 0x6
 1592 000d 11       		.uleb128 0x11
 1593 000e 01       		.uleb128 0x1
 1594 000f 52       		.uleb128 0x52
 1595 0010 01       		.uleb128 0x1
 1596 0011 10       		.uleb128 0x10
 1597 0012 06       		.uleb128 0x6
 1598 0013 00       		.byte	0
 1599 0014 00       		.byte	0
 1600 0015 02       		.uleb128 0x2
 1601 0016 24       		.uleb128 0x24
 1602 0017 00       		.byte	0
 1603 0018 0B       		.uleb128 0xb
 1604 0019 0B       		.uleb128 0xb
 1605 001a 3E       		.uleb128 0x3e
 1606 001b 0B       		.uleb128 0xb
 1607 001c 03       		.uleb128 0x3
 1608 001d 0E       		.uleb128 0xe
 1609 001e 00       		.byte	0
 1610 001f 00       		.byte	0
 1611 0020 03       		.uleb128 0x3
 1612 0021 24       		.uleb128 0x24
ARM GAS  C:\Users\devdev\AppData\Local\Temp\ccu4icWL.s 			page 45


 1613 0022 00       		.byte	0
 1614 0023 0B       		.uleb128 0xb
 1615 0024 0B       		.uleb128 0xb
 1616 0025 3E       		.uleb128 0x3e
 1617 0026 0B       		.uleb128 0xb
 1618 0027 03       		.uleb128 0x3
 1619 0028 08       		.uleb128 0x8
 1620 0029 00       		.byte	0
 1621 002a 00       		.byte	0
 1622 002b 04       		.uleb128 0x4
 1623 002c 16       		.uleb128 0x16
 1624 002d 00       		.byte	0
 1625 002e 03       		.uleb128 0x3
 1626 002f 0E       		.uleb128 0xe
 1627 0030 3A       		.uleb128 0x3a
 1628 0031 0B       		.uleb128 0xb
 1629 0032 3B       		.uleb128 0x3b
 1630 0033 0B       		.uleb128 0xb
 1631 0034 49       		.uleb128 0x49
 1632 0035 13       		.uleb128 0x13
 1633 0036 00       		.byte	0
 1634 0037 00       		.byte	0
 1635 0038 05       		.uleb128 0x5
 1636 0039 35       		.uleb128 0x35
 1637 003a 00       		.byte	0
 1638 003b 49       		.uleb128 0x49
 1639 003c 13       		.uleb128 0x13
 1640 003d 00       		.byte	0
 1641 003e 00       		.byte	0
 1642 003f 06       		.uleb128 0x6
 1643 0040 2E       		.uleb128 0x2e
 1644 0041 00       		.byte	0
 1645 0042 3F       		.uleb128 0x3f
 1646 0043 0C       		.uleb128 0xc
 1647 0044 03       		.uleb128 0x3
 1648 0045 0E       		.uleb128 0xe
 1649 0046 3A       		.uleb128 0x3a
 1650 0047 0B       		.uleb128 0xb
 1651 0048 3B       		.uleb128 0x3b
 1652 0049 0B       		.uleb128 0xb
 1653 004a 27       		.uleb128 0x27
 1654 004b 0C       		.uleb128 0xc
 1655 004c 11       		.uleb128 0x11
 1656 004d 01       		.uleb128 0x1
 1657 004e 12       		.uleb128 0x12
 1658 004f 01       		.uleb128 0x1
 1659 0050 40       		.uleb128 0x40
 1660 0051 06       		.uleb128 0x6
 1661 0052 9642     		.uleb128 0x2116
 1662 0054 0C       		.uleb128 0xc
 1663 0055 00       		.byte	0
 1664 0056 00       		.byte	0
 1665 0057 07       		.uleb128 0x7
 1666 0058 2E       		.uleb128 0x2e
 1667 0059 01       		.byte	0x1
 1668 005a 3F       		.uleb128 0x3f
 1669 005b 0C       		.uleb128 0xc
ARM GAS  C:\Users\devdev\AppData\Local\Temp\ccu4icWL.s 			page 46


 1670 005c 03       		.uleb128 0x3
 1671 005d 0E       		.uleb128 0xe
 1672 005e 3A       		.uleb128 0x3a
 1673 005f 0B       		.uleb128 0xb
 1674 0060 3B       		.uleb128 0x3b
 1675 0061 0B       		.uleb128 0xb
 1676 0062 27       		.uleb128 0x27
 1677 0063 0C       		.uleb128 0xc
 1678 0064 11       		.uleb128 0x11
 1679 0065 01       		.uleb128 0x1
 1680 0066 12       		.uleb128 0x12
 1681 0067 01       		.uleb128 0x1
 1682 0068 40       		.uleb128 0x40
 1683 0069 06       		.uleb128 0x6
 1684 006a 9642     		.uleb128 0x2116
 1685 006c 0C       		.uleb128 0xc
 1686 006d 01       		.uleb128 0x1
 1687 006e 13       		.uleb128 0x13
 1688 006f 00       		.byte	0
 1689 0070 00       		.byte	0
 1690 0071 08       		.uleb128 0x8
 1691 0072 34       		.uleb128 0x34
 1692 0073 00       		.byte	0
 1693 0074 03       		.uleb128 0x3
 1694 0075 0E       		.uleb128 0xe
 1695 0076 3A       		.uleb128 0x3a
 1696 0077 0B       		.uleb128 0xb
 1697 0078 3B       		.uleb128 0x3b
 1698 0079 0B       		.uleb128 0xb
 1699 007a 49       		.uleb128 0x49
 1700 007b 13       		.uleb128 0x13
 1701 007c 02       		.uleb128 0x2
 1702 007d 0A       		.uleb128 0xa
 1703 007e 00       		.byte	0
 1704 007f 00       		.byte	0
 1705 0080 09       		.uleb128 0x9
 1706 0081 2E       		.uleb128 0x2e
 1707 0082 00       		.byte	0
 1708 0083 3F       		.uleb128 0x3f
 1709 0084 0C       		.uleb128 0xc
 1710 0085 03       		.uleb128 0x3
 1711 0086 0E       		.uleb128 0xe
 1712 0087 3A       		.uleb128 0x3a
 1713 0088 0B       		.uleb128 0xb
 1714 0089 3B       		.uleb128 0x3b
 1715 008a 05       		.uleb128 0x5
 1716 008b 27       		.uleb128 0x27
 1717 008c 0C       		.uleb128 0xc
 1718 008d 49       		.uleb128 0x49
 1719 008e 13       		.uleb128 0x13
 1720 008f 11       		.uleb128 0x11
 1721 0090 01       		.uleb128 0x1
 1722 0091 12       		.uleb128 0x12
 1723 0092 01       		.uleb128 0x1
 1724 0093 40       		.uleb128 0x40
 1725 0094 06       		.uleb128 0x6
 1726 0095 9742     		.uleb128 0x2117
ARM GAS  C:\Users\devdev\AppData\Local\Temp\ccu4icWL.s 			page 47


 1727 0097 0C       		.uleb128 0xc
 1728 0098 00       		.byte	0
 1729 0099 00       		.byte	0
 1730 009a 0A       		.uleb128 0xa
 1731 009b 2E       		.uleb128 0x2e
 1732 009c 01       		.byte	0x1
 1733 009d 3F       		.uleb128 0x3f
 1734 009e 0C       		.uleb128 0xc
 1735 009f 03       		.uleb128 0x3
 1736 00a0 0E       		.uleb128 0xe
 1737 00a1 3A       		.uleb128 0x3a
 1738 00a2 0B       		.uleb128 0xb
 1739 00a3 3B       		.uleb128 0x3b
 1740 00a4 05       		.uleb128 0x5
 1741 00a5 27       		.uleb128 0x27
 1742 00a6 0C       		.uleb128 0xc
 1743 00a7 11       		.uleb128 0x11
 1744 00a8 01       		.uleb128 0x1
 1745 00a9 12       		.uleb128 0x12
 1746 00aa 01       		.uleb128 0x1
 1747 00ab 40       		.uleb128 0x40
 1748 00ac 06       		.uleb128 0x6
 1749 00ad 9742     		.uleb128 0x2117
 1750 00af 0C       		.uleb128 0xc
 1751 00b0 01       		.uleb128 0x1
 1752 00b1 13       		.uleb128 0x13
 1753 00b2 00       		.byte	0
 1754 00b3 00       		.byte	0
 1755 00b4 0B       		.uleb128 0xb
 1756 00b5 05       		.uleb128 0x5
 1757 00b6 00       		.byte	0
 1758 00b7 03       		.uleb128 0x3
 1759 00b8 0E       		.uleb128 0xe
 1760 00b9 3A       		.uleb128 0x3a
 1761 00ba 0B       		.uleb128 0xb
 1762 00bb 3B       		.uleb128 0x3b
 1763 00bc 05       		.uleb128 0x5
 1764 00bd 49       		.uleb128 0x49
 1765 00be 13       		.uleb128 0x13
 1766 00bf 02       		.uleb128 0x2
 1767 00c0 0A       		.uleb128 0xa
 1768 00c1 00       		.byte	0
 1769 00c2 00       		.byte	0
 1770 00c3 0C       		.uleb128 0xc
 1771 00c4 2E       		.uleb128 0x2e
 1772 00c5 00       		.byte	0
 1773 00c6 3F       		.uleb128 0x3f
 1774 00c7 0C       		.uleb128 0xc
 1775 00c8 03       		.uleb128 0x3
 1776 00c9 0E       		.uleb128 0xe
 1777 00ca 3A       		.uleb128 0x3a
 1778 00cb 0B       		.uleb128 0xb
 1779 00cc 3B       		.uleb128 0x3b
 1780 00cd 05       		.uleb128 0x5
 1781 00ce 27       		.uleb128 0x27
 1782 00cf 0C       		.uleb128 0xc
 1783 00d0 11       		.uleb128 0x11
ARM GAS  C:\Users\devdev\AppData\Local\Temp\ccu4icWL.s 			page 48


 1784 00d1 01       		.uleb128 0x1
 1785 00d2 12       		.uleb128 0x12
 1786 00d3 01       		.uleb128 0x1
 1787 00d4 40       		.uleb128 0x40
 1788 00d5 06       		.uleb128 0x6
 1789 00d6 9742     		.uleb128 0x2117
 1790 00d8 0C       		.uleb128 0xc
 1791 00d9 00       		.byte	0
 1792 00da 00       		.byte	0
 1793 00db 0D       		.uleb128 0xd
 1794 00dc 2E       		.uleb128 0x2e
 1795 00dd 01       		.byte	0x1
 1796 00de 3F       		.uleb128 0x3f
 1797 00df 0C       		.uleb128 0xc
 1798 00e0 03       		.uleb128 0x3
 1799 00e1 0E       		.uleb128 0xe
 1800 00e2 3A       		.uleb128 0x3a
 1801 00e3 0B       		.uleb128 0xb
 1802 00e4 3B       		.uleb128 0x3b
 1803 00e5 05       		.uleb128 0x5
 1804 00e6 27       		.uleb128 0x27
 1805 00e7 0C       		.uleb128 0xc
 1806 00e8 49       		.uleb128 0x49
 1807 00e9 13       		.uleb128 0x13
 1808 00ea 11       		.uleb128 0x11
 1809 00eb 01       		.uleb128 0x1
 1810 00ec 12       		.uleb128 0x12
 1811 00ed 01       		.uleb128 0x1
 1812 00ee 40       		.uleb128 0x40
 1813 00ef 06       		.uleb128 0x6
 1814 00f0 9642     		.uleb128 0x2116
 1815 00f2 0C       		.uleb128 0xc
 1816 00f3 01       		.uleb128 0x1
 1817 00f4 13       		.uleb128 0x13
 1818 00f5 00       		.byte	0
 1819 00f6 00       		.byte	0
 1820 00f7 0E       		.uleb128 0xe
 1821 00f8 34       		.uleb128 0x34
 1822 00f9 00       		.byte	0
 1823 00fa 03       		.uleb128 0x3
 1824 00fb 0E       		.uleb128 0xe
 1825 00fc 3A       		.uleb128 0x3a
 1826 00fd 0B       		.uleb128 0xb
 1827 00fe 3B       		.uleb128 0x3b
 1828 00ff 05       		.uleb128 0x5
 1829 0100 49       		.uleb128 0x49
 1830 0101 13       		.uleb128 0x13
 1831 0102 02       		.uleb128 0x2
 1832 0103 0A       		.uleb128 0xa
 1833 0104 00       		.byte	0
 1834 0105 00       		.byte	0
 1835 0106 0F       		.uleb128 0xf
 1836 0107 2E       		.uleb128 0x2e
 1837 0108 01       		.byte	0x1
 1838 0109 3F       		.uleb128 0x3f
 1839 010a 0C       		.uleb128 0xc
 1840 010b 03       		.uleb128 0x3
ARM GAS  C:\Users\devdev\AppData\Local\Temp\ccu4icWL.s 			page 49


 1841 010c 0E       		.uleb128 0xe
 1842 010d 3A       		.uleb128 0x3a
 1843 010e 0B       		.uleb128 0xb
 1844 010f 3B       		.uleb128 0x3b
 1845 0110 05       		.uleb128 0x5
 1846 0111 27       		.uleb128 0x27
 1847 0112 0C       		.uleb128 0xc
 1848 0113 49       		.uleb128 0x49
 1849 0114 13       		.uleb128 0x13
 1850 0115 11       		.uleb128 0x11
 1851 0116 01       		.uleb128 0x1
 1852 0117 12       		.uleb128 0x12
 1853 0118 01       		.uleb128 0x1
 1854 0119 40       		.uleb128 0x40
 1855 011a 06       		.uleb128 0x6
 1856 011b 9742     		.uleb128 0x2117
 1857 011d 0C       		.uleb128 0xc
 1858 011e 01       		.uleb128 0x1
 1859 011f 13       		.uleb128 0x13
 1860 0120 00       		.byte	0
 1861 0121 00       		.byte	0
 1862 0122 10       		.uleb128 0x10
 1863 0123 2E       		.uleb128 0x2e
 1864 0124 00       		.byte	0
 1865 0125 3F       		.uleb128 0x3f
 1866 0126 0C       		.uleb128 0xc
 1867 0127 03       		.uleb128 0x3
 1868 0128 0E       		.uleb128 0xe
 1869 0129 3A       		.uleb128 0x3a
 1870 012a 0B       		.uleb128 0xb
 1871 012b 3B       		.uleb128 0x3b
 1872 012c 05       		.uleb128 0x5
 1873 012d 27       		.uleb128 0x27
 1874 012e 0C       		.uleb128 0xc
 1875 012f 49       		.uleb128 0x49
 1876 0130 13       		.uleb128 0x13
 1877 0131 11       		.uleb128 0x11
 1878 0132 01       		.uleb128 0x1
 1879 0133 12       		.uleb128 0x12
 1880 0134 01       		.uleb128 0x1
 1881 0135 40       		.uleb128 0x40
 1882 0136 06       		.uleb128 0x6
 1883 0137 9642     		.uleb128 0x2116
 1884 0139 0C       		.uleb128 0xc
 1885 013a 00       		.byte	0
 1886 013b 00       		.byte	0
 1887 013c 11       		.uleb128 0x11
 1888 013d 2E       		.uleb128 0x2e
 1889 013e 01       		.byte	0x1
 1890 013f 3F       		.uleb128 0x3f
 1891 0140 0C       		.uleb128 0xc
 1892 0141 03       		.uleb128 0x3
 1893 0142 0E       		.uleb128 0xe
 1894 0143 3A       		.uleb128 0x3a
 1895 0144 0B       		.uleb128 0xb
 1896 0145 3B       		.uleb128 0x3b
 1897 0146 05       		.uleb128 0x5
ARM GAS  C:\Users\devdev\AppData\Local\Temp\ccu4icWL.s 			page 50


 1898 0147 27       		.uleb128 0x27
 1899 0148 0C       		.uleb128 0xc
 1900 0149 11       		.uleb128 0x11
 1901 014a 01       		.uleb128 0x1
 1902 014b 12       		.uleb128 0x12
 1903 014c 01       		.uleb128 0x1
 1904 014d 40       		.uleb128 0x40
 1905 014e 06       		.uleb128 0x6
 1906 014f 9642     		.uleb128 0x2116
 1907 0151 0C       		.uleb128 0xc
 1908 0152 01       		.uleb128 0x1
 1909 0153 13       		.uleb128 0x13
 1910 0154 00       		.byte	0
 1911 0155 00       		.byte	0
 1912 0156 12       		.uleb128 0x12
 1913 0157 34       		.uleb128 0x34
 1914 0158 00       		.byte	0
 1915 0159 03       		.uleb128 0x3
 1916 015a 0E       		.uleb128 0xe
 1917 015b 3A       		.uleb128 0x3a
 1918 015c 0B       		.uleb128 0xb
 1919 015d 3B       		.uleb128 0x3b
 1920 015e 0B       		.uleb128 0xb
 1921 015f 49       		.uleb128 0x49
 1922 0160 13       		.uleb128 0x13
 1923 0161 3F       		.uleb128 0x3f
 1924 0162 0C       		.uleb128 0xc
 1925 0163 02       		.uleb128 0x2
 1926 0164 0A       		.uleb128 0xa
 1927 0165 00       		.byte	0
 1928 0166 00       		.byte	0
 1929 0167 13       		.uleb128 0x13
 1930 0168 01       		.uleb128 0x1
 1931 0169 01       		.byte	0x1
 1932 016a 49       		.uleb128 0x49
 1933 016b 13       		.uleb128 0x13
 1934 016c 01       		.uleb128 0x1
 1935 016d 13       		.uleb128 0x13
 1936 016e 00       		.byte	0
 1937 016f 00       		.byte	0
 1938 0170 14       		.uleb128 0x14
 1939 0171 21       		.uleb128 0x21
 1940 0172 00       		.byte	0
 1941 0173 49       		.uleb128 0x49
 1942 0174 13       		.uleb128 0x13
 1943 0175 2F       		.uleb128 0x2f
 1944 0176 0B       		.uleb128 0xb
 1945 0177 00       		.byte	0
 1946 0178 00       		.byte	0
 1947 0179 00       		.byte	0
 1948              		.section	.debug_loc,"",%progbits
 1949              	.Ldebug_loc0:
 1950              	.LLST0:
 1951 0000 00000000 		.4byte	.LFB0
 1952 0004 02000000 		.4byte	.LCFI0
 1953 0008 0200     		.2byte	0x2
 1954 000a 7D       		.byte	0x7d
ARM GAS  C:\Users\devdev\AppData\Local\Temp\ccu4icWL.s 			page 51


 1955 000b 00       		.sleb128 0
 1956 000c 02000000 		.4byte	.LCFI0
 1957 0010 04000000 		.4byte	.LCFI1
 1958 0014 0200     		.2byte	0x2
 1959 0016 7D       		.byte	0x7d
 1960 0017 08       		.sleb128 8
 1961 0018 04000000 		.4byte	.LCFI1
 1962 001c 2A000000 		.4byte	.LFE0
 1963 0020 0200     		.2byte	0x2
 1964 0022 77       		.byte	0x77
 1965 0023 08       		.sleb128 8
 1966 0024 00000000 		.4byte	0
 1967 0028 00000000 		.4byte	0
 1968              	.LLST1:
 1969 002c 00000000 		.4byte	.LFB1
 1970 0030 02000000 		.4byte	.LCFI2
 1971 0034 0200     		.2byte	0x2
 1972 0036 7D       		.byte	0x7d
 1973 0037 00       		.sleb128 0
 1974 0038 02000000 		.4byte	.LCFI2
 1975 003c 04000000 		.4byte	.LCFI3
 1976 0040 0200     		.2byte	0x2
 1977 0042 7D       		.byte	0x7d
 1978 0043 08       		.sleb128 8
 1979 0044 04000000 		.4byte	.LCFI3
 1980 0048 3E000000 		.4byte	.LFE1
 1981 004c 0200     		.2byte	0x2
 1982 004e 77       		.byte	0x77
 1983 004f 08       		.sleb128 8
 1984 0050 00000000 		.4byte	0
 1985 0054 00000000 		.4byte	0
 1986              	.LLST2:
 1987 0058 00000000 		.4byte	.LFB2
 1988 005c 02000000 		.4byte	.LCFI4
 1989 0060 0200     		.2byte	0x2
 1990 0062 7D       		.byte	0x7d
 1991 0063 00       		.sleb128 0
 1992 0064 02000000 		.4byte	.LCFI4
 1993 0068 04000000 		.4byte	.LCFI5
 1994 006c 0200     		.2byte	0x2
 1995 006e 7D       		.byte	0x7d
 1996 006f 08       		.sleb128 8
 1997 0070 04000000 		.4byte	.LCFI5
 1998 0074 06000000 		.4byte	.LCFI6
 1999 0078 0200     		.2byte	0x2
 2000 007a 7D       		.byte	0x7d
 2001 007b 10       		.sleb128 16
 2002 007c 06000000 		.4byte	.LCFI6
 2003 0080 68000000 		.4byte	.LFE2
 2004 0084 0200     		.2byte	0x2
 2005 0086 77       		.byte	0x77
 2006 0087 10       		.sleb128 16
 2007 0088 00000000 		.4byte	0
 2008 008c 00000000 		.4byte	0
 2009              	.LLST3:
 2010 0090 00000000 		.4byte	.LFB3
 2011 0094 02000000 		.4byte	.LCFI7
ARM GAS  C:\Users\devdev\AppData\Local\Temp\ccu4icWL.s 			page 52


 2012 0098 0200     		.2byte	0x2
 2013 009a 7D       		.byte	0x7d
 2014 009b 00       		.sleb128 0
 2015 009c 02000000 		.4byte	.LCFI7
 2016 00a0 04000000 		.4byte	.LCFI8
 2017 00a4 0200     		.2byte	0x2
 2018 00a6 7D       		.byte	0x7d
 2019 00a7 08       		.sleb128 8
 2020 00a8 04000000 		.4byte	.LCFI8
 2021 00ac 06000000 		.4byte	.LCFI9
 2022 00b0 0200     		.2byte	0x2
 2023 00b2 7D       		.byte	0x7d
 2024 00b3 10       		.sleb128 16
 2025 00b4 06000000 		.4byte	.LCFI9
 2026 00b8 5E000000 		.4byte	.LFE3
 2027 00bc 0200     		.2byte	0x2
 2028 00be 77       		.byte	0x77
 2029 00bf 10       		.sleb128 16
 2030 00c0 00000000 		.4byte	0
 2031 00c4 00000000 		.4byte	0
 2032              	.LLST4:
 2033 00c8 00000000 		.4byte	.LFB4
 2034 00cc 02000000 		.4byte	.LCFI10
 2035 00d0 0200     		.2byte	0x2
 2036 00d2 7D       		.byte	0x7d
 2037 00d3 00       		.sleb128 0
 2038 00d4 02000000 		.4byte	.LCFI10
 2039 00d8 04000000 		.4byte	.LCFI11
 2040 00dc 0200     		.2byte	0x2
 2041 00de 7D       		.byte	0x7d
 2042 00df 04       		.sleb128 4
 2043 00e0 04000000 		.4byte	.LCFI11
 2044 00e4 10000000 		.4byte	.LFE4
 2045 00e8 0200     		.2byte	0x2
 2046 00ea 77       		.byte	0x77
 2047 00eb 04       		.sleb128 4
 2048 00ec 00000000 		.4byte	0
 2049 00f0 00000000 		.4byte	0
 2050              	.LLST5:
 2051 00f4 00000000 		.4byte	.LFB5
 2052 00f8 02000000 		.4byte	.LCFI12
 2053 00fc 0200     		.2byte	0x2
 2054 00fe 7D       		.byte	0x7d
 2055 00ff 00       		.sleb128 0
 2056 0100 02000000 		.4byte	.LCFI12
 2057 0104 04000000 		.4byte	.LCFI13
 2058 0108 0200     		.2byte	0x2
 2059 010a 7D       		.byte	0x7d
 2060 010b 04       		.sleb128 4
 2061 010c 04000000 		.4byte	.LCFI13
 2062 0110 06000000 		.4byte	.LCFI14
 2063 0114 0200     		.2byte	0x2
 2064 0116 7D       		.byte	0x7d
 2065 0117 10       		.sleb128 16
 2066 0118 06000000 		.4byte	.LCFI14
 2067 011c 14000000 		.4byte	.LFE5
 2068 0120 0200     		.2byte	0x2
ARM GAS  C:\Users\devdev\AppData\Local\Temp\ccu4icWL.s 			page 53


 2069 0122 77       		.byte	0x77
 2070 0123 10       		.sleb128 16
 2071 0124 00000000 		.4byte	0
 2072 0128 00000000 		.4byte	0
 2073              	.LLST6:
 2074 012c 00000000 		.4byte	.LFB6
 2075 0130 02000000 		.4byte	.LCFI15
 2076 0134 0200     		.2byte	0x2
 2077 0136 7D       		.byte	0x7d
 2078 0137 00       		.sleb128 0
 2079 0138 02000000 		.4byte	.LCFI15
 2080 013c 04000000 		.4byte	.LCFI16
 2081 0140 0200     		.2byte	0x2
 2082 0142 7D       		.byte	0x7d
 2083 0143 04       		.sleb128 4
 2084 0144 04000000 		.4byte	.LCFI16
 2085 0148 18000000 		.4byte	.LFE6
 2086 014c 0200     		.2byte	0x2
 2087 014e 77       		.byte	0x77
 2088 014f 04       		.sleb128 4
 2089 0150 00000000 		.4byte	0
 2090 0154 00000000 		.4byte	0
 2091              	.LLST7:
 2092 0158 00000000 		.4byte	.LFB7
 2093 015c 02000000 		.4byte	.LCFI17
 2094 0160 0200     		.2byte	0x2
 2095 0162 7D       		.byte	0x7d
 2096 0163 00       		.sleb128 0
 2097 0164 02000000 		.4byte	.LCFI17
 2098 0168 04000000 		.4byte	.LCFI18
 2099 016c 0200     		.2byte	0x2
 2100 016e 7D       		.byte	0x7d
 2101 016f 04       		.sleb128 4
 2102 0170 04000000 		.4byte	.LCFI18
 2103 0174 18000000 		.4byte	.LFE7
 2104 0178 0200     		.2byte	0x2
 2105 017a 77       		.byte	0x77
 2106 017b 04       		.sleb128 4
 2107 017c 00000000 		.4byte	0
 2108 0180 00000000 		.4byte	0
 2109              	.LLST8:
 2110 0184 00000000 		.4byte	.LFB8
 2111 0188 02000000 		.4byte	.LCFI19
 2112 018c 0200     		.2byte	0x2
 2113 018e 7D       		.byte	0x7d
 2114 018f 00       		.sleb128 0
 2115 0190 02000000 		.4byte	.LCFI19
 2116 0194 04000000 		.4byte	.LCFI20
 2117 0198 0200     		.2byte	0x2
 2118 019a 7D       		.byte	0x7d
 2119 019b 04       		.sleb128 4
 2120 019c 04000000 		.4byte	.LCFI20
 2121 01a0 06000000 		.4byte	.LCFI21
 2122 01a4 0200     		.2byte	0x2
 2123 01a6 7D       		.byte	0x7d
 2124 01a7 10       		.sleb128 16
 2125 01a8 06000000 		.4byte	.LCFI21
ARM GAS  C:\Users\devdev\AppData\Local\Temp\ccu4icWL.s 			page 54


 2126 01ac 20000000 		.4byte	.LFE8
 2127 01b0 0200     		.2byte	0x2
 2128 01b2 77       		.byte	0x77
 2129 01b3 10       		.sleb128 16
 2130 01b4 00000000 		.4byte	0
 2131 01b8 00000000 		.4byte	0
 2132              	.LLST9:
 2133 01bc 00000000 		.4byte	.LFB9
 2134 01c0 02000000 		.4byte	.LCFI22
 2135 01c4 0200     		.2byte	0x2
 2136 01c6 7D       		.byte	0x7d
 2137 01c7 00       		.sleb128 0
 2138 01c8 02000000 		.4byte	.LCFI22
 2139 01cc 04000000 		.4byte	.LCFI23
 2140 01d0 0200     		.2byte	0x2
 2141 01d2 7D       		.byte	0x7d
 2142 01d3 08       		.sleb128 8
 2143 01d4 04000000 		.4byte	.LCFI23
 2144 01d8 06000000 		.4byte	.LCFI24
 2145 01dc 0200     		.2byte	0x2
 2146 01de 7D       		.byte	0x7d
 2147 01df 10       		.sleb128 16
 2148 01e0 06000000 		.4byte	.LCFI24
 2149 01e4 C0000000 		.4byte	.LFE9
 2150 01e8 0200     		.2byte	0x2
 2151 01ea 77       		.byte	0x77
 2152 01eb 10       		.sleb128 16
 2153 01ec 00000000 		.4byte	0
 2154 01f0 00000000 		.4byte	0
 2155              	.LLST10:
 2156 01f4 00000000 		.4byte	.LFB10
 2157 01f8 02000000 		.4byte	.LCFI25
 2158 01fc 0200     		.2byte	0x2
 2159 01fe 7D       		.byte	0x7d
 2160 01ff 00       		.sleb128 0
 2161 0200 02000000 		.4byte	.LCFI25
 2162 0204 04000000 		.4byte	.LCFI26
 2163 0208 0200     		.2byte	0x2
 2164 020a 7D       		.byte	0x7d
 2165 020b 04       		.sleb128 4
 2166 020c 04000000 		.4byte	.LCFI26
 2167 0210 06000000 		.4byte	.LCFI27
 2168 0214 0200     		.2byte	0x2
 2169 0216 7D       		.byte	0x7d
 2170 0217 10       		.sleb128 16
 2171 0218 06000000 		.4byte	.LCFI27
 2172 021c 4C000000 		.4byte	.LFE10
 2173 0220 0200     		.2byte	0x2
 2174 0222 77       		.byte	0x77
 2175 0223 10       		.sleb128 16
 2176 0224 00000000 		.4byte	0
 2177 0228 00000000 		.4byte	0
 2178              	.LLST11:
 2179 022c 00000000 		.4byte	.LFB11
 2180 0230 02000000 		.4byte	.LCFI28
 2181 0234 0200     		.2byte	0x2
 2182 0236 7D       		.byte	0x7d
ARM GAS  C:\Users\devdev\AppData\Local\Temp\ccu4icWL.s 			page 55


 2183 0237 00       		.sleb128 0
 2184 0238 02000000 		.4byte	.LCFI28
 2185 023c 04000000 		.4byte	.LCFI29
 2186 0240 0200     		.2byte	0x2
 2187 0242 7D       		.byte	0x7d
 2188 0243 08       		.sleb128 8
 2189 0244 04000000 		.4byte	.LCFI29
 2190 0248 06000000 		.4byte	.LCFI30
 2191 024c 0200     		.2byte	0x2
 2192 024e 7D       		.byte	0x7d
 2193 024f 10       		.sleb128 16
 2194 0250 06000000 		.4byte	.LCFI30
 2195 0254 EC000000 		.4byte	.LFE11
 2196 0258 0200     		.2byte	0x2
 2197 025a 77       		.byte	0x77
 2198 025b 10       		.sleb128 16
 2199 025c 00000000 		.4byte	0
 2200 0260 00000000 		.4byte	0
 2201              	.LLST12:
 2202 0264 00000000 		.4byte	.LFB12
 2203 0268 02000000 		.4byte	.LCFI31
 2204 026c 0200     		.2byte	0x2
 2205 026e 7D       		.byte	0x7d
 2206 026f 00       		.sleb128 0
 2207 0270 02000000 		.4byte	.LCFI31
 2208 0274 04000000 		.4byte	.LCFI32
 2209 0278 0200     		.2byte	0x2
 2210 027a 7D       		.byte	0x7d
 2211 027b 10       		.sleb128 16
 2212 027c 04000000 		.4byte	.LCFI32
 2213 0280 22000000 		.4byte	.LFE12
 2214 0284 0200     		.2byte	0x2
 2215 0286 77       		.byte	0x77
 2216 0287 10       		.sleb128 16
 2217 0288 00000000 		.4byte	0
 2218 028c 00000000 		.4byte	0
 2219              	.LLST13:
 2220 0290 00000000 		.4byte	.LFB13
 2221 0294 02000000 		.4byte	.LCFI33
 2222 0298 0200     		.2byte	0x2
 2223 029a 7D       		.byte	0x7d
 2224 029b 00       		.sleb128 0
 2225 029c 02000000 		.4byte	.LCFI33
 2226 02a0 04000000 		.4byte	.LCFI34
 2227 02a4 0200     		.2byte	0x2
 2228 02a6 7D       		.byte	0x7d
 2229 02a7 08       		.sleb128 8
 2230 02a8 04000000 		.4byte	.LCFI34
 2231 02ac 06000000 		.4byte	.LCFI35
 2232 02b0 0200     		.2byte	0x2
 2233 02b2 7D       		.byte	0x7d
 2234 02b3 10       		.sleb128 16
 2235 02b4 06000000 		.4byte	.LCFI35
 2236 02b8 B2000000 		.4byte	.LFE13
 2237 02bc 0200     		.2byte	0x2
 2238 02be 77       		.byte	0x77
 2239 02bf 10       		.sleb128 16
ARM GAS  C:\Users\devdev\AppData\Local\Temp\ccu4icWL.s 			page 56


 2240 02c0 00000000 		.4byte	0
 2241 02c4 00000000 		.4byte	0
 2242              	.LLST14:
 2243 02c8 00000000 		.4byte	.LFB14
 2244 02cc 02000000 		.4byte	.LCFI36
 2245 02d0 0200     		.2byte	0x2
 2246 02d2 7D       		.byte	0x7d
 2247 02d3 00       		.sleb128 0
 2248 02d4 02000000 		.4byte	.LCFI36
 2249 02d8 04000000 		.4byte	.LCFI37
 2250 02dc 0200     		.2byte	0x2
 2251 02de 7D       		.byte	0x7d
 2252 02df 08       		.sleb128 8
 2253 02e0 04000000 		.4byte	.LCFI37
 2254 02e4 06000000 		.4byte	.LCFI38
 2255 02e8 0200     		.2byte	0x2
 2256 02ea 7D       		.byte	0x7d
 2257 02eb 10       		.sleb128 16
 2258 02ec 06000000 		.4byte	.LCFI38
 2259 02f0 96000000 		.4byte	.LFE14
 2260 02f4 0200     		.2byte	0x2
 2261 02f6 77       		.byte	0x77
 2262 02f7 10       		.sleb128 16
 2263 02f8 00000000 		.4byte	0
 2264 02fc 00000000 		.4byte	0
 2265              	.LLST15:
 2266 0300 00000000 		.4byte	.LFB15
 2267 0304 02000000 		.4byte	.LCFI39
 2268 0308 0200     		.2byte	0x2
 2269 030a 7D       		.byte	0x7d
 2270 030b 00       		.sleb128 0
 2271 030c 02000000 		.4byte	.LCFI39
 2272 0310 04000000 		.4byte	.LCFI40
 2273 0314 0200     		.2byte	0x2
 2274 0316 7D       		.byte	0x7d
 2275 0317 04       		.sleb128 4
 2276 0318 04000000 		.4byte	.LCFI40
 2277 031c 06000000 		.4byte	.LCFI41
 2278 0320 0200     		.2byte	0x2
 2279 0322 7D       		.byte	0x7d
 2280 0323 10       		.sleb128 16
 2281 0324 06000000 		.4byte	.LCFI41
 2282 0328 14000000 		.4byte	.LFE15
 2283 032c 0200     		.2byte	0x2
 2284 032e 77       		.byte	0x77
 2285 032f 10       		.sleb128 16
 2286 0330 00000000 		.4byte	0
 2287 0334 00000000 		.4byte	0
 2288              	.LLST16:
 2289 0338 00000000 		.4byte	.LFB16
 2290 033c 02000000 		.4byte	.LCFI42
 2291 0340 0200     		.2byte	0x2
 2292 0342 7D       		.byte	0x7d
 2293 0343 00       		.sleb128 0
 2294 0344 02000000 		.4byte	.LCFI42
 2295 0348 04000000 		.4byte	.LCFI43
 2296 034c 0200     		.2byte	0x2
ARM GAS  C:\Users\devdev\AppData\Local\Temp\ccu4icWL.s 			page 57


 2297 034e 7D       		.byte	0x7d
 2298 034f 04       		.sleb128 4
 2299 0350 04000000 		.4byte	.LCFI43
 2300 0354 06000000 		.4byte	.LCFI44
 2301 0358 0200     		.2byte	0x2
 2302 035a 7D       		.byte	0x7d
 2303 035b 10       		.sleb128 16
 2304 035c 06000000 		.4byte	.LCFI44
 2305 0360 20000000 		.4byte	.LFE16
 2306 0364 0200     		.2byte	0x2
 2307 0366 77       		.byte	0x77
 2308 0367 10       		.sleb128 16
 2309 0368 00000000 		.4byte	0
 2310 036c 00000000 		.4byte	0
 2311              	.LLST17:
 2312 0370 00000000 		.4byte	.LFB17
 2313 0374 02000000 		.4byte	.LCFI45
 2314 0378 0200     		.2byte	0x2
 2315 037a 7D       		.byte	0x7d
 2316 037b 00       		.sleb128 0
 2317 037c 02000000 		.4byte	.LCFI45
 2318 0380 04000000 		.4byte	.LCFI46
 2319 0384 0200     		.2byte	0x2
 2320 0386 7D       		.byte	0x7d
 2321 0387 04       		.sleb128 4
 2322 0388 04000000 		.4byte	.LCFI46
 2323 038c 06000000 		.4byte	.LCFI47
 2324 0390 0200     		.2byte	0x2
 2325 0392 7D       		.byte	0x7d
 2326 0393 10       		.sleb128 16
 2327 0394 06000000 		.4byte	.LCFI47
 2328 0398 20000000 		.4byte	.LFE17
 2329 039c 0200     		.2byte	0x2
 2330 039e 77       		.byte	0x77
 2331 039f 10       		.sleb128 16
 2332 03a0 00000000 		.4byte	0
 2333 03a4 00000000 		.4byte	0
 2334              		.section	.debug_aranges,"",%progbits
 2335 0000 A4000000 		.4byte	0xa4
 2336 0004 0200     		.2byte	0x2
 2337 0006 00000000 		.4byte	.Ldebug_info0
 2338 000a 04       		.byte	0x4
 2339 000b 00       		.byte	0
 2340 000c 0000     		.2byte	0
 2341 000e 0000     		.2byte	0
 2342 0010 00000000 		.4byte	.LFB0
 2343 0014 2A000000 		.4byte	.LFE0-.LFB0
 2344 0018 00000000 		.4byte	.LFB1
 2345 001c 3E000000 		.4byte	.LFE1-.LFB1
 2346 0020 00000000 		.4byte	.LFB2
 2347 0024 68000000 		.4byte	.LFE2-.LFB2
 2348 0028 00000000 		.4byte	.LFB3
 2349 002c 5E000000 		.4byte	.LFE3-.LFB3
 2350 0030 00000000 		.4byte	.LFB4
 2351 0034 10000000 		.4byte	.LFE4-.LFB4
 2352 0038 00000000 		.4byte	.LFB5
 2353 003c 14000000 		.4byte	.LFE5-.LFB5
ARM GAS  C:\Users\devdev\AppData\Local\Temp\ccu4icWL.s 			page 58


 2354 0040 00000000 		.4byte	.LFB6
 2355 0044 18000000 		.4byte	.LFE6-.LFB6
 2356 0048 00000000 		.4byte	.LFB7
 2357 004c 18000000 		.4byte	.LFE7-.LFB7
 2358 0050 00000000 		.4byte	.LFB8
 2359 0054 20000000 		.4byte	.LFE8-.LFB8
 2360 0058 00000000 		.4byte	.LFB9
 2361 005c C0000000 		.4byte	.LFE9-.LFB9
 2362 0060 00000000 		.4byte	.LFB10
 2363 0064 4C000000 		.4byte	.LFE10-.LFB10
 2364 0068 00000000 		.4byte	.LFB11
 2365 006c EC000000 		.4byte	.LFE11-.LFB11
 2366 0070 00000000 		.4byte	.LFB12
 2367 0074 22000000 		.4byte	.LFE12-.LFB12
 2368 0078 00000000 		.4byte	.LFB13
 2369 007c B2000000 		.4byte	.LFE13-.LFB13
 2370 0080 00000000 		.4byte	.LFB14
 2371 0084 96000000 		.4byte	.LFE14-.LFB14
 2372 0088 00000000 		.4byte	.LFB15
 2373 008c 14000000 		.4byte	.LFE15-.LFB15
 2374 0090 00000000 		.4byte	.LFB16
 2375 0094 20000000 		.4byte	.LFE16-.LFB16
 2376 0098 00000000 		.4byte	.LFB17
 2377 009c 20000000 		.4byte	.LFE17-.LFB17
 2378 00a0 00000000 		.4byte	0
 2379 00a4 00000000 		.4byte	0
 2380              		.section	.debug_ranges,"",%progbits
 2381              	.Ldebug_ranges0:
 2382 0000 00000000 		.4byte	.LFB0
 2383 0004 2A000000 		.4byte	.LFE0
 2384 0008 00000000 		.4byte	.LFB1
 2385 000c 3E000000 		.4byte	.LFE1
 2386 0010 00000000 		.4byte	.LFB2
 2387 0014 68000000 		.4byte	.LFE2
 2388 0018 00000000 		.4byte	.LFB3
 2389 001c 5E000000 		.4byte	.LFE3
 2390 0020 00000000 		.4byte	.LFB4
 2391 0024 10000000 		.4byte	.LFE4
 2392 0028 00000000 		.4byte	.LFB5
 2393 002c 14000000 		.4byte	.LFE5
 2394 0030 00000000 		.4byte	.LFB6
 2395 0034 18000000 		.4byte	.LFE6
 2396 0038 00000000 		.4byte	.LFB7
 2397 003c 18000000 		.4byte	.LFE7
 2398 0040 00000000 		.4byte	.LFB8
 2399 0044 20000000 		.4byte	.LFE8
 2400 0048 00000000 		.4byte	.LFB9
 2401 004c C0000000 		.4byte	.LFE9
 2402 0050 00000000 		.4byte	.LFB10
 2403 0054 4C000000 		.4byte	.LFE10
 2404 0058 00000000 		.4byte	.LFB11
 2405 005c EC000000 		.4byte	.LFE11
 2406 0060 00000000 		.4byte	.LFB12
 2407 0064 22000000 		.4byte	.LFE12
 2408 0068 00000000 		.4byte	.LFB13
 2409 006c B2000000 		.4byte	.LFE13
 2410 0070 00000000 		.4byte	.LFB14
ARM GAS  C:\Users\devdev\AppData\Local\Temp\ccu4icWL.s 			page 59


 2411 0074 96000000 		.4byte	.LFE14
 2412 0078 00000000 		.4byte	.LFB15
 2413 007c 14000000 		.4byte	.LFE15
 2414 0080 00000000 		.4byte	.LFB16
 2415 0084 20000000 		.4byte	.LFE16
 2416 0088 00000000 		.4byte	.LFB17
 2417 008c 20000000 		.4byte	.LFE17
 2418 0090 00000000 		.4byte	0
 2419 0094 00000000 		.4byte	0
 2420              		.section	.debug_line,"",%progbits
 2421              	.Ldebug_line0:
 2422 0000 08020000 		.section	.debug_str,"MS",%progbits,1
 2422      02004500 
 2422      00000201 
 2422      FB0E0D00 
 2422      01010101 
 2423              	.LASF19:
 2424 0000 55415254 		.ascii	"UART_1_Init\000"
 2424      5F315F49 
 2424      6E697400 
 2425              	.LASF18:
 2426 000c 55415254 		.ascii	"UART_1_Start\000"
 2426      5F315F53 
 2426      74617274 
 2426      00
 2427              	.LASF23:
 2428 0019 55415254 		.ascii	"UART_1_WriteControlRegister\000"
 2428      5F315F57 
 2428      72697465 
 2428      436F6E74 
 2428      726F6C52 
 2429              	.LASF47:
 2430 0035 55415254 		.ascii	"UART_1_initVar\000"
 2430      5F315F69 
 2430      6E697456 
 2430      617200
 2431              	.LASF49:
 2432 0044 55415254 		.ascii	"UART_1_rxBufferRead\000"
 2432      5F315F72 
 2432      78427566 
 2432      66657252 
 2432      65616400 
 2433              	.LASF12:
 2434 0058 666C6F61 		.ascii	"float\000"
 2434      7400
 2435              	.LASF51:
 2436 005e 55415254 		.ascii	"UART_1_rxBufferLoopDetect\000"
 2436      5F315F72 
 2436      78427566 
 2436      6665724C 
 2436      6F6F7044 
 2437              	.LASF3:
 2438 0078 73686F72 		.ascii	"short unsigned int\000"
 2438      7420756E 
 2438      7369676E 
 2438      65642069 
 2438      6E7400
ARM GAS  C:\Users\devdev\AppData\Local\Temp\ccu4icWL.s 			page 60


 2439              	.LASF41:
 2440 008b 55415254 		.ascii	"UART_1_ClearRxBuffer\000"
 2440      5F315F43 
 2440      6C656172 
 2440      52784275 
 2440      66666572 
 2441              	.LASF34:
 2442 00a0 73746174 		.ascii	"status\000"
 2442      757300
 2443              	.LASF38:
 2444 00a7 55415254 		.ascii	"UART_1_GetByte\000"
 2444      5F315F47 
 2444      65744279 
 2444      746500
 2445              	.LASF44:
 2446 00b6 55415254 		.ascii	"UART_1_SetRxAddress1\000"
 2446      5F315F53 
 2446      65745278 
 2446      41646472 
 2446      65737331 
 2447              	.LASF46:
 2448 00cb 55415254 		.ascii	"UART_1_SetRxAddress2\000"
 2448      5F315F53 
 2448      65745278 
 2448      41646472 
 2448      65737332 
 2449              	.LASF43:
 2450 00e0 61646472 		.ascii	"addressMode\000"
 2450      6573734D 
 2450      6F646500 
 2451              	.LASF15:
 2452 00ec 72656738 		.ascii	"reg8\000"
 2452      00
 2453              	.LASF37:
 2454 00f1 55415254 		.ascii	"UART_1_ReadControlRegister\000"
 2454      5F315F52 
 2454      65616443 
 2454      6F6E7472 
 2454      6F6C5265 
 2455              	.LASF21:
 2456 010c 55415254 		.ascii	"UART_1_Stop\000"
 2456      5F315F53 
 2456      746F7000 
 2457              	.LASF5:
 2458 0118 6C6F6E67 		.ascii	"long unsigned int\000"
 2458      20756E73 
 2458      69676E65 
 2458      6420696E 
 2458      7400
 2459              	.LASF32:
 2460 012a 55415254 		.ascii	"UART_1_ReadRxData\000"
 2460      5F315F52 
 2460      65616452 
 2460      78446174 
 2460      6100
 2461              	.LASF9:
 2462 013c 75696E74 		.ascii	"uint8\000"
ARM GAS  C:\Users\devdev\AppData\Local\Temp\ccu4icWL.s 			page 61


 2462      3800
 2463              	.LASF27:
 2464 0142 636F6E74 		.ascii	"control\000"
 2464      726F6C00 
 2465              	.LASF29:
 2466 014a 72784461 		.ascii	"rxData\000"
 2466      746100
 2467              	.LASF22:
 2468 0151 656E6162 		.ascii	"enableInterrupts\000"
 2468      6C65496E 
 2468      74657272 
 2468      75707473 
 2468      00
 2469              	.LASF1:
 2470 0162 756E7369 		.ascii	"unsigned char\000"
 2470      676E6564 
 2470      20636861 
 2470      7200
 2471              	.LASF13:
 2472 0170 646F7562 		.ascii	"double\000"
 2472      6C6500
 2473              	.LASF28:
 2474 0177 696E7453 		.ascii	"intSrc\000"
 2474      726300
 2475              	.LASF36:
 2476 017e 72785374 		.ascii	"rxStatus\000"
 2476      61747573 
 2476      00
 2477              	.LASF10:
 2478 0187 75696E74 		.ascii	"uint16\000"
 2478      313600
 2479              	.LASF25:
 2480 018e 55415254 		.ascii	"UART_1_DisableRxInt\000"
 2480      5F315F44 
 2480      69736162 
 2480      6C655278 
 2480      496E7400 
 2481              	.LASF11:
 2482 01a2 75696E74 		.ascii	"uint32\000"
 2482      333200
 2483              	.LASF8:
 2484 01a9 756E7369 		.ascii	"unsigned int\000"
 2484      676E6564 
 2484      20696E74 
 2484      00
 2485              	.LASF45:
 2486 01b6 61646472 		.ascii	"address\000"
 2486      65737300 
 2487              	.LASF7:
 2488 01be 6C6F6E67 		.ascii	"long long unsigned int\000"
 2488      206C6F6E 
 2488      6720756E 
 2488      7369676E 
 2488      65642069 
 2489              	.LASF50:
 2490 01d5 55415254 		.ascii	"UART_1_rxBufferWrite\000"
 2490      5F315F72 
ARM GAS  C:\Users\devdev\AppData\Local\Temp\ccu4icWL.s 			page 62


 2490      78427566 
 2490      66657257 
 2490      72697465 
 2491              	.LASF39:
 2492 01ea 55415254 		.ascii	"UART_1_GetRxBufferSize\000"
 2492      5F315F47 
 2492      65745278 
 2492      42756666 
 2492      65725369 
 2493              	.LASF48:
 2494 0201 55415254 		.ascii	"UART_1_rxBuffer\000"
 2494      5F315F72 
 2494      78427566 
 2494      66657200 
 2495              	.LASF24:
 2496 0211 55415254 		.ascii	"UART_1_EnableRxInt\000"
 2496      5F315F45 
 2496      6E61626C 
 2496      65527849 
 2496      6E7400
 2497              	.LASF55:
 2498 0224 433A5C55 		.ascii	"C:\\Users\\devdev\\Documents\\PSoC Creator\\SFT1.0v"
 2498      73657273 
 2498      5C646576 
 2498      6465765C 
 2498      446F6375 
 2499 0252 5C446573 		.ascii	"\\Design01.cydsn\000"
 2499      69676E30 
 2499      312E6379 
 2499      64736E00 
 2500              	.LASF52:
 2501 0262 55415254 		.ascii	"UART_1_rxBufferOverflow\000"
 2501      5F315F72 
 2501      78427566 
 2501      6665724F 
 2501      76657266 
 2502              	.LASF17:
 2503 027a 73697A65 		.ascii	"sizetype\000"
 2503      74797065 
 2503      00
 2504              	.LASF6:
 2505 0283 6C6F6E67 		.ascii	"long long int\000"
 2505      206C6F6E 
 2505      6720696E 
 2505      7400
 2506              	.LASF14:
 2507 0291 63686172 		.ascii	"char\000"
 2507      00
 2508              	.LASF54:
 2509 0296 2E5C4765 		.ascii	".\\Generated_Source\\PSoC5\\UART_1.c\000"
 2509      6E657261 
 2509      7465645F 
 2509      536F7572 
 2509      63655C50 
 2510              	.LASF30:
 2511 02b8 6C6F635F 		.ascii	"loc_rxBufferRead\000"
 2511      72784275 
ARM GAS  C:\Users\devdev\AppData\Local\Temp\ccu4icWL.s 			page 63


 2511      66666572 
 2511      52656164 
 2511      00
 2512              	.LASF2:
 2513 02c9 73686F72 		.ascii	"short int\000"
 2513      7420696E 
 2513      7400
 2514              	.LASF53:
 2515 02d3 474E5520 		.ascii	"GNU C 4.7.3 20130312 (release) [ARM/embedded-4_7-br"
 2515      4320342E 
 2515      372E3320 
 2515      32303133 
 2515      30333132 
 2516 0306 616E6368 		.ascii	"anch revision 196615]\000"
 2516      20726576 
 2516      6973696F 
 2516      6E203139 
 2516      36363135 
 2517              	.LASF31:
 2518 031c 6C6F635F 		.ascii	"loc_rxBufferWrite\000"
 2518      72784275 
 2518      66666572 
 2518      57726974 
 2518      6500
 2519              	.LASF42:
 2520 032e 55415254 		.ascii	"UART_1_SetRxAddressMode\000"
 2520      5F315F53 
 2520      65745278 
 2520      41646472 
 2520      6573734D 
 2521              	.LASF33:
 2522 0346 55415254 		.ascii	"UART_1_ReadRxStatus\000"
 2522      5F315F52 
 2522      65616452 
 2522      78537461 
 2522      74757300 
 2523              	.LASF4:
 2524 035a 6C6F6E67 		.ascii	"long int\000"
 2524      20696E74 
 2524      00
 2525              	.LASF16:
 2526 0363 72656733 		.ascii	"reg32\000"
 2526      3200
 2527              	.LASF20:
 2528 0369 55415254 		.ascii	"UART_1_Enable\000"
 2528      5F315F45 
 2528      6E61626C 
 2528      6500
 2529              	.LASF26:
 2530 0377 55415254 		.ascii	"UART_1_SetRxInterruptMode\000"
 2530      5F315F53 
 2530      65745278 
 2530      496E7465 
 2530      72727570 
 2531              	.LASF0:
 2532 0391 7369676E 		.ascii	"signed char\000"
 2532      65642063 
ARM GAS  C:\Users\devdev\AppData\Local\Temp\ccu4icWL.s 			page 64


 2532      68617200 
 2533              	.LASF40:
 2534 039d 73697A65 		.ascii	"size\000"
 2534      00
 2535              	.LASF35:
 2536 03a2 55415254 		.ascii	"UART_1_GetChar\000"
 2536      5F315F47 
 2536      65744368 
 2536      617200
 2537              		.ident	"GCC: (GNU Tools for ARM Embedded Processors) 4.7.3 20130312 (release) [ARM/embedded-4_7-br
