ARM GAS  C:\Users\dskyNote\AppData\Local\Temp\ccLkSjFG.s 			page 1


   1              		.syntax unified
   2              		.cpu cortex-m3
   3              		.fpu softvfp
   4              		.eabi_attribute 20, 1
   5              		.eabi_attribute 21, 1
   6              		.eabi_attribute 23, 3
   7              		.eabi_attribute 24, 1
   8              		.eabi_attribute 25, 1
   9              		.eabi_attribute 26, 1
  10              		.eabi_attribute 30, 6
  11              		.eabi_attribute 34, 1
  12              		.eabi_attribute 18, 4
  13              		.thumb
  14              		.file	"I2C_2_MASTER.c"
  15              		.text
  16              	.Ltext0:
  17              		.cfi_sections	.debug_frame
  18              		.comm	I2C_2_mstrStatus,1,1
  19              		.comm	I2C_2_mstrControl,1,1
  20              		.comm	I2C_2_mstrRdBufPtr,4,4
  21              		.comm	I2C_2_mstrRdBufSize,1,1
  22              		.comm	I2C_2_mstrRdBufIndex,1,1
  23              		.comm	I2C_2_mstrWrBufPtr,4,4
  24              		.comm	I2C_2_mstrWrBufSize,1,1
  25              		.comm	I2C_2_mstrWrBufIndex,1,1
  26              		.section	.text.I2C_2_MasterWriteBuf,"ax",%progbits
  27              		.align	2
  28              		.global	I2C_2_MasterWriteBuf
  29              		.thumb
  30              		.thumb_func
  31              		.type	I2C_2_MasterWriteBuf, %function
  32              	I2C_2_MasterWriteBuf:
  33              	.LFB0:
  34              		.file 1 ".\\Generated_Source\\PSoC5\\I2C_2_MASTER.c"
   1:.\Generated_Source\PSoC5/I2C_2_MASTER.c **** /*******************************************************************************
   2:.\Generated_Source\PSoC5/I2C_2_MASTER.c **** * File Name: I2C_2_MASTER.c
   3:.\Generated_Source\PSoC5/I2C_2_MASTER.c **** * Version 3.30
   4:.\Generated_Source\PSoC5/I2C_2_MASTER.c **** *
   5:.\Generated_Source\PSoC5/I2C_2_MASTER.c **** * Description:
   6:.\Generated_Source\PSoC5/I2C_2_MASTER.c **** *  This file provides the source code of APIs for the I2C component Master mode.
   7:.\Generated_Source\PSoC5/I2C_2_MASTER.c **** *
   8:.\Generated_Source\PSoC5/I2C_2_MASTER.c **** * Note:
   9:.\Generated_Source\PSoC5/I2C_2_MASTER.c **** *
  10:.\Generated_Source\PSoC5/I2C_2_MASTER.c **** *******************************************************************************
  11:.\Generated_Source\PSoC5/I2C_2_MASTER.c **** * Copyright 2012, Cypress Semiconductor Corporation.  All rights reserved.
  12:.\Generated_Source\PSoC5/I2C_2_MASTER.c **** * You may use this file only in accordance with the license, terms, conditions,
  13:.\Generated_Source\PSoC5/I2C_2_MASTER.c **** * disclaimers, and limitations in the end user license agreement accompanying
  14:.\Generated_Source\PSoC5/I2C_2_MASTER.c **** * the software package with which this file was provided.
  15:.\Generated_Source\PSoC5/I2C_2_MASTER.c **** *******************************************************************************/
  16:.\Generated_Source\PSoC5/I2C_2_MASTER.c **** 
  17:.\Generated_Source\PSoC5/I2C_2_MASTER.c **** #include "I2C_2_PVT.h"
  18:.\Generated_Source\PSoC5/I2C_2_MASTER.c **** 
  19:.\Generated_Source\PSoC5/I2C_2_MASTER.c **** #if(I2C_2_MODE_MASTER_ENABLED)
  20:.\Generated_Source\PSoC5/I2C_2_MASTER.c **** 
  21:.\Generated_Source\PSoC5/I2C_2_MASTER.c **** /**********************************
  22:.\Generated_Source\PSoC5/I2C_2_MASTER.c **** *      System variables
  23:.\Generated_Source\PSoC5/I2C_2_MASTER.c **** **********************************/
ARM GAS  C:\Users\dskyNote\AppData\Local\Temp\ccLkSjFG.s 			page 2


  24:.\Generated_Source\PSoC5/I2C_2_MASTER.c **** 
  25:.\Generated_Source\PSoC5/I2C_2_MASTER.c **** volatile uint8 I2C_2_mstrStatus;     /* Master Status byte  */
  26:.\Generated_Source\PSoC5/I2C_2_MASTER.c **** volatile uint8 I2C_2_mstrControl;    /* Master Control byte */
  27:.\Generated_Source\PSoC5/I2C_2_MASTER.c **** 
  28:.\Generated_Source\PSoC5/I2C_2_MASTER.c **** /* Transmit buffer variables */
  29:.\Generated_Source\PSoC5/I2C_2_MASTER.c **** volatile uint8 * I2C_2_mstrRdBufPtr;     /* Pointer to Master Read buffer */
  30:.\Generated_Source\PSoC5/I2C_2_MASTER.c **** volatile uint8   I2C_2_mstrRdBufSize;    /* Master Read buffer size       */
  31:.\Generated_Source\PSoC5/I2C_2_MASTER.c **** volatile uint8   I2C_2_mstrRdBufIndex;   /* Master Read buffer Index      */
  32:.\Generated_Source\PSoC5/I2C_2_MASTER.c **** 
  33:.\Generated_Source\PSoC5/I2C_2_MASTER.c **** /* Receive buffer variables */
  34:.\Generated_Source\PSoC5/I2C_2_MASTER.c **** volatile uint8 * I2C_2_mstrWrBufPtr;     /* Pointer to Master Write buffer */
  35:.\Generated_Source\PSoC5/I2C_2_MASTER.c **** volatile uint8   I2C_2_mstrWrBufSize;    /* Master Write buffer size       */
  36:.\Generated_Source\PSoC5/I2C_2_MASTER.c **** volatile uint8   I2C_2_mstrWrBufIndex;   /* Master Write buffer Index      */
  37:.\Generated_Source\PSoC5/I2C_2_MASTER.c **** 
  38:.\Generated_Source\PSoC5/I2C_2_MASTER.c **** 
  39:.\Generated_Source\PSoC5/I2C_2_MASTER.c **** /*******************************************************************************
  40:.\Generated_Source\PSoC5/I2C_2_MASTER.c **** * Function Name: I2C_2_MasterWriteBuf
  41:.\Generated_Source\PSoC5/I2C_2_MASTER.c **** ********************************************************************************
  42:.\Generated_Source\PSoC5/I2C_2_MASTER.c **** *
  43:.\Generated_Source\PSoC5/I2C_2_MASTER.c **** * Summary:
  44:.\Generated_Source\PSoC5/I2C_2_MASTER.c **** *  Automatically writes an entire buffer of data to a slave device. Once the
  45:.\Generated_Source\PSoC5/I2C_2_MASTER.c **** *  data transfer is initiated by this function, further data transfer is handled
  46:.\Generated_Source\PSoC5/I2C_2_MASTER.c **** *  by the included ISR in byte by byte mode.
  47:.\Generated_Source\PSoC5/I2C_2_MASTER.c **** *
  48:.\Generated_Source\PSoC5/I2C_2_MASTER.c **** * Parameters:
  49:.\Generated_Source\PSoC5/I2C_2_MASTER.c **** *  slaveAddr: 7-bit slave address.
  50:.\Generated_Source\PSoC5/I2C_2_MASTER.c **** *  xferData:  Pointer to buffer of data to be sent.
  51:.\Generated_Source\PSoC5/I2C_2_MASTER.c **** *  cnt:       Size of buffer to send.
  52:.\Generated_Source\PSoC5/I2C_2_MASTER.c **** *  mode:      Transfer mode defines: start or restart condition generation at
  53:.\Generated_Source\PSoC5/I2C_2_MASTER.c **** *             begin of the transfer and complete the transfer or halt before
  54:.\Generated_Source\PSoC5/I2C_2_MASTER.c **** *             generating a stop.
  55:.\Generated_Source\PSoC5/I2C_2_MASTER.c **** *
  56:.\Generated_Source\PSoC5/I2C_2_MASTER.c **** * Return:
  57:.\Generated_Source\PSoC5/I2C_2_MASTER.c **** *  Status error - zero means no errors.
  58:.\Generated_Source\PSoC5/I2C_2_MASTER.c **** *
  59:.\Generated_Source\PSoC5/I2C_2_MASTER.c **** * Side Effects:
  60:.\Generated_Source\PSoC5/I2C_2_MASTER.c **** *  The included ISR will start transfer after start or restart condition will
  61:.\Generated_Source\PSoC5/I2C_2_MASTER.c **** *  be generated.
  62:.\Generated_Source\PSoC5/I2C_2_MASTER.c **** *
  63:.\Generated_Source\PSoC5/I2C_2_MASTER.c **** * Global variables:
  64:.\Generated_Source\PSoC5/I2C_2_MASTER.c **** *  I2C_2_mstrStatus  - used to store current status of I2C Master.
  65:.\Generated_Source\PSoC5/I2C_2_MASTER.c **** *  I2C_2_state       - used to store current state of software FSM.
  66:.\Generated_Source\PSoC5/I2C_2_MASTER.c **** *  I2C_2_mstrControl - used to control master end of transaction with
  67:.\Generated_Source\PSoC5/I2C_2_MASTER.c **** *  or without the Stop generation.
  68:.\Generated_Source\PSoC5/I2C_2_MASTER.c **** *  I2C_2_mstrWrBufPtr - used to store pointer to master write buffer.
  69:.\Generated_Source\PSoC5/I2C_2_MASTER.c **** *  I2C_2_mstrWrBufIndex - used to current index within master write
  70:.\Generated_Source\PSoC5/I2C_2_MASTER.c **** *  buffer.
  71:.\Generated_Source\PSoC5/I2C_2_MASTER.c **** *  I2C_2_mstrWrBufSize - used to store master write buffer size.
  72:.\Generated_Source\PSoC5/I2C_2_MASTER.c **** *
  73:.\Generated_Source\PSoC5/I2C_2_MASTER.c **** * Reentrant:
  74:.\Generated_Source\PSoC5/I2C_2_MASTER.c **** *  No
  75:.\Generated_Source\PSoC5/I2C_2_MASTER.c **** *
  76:.\Generated_Source\PSoC5/I2C_2_MASTER.c **** *******************************************************************************/
  77:.\Generated_Source\PSoC5/I2C_2_MASTER.c **** uint8 I2C_2_MasterWriteBuf(uint8 slaveAddress, uint8 * wrData, uint8 cnt, uint8 mode)
  78:.\Generated_Source\PSoC5/I2C_2_MASTER.c ****       
  79:.\Generated_Source\PSoC5/I2C_2_MASTER.c **** {
  35              		.loc 1 79 0
ARM GAS  C:\Users\dskyNote\AppData\Local\Temp\ccLkSjFG.s 			page 3


  36              		.cfi_startproc
  37              		@ args = 0, pretend = 0, frame = 16
  38              		@ frame_needed = 1, uses_anonymous_args = 0
  39              		@ link register save eliminated.
  40 0000 80B4     		push	{r7}
  41              		.cfi_def_cfa_offset 4
  42              		.cfi_offset 7, -4
  43 0002 85B0     		sub	sp, sp, #20
  44              		.cfi_def_cfa_offset 24
  45 0004 00AF     		add	r7, sp, #0
  46              		.cfi_def_cfa_register 7
  47 0006 3960     		str	r1, [r7]
  48 0008 0146     		mov	r1, r0
  49 000a F971     		strb	r1, [r7, #7]
  50 000c BA71     		strb	r2, [r7, #6]
  51 000e 7B71     		strb	r3, [r7, #5]
  80:.\Generated_Source\PSoC5/I2C_2_MASTER.c ****     uint8 errStatus;
  81:.\Generated_Source\PSoC5/I2C_2_MASTER.c **** 
  82:.\Generated_Source\PSoC5/I2C_2_MASTER.c ****     errStatus = I2C_2_MSTR_NOT_READY;
  52              		.loc 1 82 0
  53 0010 0223     		movs	r3, #2
  54 0012 FB73     		strb	r3, [r7, #15]
  83:.\Generated_Source\PSoC5/I2C_2_MASTER.c **** 
  84:.\Generated_Source\PSoC5/I2C_2_MASTER.c ****     if(NULL != wrData)
  55              		.loc 1 84 0
  56 0014 3B68     		ldr	r3, [r7]
  57 0016 002B     		cmp	r3, #0
  58 0018 57D0     		beq	.L2
  85:.\Generated_Source\PSoC5/I2C_2_MASTER.c ****     {
  86:.\Generated_Source\PSoC5/I2C_2_MASTER.c ****         /* Check I2C state before transfer: valid are IDLE or HALT */
  87:.\Generated_Source\PSoC5/I2C_2_MASTER.c ****         if(I2C_2_SM_IDLE == I2C_2_state)
  59              		.loc 1 87 0
  60 001a 2F4B     		ldr	r3, .L10
  61 001c 1B78     		ldrb	r3, [r3]
  62 001e DBB2     		uxtb	r3, r3
  63 0020 102B     		cmp	r3, #16
  64 0022 0CD1     		bne	.L3
  88:.\Generated_Source\PSoC5/I2C_2_MASTER.c ****         {
  89:.\Generated_Source\PSoC5/I2C_2_MASTER.c ****             /* Check if free: Master is ready to transaction */
  90:.\Generated_Source\PSoC5/I2C_2_MASTER.c ****             if(I2C_2_CHECK_BUS_FREE(I2C_2_MCSR_REG))
  65              		.loc 1 90 0
  66 0024 2D4B     		ldr	r3, .L10+4
  67 0026 1B78     		ldrb	r3, [r3]
  68 0028 DBB2     		uxtb	r3, r3
  69 002a 03F01003 		and	r3, r3, #16
  70 002e 002B     		cmp	r3, #0
  71 0030 02D1     		bne	.L4
  91:.\Generated_Source\PSoC5/I2C_2_MASTER.c ****             {
  92:.\Generated_Source\PSoC5/I2C_2_MASTER.c ****                 errStatus = I2C_2_MSTR_NO_ERROR;
  72              		.loc 1 92 0
  73 0032 0023     		movs	r3, #0
  74 0034 FB73     		strb	r3, [r7, #15]
  75 0036 14E0     		b	.L6
  76              	.L4:
  93:.\Generated_Source\PSoC5/I2C_2_MASTER.c ****             }
  94:.\Generated_Source\PSoC5/I2C_2_MASTER.c ****             else
  95:.\Generated_Source\PSoC5/I2C_2_MASTER.c ****             {
ARM GAS  C:\Users\dskyNote\AppData\Local\Temp\ccLkSjFG.s 			page 4


  96:.\Generated_Source\PSoC5/I2C_2_MASTER.c ****                 errStatus = I2C_2_MSTR_BUS_BUSY;
  77              		.loc 1 96 0
  78 0038 0123     		movs	r3, #1
  79 003a FB73     		strb	r3, [r7, #15]
  80 003c 11E0     		b	.L6
  81              	.L3:
  97:.\Generated_Source\PSoC5/I2C_2_MASTER.c ****             }
  98:.\Generated_Source\PSoC5/I2C_2_MASTER.c ****         }
  99:.\Generated_Source\PSoC5/I2C_2_MASTER.c ****         else if(I2C_2_SM_MSTR_HALT == I2C_2_state)
  82              		.loc 1 99 0
  83 003e 264B     		ldr	r3, .L10
  84 0040 1B78     		ldrb	r3, [r3]
  85 0042 DBB2     		uxtb	r3, r3
  86 0044 602B     		cmp	r3, #96
  87 0046 0CD1     		bne	.L6
 100:.\Generated_Source\PSoC5/I2C_2_MASTER.c ****         {
 101:.\Generated_Source\PSoC5/I2C_2_MASTER.c ****             errStatus = I2C_2_MSTR_NO_ERROR;
  88              		.loc 1 101 0
  89 0048 0023     		movs	r3, #0
  90 004a FB73     		strb	r3, [r7, #15]
 102:.\Generated_Source\PSoC5/I2C_2_MASTER.c **** 
 103:.\Generated_Source\PSoC5/I2C_2_MASTER.c ****             CyIntClearPending(I2C_2_ISR_NUMBER);
  91              		.loc 1 103 0
  92 004c 244B     		ldr	r3, .L10+8
  93 004e 0222     		movs	r2, #2
  94 0050 1A60     		str	r2, [r3]
 104:.\Generated_Source\PSoC5/I2C_2_MASTER.c ****             I2C_2_mstrStatus &= ((uint8) ~I2C_2_MSTAT_XFER_HALT);
  95              		.loc 1 104 0
  96 0052 244B     		ldr	r3, .L10+12
  97 0054 1B78     		ldrb	r3, [r3]
  98 0056 DBB2     		uxtb	r3, r3
  99 0058 23F00803 		bic	r3, r3, #8
 100 005c DAB2     		uxtb	r2, r3
 101 005e 214B     		ldr	r3, .L10+12
 102 0060 1A70     		strb	r2, [r3]
 103              	.L6:
 105:.\Generated_Source\PSoC5/I2C_2_MASTER.c ****         }
 106:.\Generated_Source\PSoC5/I2C_2_MASTER.c ****         else
 107:.\Generated_Source\PSoC5/I2C_2_MASTER.c ****         {
 108:.\Generated_Source\PSoC5/I2C_2_MASTER.c ****             /* errStatus = I2C_2_MSTR_NOT_READY was send before */
 109:.\Generated_Source\PSoC5/I2C_2_MASTER.c ****         }
 110:.\Generated_Source\PSoC5/I2C_2_MASTER.c **** 
 111:.\Generated_Source\PSoC5/I2C_2_MASTER.c ****         if(I2C_2_MSTR_NO_ERROR == errStatus)
 104              		.loc 1 111 0
 105 0062 FB7B     		ldrb	r3, [r7, #15]	@ zero_extendqisi2
 106 0064 002B     		cmp	r3, #0
 107 0066 30D1     		bne	.L2
 112:.\Generated_Source\PSoC5/I2C_2_MASTER.c ****         {
 113:.\Generated_Source\PSoC5/I2C_2_MASTER.c ****             I2C_2_state    = I2C_2_SM_MSTR_WR_ADDR;
 108              		.loc 1 113 0
 109 0068 1B4B     		ldr	r3, .L10
 110 006a 4522     		movs	r2, #69
 111 006c 1A70     		strb	r2, [r3]
 114:.\Generated_Source\PSoC5/I2C_2_MASTER.c ****             I2C_2_DATA_REG = ((uint8) (slaveAddress << I2C_2_SLAVE_ADDR_SHIFT));
 112              		.loc 1 114 0
 113 006e 1E4B     		ldr	r3, .L10+16
 114 0070 FA79     		ldrb	r2, [r7, #7]
ARM GAS  C:\Users\dskyNote\AppData\Local\Temp\ccLkSjFG.s 			page 5


 115 0072 5200     		lsls	r2, r2, #1
 116 0074 D2B2     		uxtb	r2, r2
 117 0076 1A70     		strb	r2, [r3]
 115:.\Generated_Source\PSoC5/I2C_2_MASTER.c **** 
 116:.\Generated_Source\PSoC5/I2C_2_MASTER.c ****             I2C_2_mstrWrBufIndex = 0u;
 118              		.loc 1 116 0
 119 0078 1C4B     		ldr	r3, .L10+20
 120 007a 0022     		movs	r2, #0
 121 007c 1A70     		strb	r2, [r3]
 117:.\Generated_Source\PSoC5/I2C_2_MASTER.c ****             I2C_2_mstrWrBufSize  = cnt;
 122              		.loc 1 117 0
 123 007e 1C4B     		ldr	r3, .L10+24
 124 0080 BA79     		ldrb	r2, [r7, #6]
 125 0082 1A70     		strb	r2, [r3]
 118:.\Generated_Source\PSoC5/I2C_2_MASTER.c ****             I2C_2_mstrWrBufPtr   = (volatile uint8 *) wrData;
 126              		.loc 1 118 0
 127 0084 1B4B     		ldr	r3, .L10+28
 128 0086 3A68     		ldr	r2, [r7]
 129 0088 1A60     		str	r2, [r3]
 119:.\Generated_Source\PSoC5/I2C_2_MASTER.c **** 
 120:.\Generated_Source\PSoC5/I2C_2_MASTER.c ****             I2C_2_mstrControl = mode;    /* Save transaction mode */
 130              		.loc 1 120 0
 131 008a 1B4B     		ldr	r3, .L10+32
 132 008c 7A79     		ldrb	r2, [r7, #5]
 133 008e 1A70     		strb	r2, [r3]
 121:.\Generated_Source\PSoC5/I2C_2_MASTER.c **** 
 122:.\Generated_Source\PSoC5/I2C_2_MASTER.c ****             /* Generate a Start or ReStart depends on mode */
 123:.\Generated_Source\PSoC5/I2C_2_MASTER.c ****             if(I2C_2_CHECK_RESTART(mode))
 134              		.loc 1 123 0
 135 0090 7B79     		ldrb	r3, [r7, #5]	@ zero_extendqisi2
 136 0092 03F00103 		and	r3, r3, #1
 137 0096 002B     		cmp	r3, #0
 138 0098 06D0     		beq	.L7
 124:.\Generated_Source\PSoC5/I2C_2_MASTER.c ****             {
 125:.\Generated_Source\PSoC5/I2C_2_MASTER.c ****                 I2C_2_GENERATE_RESTART;
 139              		.loc 1 125 0
 140 009a 184B     		ldr	r3, .L10+36
 141 009c 3222     		movs	r2, #50
 142 009e 1A70     		strb	r2, [r3]
 143 00a0 174B     		ldr	r3, .L10+40
 144 00a2 0022     		movs	r2, #0
 145 00a4 1A70     		strb	r2, [r3]
 146 00a6 05E0     		b	.L8
 147              	.L7:
 126:.\Generated_Source\PSoC5/I2C_2_MASTER.c ****             }
 127:.\Generated_Source\PSoC5/I2C_2_MASTER.c ****             else
 128:.\Generated_Source\PSoC5/I2C_2_MASTER.c ****             {
 129:.\Generated_Source\PSoC5/I2C_2_MASTER.c ****                 I2C_2_GENERATE_START;
 148              		.loc 1 129 0
 149 00a8 144B     		ldr	r3, .L10+36
 150 00aa 8222     		movs	r2, #130
 151 00ac 1A70     		strb	r2, [r3]
 152 00ae 144B     		ldr	r3, .L10+40
 153 00b0 0022     		movs	r2, #0
 154 00b2 1A70     		strb	r2, [r3]
 155              	.L8:
 130:.\Generated_Source\PSoC5/I2C_2_MASTER.c ****             }
ARM GAS  C:\Users\dskyNote\AppData\Local\Temp\ccLkSjFG.s 			page 6


 131:.\Generated_Source\PSoC5/I2C_2_MASTER.c **** 
 132:.\Generated_Source\PSoC5/I2C_2_MASTER.c ****             I2C_2_mstrStatus &= ((uint8) ~I2C_2_MSTAT_WR_CMPLT);
 156              		.loc 1 132 0
 157 00b4 0B4B     		ldr	r3, .L10+12
 158 00b6 1B78     		ldrb	r3, [r3]
 159 00b8 DBB2     		uxtb	r3, r3
 160 00ba 23F00203 		bic	r3, r3, #2
 161 00be DAB2     		uxtb	r2, r3
 162 00c0 084B     		ldr	r3, .L10+12
 163 00c2 1A70     		strb	r2, [r3]
 133:.\Generated_Source\PSoC5/I2C_2_MASTER.c **** 
 134:.\Generated_Source\PSoC5/I2C_2_MASTER.c ****             I2C_2_EnableInt();   /* Enable intr to complete transfer */
 164              		.loc 1 134 0
 165 00c4 0F4B     		ldr	r3, .L10+44
 166 00c6 0222     		movs	r2, #2
 167 00c8 1A60     		str	r2, [r3]
 168              	.L2:
 135:.\Generated_Source\PSoC5/I2C_2_MASTER.c ****         }
 136:.\Generated_Source\PSoC5/I2C_2_MASTER.c ****     }
 137:.\Generated_Source\PSoC5/I2C_2_MASTER.c **** 
 138:.\Generated_Source\PSoC5/I2C_2_MASTER.c ****     return(errStatus);
 169              		.loc 1 138 0
 170 00ca FB7B     		ldrb	r3, [r7, #15]	@ zero_extendqisi2
 139:.\Generated_Source\PSoC5/I2C_2_MASTER.c **** }
 171              		.loc 1 139 0
 172 00cc 1846     		mov	r0, r3
 173 00ce 1437     		adds	r7, r7, #20
 174 00d0 BD46     		mov	sp, r7
 175              		@ sp needed
 176 00d2 5DF8047B 		ldr	r7, [sp], #4
 177 00d6 7047     		bx	lr
 178              	.L11:
 179              		.align	2
 180              	.L10:
 181 00d8 00000000 		.word	I2C_2_state
 182 00dc 68640040 		.word	1073767528
 183 00e0 80E200E0 		.word	-536812928
 184 00e4 00000000 		.word	I2C_2_mstrStatus
 185 00e8 09650040 		.word	1073767689
 186 00ec 00000000 		.word	I2C_2_mstrWrBufIndex
 187 00f0 00000000 		.word	I2C_2_mstrWrBufSize
 188 00f4 00000000 		.word	I2C_2_mstrWrBufPtr
 189 00f8 00000000 		.word	I2C_2_mstrControl
 190 00fc 79650040 		.word	1073767801
 191 0100 59650040 		.word	1073767769
 192 0104 00E100E0 		.word	-536813312
 193              		.cfi_endproc
 194              	.LFE0:
 195              		.size	I2C_2_MasterWriteBuf, .-I2C_2_MasterWriteBuf
 196              		.section	.text.I2C_2_MasterReadBuf,"ax",%progbits
 197              		.align	2
 198              		.global	I2C_2_MasterReadBuf
 199              		.thumb
 200              		.thumb_func
 201              		.type	I2C_2_MasterReadBuf, %function
 202              	I2C_2_MasterReadBuf:
 203              	.LFB1:
ARM GAS  C:\Users\dskyNote\AppData\Local\Temp\ccLkSjFG.s 			page 7


 140:.\Generated_Source\PSoC5/I2C_2_MASTER.c **** 
 141:.\Generated_Source\PSoC5/I2C_2_MASTER.c **** 
 142:.\Generated_Source\PSoC5/I2C_2_MASTER.c **** /*******************************************************************************
 143:.\Generated_Source\PSoC5/I2C_2_MASTER.c **** * Function Name: I2C_2_MasterReadBuf
 144:.\Generated_Source\PSoC5/I2C_2_MASTER.c **** ********************************************************************************
 145:.\Generated_Source\PSoC5/I2C_2_MASTER.c **** *
 146:.\Generated_Source\PSoC5/I2C_2_MASTER.c **** * Summary:
 147:.\Generated_Source\PSoC5/I2C_2_MASTER.c **** *  Automatically writes an entire buffer of data to a slave device. Once the
 148:.\Generated_Source\PSoC5/I2C_2_MASTER.c **** *  data transfer is initiated by this function, further data transfer is handled
 149:.\Generated_Source\PSoC5/I2C_2_MASTER.c **** *  by the included ISR in byte by byte mode.
 150:.\Generated_Source\PSoC5/I2C_2_MASTER.c **** *
 151:.\Generated_Source\PSoC5/I2C_2_MASTER.c **** * Parameters:
 152:.\Generated_Source\PSoC5/I2C_2_MASTER.c **** *  slaveAddr: 7-bit slave address.
 153:.\Generated_Source\PSoC5/I2C_2_MASTER.c **** *  xferData:  Pointer to buffer where to put data from slave.
 154:.\Generated_Source\PSoC5/I2C_2_MASTER.c **** *  cnt:       Size of buffer to read.
 155:.\Generated_Source\PSoC5/I2C_2_MASTER.c **** *  mode:      Transfer mode defines: start or restart condition generation at
 156:.\Generated_Source\PSoC5/I2C_2_MASTER.c **** *             begin of the transfer and complete the transfer or halt before
 157:.\Generated_Source\PSoC5/I2C_2_MASTER.c **** *             generating a stop.
 158:.\Generated_Source\PSoC5/I2C_2_MASTER.c **** *
 159:.\Generated_Source\PSoC5/I2C_2_MASTER.c **** * Return:
 160:.\Generated_Source\PSoC5/I2C_2_MASTER.c **** *  Status error - zero means no errors.
 161:.\Generated_Source\PSoC5/I2C_2_MASTER.c **** *
 162:.\Generated_Source\PSoC5/I2C_2_MASTER.c **** * Side Effects:
 163:.\Generated_Source\PSoC5/I2C_2_MASTER.c **** *  The included ISR will start transfer after start or restart condition will
 164:.\Generated_Source\PSoC5/I2C_2_MASTER.c **** *  be generated.
 165:.\Generated_Source\PSoC5/I2C_2_MASTER.c **** *
 166:.\Generated_Source\PSoC5/I2C_2_MASTER.c **** * Global variables:
 167:.\Generated_Source\PSoC5/I2C_2_MASTER.c **** *  I2C_2_mstrStatus  - used to store current status of I2C Master.
 168:.\Generated_Source\PSoC5/I2C_2_MASTER.c **** *  I2C_2_state       - used to store current state of software FSM.
 169:.\Generated_Source\PSoC5/I2C_2_MASTER.c **** *  I2C_2_mstrControl - used to control master end of transaction with
 170:.\Generated_Source\PSoC5/I2C_2_MASTER.c **** *  or without the Stop generation.
 171:.\Generated_Source\PSoC5/I2C_2_MASTER.c **** *  I2C_2_mstrRdBufPtr - used to store pointer to master write buffer.
 172:.\Generated_Source\PSoC5/I2C_2_MASTER.c **** *  I2C_2_mstrRdBufIndex - used to current index within master write
 173:.\Generated_Source\PSoC5/I2C_2_MASTER.c **** *  buffer.
 174:.\Generated_Source\PSoC5/I2C_2_MASTER.c **** *  I2C_2_mstrRdBufSize - used to store master write buffer size.
 175:.\Generated_Source\PSoC5/I2C_2_MASTER.c **** *
 176:.\Generated_Source\PSoC5/I2C_2_MASTER.c **** * Reentrant:
 177:.\Generated_Source\PSoC5/I2C_2_MASTER.c **** *  No
 178:.\Generated_Source\PSoC5/I2C_2_MASTER.c **** *
 179:.\Generated_Source\PSoC5/I2C_2_MASTER.c **** *******************************************************************************/
 180:.\Generated_Source\PSoC5/I2C_2_MASTER.c **** uint8 I2C_2_MasterReadBuf(uint8 slaveAddress, uint8 * rdData, uint8 cnt, uint8 mode)
 181:.\Generated_Source\PSoC5/I2C_2_MASTER.c ****       
 182:.\Generated_Source\PSoC5/I2C_2_MASTER.c **** {
 204              		.loc 1 182 0
 205              		.cfi_startproc
 206              		@ args = 0, pretend = 0, frame = 16
 207              		@ frame_needed = 1, uses_anonymous_args = 0
 208              		@ link register save eliminated.
 209 0000 80B4     		push	{r7}
 210              		.cfi_def_cfa_offset 4
 211              		.cfi_offset 7, -4
 212 0002 85B0     		sub	sp, sp, #20
 213              		.cfi_def_cfa_offset 24
 214 0004 00AF     		add	r7, sp, #0
 215              		.cfi_def_cfa_register 7
 216 0006 3960     		str	r1, [r7]
 217 0008 0146     		mov	r1, r0
ARM GAS  C:\Users\dskyNote\AppData\Local\Temp\ccLkSjFG.s 			page 8


 218 000a F971     		strb	r1, [r7, #7]
 219 000c BA71     		strb	r2, [r7, #6]
 220 000e 7B71     		strb	r3, [r7, #5]
 183:.\Generated_Source\PSoC5/I2C_2_MASTER.c ****     uint8 errStatus;
 184:.\Generated_Source\PSoC5/I2C_2_MASTER.c **** 
 185:.\Generated_Source\PSoC5/I2C_2_MASTER.c ****     errStatus = I2C_2_MSTR_NOT_READY;
 221              		.loc 1 185 0
 222 0010 0223     		movs	r3, #2
 223 0012 FB73     		strb	r3, [r7, #15]
 186:.\Generated_Source\PSoC5/I2C_2_MASTER.c **** 
 187:.\Generated_Source\PSoC5/I2C_2_MASTER.c ****     if(NULL != rdData)
 224              		.loc 1 187 0
 225 0014 3B68     		ldr	r3, [r7]
 226 0016 002B     		cmp	r3, #0
 227 0018 5AD0     		beq	.L13
 188:.\Generated_Source\PSoC5/I2C_2_MASTER.c ****     {
 189:.\Generated_Source\PSoC5/I2C_2_MASTER.c ****         /* Check I2C state before transfer: valid are IDLE or HALT */
 190:.\Generated_Source\PSoC5/I2C_2_MASTER.c ****         if(I2C_2_SM_IDLE == I2C_2_state)
 228              		.loc 1 190 0
 229 001a 314B     		ldr	r3, .L21
 230 001c 1B78     		ldrb	r3, [r3]
 231 001e DBB2     		uxtb	r3, r3
 232 0020 102B     		cmp	r3, #16
 233 0022 0CD1     		bne	.L14
 191:.\Generated_Source\PSoC5/I2C_2_MASTER.c ****         {
 192:.\Generated_Source\PSoC5/I2C_2_MASTER.c ****             /* Check if free: Master is ready to transaction */
 193:.\Generated_Source\PSoC5/I2C_2_MASTER.c ****             if(I2C_2_CHECK_BUS_FREE(I2C_2_MCSR_REG))
 234              		.loc 1 193 0
 235 0024 2F4B     		ldr	r3, .L21+4
 236 0026 1B78     		ldrb	r3, [r3]
 237 0028 DBB2     		uxtb	r3, r3
 238 002a 03F01003 		and	r3, r3, #16
 239 002e 002B     		cmp	r3, #0
 240 0030 02D1     		bne	.L15
 194:.\Generated_Source\PSoC5/I2C_2_MASTER.c ****             {
 195:.\Generated_Source\PSoC5/I2C_2_MASTER.c ****                 errStatus = I2C_2_MSTR_NO_ERROR;
 241              		.loc 1 195 0
 242 0032 0023     		movs	r3, #0
 243 0034 FB73     		strb	r3, [r7, #15]
 244 0036 14E0     		b	.L17
 245              	.L15:
 196:.\Generated_Source\PSoC5/I2C_2_MASTER.c ****             }
 197:.\Generated_Source\PSoC5/I2C_2_MASTER.c ****             else
 198:.\Generated_Source\PSoC5/I2C_2_MASTER.c ****             {
 199:.\Generated_Source\PSoC5/I2C_2_MASTER.c ****                 errStatus = I2C_2_MSTR_BUS_BUSY;
 246              		.loc 1 199 0
 247 0038 0123     		movs	r3, #1
 248 003a FB73     		strb	r3, [r7, #15]
 249 003c 11E0     		b	.L17
 250              	.L14:
 200:.\Generated_Source\PSoC5/I2C_2_MASTER.c ****             }
 201:.\Generated_Source\PSoC5/I2C_2_MASTER.c ****         }
 202:.\Generated_Source\PSoC5/I2C_2_MASTER.c ****         else if(I2C_2_SM_MSTR_HALT == I2C_2_state)
 251              		.loc 1 202 0
 252 003e 284B     		ldr	r3, .L21
 253 0040 1B78     		ldrb	r3, [r3]
 254 0042 DBB2     		uxtb	r3, r3
ARM GAS  C:\Users\dskyNote\AppData\Local\Temp\ccLkSjFG.s 			page 9


 255 0044 602B     		cmp	r3, #96
 256 0046 0CD1     		bne	.L17
 203:.\Generated_Source\PSoC5/I2C_2_MASTER.c ****         {
 204:.\Generated_Source\PSoC5/I2C_2_MASTER.c ****             errStatus = I2C_2_MSTR_NO_ERROR;
 257              		.loc 1 204 0
 258 0048 0023     		movs	r3, #0
 259 004a FB73     		strb	r3, [r7, #15]
 205:.\Generated_Source\PSoC5/I2C_2_MASTER.c **** 
 206:.\Generated_Source\PSoC5/I2C_2_MASTER.c ****             CyIntClearPending(I2C_2_ISR_NUMBER);
 260              		.loc 1 206 0
 261 004c 264B     		ldr	r3, .L21+8
 262 004e 0222     		movs	r2, #2
 263 0050 1A60     		str	r2, [r3]
 207:.\Generated_Source\PSoC5/I2C_2_MASTER.c ****             I2C_2_mstrStatus &= ((uint8) ~I2C_2_MSTAT_XFER_HALT);
 264              		.loc 1 207 0
 265 0052 264B     		ldr	r3, .L21+12
 266 0054 1B78     		ldrb	r3, [r3]
 267 0056 DBB2     		uxtb	r3, r3
 268 0058 23F00803 		bic	r3, r3, #8
 269 005c DAB2     		uxtb	r2, r3
 270 005e 234B     		ldr	r3, .L21+12
 271 0060 1A70     		strb	r2, [r3]
 272              	.L17:
 208:.\Generated_Source\PSoC5/I2C_2_MASTER.c ****         }
 209:.\Generated_Source\PSoC5/I2C_2_MASTER.c ****         else
 210:.\Generated_Source\PSoC5/I2C_2_MASTER.c ****         {
 211:.\Generated_Source\PSoC5/I2C_2_MASTER.c ****             /* errStatus = I2C_2_MSTR_NOT_READY was send before */
 212:.\Generated_Source\PSoC5/I2C_2_MASTER.c ****         }
 213:.\Generated_Source\PSoC5/I2C_2_MASTER.c **** 
 214:.\Generated_Source\PSoC5/I2C_2_MASTER.c ****         if(I2C_2_MSTR_NO_ERROR == errStatus)
 273              		.loc 1 214 0
 274 0062 FB7B     		ldrb	r3, [r7, #15]	@ zero_extendqisi2
 275 0064 002B     		cmp	r3, #0
 276 0066 33D1     		bne	.L13
 215:.\Generated_Source\PSoC5/I2C_2_MASTER.c ****         {
 216:.\Generated_Source\PSoC5/I2C_2_MASTER.c ****             I2C_2_state    = I2C_2_SM_MSTR_RD_ADDR;
 277              		.loc 1 216 0
 278 0068 1D4B     		ldr	r3, .L21
 279 006a 4922     		movs	r2, #73
 280 006c 1A70     		strb	r2, [r3]
 217:.\Generated_Source\PSoC5/I2C_2_MASTER.c ****             I2C_2_DATA_REG = (((uint8) (slaveAddress << I2C_2_SLAVE_ADDR_SHIFT)) |
 281              		.loc 1 217 0
 282 006e 204B     		ldr	r3, .L21+16
 283 0070 FA79     		ldrb	r2, [r7, #7]
 284 0072 5200     		lsls	r2, r2, #1
 285 0074 D2B2     		uxtb	r2, r2
 286 0076 42F00102 		orr	r2, r2, #1
 287 007a D2B2     		uxtb	r2, r2
 288 007c 1A70     		strb	r2, [r3]
 218:.\Generated_Source\PSoC5/I2C_2_MASTER.c ****                                                    I2C_2_READ_FLAG);
 219:.\Generated_Source\PSoC5/I2C_2_MASTER.c **** 
 220:.\Generated_Source\PSoC5/I2C_2_MASTER.c ****             I2C_2_mstrRdBufIndex  = 0u;
 289              		.loc 1 220 0
 290 007e 1D4B     		ldr	r3, .L21+20
 291 0080 0022     		movs	r2, #0
 292 0082 1A70     		strb	r2, [r3]
 221:.\Generated_Source\PSoC5/I2C_2_MASTER.c ****             I2C_2_mstrRdBufSize   = cnt;
ARM GAS  C:\Users\dskyNote\AppData\Local\Temp\ccLkSjFG.s 			page 10


 293              		.loc 1 221 0
 294 0084 1C4B     		ldr	r3, .L21+24
 295 0086 BA79     		ldrb	r2, [r7, #6]
 296 0088 1A70     		strb	r2, [r3]
 222:.\Generated_Source\PSoC5/I2C_2_MASTER.c ****             I2C_2_mstrRdBufPtr    = (volatile uint8 *) rdData;
 297              		.loc 1 222 0
 298 008a 1C4B     		ldr	r3, .L21+28
 299 008c 3A68     		ldr	r2, [r7]
 300 008e 1A60     		str	r2, [r3]
 223:.\Generated_Source\PSoC5/I2C_2_MASTER.c **** 
 224:.\Generated_Source\PSoC5/I2C_2_MASTER.c ****             I2C_2_mstrControl = mode;    /* Save transaction mode */
 301              		.loc 1 224 0
 302 0090 1B4B     		ldr	r3, .L21+32
 303 0092 7A79     		ldrb	r2, [r7, #5]
 304 0094 1A70     		strb	r2, [r3]
 225:.\Generated_Source\PSoC5/I2C_2_MASTER.c **** 
 226:.\Generated_Source\PSoC5/I2C_2_MASTER.c ****             /* Generate a Start or ReStart depends on mode */
 227:.\Generated_Source\PSoC5/I2C_2_MASTER.c ****             if(I2C_2_CHECK_RESTART(mode))
 305              		.loc 1 227 0
 306 0096 7B79     		ldrb	r3, [r7, #5]	@ zero_extendqisi2
 307 0098 03F00103 		and	r3, r3, #1
 308 009c 002B     		cmp	r3, #0
 309 009e 06D0     		beq	.L18
 228:.\Generated_Source\PSoC5/I2C_2_MASTER.c ****             {
 229:.\Generated_Source\PSoC5/I2C_2_MASTER.c ****                 I2C_2_GENERATE_RESTART;
 310              		.loc 1 229 0
 311 00a0 184B     		ldr	r3, .L21+36
 312 00a2 3222     		movs	r2, #50
 313 00a4 1A70     		strb	r2, [r3]
 314 00a6 184B     		ldr	r3, .L21+40
 315 00a8 0022     		movs	r2, #0
 316 00aa 1A70     		strb	r2, [r3]
 317 00ac 05E0     		b	.L19
 318              	.L18:
 230:.\Generated_Source\PSoC5/I2C_2_MASTER.c ****             }
 231:.\Generated_Source\PSoC5/I2C_2_MASTER.c ****             else
 232:.\Generated_Source\PSoC5/I2C_2_MASTER.c ****             {
 233:.\Generated_Source\PSoC5/I2C_2_MASTER.c ****                 I2C_2_GENERATE_START;
 319              		.loc 1 233 0
 320 00ae 154B     		ldr	r3, .L21+36
 321 00b0 8222     		movs	r2, #130
 322 00b2 1A70     		strb	r2, [r3]
 323 00b4 144B     		ldr	r3, .L21+40
 324 00b6 0022     		movs	r2, #0
 325 00b8 1A70     		strb	r2, [r3]
 326              	.L19:
 234:.\Generated_Source\PSoC5/I2C_2_MASTER.c ****             }
 235:.\Generated_Source\PSoC5/I2C_2_MASTER.c **** 
 236:.\Generated_Source\PSoC5/I2C_2_MASTER.c ****             I2C_2_mstrStatus &= ((uint8) ~I2C_2_MSTAT_RD_CMPLT);
 327              		.loc 1 236 0
 328 00ba 0C4B     		ldr	r3, .L21+12
 329 00bc 1B78     		ldrb	r3, [r3]
 330 00be DBB2     		uxtb	r3, r3
 331 00c0 23F00103 		bic	r3, r3, #1
 332 00c4 DAB2     		uxtb	r2, r3
 333 00c6 094B     		ldr	r3, .L21+12
 334 00c8 1A70     		strb	r2, [r3]
ARM GAS  C:\Users\dskyNote\AppData\Local\Temp\ccLkSjFG.s 			page 11


 237:.\Generated_Source\PSoC5/I2C_2_MASTER.c **** 
 238:.\Generated_Source\PSoC5/I2C_2_MASTER.c ****             I2C_2_EnableInt();   /* Enable intr to complete transfer */
 335              		.loc 1 238 0
 336 00ca 104B     		ldr	r3, .L21+44
 337 00cc 0222     		movs	r2, #2
 338 00ce 1A60     		str	r2, [r3]
 339              	.L13:
 239:.\Generated_Source\PSoC5/I2C_2_MASTER.c ****         }
 240:.\Generated_Source\PSoC5/I2C_2_MASTER.c ****     }
 241:.\Generated_Source\PSoC5/I2C_2_MASTER.c **** 
 242:.\Generated_Source\PSoC5/I2C_2_MASTER.c ****     return(errStatus);
 340              		.loc 1 242 0
 341 00d0 FB7B     		ldrb	r3, [r7, #15]	@ zero_extendqisi2
 243:.\Generated_Source\PSoC5/I2C_2_MASTER.c **** }
 342              		.loc 1 243 0
 343 00d2 1846     		mov	r0, r3
 344 00d4 1437     		adds	r7, r7, #20
 345 00d6 BD46     		mov	sp, r7
 346              		@ sp needed
 347 00d8 5DF8047B 		ldr	r7, [sp], #4
 348 00dc 7047     		bx	lr
 349              	.L22:
 350 00de 00BF     		.align	2
 351              	.L21:
 352 00e0 00000000 		.word	I2C_2_state
 353 00e4 68640040 		.word	1073767528
 354 00e8 80E200E0 		.word	-536812928
 355 00ec 00000000 		.word	I2C_2_mstrStatus
 356 00f0 09650040 		.word	1073767689
 357 00f4 00000000 		.word	I2C_2_mstrRdBufIndex
 358 00f8 00000000 		.word	I2C_2_mstrRdBufSize
 359 00fc 00000000 		.word	I2C_2_mstrRdBufPtr
 360 0100 00000000 		.word	I2C_2_mstrControl
 361 0104 79650040 		.word	1073767801
 362 0108 59650040 		.word	1073767769
 363 010c 00E100E0 		.word	-536813312
 364              		.cfi_endproc
 365              	.LFE1:
 366              		.size	I2C_2_MasterReadBuf, .-I2C_2_MasterReadBuf
 367              		.section	.text.I2C_2_MasterSendStart,"ax",%progbits
 368              		.align	2
 369              		.global	I2C_2_MasterSendStart
 370              		.thumb
 371              		.thumb_func
 372              		.type	I2C_2_MasterSendStart, %function
 373              	I2C_2_MasterSendStart:
 374              	.LFB2:
 244:.\Generated_Source\PSoC5/I2C_2_MASTER.c **** 
 245:.\Generated_Source\PSoC5/I2C_2_MASTER.c **** 
 246:.\Generated_Source\PSoC5/I2C_2_MASTER.c **** /*******************************************************************************
 247:.\Generated_Source\PSoC5/I2C_2_MASTER.c **** * Function Name: I2C_2_MasterSendStart
 248:.\Generated_Source\PSoC5/I2C_2_MASTER.c **** ********************************************************************************
 249:.\Generated_Source\PSoC5/I2C_2_MASTER.c **** *
 250:.\Generated_Source\PSoC5/I2C_2_MASTER.c **** * Summary:
 251:.\Generated_Source\PSoC5/I2C_2_MASTER.c **** *  Generates Start condition and sends slave address with read/write bit.
 252:.\Generated_Source\PSoC5/I2C_2_MASTER.c **** *
 253:.\Generated_Source\PSoC5/I2C_2_MASTER.c **** * Parameters:
ARM GAS  C:\Users\dskyNote\AppData\Local\Temp\ccLkSjFG.s 			page 12


 254:.\Generated_Source\PSoC5/I2C_2_MASTER.c **** *  slaveAddress:  7-bit slave address.
 255:.\Generated_Source\PSoC5/I2C_2_MASTER.c **** *  R_nW:          Zero, send write command, non-zero send read command.
 256:.\Generated_Source\PSoC5/I2C_2_MASTER.c **** *
 257:.\Generated_Source\PSoC5/I2C_2_MASTER.c **** * Return:
 258:.\Generated_Source\PSoC5/I2C_2_MASTER.c **** *  Status error - zero means no errors.
 259:.\Generated_Source\PSoC5/I2C_2_MASTER.c **** *
 260:.\Generated_Source\PSoC5/I2C_2_MASTER.c **** * Side Effects:
 261:.\Generated_Source\PSoC5/I2C_2_MASTER.c **** *  This function is entered without a 'byte complete' bit set in the I2C_CSR
 262:.\Generated_Source\PSoC5/I2C_2_MASTER.c **** *  register. It does not exit until it will be set.
 263:.\Generated_Source\PSoC5/I2C_2_MASTER.c **** *
 264:.\Generated_Source\PSoC5/I2C_2_MASTER.c **** * Global variables:
 265:.\Generated_Source\PSoC5/I2C_2_MASTER.c **** *  I2C_2_state - used to store current state of software FSM.
 266:.\Generated_Source\PSoC5/I2C_2_MASTER.c **** *
 267:.\Generated_Source\PSoC5/I2C_2_MASTER.c **** * Reentrant:
 268:.\Generated_Source\PSoC5/I2C_2_MASTER.c **** *  No
 269:.\Generated_Source\PSoC5/I2C_2_MASTER.c **** *
 270:.\Generated_Source\PSoC5/I2C_2_MASTER.c **** *******************************************************************************/
 271:.\Generated_Source\PSoC5/I2C_2_MASTER.c **** uint8 I2C_2_MasterSendStart(uint8 slaveAddress, uint8 R_nW)
 272:.\Generated_Source\PSoC5/I2C_2_MASTER.c ****       
 273:.\Generated_Source\PSoC5/I2C_2_MASTER.c **** {
 375              		.loc 1 273 0
 376              		.cfi_startproc
 377              		@ args = 0, pretend = 0, frame = 16
 378              		@ frame_needed = 1, uses_anonymous_args = 0
 379              		@ link register save eliminated.
 380 0000 80B4     		push	{r7}
 381              		.cfi_def_cfa_offset 4
 382              		.cfi_offset 7, -4
 383 0002 85B0     		sub	sp, sp, #20
 384              		.cfi_def_cfa_offset 24
 385 0004 00AF     		add	r7, sp, #0
 386              		.cfi_def_cfa_register 7
 387 0006 0246     		mov	r2, r0
 388 0008 0B46     		mov	r3, r1
 389 000a FA71     		strb	r2, [r7, #7]
 390 000c BB71     		strb	r3, [r7, #6]
 274:.\Generated_Source\PSoC5/I2C_2_MASTER.c ****     uint8 errStatus;
 275:.\Generated_Source\PSoC5/I2C_2_MASTER.c **** 
 276:.\Generated_Source\PSoC5/I2C_2_MASTER.c ****     errStatus = I2C_2_MSTR_NOT_READY;
 391              		.loc 1 276 0
 392 000e 0223     		movs	r3, #2
 393 0010 FB73     		strb	r3, [r7, #15]
 277:.\Generated_Source\PSoC5/I2C_2_MASTER.c **** 
 278:.\Generated_Source\PSoC5/I2C_2_MASTER.c ****     /* If IDLE, check if bus is free */
 279:.\Generated_Source\PSoC5/I2C_2_MASTER.c ****     if(I2C_2_SM_IDLE == I2C_2_state)
 394              		.loc 1 279 0
 395 0012 254B     		ldr	r3, .L32
 396 0014 1B78     		ldrb	r3, [r3]
 397 0016 DBB2     		uxtb	r3, r3
 398 0018 102B     		cmp	r3, #16
 399 001a 3ED1     		bne	.L24
 280:.\Generated_Source\PSoC5/I2C_2_MASTER.c ****     {
 281:.\Generated_Source\PSoC5/I2C_2_MASTER.c ****         /* If bus is free, generate Start condition */
 282:.\Generated_Source\PSoC5/I2C_2_MASTER.c ****         if(I2C_2_CHECK_BUS_FREE(I2C_2_MCSR_REG))
 400              		.loc 1 282 0
 401 001c 234B     		ldr	r3, .L32+4
 402 001e 1B78     		ldrb	r3, [r3]
ARM GAS  C:\Users\dskyNote\AppData\Local\Temp\ccLkSjFG.s 			page 13


 403 0020 DBB2     		uxtb	r3, r3
 404 0022 03F01003 		and	r3, r3, #16
 405 0026 002B     		cmp	r3, #0
 406 0028 35D1     		bne	.L25
 283:.\Generated_Source\PSoC5/I2C_2_MASTER.c ****         {
 284:.\Generated_Source\PSoC5/I2C_2_MASTER.c ****             I2C_2_DisableInt();  /* Disable ISR for Manual functions */
 407              		.loc 1 284 0
 408 002a 214B     		ldr	r3, .L32+8
 409 002c 0222     		movs	r2, #2
 410 002e 1A60     		str	r2, [r3]
 285:.\Generated_Source\PSoC5/I2C_2_MASTER.c **** 
 286:.\Generated_Source\PSoC5/I2C_2_MASTER.c ****             slaveAddress = ((uint8) (slaveAddress << I2C_2_SLAVE_ADDR_SHIFT)); /* Set Address */
 411              		.loc 1 286 0
 412 0030 FB79     		ldrb	r3, [r7, #7]
 413 0032 5B00     		lsls	r3, r3, #1
 414 0034 FB71     		strb	r3, [r7, #7]
 287:.\Generated_Source\PSoC5/I2C_2_MASTER.c ****             if(0u != R_nW)                                      /* Set the Read/Write flag */
 415              		.loc 1 287 0
 416 0036 BB79     		ldrb	r3, [r7, #6]	@ zero_extendqisi2
 417 0038 002B     		cmp	r3, #0
 418 003a 07D0     		beq	.L26
 288:.\Generated_Source\PSoC5/I2C_2_MASTER.c ****             {
 289:.\Generated_Source\PSoC5/I2C_2_MASTER.c ****                 slaveAddress |= I2C_2_READ_FLAG;
 419              		.loc 1 289 0
 420 003c FB79     		ldrb	r3, [r7, #7]
 421 003e 43F00103 		orr	r3, r3, #1
 422 0042 FB71     		strb	r3, [r7, #7]
 290:.\Generated_Source\PSoC5/I2C_2_MASTER.c ****                 I2C_2_state = I2C_2_SM_MSTR_RD_ADDR;
 423              		.loc 1 290 0
 424 0044 184B     		ldr	r3, .L32
 425 0046 4922     		movs	r2, #73
 426 0048 1A70     		strb	r2, [r3]
 427 004a 02E0     		b	.L27
 428              	.L26:
 291:.\Generated_Source\PSoC5/I2C_2_MASTER.c ****             }
 292:.\Generated_Source\PSoC5/I2C_2_MASTER.c ****             else
 293:.\Generated_Source\PSoC5/I2C_2_MASTER.c ****             {
 294:.\Generated_Source\PSoC5/I2C_2_MASTER.c ****                 I2C_2_state = I2C_2_SM_MSTR_WR_ADDR;
 429              		.loc 1 294 0
 430 004c 164B     		ldr	r3, .L32
 431 004e 4522     		movs	r2, #69
 432 0050 1A70     		strb	r2, [r3]
 433              	.L27:
 295:.\Generated_Source\PSoC5/I2C_2_MASTER.c ****             }
 296:.\Generated_Source\PSoC5/I2C_2_MASTER.c ****             I2C_2_DATA_REG = slaveAddress;   /* Write address to data reg */
 434              		.loc 1 296 0
 435 0052 184B     		ldr	r3, .L32+12
 436 0054 FA79     		ldrb	r2, [r7, #7]
 437 0056 1A70     		strb	r2, [r3]
 297:.\Generated_Source\PSoC5/I2C_2_MASTER.c **** 
 298:.\Generated_Source\PSoC5/I2C_2_MASTER.c **** 
 299:.\Generated_Source\PSoC5/I2C_2_MASTER.c ****             I2C_2_GENERATE_START;
 438              		.loc 1 299 0
 439 0058 174B     		ldr	r3, .L32+16
 440 005a 8222     		movs	r2, #130
 441 005c 1A70     		strb	r2, [r3]
 442 005e 174B     		ldr	r3, .L32+20
ARM GAS  C:\Users\dskyNote\AppData\Local\Temp\ccLkSjFG.s 			page 14


 443 0060 0022     		movs	r2, #0
 444 0062 1A70     		strb	r2, [r3]
 300:.\Generated_Source\PSoC5/I2C_2_MASTER.c ****             while(I2C_2_WAIT_BYTE_COMPLETE(I2C_2_CSR_REG))
 445              		.loc 1 300 0
 446 0064 00BF     		nop
 447              	.L28:
 448              		.loc 1 300 0 is_stmt 0 discriminator 1
 449 0066 114B     		ldr	r3, .L32+4
 450 0068 1B78     		ldrb	r3, [r3]
 451 006a DBB2     		uxtb	r3, r3
 452 006c 03F00103 		and	r3, r3, #1
 453 0070 002B     		cmp	r3, #0
 454 0072 F8D0     		beq	.L28
 301:.\Generated_Source\PSoC5/I2C_2_MASTER.c ****             {
 302:.\Generated_Source\PSoC5/I2C_2_MASTER.c ****                 ; /* Wait for the address to be transfered */
 303:.\Generated_Source\PSoC5/I2C_2_MASTER.c ****             }
 304:.\Generated_Source\PSoC5/I2C_2_MASTER.c **** 
 305:.\Generated_Source\PSoC5/I2C_2_MASTER.c ****             #if(I2C_2_MODE_MULTI_MASTER_SLAVE_ENABLED)
 306:.\Generated_Source\PSoC5/I2C_2_MASTER.c ****                 if(I2C_2_CHECK_START_GEN(I2C_2_MCSR_REG))
 307:.\Generated_Source\PSoC5/I2C_2_MASTER.c ****                 {
 308:.\Generated_Source\PSoC5/I2C_2_MASTER.c ****                     I2C_2_CLEAR_START_GEN;
 309:.\Generated_Source\PSoC5/I2C_2_MASTER.c **** 
 310:.\Generated_Source\PSoC5/I2C_2_MASTER.c ****                     /* Start condition was not generated: reset FSM to IDLE */
 311:.\Generated_Source\PSoC5/I2C_2_MASTER.c ****                     I2C_2_state = I2C_2_SM_IDLE;
 312:.\Generated_Source\PSoC5/I2C_2_MASTER.c ****                     errStatus = I2C_2_MSTR_ERR_ABORT_START_GEN;
 313:.\Generated_Source\PSoC5/I2C_2_MASTER.c ****                 }
 314:.\Generated_Source\PSoC5/I2C_2_MASTER.c ****                 else
 315:.\Generated_Source\PSoC5/I2C_2_MASTER.c ****             #endif /* (I2C_2_MODE_MULTI_MASTER_SLAVE_ENABLED) */
 316:.\Generated_Source\PSoC5/I2C_2_MASTER.c **** 
 317:.\Generated_Source\PSoC5/I2C_2_MASTER.c ****             #if(I2C_2_MODE_MULTI_MASTER_ENABLED)
 318:.\Generated_Source\PSoC5/I2C_2_MASTER.c **** 
 319:.\Generated_Source\PSoC5/I2C_2_MASTER.c ****                 if(I2C_2_CHECK_LOST_ARB(I2C_2_CSR_REG))
 320:.\Generated_Source\PSoC5/I2C_2_MASTER.c ****                 {
 321:.\Generated_Source\PSoC5/I2C_2_MASTER.c ****                     I2C_2_BUS_RELEASE;
 322:.\Generated_Source\PSoC5/I2C_2_MASTER.c **** 
 323:.\Generated_Source\PSoC5/I2C_2_MASTER.c ****                     /* Master lost arbitrage: reset FSM to IDLE */
 324:.\Generated_Source\PSoC5/I2C_2_MASTER.c ****                     I2C_2_state = I2C_2_SM_IDLE;
 325:.\Generated_Source\PSoC5/I2C_2_MASTER.c ****                     errStatus = I2C_2_MSTR_ERR_ARB_LOST;
 326:.\Generated_Source\PSoC5/I2C_2_MASTER.c ****                 }
 327:.\Generated_Source\PSoC5/I2C_2_MASTER.c ****                 else
 328:.\Generated_Source\PSoC5/I2C_2_MASTER.c ****             #endif /* (I2C_2_MODE_MULTI_MASTER_ENABLED) */
 329:.\Generated_Source\PSoC5/I2C_2_MASTER.c **** 
 330:.\Generated_Source\PSoC5/I2C_2_MASTER.c ****                 if(I2C_2_CHECK_ADDR_NAK(I2C_2_CSR_REG))
 455              		.loc 1 330 0 is_stmt 1
 456 0074 0D4B     		ldr	r3, .L32+4
 457 0076 1B78     		ldrb	r3, [r3]
 458 0078 DBB2     		uxtb	r3, r3
 459 007a 03F00A03 		and	r3, r3, #10
 460 007e DBB2     		uxtb	r3, r3
 461 0080 0A2B     		cmp	r3, #10
 462 0082 05D1     		bne	.L29
 331:.\Generated_Source\PSoC5/I2C_2_MASTER.c ****                 {
 332:.\Generated_Source\PSoC5/I2C_2_MASTER.c ****                     /* Address has been NACKed: reset FSM to IDLE */
 333:.\Generated_Source\PSoC5/I2C_2_MASTER.c ****                     I2C_2_state = I2C_2_SM_IDLE;
 463              		.loc 1 333 0
 464 0084 084B     		ldr	r3, .L32
 465 0086 1022     		movs	r2, #16
ARM GAS  C:\Users\dskyNote\AppData\Local\Temp\ccLkSjFG.s 			page 15


 466 0088 1A70     		strb	r2, [r3]
 334:.\Generated_Source\PSoC5/I2C_2_MASTER.c ****                     errStatus = I2C_2_MSTR_ERR_LB_NAK;
 467              		.loc 1 334 0
 468 008a 0323     		movs	r3, #3
 469 008c FB73     		strb	r3, [r7, #15]
 470 008e 04E0     		b	.L24
 471              	.L29:
 335:.\Generated_Source\PSoC5/I2C_2_MASTER.c ****                 }
 336:.\Generated_Source\PSoC5/I2C_2_MASTER.c ****                 else
 337:.\Generated_Source\PSoC5/I2C_2_MASTER.c ****                 {
 338:.\Generated_Source\PSoC5/I2C_2_MASTER.c ****                     /* Start was sent witout errors */
 339:.\Generated_Source\PSoC5/I2C_2_MASTER.c ****                     errStatus = I2C_2_MSTR_NO_ERROR;
 472              		.loc 1 339 0
 473 0090 0023     		movs	r3, #0
 474 0092 FB73     		strb	r3, [r7, #15]
 475 0094 01E0     		b	.L24
 476              	.L25:
 340:.\Generated_Source\PSoC5/I2C_2_MASTER.c ****                 }
 341:.\Generated_Source\PSoC5/I2C_2_MASTER.c ****         }
 342:.\Generated_Source\PSoC5/I2C_2_MASTER.c ****         else
 343:.\Generated_Source\PSoC5/I2C_2_MASTER.c ****         {
 344:.\Generated_Source\PSoC5/I2C_2_MASTER.c ****             errStatus = I2C_2_MSTR_BUS_BUSY; /* Bus is busy */
 477              		.loc 1 344 0
 478 0096 0123     		movs	r3, #1
 479 0098 FB73     		strb	r3, [r7, #15]
 480              	.L24:
 345:.\Generated_Source\PSoC5/I2C_2_MASTER.c ****         }
 346:.\Generated_Source\PSoC5/I2C_2_MASTER.c ****     }
 347:.\Generated_Source\PSoC5/I2C_2_MASTER.c **** 
 348:.\Generated_Source\PSoC5/I2C_2_MASTER.c ****     return(errStatus);
 481              		.loc 1 348 0
 482 009a FB7B     		ldrb	r3, [r7, #15]	@ zero_extendqisi2
 349:.\Generated_Source\PSoC5/I2C_2_MASTER.c **** }
 483              		.loc 1 349 0
 484 009c 1846     		mov	r0, r3
 485 009e 1437     		adds	r7, r7, #20
 486 00a0 BD46     		mov	sp, r7
 487              		@ sp needed
 488 00a2 5DF8047B 		ldr	r7, [sp], #4
 489 00a6 7047     		bx	lr
 490              	.L33:
 491              		.align	2
 492              	.L32:
 493 00a8 00000000 		.word	I2C_2_state
 494 00ac 68640040 		.word	1073767528
 495 00b0 80E100E0 		.word	-536813184
 496 00b4 09650040 		.word	1073767689
 497 00b8 79650040 		.word	1073767801
 498 00bc 59650040 		.word	1073767769
 499              		.cfi_endproc
 500              	.LFE2:
 501              		.size	I2C_2_MasterSendStart, .-I2C_2_MasterSendStart
 502              		.section	.text.I2C_2_MasterSendRestart,"ax",%progbits
 503              		.align	2
 504              		.global	I2C_2_MasterSendRestart
 505              		.thumb
 506              		.thumb_func
ARM GAS  C:\Users\dskyNote\AppData\Local\Temp\ccLkSjFG.s 			page 16


 507              		.type	I2C_2_MasterSendRestart, %function
 508              	I2C_2_MasterSendRestart:
 509              	.LFB3:
 350:.\Generated_Source\PSoC5/I2C_2_MASTER.c **** 
 351:.\Generated_Source\PSoC5/I2C_2_MASTER.c **** 
 352:.\Generated_Source\PSoC5/I2C_2_MASTER.c **** /*******************************************************************************
 353:.\Generated_Source\PSoC5/I2C_2_MASTER.c **** * Function Name: I2C_2_MasterSendRestart
 354:.\Generated_Source\PSoC5/I2C_2_MASTER.c **** ********************************************************************************
 355:.\Generated_Source\PSoC5/I2C_2_MASTER.c **** *
 356:.\Generated_Source\PSoC5/I2C_2_MASTER.c **** * Summary:
 357:.\Generated_Source\PSoC5/I2C_2_MASTER.c **** *  Generates ReStart condition and sends slave address with read/write bit.
 358:.\Generated_Source\PSoC5/I2C_2_MASTER.c **** *
 359:.\Generated_Source\PSoC5/I2C_2_MASTER.c **** * Parameters:
 360:.\Generated_Source\PSoC5/I2C_2_MASTER.c **** *  slaveAddress:  7-bit slave address.
 361:.\Generated_Source\PSoC5/I2C_2_MASTER.c **** *  R_nW:          Zero, send write command, non-zero send read command.
 362:.\Generated_Source\PSoC5/I2C_2_MASTER.c **** *
 363:.\Generated_Source\PSoC5/I2C_2_MASTER.c **** * Return:
 364:.\Generated_Source\PSoC5/I2C_2_MASTER.c **** *  Status error - zero means no errors.
 365:.\Generated_Source\PSoC5/I2C_2_MASTER.c **** *
 366:.\Generated_Source\PSoC5/I2C_2_MASTER.c **** * Side Effects:
 367:.\Generated_Source\PSoC5/I2C_2_MASTER.c **** *  This function is entered without a 'byte complete' bit set in the I2C_CSR
 368:.\Generated_Source\PSoC5/I2C_2_MASTER.c **** *  register. It does not exit until it will be set.
 369:.\Generated_Source\PSoC5/I2C_2_MASTER.c **** *
 370:.\Generated_Source\PSoC5/I2C_2_MASTER.c **** * Global variables:
 371:.\Generated_Source\PSoC5/I2C_2_MASTER.c **** *  I2C_2_state - used to store current state of software FSM.
 372:.\Generated_Source\PSoC5/I2C_2_MASTER.c **** *
 373:.\Generated_Source\PSoC5/I2C_2_MASTER.c **** * Reentrant:
 374:.\Generated_Source\PSoC5/I2C_2_MASTER.c **** *  No
 375:.\Generated_Source\PSoC5/I2C_2_MASTER.c **** *
 376:.\Generated_Source\PSoC5/I2C_2_MASTER.c **** *******************************************************************************/
 377:.\Generated_Source\PSoC5/I2C_2_MASTER.c **** uint8 I2C_2_MasterSendRestart(uint8 slaveAddress, uint8 R_nW)
 378:.\Generated_Source\PSoC5/I2C_2_MASTER.c ****       
 379:.\Generated_Source\PSoC5/I2C_2_MASTER.c **** {
 510              		.loc 1 379 0
 511              		.cfi_startproc
 512              		@ args = 0, pretend = 0, frame = 16
 513              		@ frame_needed = 1, uses_anonymous_args = 0
 514              		@ link register save eliminated.
 515 0000 80B4     		push	{r7}
 516              		.cfi_def_cfa_offset 4
 517              		.cfi_offset 7, -4
 518 0002 85B0     		sub	sp, sp, #20
 519              		.cfi_def_cfa_offset 24
 520 0004 00AF     		add	r7, sp, #0
 521              		.cfi_def_cfa_register 7
 522 0006 0246     		mov	r2, r0
 523 0008 0B46     		mov	r3, r1
 524 000a FA71     		strb	r2, [r7, #7]
 525 000c BB71     		strb	r3, [r7, #6]
 380:.\Generated_Source\PSoC5/I2C_2_MASTER.c ****     uint8 errStatus;
 381:.\Generated_Source\PSoC5/I2C_2_MASTER.c **** 
 382:.\Generated_Source\PSoC5/I2C_2_MASTER.c ****     errStatus = I2C_2_MSTR_NOT_READY;
 526              		.loc 1 382 0
 527 000e 0223     		movs	r3, #2
 528 0010 FB73     		strb	r3, [r7, #15]
 383:.\Generated_Source\PSoC5/I2C_2_MASTER.c **** 
 384:.\Generated_Source\PSoC5/I2C_2_MASTER.c ****     /* Check if START condition was generated */
ARM GAS  C:\Users\dskyNote\AppData\Local\Temp\ccLkSjFG.s 			page 17


 385:.\Generated_Source\PSoC5/I2C_2_MASTER.c ****     if(I2C_2_CHECK_MASTER_MODE(I2C_2_MCSR_REG))
 529              		.loc 1 385 0
 530 0012 244B     		ldr	r3, .L42
 531 0014 1B78     		ldrb	r3, [r3]
 532 0016 DBB2     		uxtb	r3, r3
 533 0018 03F00403 		and	r3, r3, #4
 534 001c 002B     		cmp	r3, #0
 535 001e 39D0     		beq	.L35
 386:.\Generated_Source\PSoC5/I2C_2_MASTER.c ****     {
 387:.\Generated_Source\PSoC5/I2C_2_MASTER.c ****         slaveAddress = ((uint8) (slaveAddress << I2C_2_SLAVE_ADDR_SHIFT)); /* Set Address */
 536              		.loc 1 387 0
 537 0020 FB79     		ldrb	r3, [r7, #7]
 538 0022 5B00     		lsls	r3, r3, #1
 539 0024 FB71     		strb	r3, [r7, #7]
 388:.\Generated_Source\PSoC5/I2C_2_MASTER.c ****         if(0u != R_nW)  /* Set the Read/Write flag */
 540              		.loc 1 388 0
 541 0026 BB79     		ldrb	r3, [r7, #6]	@ zero_extendqisi2
 542 0028 002B     		cmp	r3, #0
 543 002a 07D0     		beq	.L36
 389:.\Generated_Source\PSoC5/I2C_2_MASTER.c ****         {
 390:.\Generated_Source\PSoC5/I2C_2_MASTER.c ****             slaveAddress |= I2C_2_READ_FLAG;
 544              		.loc 1 390 0
 545 002c FB79     		ldrb	r3, [r7, #7]
 546 002e 43F00103 		orr	r3, r3, #1
 547 0032 FB71     		strb	r3, [r7, #7]
 391:.\Generated_Source\PSoC5/I2C_2_MASTER.c ****             I2C_2_state = I2C_2_SM_MSTR_RD_ADDR;
 548              		.loc 1 391 0
 549 0034 1C4B     		ldr	r3, .L42+4
 550 0036 4922     		movs	r2, #73
 551 0038 1A70     		strb	r2, [r3]
 552 003a 02E0     		b	.L37
 553              	.L36:
 392:.\Generated_Source\PSoC5/I2C_2_MASTER.c ****         }
 393:.\Generated_Source\PSoC5/I2C_2_MASTER.c ****         else
 394:.\Generated_Source\PSoC5/I2C_2_MASTER.c ****         {
 395:.\Generated_Source\PSoC5/I2C_2_MASTER.c ****             I2C_2_state = I2C_2_SM_MSTR_WR_ADDR;
 554              		.loc 1 395 0
 555 003c 1A4B     		ldr	r3, .L42+4
 556 003e 4522     		movs	r2, #69
 557 0040 1A70     		strb	r2, [r3]
 558              	.L37:
 396:.\Generated_Source\PSoC5/I2C_2_MASTER.c ****         }
 397:.\Generated_Source\PSoC5/I2C_2_MASTER.c ****         I2C_2_DATA_REG = slaveAddress;    /* Write address to data reg */
 559              		.loc 1 397 0
 560 0042 1A4B     		ldr	r3, .L42+8
 561 0044 FA79     		ldrb	r2, [r7, #7]
 562 0046 1A70     		strb	r2, [r3]
 398:.\Generated_Source\PSoC5/I2C_2_MASTER.c **** 
 399:.\Generated_Source\PSoC5/I2C_2_MASTER.c **** 
 400:.\Generated_Source\PSoC5/I2C_2_MASTER.c ****         I2C_2_GENERATE_RESTART_MANUAL;
 563              		.loc 1 400 0
 564 0048 194B     		ldr	r3, .L42+12
 565 004a 3222     		movs	r2, #50
 566 004c 1A70     		strb	r2, [r3]
 567 004e 194B     		ldr	r3, .L42+16
 568 0050 0022     		movs	r2, #0
 569 0052 1A70     		strb	r2, [r3]
ARM GAS  C:\Users\dskyNote\AppData\Local\Temp\ccLkSjFG.s 			page 18


 570 0054 00BF     		nop
 571              	.L38:
 572              		.loc 1 400 0 is_stmt 0 discriminator 1
 573 0056 134B     		ldr	r3, .L42
 574 0058 1B78     		ldrb	r3, [r3]
 575 005a DBB2     		uxtb	r3, r3
 576 005c 03F00103 		and	r3, r3, #1
 577 0060 002B     		cmp	r3, #0
 578 0062 F8D1     		bne	.L38
 401:.\Generated_Source\PSoC5/I2C_2_MASTER.c ****         while(I2C_2_WAIT_BYTE_COMPLETE(I2C_2_CSR_REG))
 579              		.loc 1 401 0 is_stmt 1
 580 0064 00BF     		nop
 581              	.L39:
 582              		.loc 1 401 0 is_stmt 0 discriminator 1
 583 0066 0F4B     		ldr	r3, .L42
 584 0068 1B78     		ldrb	r3, [r3]
 585 006a DBB2     		uxtb	r3, r3
 586 006c 03F00103 		and	r3, r3, #1
 587 0070 002B     		cmp	r3, #0
 588 0072 F8D0     		beq	.L39
 402:.\Generated_Source\PSoC5/I2C_2_MASTER.c ****         {
 403:.\Generated_Source\PSoC5/I2C_2_MASTER.c ****             ; /* Wait for the address to be transfered */
 404:.\Generated_Source\PSoC5/I2C_2_MASTER.c ****         }
 405:.\Generated_Source\PSoC5/I2C_2_MASTER.c **** 
 406:.\Generated_Source\PSoC5/I2C_2_MASTER.c ****         #if(I2C_2_MODE_MULTI_MASTER_ENABLED)
 407:.\Generated_Source\PSoC5/I2C_2_MASTER.c ****             if(I2C_2_CHECK_LOST_ARB(I2C_2_CSR_REG))
 408:.\Generated_Source\PSoC5/I2C_2_MASTER.c ****             {
 409:.\Generated_Source\PSoC5/I2C_2_MASTER.c ****                 I2C_2_BUS_RELEASE;
 410:.\Generated_Source\PSoC5/I2C_2_MASTER.c **** 
 411:.\Generated_Source\PSoC5/I2C_2_MASTER.c ****                 /* Master lost arbitrage: reset FSM to IDLE */
 412:.\Generated_Source\PSoC5/I2C_2_MASTER.c ****                 I2C_2_state = I2C_2_SM_IDLE;
 413:.\Generated_Source\PSoC5/I2C_2_MASTER.c ****                 errStatus = I2C_2_MSTR_ERR_ARB_LOST;
 414:.\Generated_Source\PSoC5/I2C_2_MASTER.c ****             }
 415:.\Generated_Source\PSoC5/I2C_2_MASTER.c ****             else
 416:.\Generated_Source\PSoC5/I2C_2_MASTER.c ****         #endif /* (I2C_2_MODE_MULTI_MASTER_ENABLED) */
 417:.\Generated_Source\PSoC5/I2C_2_MASTER.c **** 
 418:.\Generated_Source\PSoC5/I2C_2_MASTER.c ****             if(I2C_2_CHECK_ADDR_NAK(I2C_2_CSR_REG))
 589              		.loc 1 418 0 is_stmt 1
 590 0074 0B4B     		ldr	r3, .L42
 591 0076 1B78     		ldrb	r3, [r3]
 592 0078 DBB2     		uxtb	r3, r3
 593 007a 03F00A03 		and	r3, r3, #10
 594 007e DBB2     		uxtb	r3, r3
 595 0080 0A2B     		cmp	r3, #10
 596 0082 05D1     		bne	.L40
 419:.\Generated_Source\PSoC5/I2C_2_MASTER.c ****             {
 420:.\Generated_Source\PSoC5/I2C_2_MASTER.c ****                 /* Address has been NACKed: reset FSM to IDLE */
 421:.\Generated_Source\PSoC5/I2C_2_MASTER.c ****                 I2C_2_state = I2C_2_SM_IDLE;
 597              		.loc 1 421 0
 598 0084 084B     		ldr	r3, .L42+4
 599 0086 1022     		movs	r2, #16
 600 0088 1A70     		strb	r2, [r3]
 422:.\Generated_Source\PSoC5/I2C_2_MASTER.c ****                 errStatus = I2C_2_MSTR_ERR_LB_NAK;
 601              		.loc 1 422 0
 602 008a 0323     		movs	r3, #3
 603 008c FB73     		strb	r3, [r7, #15]
 604 008e 01E0     		b	.L35
ARM GAS  C:\Users\dskyNote\AppData\Local\Temp\ccLkSjFG.s 			page 19


 605              	.L40:
 423:.\Generated_Source\PSoC5/I2C_2_MASTER.c ****             }
 424:.\Generated_Source\PSoC5/I2C_2_MASTER.c ****             else
 425:.\Generated_Source\PSoC5/I2C_2_MASTER.c ****             {
 426:.\Generated_Source\PSoC5/I2C_2_MASTER.c ****                 /* ReStart was sent witout errors */
 427:.\Generated_Source\PSoC5/I2C_2_MASTER.c ****                 errStatus = I2C_2_MSTR_NO_ERROR;
 606              		.loc 1 427 0
 607 0090 0023     		movs	r3, #0
 608 0092 FB73     		strb	r3, [r7, #15]
 609              	.L35:
 428:.\Generated_Source\PSoC5/I2C_2_MASTER.c ****             }
 429:.\Generated_Source\PSoC5/I2C_2_MASTER.c ****     }
 430:.\Generated_Source\PSoC5/I2C_2_MASTER.c **** 
 431:.\Generated_Source\PSoC5/I2C_2_MASTER.c ****     return(errStatus);
 610              		.loc 1 431 0
 611 0094 FB7B     		ldrb	r3, [r7, #15]	@ zero_extendqisi2
 432:.\Generated_Source\PSoC5/I2C_2_MASTER.c **** }
 612              		.loc 1 432 0
 613 0096 1846     		mov	r0, r3
 614 0098 1437     		adds	r7, r7, #20
 615 009a BD46     		mov	sp, r7
 616              		@ sp needed
 617 009c 5DF8047B 		ldr	r7, [sp], #4
 618 00a0 7047     		bx	lr
 619              	.L43:
 620 00a2 00BF     		.align	2
 621              	.L42:
 622 00a4 68640040 		.word	1073767528
 623 00a8 00000000 		.word	I2C_2_state
 624 00ac 09650040 		.word	1073767689
 625 00b0 79650040 		.word	1073767801
 626 00b4 59650040 		.word	1073767769
 627              		.cfi_endproc
 628              	.LFE3:
 629              		.size	I2C_2_MasterSendRestart, .-I2C_2_MasterSendRestart
 630              		.section	.text.I2C_2_MasterSendStop,"ax",%progbits
 631              		.align	2
 632              		.global	I2C_2_MasterSendStop
 633              		.thumb
 634              		.thumb_func
 635              		.type	I2C_2_MasterSendStop, %function
 636              	I2C_2_MasterSendStop:
 637              	.LFB4:
 433:.\Generated_Source\PSoC5/I2C_2_MASTER.c **** 
 434:.\Generated_Source\PSoC5/I2C_2_MASTER.c **** 
 435:.\Generated_Source\PSoC5/I2C_2_MASTER.c **** /*******************************************************************************
 436:.\Generated_Source\PSoC5/I2C_2_MASTER.c **** * Function Name: I2C_2_MasterSendStop
 437:.\Generated_Source\PSoC5/I2C_2_MASTER.c **** ********************************************************************************
 438:.\Generated_Source\PSoC5/I2C_2_MASTER.c **** *
 439:.\Generated_Source\PSoC5/I2C_2_MASTER.c **** * Summary:
 440:.\Generated_Source\PSoC5/I2C_2_MASTER.c **** *  Generates I2C Stop condition on bus. Function do nothing if Start or Restart
 441:.\Generated_Source\PSoC5/I2C_2_MASTER.c **** *  condition was failed before call this function.
 442:.\Generated_Source\PSoC5/I2C_2_MASTER.c **** *
 443:.\Generated_Source\PSoC5/I2C_2_MASTER.c **** * Parameters:
 444:.\Generated_Source\PSoC5/I2C_2_MASTER.c **** *  None
 445:.\Generated_Source\PSoC5/I2C_2_MASTER.c **** *
 446:.\Generated_Source\PSoC5/I2C_2_MASTER.c **** * Return:
ARM GAS  C:\Users\dskyNote\AppData\Local\Temp\ccLkSjFG.s 			page 20


 447:.\Generated_Source\PSoC5/I2C_2_MASTER.c **** *  Status error - zero means no errors.
 448:.\Generated_Source\PSoC5/I2C_2_MASTER.c **** *
 449:.\Generated_Source\PSoC5/I2C_2_MASTER.c **** * Side Effects:
 450:.\Generated_Source\PSoC5/I2C_2_MASTER.c **** *  The Stop generation is required to complete transaction.
 451:.\Generated_Source\PSoC5/I2C_2_MASTER.c **** *  This function does not wait whileStop condition will be generated.
 452:.\Generated_Source\PSoC5/I2C_2_MASTER.c **** *
 453:.\Generated_Source\PSoC5/I2C_2_MASTER.c **** * Global variables:
 454:.\Generated_Source\PSoC5/I2C_2_MASTER.c **** *  I2C_2_state - used to store current state of software FSM.
 455:.\Generated_Source\PSoC5/I2C_2_MASTER.c **** *
 456:.\Generated_Source\PSoC5/I2C_2_MASTER.c **** * Reentrant:
 457:.\Generated_Source\PSoC5/I2C_2_MASTER.c **** *  No
 458:.\Generated_Source\PSoC5/I2C_2_MASTER.c **** *
 459:.\Generated_Source\PSoC5/I2C_2_MASTER.c **** *******************************************************************************/
 460:.\Generated_Source\PSoC5/I2C_2_MASTER.c **** uint8 I2C_2_MasterSendStop(void) 
 461:.\Generated_Source\PSoC5/I2C_2_MASTER.c **** {
 638              		.loc 1 461 0
 639              		.cfi_startproc
 640              		@ args = 0, pretend = 0, frame = 8
 641              		@ frame_needed = 1, uses_anonymous_args = 0
 642              		@ link register save eliminated.
 643 0000 80B4     		push	{r7}
 644              		.cfi_def_cfa_offset 4
 645              		.cfi_offset 7, -4
 646 0002 83B0     		sub	sp, sp, #12
 647              		.cfi_def_cfa_offset 16
 648 0004 00AF     		add	r7, sp, #0
 649              		.cfi_def_cfa_register 7
 462:.\Generated_Source\PSoC5/I2C_2_MASTER.c ****     uint8 errStatus;
 463:.\Generated_Source\PSoC5/I2C_2_MASTER.c **** 
 464:.\Generated_Source\PSoC5/I2C_2_MASTER.c ****     errStatus = I2C_2_MSTR_NOT_READY;
 650              		.loc 1 464 0
 651 0006 0223     		movs	r3, #2
 652 0008 FB71     		strb	r3, [r7, #7]
 465:.\Generated_Source\PSoC5/I2C_2_MASTER.c **** 
 466:.\Generated_Source\PSoC5/I2C_2_MASTER.c ****     /* Check if START condition was generated */
 467:.\Generated_Source\PSoC5/I2C_2_MASTER.c ****     if(I2C_2_CHECK_MASTER_MODE(I2C_2_MCSR_REG))
 653              		.loc 1 467 0
 654 000a 144B     		ldr	r3, .L49
 655 000c 1B78     		ldrb	r3, [r3]
 656 000e DBB2     		uxtb	r3, r3
 657 0010 03F00403 		and	r3, r3, #4
 658 0014 002B     		cmp	r3, #0
 659 0016 1AD0     		beq	.L45
 468:.\Generated_Source\PSoC5/I2C_2_MASTER.c ****     {
 469:.\Generated_Source\PSoC5/I2C_2_MASTER.c ****         I2C_2_GENERATE_STOP_MANUAL;              /* Generate STOP */
 660              		.loc 1 469 0
 661 0018 114B     		ldr	r3, .L49+4
 662 001a 5222     		movs	r2, #82
 663 001c 1A70     		strb	r2, [r3]
 664 001e 114B     		ldr	r3, .L49+8
 665 0020 0022     		movs	r2, #0
 666 0022 1A70     		strb	r2, [r3]
 667 0024 00BF     		nop
 668              	.L46:
 669              		.loc 1 469 0 is_stmt 0 discriminator 1
 670 0026 0D4B     		ldr	r3, .L49
 671 0028 1B78     		ldrb	r3, [r3]
ARM GAS  C:\Users\dskyNote\AppData\Local\Temp\ccLkSjFG.s 			page 21


 672 002a DBB2     		uxtb	r3, r3
 673 002c 03F00103 		and	r3, r3, #1
 674 0030 002B     		cmp	r3, #0
 675 0032 F8D1     		bne	.L46
 470:.\Generated_Source\PSoC5/I2C_2_MASTER.c ****         I2C_2_state = I2C_2_SM_IDLE;  /* Reset state to IDLE */
 676              		.loc 1 470 0 is_stmt 1
 677 0034 0C4B     		ldr	r3, .L49+12
 678 0036 1022     		movs	r2, #16
 679 0038 1A70     		strb	r2, [r3]
 471:.\Generated_Source\PSoC5/I2C_2_MASTER.c **** 
 472:.\Generated_Source\PSoC5/I2C_2_MASTER.c ****         while(I2C_2_WAIT_STOP_COMPLETE(I2C_2_CSR_REG))
 680              		.loc 1 472 0
 681 003a 00BF     		nop
 682              	.L47:
 683              		.loc 1 472 0 is_stmt 0 discriminator 1
 684 003c 074B     		ldr	r3, .L49
 685 003e 1B78     		ldrb	r3, [r3]
 686 0040 DBB2     		uxtb	r3, r3
 687 0042 03F02103 		and	r3, r3, #33
 688 0046 002B     		cmp	r3, #0
 689 0048 F8D0     		beq	.L47
 473:.\Generated_Source\PSoC5/I2C_2_MASTER.c ****         {
 474:.\Generated_Source\PSoC5/I2C_2_MASTER.c ****             ; /* Wait for Stop to be generated */
 475:.\Generated_Source\PSoC5/I2C_2_MASTER.c ****         }
 476:.\Generated_Source\PSoC5/I2C_2_MASTER.c **** 
 477:.\Generated_Source\PSoC5/I2C_2_MASTER.c ****         errStatus = I2C_2_MSTR_NO_ERROR;
 690              		.loc 1 477 0 is_stmt 1
 691 004a 0023     		movs	r3, #0
 692 004c FB71     		strb	r3, [r7, #7]
 693              	.L45:
 478:.\Generated_Source\PSoC5/I2C_2_MASTER.c ****         #if(I2C_2_MODE_MULTI_MASTER_ENABLED)
 479:.\Generated_Source\PSoC5/I2C_2_MASTER.c ****             if(I2C_2_CHECK_LOST_ARB(I2C_2_CSR_REG))
 480:.\Generated_Source\PSoC5/I2C_2_MASTER.c ****             {
 481:.\Generated_Source\PSoC5/I2C_2_MASTER.c ****                 I2C_2_BUS_RELEASE;
 482:.\Generated_Source\PSoC5/I2C_2_MASTER.c **** 
 483:.\Generated_Source\PSoC5/I2C_2_MASTER.c ****                 /* NACK was generated by enother instead Stop */
 484:.\Generated_Source\PSoC5/I2C_2_MASTER.c ****                 errStatus = I2C_2_MSTR_ERR_ARB_LOST;
 485:.\Generated_Source\PSoC5/I2C_2_MASTER.c ****             }
 486:.\Generated_Source\PSoC5/I2C_2_MASTER.c ****         #endif /* (I2C_2_MODE_MULTI_MASTER_ENABLED) */
 487:.\Generated_Source\PSoC5/I2C_2_MASTER.c ****     }
 488:.\Generated_Source\PSoC5/I2C_2_MASTER.c **** 
 489:.\Generated_Source\PSoC5/I2C_2_MASTER.c ****     return(errStatus);
 694              		.loc 1 489 0
 695 004e FB79     		ldrb	r3, [r7, #7]	@ zero_extendqisi2
 490:.\Generated_Source\PSoC5/I2C_2_MASTER.c **** }
 696              		.loc 1 490 0
 697 0050 1846     		mov	r0, r3
 698 0052 0C37     		adds	r7, r7, #12
 699 0054 BD46     		mov	sp, r7
 700              		@ sp needed
 701 0056 5DF8047B 		ldr	r7, [sp], #4
 702 005a 7047     		bx	lr
 703              	.L50:
 704              		.align	2
 705              	.L49:
 706 005c 68640040 		.word	1073767528
 707 0060 79650040 		.word	1073767801
ARM GAS  C:\Users\dskyNote\AppData\Local\Temp\ccLkSjFG.s 			page 22


 708 0064 59650040 		.word	1073767769
 709 0068 00000000 		.word	I2C_2_state
 710              		.cfi_endproc
 711              	.LFE4:
 712              		.size	I2C_2_MasterSendStop, .-I2C_2_MasterSendStop
 713              		.section	.text.I2C_2_MasterWriteByte,"ax",%progbits
 714              		.align	2
 715              		.global	I2C_2_MasterWriteByte
 716              		.thumb
 717              		.thumb_func
 718              		.type	I2C_2_MasterWriteByte, %function
 719              	I2C_2_MasterWriteByte:
 720              	.LFB5:
 491:.\Generated_Source\PSoC5/I2C_2_MASTER.c **** 
 492:.\Generated_Source\PSoC5/I2C_2_MASTER.c **** 
 493:.\Generated_Source\PSoC5/I2C_2_MASTER.c **** /*******************************************************************************
 494:.\Generated_Source\PSoC5/I2C_2_MASTER.c **** * Function Name: I2C_2_MasterWriteByte
 495:.\Generated_Source\PSoC5/I2C_2_MASTER.c **** ********************************************************************************
 496:.\Generated_Source\PSoC5/I2C_2_MASTER.c **** *
 497:.\Generated_Source\PSoC5/I2C_2_MASTER.c **** * Summary:
 498:.\Generated_Source\PSoC5/I2C_2_MASTER.c **** *  Sends one byte to a slave. A valid Start or ReStart condition must be
 499:.\Generated_Source\PSoC5/I2C_2_MASTER.c **** *  generated before this call this function. Function do nothing if Start or
 500:.\Generated_Source\PSoC5/I2C_2_MASTER.c **** *  Restart condition was failed before call this function.
 501:.\Generated_Source\PSoC5/I2C_2_MASTER.c **** *
 502:.\Generated_Source\PSoC5/I2C_2_MASTER.c **** * Parameters:
 503:.\Generated_Source\PSoC5/I2C_2_MASTER.c **** *  data:  The data byte to send to the slave.
 504:.\Generated_Source\PSoC5/I2C_2_MASTER.c **** *
 505:.\Generated_Source\PSoC5/I2C_2_MASTER.c **** * Return:
 506:.\Generated_Source\PSoC5/I2C_2_MASTER.c **** *  Status error - zero means no errors.
 507:.\Generated_Source\PSoC5/I2C_2_MASTER.c **** *
 508:.\Generated_Source\PSoC5/I2C_2_MASTER.c **** * Side Effects:
 509:.\Generated_Source\PSoC5/I2C_2_MASTER.c **** *  This function is entered without a 'byte complete' bit set in the I2C_CSR
 510:.\Generated_Source\PSoC5/I2C_2_MASTER.c **** *  register. It does not exit until it will be set.
 511:.\Generated_Source\PSoC5/I2C_2_MASTER.c **** *
 512:.\Generated_Source\PSoC5/I2C_2_MASTER.c **** * Global variables:
 513:.\Generated_Source\PSoC5/I2C_2_MASTER.c **** *  I2C_2_state - used to store current state of software FSM.
 514:.\Generated_Source\PSoC5/I2C_2_MASTER.c **** *
 515:.\Generated_Source\PSoC5/I2C_2_MASTER.c **** *******************************************************************************/
 516:.\Generated_Source\PSoC5/I2C_2_MASTER.c **** uint8 I2C_2_MasterWriteByte(uint8 theByte) 
 517:.\Generated_Source\PSoC5/I2C_2_MASTER.c **** {
 721              		.loc 1 517 0
 722              		.cfi_startproc
 723              		@ args = 0, pretend = 0, frame = 16
 724              		@ frame_needed = 1, uses_anonymous_args = 0
 725              		@ link register save eliminated.
 726 0000 80B4     		push	{r7}
 727              		.cfi_def_cfa_offset 4
 728              		.cfi_offset 7, -4
 729 0002 85B0     		sub	sp, sp, #20
 730              		.cfi_def_cfa_offset 24
 731 0004 00AF     		add	r7, sp, #0
 732              		.cfi_def_cfa_register 7
 733 0006 0346     		mov	r3, r0
 734 0008 FB71     		strb	r3, [r7, #7]
 518:.\Generated_Source\PSoC5/I2C_2_MASTER.c ****     uint8 errStatus;
 519:.\Generated_Source\PSoC5/I2C_2_MASTER.c **** 
 520:.\Generated_Source\PSoC5/I2C_2_MASTER.c ****     errStatus = I2C_2_MSTR_NOT_READY;
ARM GAS  C:\Users\dskyNote\AppData\Local\Temp\ccLkSjFG.s 			page 23


 735              		.loc 1 520 0
 736 000a 0223     		movs	r3, #2
 737 000c FB73     		strb	r3, [r7, #15]
 521:.\Generated_Source\PSoC5/I2C_2_MASTER.c **** 
 522:.\Generated_Source\PSoC5/I2C_2_MASTER.c ****     /* Check if START condition was generated */
 523:.\Generated_Source\PSoC5/I2C_2_MASTER.c ****     if(I2C_2_CHECK_MASTER_MODE(I2C_2_MCSR_REG))
 738              		.loc 1 523 0
 739 000e 1E4B     		ldr	r3, .L57
 740 0010 1B78     		ldrb	r3, [r3]
 741 0012 DBB2     		uxtb	r3, r3
 742 0014 03F00403 		and	r3, r3, #4
 743 0018 002B     		cmp	r3, #0
 744 001a 2DD0     		beq	.L52
 524:.\Generated_Source\PSoC5/I2C_2_MASTER.c ****     {
 525:.\Generated_Source\PSoC5/I2C_2_MASTER.c ****         I2C_2_DATA_REG = theByte;                        /* Write DATA register */
 745              		.loc 1 525 0
 746 001c 1B4B     		ldr	r3, .L57+4
 747 001e FA79     		ldrb	r2, [r7, #7]
 748 0020 1A70     		strb	r2, [r3]
 526:.\Generated_Source\PSoC5/I2C_2_MASTER.c ****         I2C_2_TRANSMIT_DATA_MANUAL;                      /* Set transmit mode */
 749              		.loc 1 526 0
 750 0022 1B4B     		ldr	r3, .L57+8
 751 0024 0622     		movs	r2, #6
 752 0026 1A70     		strb	r2, [r3]
 753 0028 1A4B     		ldr	r3, .L57+12
 754 002a 0022     		movs	r2, #0
 755 002c 1A70     		strb	r2, [r3]
 756 002e 00BF     		nop
 757              	.L53:
 758              		.loc 1 526 0 is_stmt 0 discriminator 1
 759 0030 154B     		ldr	r3, .L57
 760 0032 1B78     		ldrb	r3, [r3]
 761 0034 DBB2     		uxtb	r3, r3
 762 0036 03F00103 		and	r3, r3, #1
 763 003a 002B     		cmp	r3, #0
 764 003c F8D1     		bne	.L53
 527:.\Generated_Source\PSoC5/I2C_2_MASTER.c ****         I2C_2_state = I2C_2_SM_MSTR_WR_DATA;  /* Set state WR_DATA */
 765              		.loc 1 527 0 is_stmt 1
 766 003e 164B     		ldr	r3, .L57+16
 767 0040 4622     		movs	r2, #70
 768 0042 1A70     		strb	r2, [r3]
 528:.\Generated_Source\PSoC5/I2C_2_MASTER.c **** 
 529:.\Generated_Source\PSoC5/I2C_2_MASTER.c ****         /* Make sure the last byte has been transfered first */
 530:.\Generated_Source\PSoC5/I2C_2_MASTER.c ****         while(I2C_2_WAIT_BYTE_COMPLETE(I2C_2_CSR_REG))
 769              		.loc 1 530 0
 770 0044 00BF     		nop
 771              	.L54:
 772              		.loc 1 530 0 is_stmt 0 discriminator 1
 773 0046 104B     		ldr	r3, .L57
 774 0048 1B78     		ldrb	r3, [r3]
 775 004a DBB2     		uxtb	r3, r3
 776 004c 03F00103 		and	r3, r3, #1
 777 0050 002B     		cmp	r3, #0
 778 0052 F8D0     		beq	.L54
 531:.\Generated_Source\PSoC5/I2C_2_MASTER.c ****         {
 532:.\Generated_Source\PSoC5/I2C_2_MASTER.c ****             ; /* Wait for byte to be written */
 533:.\Generated_Source\PSoC5/I2C_2_MASTER.c ****         }
ARM GAS  C:\Users\dskyNote\AppData\Local\Temp\ccLkSjFG.s 			page 24


 534:.\Generated_Source\PSoC5/I2C_2_MASTER.c **** 
 535:.\Generated_Source\PSoC5/I2C_2_MASTER.c ****         #if(I2C_2_MODE_MULTI_MASTER_ENABLED)
 536:.\Generated_Source\PSoC5/I2C_2_MASTER.c ****             if(I2C_2_CHECK_LOST_ARB(I2C_2_CSR_REG))
 537:.\Generated_Source\PSoC5/I2C_2_MASTER.c ****             {
 538:.\Generated_Source\PSoC5/I2C_2_MASTER.c ****                 I2C_2_BUS_RELEASE;
 539:.\Generated_Source\PSoC5/I2C_2_MASTER.c **** 
 540:.\Generated_Source\PSoC5/I2C_2_MASTER.c ****                 /* Master lost arbitrage: reset FSM to IDLE */
 541:.\Generated_Source\PSoC5/I2C_2_MASTER.c ****                 I2C_2_state = I2C_2_SM_IDLE;
 542:.\Generated_Source\PSoC5/I2C_2_MASTER.c ****                 errStatus = I2C_2_MSTR_ERR_ARB_LOST;
 543:.\Generated_Source\PSoC5/I2C_2_MASTER.c ****             }
 544:.\Generated_Source\PSoC5/I2C_2_MASTER.c ****             /* Check LRB bit */
 545:.\Generated_Source\PSoC5/I2C_2_MASTER.c ****             else
 546:.\Generated_Source\PSoC5/I2C_2_MASTER.c ****         #endif /* (I2C_2_MODE_MULTI_MASTER_ENABLED) */
 547:.\Generated_Source\PSoC5/I2C_2_MASTER.c **** 
 548:.\Generated_Source\PSoC5/I2C_2_MASTER.c ****             if(I2C_2_CHECK_DATA_ACK(I2C_2_CSR_REG))
 779              		.loc 1 548 0 is_stmt 1
 780 0054 0C4B     		ldr	r3, .L57
 781 0056 1B78     		ldrb	r3, [r3]
 782 0058 DBB2     		uxtb	r3, r3
 783 005a 03F00203 		and	r3, r3, #2
 784 005e 002B     		cmp	r3, #0
 785 0060 05D1     		bne	.L55
 549:.\Generated_Source\PSoC5/I2C_2_MASTER.c ****             {
 550:.\Generated_Source\PSoC5/I2C_2_MASTER.c ****                 I2C_2_state = I2C_2_SM_MSTR_HALT;     /* Set state to HALT */
 786              		.loc 1 550 0
 787 0062 0D4B     		ldr	r3, .L57+16
 788 0064 6022     		movs	r2, #96
 789 0066 1A70     		strb	r2, [r3]
 551:.\Generated_Source\PSoC5/I2C_2_MASTER.c ****                 errStatus = I2C_2_MSTR_NO_ERROR;                 /* The LRB was ACKed */
 790              		.loc 1 551 0
 791 0068 0023     		movs	r3, #0
 792 006a FB73     		strb	r3, [r7, #15]
 793 006c 04E0     		b	.L52
 794              	.L55:
 552:.\Generated_Source\PSoC5/I2C_2_MASTER.c ****             }
 553:.\Generated_Source\PSoC5/I2C_2_MASTER.c ****             else
 554:.\Generated_Source\PSoC5/I2C_2_MASTER.c ****             {
 555:.\Generated_Source\PSoC5/I2C_2_MASTER.c ****                 I2C_2_state = I2C_2_SM_MSTR_HALT;     /* Set state to HALT */
 795              		.loc 1 555 0
 796 006e 0A4B     		ldr	r3, .L57+16
 797 0070 6022     		movs	r2, #96
 798 0072 1A70     		strb	r2, [r3]
 556:.\Generated_Source\PSoC5/I2C_2_MASTER.c ****                 errStatus = I2C_2_MSTR_ERR_LB_NAK;               /* The LRB was NACKed */
 799              		.loc 1 556 0
 800 0074 0323     		movs	r3, #3
 801 0076 FB73     		strb	r3, [r7, #15]
 802              	.L52:
 557:.\Generated_Source\PSoC5/I2C_2_MASTER.c ****             }
 558:.\Generated_Source\PSoC5/I2C_2_MASTER.c ****     }
 559:.\Generated_Source\PSoC5/I2C_2_MASTER.c **** 
 560:.\Generated_Source\PSoC5/I2C_2_MASTER.c ****     return(errStatus);
 803              		.loc 1 560 0
 804 0078 FB7B     		ldrb	r3, [r7, #15]	@ zero_extendqisi2
 561:.\Generated_Source\PSoC5/I2C_2_MASTER.c **** }
 805              		.loc 1 561 0
 806 007a 1846     		mov	r0, r3
 807 007c 1437     		adds	r7, r7, #20
ARM GAS  C:\Users\dskyNote\AppData\Local\Temp\ccLkSjFG.s 			page 25


 808 007e BD46     		mov	sp, r7
 809              		@ sp needed
 810 0080 5DF8047B 		ldr	r7, [sp], #4
 811 0084 7047     		bx	lr
 812              	.L58:
 813 0086 00BF     		.align	2
 814              	.L57:
 815 0088 68640040 		.word	1073767528
 816 008c 09650040 		.word	1073767689
 817 0090 79650040 		.word	1073767801
 818 0094 59650040 		.word	1073767769
 819 0098 00000000 		.word	I2C_2_state
 820              		.cfi_endproc
 821              	.LFE5:
 822              		.size	I2C_2_MasterWriteByte, .-I2C_2_MasterWriteByte
 823              		.section	.text.I2C_2_MasterReadByte,"ax",%progbits
 824              		.align	2
 825              		.global	I2C_2_MasterReadByte
 826              		.thumb
 827              		.thumb_func
 828              		.type	I2C_2_MasterReadByte, %function
 829              	I2C_2_MasterReadByte:
 830              	.LFB6:
 562:.\Generated_Source\PSoC5/I2C_2_MASTER.c **** 
 563:.\Generated_Source\PSoC5/I2C_2_MASTER.c **** 
 564:.\Generated_Source\PSoC5/I2C_2_MASTER.c **** /*******************************************************************************
 565:.\Generated_Source\PSoC5/I2C_2_MASTER.c **** * Function Name: I2C_2_MasterReadByte
 566:.\Generated_Source\PSoC5/I2C_2_MASTER.c **** ********************************************************************************
 567:.\Generated_Source\PSoC5/I2C_2_MASTER.c **** *
 568:.\Generated_Source\PSoC5/I2C_2_MASTER.c **** * Summary:
 569:.\Generated_Source\PSoC5/I2C_2_MASTER.c **** *  Reads one byte from a slave and ACK or NACK the transfer. A valid Start or
 570:.\Generated_Source\PSoC5/I2C_2_MASTER.c **** *  ReStart condition must be generated before this call this function. Function
 571:.\Generated_Source\PSoC5/I2C_2_MASTER.c **** *  do nothing if Start or Restart condition was failed before call this
 572:.\Generated_Source\PSoC5/I2C_2_MASTER.c **** *  function.
 573:.\Generated_Source\PSoC5/I2C_2_MASTER.c **** *
 574:.\Generated_Source\PSoC5/I2C_2_MASTER.c **** * Parameters:
 575:.\Generated_Source\PSoC5/I2C_2_MASTER.c **** *  acknNack:  Zero, response with NACK, if non-zero response with ACK.
 576:.\Generated_Source\PSoC5/I2C_2_MASTER.c **** *
 577:.\Generated_Source\PSoC5/I2C_2_MASTER.c **** * Return:
 578:.\Generated_Source\PSoC5/I2C_2_MASTER.c **** *  Byte read from slave.
 579:.\Generated_Source\PSoC5/I2C_2_MASTER.c **** *
 580:.\Generated_Source\PSoC5/I2C_2_MASTER.c **** * Side Effects:
 581:.\Generated_Source\PSoC5/I2C_2_MASTER.c **** *  This function is entered without a 'byte complete' bit set in the I2C_CSR
 582:.\Generated_Source\PSoC5/I2C_2_MASTER.c **** *  register. It does not exit until it will be set.
 583:.\Generated_Source\PSoC5/I2C_2_MASTER.c **** *
 584:.\Generated_Source\PSoC5/I2C_2_MASTER.c **** * Global variables:
 585:.\Generated_Source\PSoC5/I2C_2_MASTER.c **** *  I2C_2_state - used to store current state of software FSM.
 586:.\Generated_Source\PSoC5/I2C_2_MASTER.c **** *
 587:.\Generated_Source\PSoC5/I2C_2_MASTER.c **** * Reentrant:
 588:.\Generated_Source\PSoC5/I2C_2_MASTER.c **** *  No
 589:.\Generated_Source\PSoC5/I2C_2_MASTER.c **** *
 590:.\Generated_Source\PSoC5/I2C_2_MASTER.c **** *******************************************************************************/
 591:.\Generated_Source\PSoC5/I2C_2_MASTER.c **** uint8 I2C_2_MasterReadByte(uint8 acknNak) 
 592:.\Generated_Source\PSoC5/I2C_2_MASTER.c **** {
 831              		.loc 1 592 0
 832              		.cfi_startproc
 833              		@ args = 0, pretend = 0, frame = 16
ARM GAS  C:\Users\dskyNote\AppData\Local\Temp\ccLkSjFG.s 			page 26


 834              		@ frame_needed = 1, uses_anonymous_args = 0
 835              		@ link register save eliminated.
 836 0000 80B4     		push	{r7}
 837              		.cfi_def_cfa_offset 4
 838              		.cfi_offset 7, -4
 839 0002 85B0     		sub	sp, sp, #20
 840              		.cfi_def_cfa_offset 24
 841 0004 00AF     		add	r7, sp, #0
 842              		.cfi_def_cfa_register 7
 843 0006 0346     		mov	r3, r0
 844 0008 FB71     		strb	r3, [r7, #7]
 593:.\Generated_Source\PSoC5/I2C_2_MASTER.c ****     uint8 theByte;
 594:.\Generated_Source\PSoC5/I2C_2_MASTER.c **** 
 595:.\Generated_Source\PSoC5/I2C_2_MASTER.c ****     theByte = 0u;
 845              		.loc 1 595 0
 846 000a 0023     		movs	r3, #0
 847 000c FB73     		strb	r3, [r7, #15]
 596:.\Generated_Source\PSoC5/I2C_2_MASTER.c **** 
 597:.\Generated_Source\PSoC5/I2C_2_MASTER.c ****     /* Check if START condition was generated */
 598:.\Generated_Source\PSoC5/I2C_2_MASTER.c ****     if(I2C_2_CHECK_MASTER_MODE(I2C_2_MCSR_REG))
 848              		.loc 1 598 0
 849 000e 224B     		ldr	r3, .L67
 850 0010 1B78     		ldrb	r3, [r3]
 851 0012 DBB2     		uxtb	r3, r3
 852 0014 03F00403 		and	r3, r3, #4
 853 0018 002B     		cmp	r3, #0
 854 001a 35D0     		beq	.L60
 599:.\Generated_Source\PSoC5/I2C_2_MASTER.c ****     {
 600:.\Generated_Source\PSoC5/I2C_2_MASTER.c ****         /* When address phase need release the bus and receive the byte, then decide ACK or NACK */
 601:.\Generated_Source\PSoC5/I2C_2_MASTER.c ****         if(I2C_2_SM_MSTR_RD_ADDR == I2C_2_state)
 855              		.loc 1 601 0
 856 001c 1F4B     		ldr	r3, .L67+4
 857 001e 1B78     		ldrb	r3, [r3]
 858 0020 DBB2     		uxtb	r3, r3
 859 0022 492B     		cmp	r3, #73
 860 0024 10D1     		bne	.L61
 602:.\Generated_Source\PSoC5/I2C_2_MASTER.c ****         {
 603:.\Generated_Source\PSoC5/I2C_2_MASTER.c ****             I2C_2_state = I2C_2_SM_MSTR_RD_DATA;
 861              		.loc 1 603 0
 862 0026 1D4B     		ldr	r3, .L67+4
 863 0028 4A22     		movs	r2, #74
 864 002a 1A70     		strb	r2, [r3]
 604:.\Generated_Source\PSoC5/I2C_2_MASTER.c ****             I2C_2_READY_TO_READ_MANUAL;
 865              		.loc 1 604 0
 866 002c 1C4B     		ldr	r3, .L67+8
 867 002e 0222     		movs	r2, #2
 868 0030 1A70     		strb	r2, [r3]
 869 0032 1C4B     		ldr	r3, .L67+12
 870 0034 0022     		movs	r2, #0
 871 0036 1A70     		strb	r2, [r3]
 872 0038 00BF     		nop
 873              	.L62:
 874              		.loc 1 604 0 is_stmt 0 discriminator 1
 875 003a 174B     		ldr	r3, .L67
 876 003c 1B78     		ldrb	r3, [r3]
 877 003e DBB2     		uxtb	r3, r3
 878 0040 03F00103 		and	r3, r3, #1
ARM GAS  C:\Users\dskyNote\AppData\Local\Temp\ccLkSjFG.s 			page 27


 879 0044 002B     		cmp	r3, #0
 880 0046 F8D1     		bne	.L62
 881              	.L61:
 605:.\Generated_Source\PSoC5/I2C_2_MASTER.c ****         }
 606:.\Generated_Source\PSoC5/I2C_2_MASTER.c **** 
 607:.\Generated_Source\PSoC5/I2C_2_MASTER.c ****         while(I2C_2_WAIT_BYTE_COMPLETE(I2C_2_CSR_REG))
 882              		.loc 1 607 0 is_stmt 1
 883 0048 00BF     		nop
 884              	.L63:
 885              		.loc 1 607 0 is_stmt 0 discriminator 1
 886 004a 134B     		ldr	r3, .L67
 887 004c 1B78     		ldrb	r3, [r3]
 888 004e DBB2     		uxtb	r3, r3
 889 0050 03F00103 		and	r3, r3, #1
 890 0054 002B     		cmp	r3, #0
 891 0056 F8D0     		beq	.L63
 608:.\Generated_Source\PSoC5/I2C_2_MASTER.c ****         {
 609:.\Generated_Source\PSoC5/I2C_2_MASTER.c ****             ; /* Wait for byte to be read */
 610:.\Generated_Source\PSoC5/I2C_2_MASTER.c ****         }
 611:.\Generated_Source\PSoC5/I2C_2_MASTER.c **** 
 612:.\Generated_Source\PSoC5/I2C_2_MASTER.c ****         theByte = I2C_2_DATA_REG;
 892              		.loc 1 612 0 is_stmt 1
 893 0058 134B     		ldr	r3, .L67+16
 894 005a 1B78     		ldrb	r3, [r3]
 895 005c FB73     		strb	r3, [r7, #15]
 613:.\Generated_Source\PSoC5/I2C_2_MASTER.c **** 
 614:.\Generated_Source\PSoC5/I2C_2_MASTER.c ****         /* Now if the ACK flag was set, ACK the data which will release the bus and
 615:.\Generated_Source\PSoC5/I2C_2_MASTER.c ****            start the next byte in otherwise do NOTHING to the CSR reg.
 616:.\Generated_Source\PSoC5/I2C_2_MASTER.c ****            This will allow the calling routine to generate a repeat start or
 617:.\Generated_Source\PSoC5/I2C_2_MASTER.c ****            stop depending on it's preference. */
 618:.\Generated_Source\PSoC5/I2C_2_MASTER.c ****         if(acknNak != 0u)   /* Do ACK */
 896              		.loc 1 618 0
 897 005e FB79     		ldrb	r3, [r7, #7]	@ zero_extendqisi2
 898 0060 002B     		cmp	r3, #0
 899 0062 0ED0     		beq	.L64
 619:.\Generated_Source\PSoC5/I2C_2_MASTER.c ****         {
 620:.\Generated_Source\PSoC5/I2C_2_MASTER.c ****             I2C_2_ACK_AND_RECEIVE_MANUAL;
 900              		.loc 1 620 0
 901 0064 0E4B     		ldr	r3, .L67+8
 902 0066 0222     		movs	r2, #2
 903 0068 1A70     		strb	r2, [r3]
 904 006a 0E4B     		ldr	r3, .L67+12
 905 006c 0022     		movs	r2, #0
 906 006e 1A70     		strb	r2, [r3]
 907 0070 00BF     		nop
 908              	.L65:
 909              		.loc 1 620 0 is_stmt 0 discriminator 1
 910 0072 094B     		ldr	r3, .L67
 911 0074 1B78     		ldrb	r3, [r3]
 912 0076 DBB2     		uxtb	r3, r3
 913 0078 03F00103 		and	r3, r3, #1
 914 007c 002B     		cmp	r3, #0
 915 007e F8D1     		bne	.L65
 916 0080 02E0     		b	.L60
 917              	.L64:
 621:.\Generated_Source\PSoC5/I2C_2_MASTER.c ****         }
 622:.\Generated_Source\PSoC5/I2C_2_MASTER.c ****         else                /* Do NACK */
ARM GAS  C:\Users\dskyNote\AppData\Local\Temp\ccLkSjFG.s 			page 28


 623:.\Generated_Source\PSoC5/I2C_2_MASTER.c ****         {
 624:.\Generated_Source\PSoC5/I2C_2_MASTER.c ****             /* Do nothing to be able work with ReStart */
 625:.\Generated_Source\PSoC5/I2C_2_MASTER.c ****             I2C_2_state = I2C_2_SM_MSTR_HALT;
 918              		.loc 1 625 0 is_stmt 1
 919 0082 064B     		ldr	r3, .L67+4
 920 0084 6022     		movs	r2, #96
 921 0086 1A70     		strb	r2, [r3]
 922              	.L60:
 626:.\Generated_Source\PSoC5/I2C_2_MASTER.c ****         }
 627:.\Generated_Source\PSoC5/I2C_2_MASTER.c ****     }
 628:.\Generated_Source\PSoC5/I2C_2_MASTER.c **** 
 629:.\Generated_Source\PSoC5/I2C_2_MASTER.c ****     return(theByte);
 923              		.loc 1 629 0
 924 0088 FB7B     		ldrb	r3, [r7, #15]	@ zero_extendqisi2
 630:.\Generated_Source\PSoC5/I2C_2_MASTER.c **** }
 925              		.loc 1 630 0
 926 008a 1846     		mov	r0, r3
 927 008c 1437     		adds	r7, r7, #20
 928 008e BD46     		mov	sp, r7
 929              		@ sp needed
 930 0090 5DF8047B 		ldr	r7, [sp], #4
 931 0094 7047     		bx	lr
 932              	.L68:
 933 0096 00BF     		.align	2
 934              	.L67:
 935 0098 68640040 		.word	1073767528
 936 009c 00000000 		.word	I2C_2_state
 937 00a0 79650040 		.word	1073767801
 938 00a4 59650040 		.word	1073767769
 939 00a8 09650040 		.word	1073767689
 940              		.cfi_endproc
 941              	.LFE6:
 942              		.size	I2C_2_MasterReadByte, .-I2C_2_MasterReadByte
 943              		.section	.text.I2C_2_MasterStatus,"ax",%progbits
 944              		.align	2
 945              		.global	I2C_2_MasterStatus
 946              		.thumb
 947              		.thumb_func
 948              		.type	I2C_2_MasterStatus, %function
 949              	I2C_2_MasterStatus:
 950              	.LFB7:
 631:.\Generated_Source\PSoC5/I2C_2_MASTER.c **** 
 632:.\Generated_Source\PSoC5/I2C_2_MASTER.c **** 
 633:.\Generated_Source\PSoC5/I2C_2_MASTER.c **** /*******************************************************************************
 634:.\Generated_Source\PSoC5/I2C_2_MASTER.c **** * Function Name: I2C_2_MasterStatus
 635:.\Generated_Source\PSoC5/I2C_2_MASTER.c **** ********************************************************************************
 636:.\Generated_Source\PSoC5/I2C_2_MASTER.c **** *
 637:.\Generated_Source\PSoC5/I2C_2_MASTER.c **** * Summary:
 638:.\Generated_Source\PSoC5/I2C_2_MASTER.c **** *  Returns the master's communication status.
 639:.\Generated_Source\PSoC5/I2C_2_MASTER.c **** *
 640:.\Generated_Source\PSoC5/I2C_2_MASTER.c **** * Parameters:
 641:.\Generated_Source\PSoC5/I2C_2_MASTER.c **** *  None
 642:.\Generated_Source\PSoC5/I2C_2_MASTER.c **** *
 643:.\Generated_Source\PSoC5/I2C_2_MASTER.c **** * Return:
 644:.\Generated_Source\PSoC5/I2C_2_MASTER.c **** *  Current status of I2C master.
 645:.\Generated_Source\PSoC5/I2C_2_MASTER.c **** *
 646:.\Generated_Source\PSoC5/I2C_2_MASTER.c **** * Global variables:
ARM GAS  C:\Users\dskyNote\AppData\Local\Temp\ccLkSjFG.s 			page 29


 647:.\Generated_Source\PSoC5/I2C_2_MASTER.c **** *  I2C_2_mstrStatus - used to store current status of I2C Master.
 648:.\Generated_Source\PSoC5/I2C_2_MASTER.c **** *
 649:.\Generated_Source\PSoC5/I2C_2_MASTER.c **** *******************************************************************************/
 650:.\Generated_Source\PSoC5/I2C_2_MASTER.c **** uint8 I2C_2_MasterStatus(void) 
 651:.\Generated_Source\PSoC5/I2C_2_MASTER.c **** {
 951              		.loc 1 651 0
 952              		.cfi_startproc
 953              		@ args = 0, pretend = 0, frame = 8
 954              		@ frame_needed = 1, uses_anonymous_args = 0
 955              		@ link register save eliminated.
 956 0000 80B4     		push	{r7}
 957              		.cfi_def_cfa_offset 4
 958              		.cfi_offset 7, -4
 959 0002 83B0     		sub	sp, sp, #12
 960              		.cfi_def_cfa_offset 16
 961 0004 00AF     		add	r7, sp, #0
 962              		.cfi_def_cfa_register 7
 652:.\Generated_Source\PSoC5/I2C_2_MASTER.c ****     uint8 status;
 653:.\Generated_Source\PSoC5/I2C_2_MASTER.c **** 
 654:.\Generated_Source\PSoC5/I2C_2_MASTER.c ****     status = I2C_2_mstrStatus;
 963              		.loc 1 654 0
 964 0006 0B4B     		ldr	r3, .L72
 965 0008 1B78     		ldrb	r3, [r3]
 966 000a FB71     		strb	r3, [r7, #7]
 655:.\Generated_Source\PSoC5/I2C_2_MASTER.c **** 
 656:.\Generated_Source\PSoC5/I2C_2_MASTER.c ****     /* When in Master state only transaction is in progress */
 657:.\Generated_Source\PSoC5/I2C_2_MASTER.c ****     if(I2C_2_CHECK_SM_MASTER)
 967              		.loc 1 657 0
 968 000c 0A4B     		ldr	r3, .L72+4
 969 000e 1B78     		ldrb	r3, [r3]
 970 0010 DBB2     		uxtb	r3, r3
 971 0012 03F04003 		and	r3, r3, #64
 972 0016 DBB2     		uxtb	r3, r3
 973 0018 002B     		cmp	r3, #0
 974 001a 03D0     		beq	.L70
 658:.\Generated_Source\PSoC5/I2C_2_MASTER.c ****     {
 659:.\Generated_Source\PSoC5/I2C_2_MASTER.c ****         /* Add transaction in progress activity to master status */
 660:.\Generated_Source\PSoC5/I2C_2_MASTER.c ****         status |= I2C_2_MSTAT_XFER_INP;
 975              		.loc 1 660 0
 976 001c FB79     		ldrb	r3, [r7, #7]
 977 001e 43F00403 		orr	r3, r3, #4
 978 0022 FB71     		strb	r3, [r7, #7]
 979              	.L70:
 661:.\Generated_Source\PSoC5/I2C_2_MASTER.c ****     }
 662:.\Generated_Source\PSoC5/I2C_2_MASTER.c ****     else
 663:.\Generated_Source\PSoC5/I2C_2_MASTER.c ****     {
 664:.\Generated_Source\PSoC5/I2C_2_MASTER.c ****         /* Current master status is valid */
 665:.\Generated_Source\PSoC5/I2C_2_MASTER.c ****     }
 666:.\Generated_Source\PSoC5/I2C_2_MASTER.c **** 
 667:.\Generated_Source\PSoC5/I2C_2_MASTER.c ****     return(status);
 980              		.loc 1 667 0
 981 0024 FB79     		ldrb	r3, [r7, #7]	@ zero_extendqisi2
 668:.\Generated_Source\PSoC5/I2C_2_MASTER.c **** }
 982              		.loc 1 668 0
 983 0026 1846     		mov	r0, r3
 984 0028 0C37     		adds	r7, r7, #12
 985 002a BD46     		mov	sp, r7
ARM GAS  C:\Users\dskyNote\AppData\Local\Temp\ccLkSjFG.s 			page 30


 986              		@ sp needed
 987 002c 5DF8047B 		ldr	r7, [sp], #4
 988 0030 7047     		bx	lr
 989              	.L73:
 990 0032 00BF     		.align	2
 991              	.L72:
 992 0034 00000000 		.word	I2C_2_mstrStatus
 993 0038 00000000 		.word	I2C_2_state
 994              		.cfi_endproc
 995              	.LFE7:
 996              		.size	I2C_2_MasterStatus, .-I2C_2_MasterStatus
 997              		.section	.text.I2C_2_MasterClearStatus,"ax",%progbits
 998              		.align	2
 999              		.global	I2C_2_MasterClearStatus
 1000              		.thumb
 1001              		.thumb_func
 1002              		.type	I2C_2_MasterClearStatus, %function
 1003              	I2C_2_MasterClearStatus:
 1004              	.LFB8:
 669:.\Generated_Source\PSoC5/I2C_2_MASTER.c **** 
 670:.\Generated_Source\PSoC5/I2C_2_MASTER.c **** 
 671:.\Generated_Source\PSoC5/I2C_2_MASTER.c **** /*******************************************************************************
 672:.\Generated_Source\PSoC5/I2C_2_MASTER.c **** * Function Name: I2C_2_MasterClearStatus
 673:.\Generated_Source\PSoC5/I2C_2_MASTER.c **** ********************************************************************************
 674:.\Generated_Source\PSoC5/I2C_2_MASTER.c **** *
 675:.\Generated_Source\PSoC5/I2C_2_MASTER.c **** * Summary:
 676:.\Generated_Source\PSoC5/I2C_2_MASTER.c **** *  Clears all status flags and returns the master status.
 677:.\Generated_Source\PSoC5/I2C_2_MASTER.c **** *
 678:.\Generated_Source\PSoC5/I2C_2_MASTER.c **** * Parameters:
 679:.\Generated_Source\PSoC5/I2C_2_MASTER.c **** *  None
 680:.\Generated_Source\PSoC5/I2C_2_MASTER.c **** *
 681:.\Generated_Source\PSoC5/I2C_2_MASTER.c **** * Return:
 682:.\Generated_Source\PSoC5/I2C_2_MASTER.c **** *  Current status of I2C master.
 683:.\Generated_Source\PSoC5/I2C_2_MASTER.c **** *
 684:.\Generated_Source\PSoC5/I2C_2_MASTER.c **** * Global variables:
 685:.\Generated_Source\PSoC5/I2C_2_MASTER.c **** *  I2C_2_mstrStatus - used to store current status of I2C Master.
 686:.\Generated_Source\PSoC5/I2C_2_MASTER.c **** *
 687:.\Generated_Source\PSoC5/I2C_2_MASTER.c **** * Reentrant:
 688:.\Generated_Source\PSoC5/I2C_2_MASTER.c **** *  No
 689:.\Generated_Source\PSoC5/I2C_2_MASTER.c **** *
 690:.\Generated_Source\PSoC5/I2C_2_MASTER.c **** *******************************************************************************/
 691:.\Generated_Source\PSoC5/I2C_2_MASTER.c **** uint8 I2C_2_MasterClearStatus(void) 
 692:.\Generated_Source\PSoC5/I2C_2_MASTER.c **** {
 1005              		.loc 1 692 0
 1006              		.cfi_startproc
 1007              		@ args = 0, pretend = 0, frame = 8
 1008              		@ frame_needed = 1, uses_anonymous_args = 0
 1009              		@ link register save eliminated.
 1010 0000 80B4     		push	{r7}
 1011              		.cfi_def_cfa_offset 4
 1012              		.cfi_offset 7, -4
 1013 0002 83B0     		sub	sp, sp, #12
 1014              		.cfi_def_cfa_offset 16
 1015 0004 00AF     		add	r7, sp, #0
 1016              		.cfi_def_cfa_register 7
 693:.\Generated_Source\PSoC5/I2C_2_MASTER.c ****     /* Current master status */
 694:.\Generated_Source\PSoC5/I2C_2_MASTER.c ****     uint8 status;
ARM GAS  C:\Users\dskyNote\AppData\Local\Temp\ccLkSjFG.s 			page 31


 695:.\Generated_Source\PSoC5/I2C_2_MASTER.c **** 
 696:.\Generated_Source\PSoC5/I2C_2_MASTER.c ****     /* Read and clear master status */
 697:.\Generated_Source\PSoC5/I2C_2_MASTER.c ****     status = I2C_2_mstrStatus;
 1017              		.loc 1 697 0
 1018 0006 064B     		ldr	r3, .L76
 1019 0008 1B78     		ldrb	r3, [r3]
 1020 000a FB71     		strb	r3, [r7, #7]
 698:.\Generated_Source\PSoC5/I2C_2_MASTER.c ****     I2C_2_mstrStatus = I2C_2_MSTAT_CLEAR;
 1021              		.loc 1 698 0
 1022 000c 044B     		ldr	r3, .L76
 1023 000e 0022     		movs	r2, #0
 1024 0010 1A70     		strb	r2, [r3]
 699:.\Generated_Source\PSoC5/I2C_2_MASTER.c **** 
 700:.\Generated_Source\PSoC5/I2C_2_MASTER.c ****     return(status);
 1025              		.loc 1 700 0
 1026 0012 FB79     		ldrb	r3, [r7, #7]	@ zero_extendqisi2
 701:.\Generated_Source\PSoC5/I2C_2_MASTER.c **** }
 1027              		.loc 1 701 0
 1028 0014 1846     		mov	r0, r3
 1029 0016 0C37     		adds	r7, r7, #12
 1030 0018 BD46     		mov	sp, r7
 1031              		@ sp needed
 1032 001a 5DF8047B 		ldr	r7, [sp], #4
 1033 001e 7047     		bx	lr
 1034              	.L77:
 1035              		.align	2
 1036              	.L76:
 1037 0020 00000000 		.word	I2C_2_mstrStatus
 1038              		.cfi_endproc
 1039              	.LFE8:
 1040              		.size	I2C_2_MasterClearStatus, .-I2C_2_MasterClearStatus
 1041              		.section	.text.I2C_2_MasterGetReadBufSize,"ax",%progbits
 1042              		.align	2
 1043              		.global	I2C_2_MasterGetReadBufSize
 1044              		.thumb
 1045              		.thumb_func
 1046              		.type	I2C_2_MasterGetReadBufSize, %function
 1047              	I2C_2_MasterGetReadBufSize:
 1048              	.LFB9:
 702:.\Generated_Source\PSoC5/I2C_2_MASTER.c **** 
 703:.\Generated_Source\PSoC5/I2C_2_MASTER.c **** 
 704:.\Generated_Source\PSoC5/I2C_2_MASTER.c **** /*******************************************************************************
 705:.\Generated_Source\PSoC5/I2C_2_MASTER.c **** * Function Name: I2C_2_MasterGetReadBufSize
 706:.\Generated_Source\PSoC5/I2C_2_MASTER.c **** ********************************************************************************
 707:.\Generated_Source\PSoC5/I2C_2_MASTER.c **** *
 708:.\Generated_Source\PSoC5/I2C_2_MASTER.c **** * Summary:
 709:.\Generated_Source\PSoC5/I2C_2_MASTER.c **** *  Returns the amount of bytes that has been transferred with an
 710:.\Generated_Source\PSoC5/I2C_2_MASTER.c **** *  I2C_MasterReadBuf command.
 711:.\Generated_Source\PSoC5/I2C_2_MASTER.c **** *
 712:.\Generated_Source\PSoC5/I2C_2_MASTER.c **** * Parameters:
 713:.\Generated_Source\PSoC5/I2C_2_MASTER.c **** *  None
 714:.\Generated_Source\PSoC5/I2C_2_MASTER.c **** *
 715:.\Generated_Source\PSoC5/I2C_2_MASTER.c **** * Return:
 716:.\Generated_Source\PSoC5/I2C_2_MASTER.c **** *  Byte count of transfer. If the transfer is not yet complete, it will return
 717:.\Generated_Source\PSoC5/I2C_2_MASTER.c **** *  the byte count transferred so far.
 718:.\Generated_Source\PSoC5/I2C_2_MASTER.c **** *
 719:.\Generated_Source\PSoC5/I2C_2_MASTER.c **** * Global variables:
ARM GAS  C:\Users\dskyNote\AppData\Local\Temp\ccLkSjFG.s 			page 32


 720:.\Generated_Source\PSoC5/I2C_2_MASTER.c **** *  I2C_2_mstrRdBufIndex - used to current index within master read
 721:.\Generated_Source\PSoC5/I2C_2_MASTER.c **** *  buffer.
 722:.\Generated_Source\PSoC5/I2C_2_MASTER.c **** *
 723:.\Generated_Source\PSoC5/I2C_2_MASTER.c **** *******************************************************************************/
 724:.\Generated_Source\PSoC5/I2C_2_MASTER.c **** uint8 I2C_2_MasterGetReadBufSize(void) 
 725:.\Generated_Source\PSoC5/I2C_2_MASTER.c **** {
 1049              		.loc 1 725 0
 1050              		.cfi_startproc
 1051              		@ args = 0, pretend = 0, frame = 0
 1052              		@ frame_needed = 1, uses_anonymous_args = 0
 1053              		@ link register save eliminated.
 1054 0000 80B4     		push	{r7}
 1055              		.cfi_def_cfa_offset 4
 1056              		.cfi_offset 7, -4
 1057 0002 00AF     		add	r7, sp, #0
 1058              		.cfi_def_cfa_register 7
 726:.\Generated_Source\PSoC5/I2C_2_MASTER.c ****     return(I2C_2_mstrRdBufIndex);
 1059              		.loc 1 726 0
 1060 0004 034B     		ldr	r3, .L80
 1061 0006 1B78     		ldrb	r3, [r3]
 1062 0008 DBB2     		uxtb	r3, r3
 727:.\Generated_Source\PSoC5/I2C_2_MASTER.c **** }
 1063              		.loc 1 727 0
 1064 000a 1846     		mov	r0, r3
 1065 000c BD46     		mov	sp, r7
 1066              		@ sp needed
 1067 000e 5DF8047B 		ldr	r7, [sp], #4
 1068 0012 7047     		bx	lr
 1069              	.L81:
 1070              		.align	2
 1071              	.L80:
 1072 0014 00000000 		.word	I2C_2_mstrRdBufIndex
 1073              		.cfi_endproc
 1074              	.LFE9:
 1075              		.size	I2C_2_MasterGetReadBufSize, .-I2C_2_MasterGetReadBufSize
 1076              		.section	.text.I2C_2_MasterGetWriteBufSize,"ax",%progbits
 1077              		.align	2
 1078              		.global	I2C_2_MasterGetWriteBufSize
 1079              		.thumb
 1080              		.thumb_func
 1081              		.type	I2C_2_MasterGetWriteBufSize, %function
 1082              	I2C_2_MasterGetWriteBufSize:
 1083              	.LFB10:
 728:.\Generated_Source\PSoC5/I2C_2_MASTER.c **** 
 729:.\Generated_Source\PSoC5/I2C_2_MASTER.c **** 
 730:.\Generated_Source\PSoC5/I2C_2_MASTER.c **** /*******************************************************************************
 731:.\Generated_Source\PSoC5/I2C_2_MASTER.c **** * Function Name: I2C_2_MasterGetWriteBufSize
 732:.\Generated_Source\PSoC5/I2C_2_MASTER.c **** ********************************************************************************
 733:.\Generated_Source\PSoC5/I2C_2_MASTER.c **** *
 734:.\Generated_Source\PSoC5/I2C_2_MASTER.c **** * Summary:
 735:.\Generated_Source\PSoC5/I2C_2_MASTER.c **** *  Returns the amount of bytes that has been transferred with an
 736:.\Generated_Source\PSoC5/I2C_2_MASTER.c **** *  I2C_MasterWriteBuf command.
 737:.\Generated_Source\PSoC5/I2C_2_MASTER.c **** *
 738:.\Generated_Source\PSoC5/I2C_2_MASTER.c **** * Parameters:
 739:.\Generated_Source\PSoC5/I2C_2_MASTER.c **** *  None
 740:.\Generated_Source\PSoC5/I2C_2_MASTER.c **** *
 741:.\Generated_Source\PSoC5/I2C_2_MASTER.c **** * Return:
ARM GAS  C:\Users\dskyNote\AppData\Local\Temp\ccLkSjFG.s 			page 33


 742:.\Generated_Source\PSoC5/I2C_2_MASTER.c **** *  Byte count of transfer. If the transfer is not yet complete, it will return
 743:.\Generated_Source\PSoC5/I2C_2_MASTER.c **** *  the byte count transferred so far.
 744:.\Generated_Source\PSoC5/I2C_2_MASTER.c **** *
 745:.\Generated_Source\PSoC5/I2C_2_MASTER.c **** * Global variables:
 746:.\Generated_Source\PSoC5/I2C_2_MASTER.c **** *  I2C_2_mstrWrBufIndex - used to current index within master write
 747:.\Generated_Source\PSoC5/I2C_2_MASTER.c **** *  buffer.
 748:.\Generated_Source\PSoC5/I2C_2_MASTER.c **** *
 749:.\Generated_Source\PSoC5/I2C_2_MASTER.c **** *******************************************************************************/
 750:.\Generated_Source\PSoC5/I2C_2_MASTER.c **** uint8 I2C_2_MasterGetWriteBufSize(void) 
 751:.\Generated_Source\PSoC5/I2C_2_MASTER.c **** {
 1084              		.loc 1 751 0
 1085              		.cfi_startproc
 1086              		@ args = 0, pretend = 0, frame = 0
 1087              		@ frame_needed = 1, uses_anonymous_args = 0
 1088              		@ link register save eliminated.
 1089 0000 80B4     		push	{r7}
 1090              		.cfi_def_cfa_offset 4
 1091              		.cfi_offset 7, -4
 1092 0002 00AF     		add	r7, sp, #0
 1093              		.cfi_def_cfa_register 7
 752:.\Generated_Source\PSoC5/I2C_2_MASTER.c ****     return(I2C_2_mstrWrBufIndex);
 1094              		.loc 1 752 0
 1095 0004 034B     		ldr	r3, .L84
 1096 0006 1B78     		ldrb	r3, [r3]
 1097 0008 DBB2     		uxtb	r3, r3
 753:.\Generated_Source\PSoC5/I2C_2_MASTER.c **** }
 1098              		.loc 1 753 0
 1099 000a 1846     		mov	r0, r3
 1100 000c BD46     		mov	sp, r7
 1101              		@ sp needed
 1102 000e 5DF8047B 		ldr	r7, [sp], #4
 1103 0012 7047     		bx	lr
 1104              	.L85:
 1105              		.align	2
 1106              	.L84:
 1107 0014 00000000 		.word	I2C_2_mstrWrBufIndex
 1108              		.cfi_endproc
 1109              	.LFE10:
 1110              		.size	I2C_2_MasterGetWriteBufSize, .-I2C_2_MasterGetWriteBufSize
 1111              		.section	.text.I2C_2_MasterClearReadBuf,"ax",%progbits
 1112              		.align	2
 1113              		.global	I2C_2_MasterClearReadBuf
 1114              		.thumb
 1115              		.thumb_func
 1116              		.type	I2C_2_MasterClearReadBuf, %function
 1117              	I2C_2_MasterClearReadBuf:
 1118              	.LFB11:
 754:.\Generated_Source\PSoC5/I2C_2_MASTER.c **** 
 755:.\Generated_Source\PSoC5/I2C_2_MASTER.c **** 
 756:.\Generated_Source\PSoC5/I2C_2_MASTER.c **** /*******************************************************************************
 757:.\Generated_Source\PSoC5/I2C_2_MASTER.c **** * Function Name: I2C_2_MasterClearReadBuf
 758:.\Generated_Source\PSoC5/I2C_2_MASTER.c **** ********************************************************************************
 759:.\Generated_Source\PSoC5/I2C_2_MASTER.c **** *
 760:.\Generated_Source\PSoC5/I2C_2_MASTER.c **** * Summary:
 761:.\Generated_Source\PSoC5/I2C_2_MASTER.c **** *  Resets the read buffer pointer back to the first byte in the buffer.
 762:.\Generated_Source\PSoC5/I2C_2_MASTER.c **** *
 763:.\Generated_Source\PSoC5/I2C_2_MASTER.c **** * Parameters:
ARM GAS  C:\Users\dskyNote\AppData\Local\Temp\ccLkSjFG.s 			page 34


 764:.\Generated_Source\PSoC5/I2C_2_MASTER.c **** *  None
 765:.\Generated_Source\PSoC5/I2C_2_MASTER.c **** *
 766:.\Generated_Source\PSoC5/I2C_2_MASTER.c **** * Return:
 767:.\Generated_Source\PSoC5/I2C_2_MASTER.c **** *  None
 768:.\Generated_Source\PSoC5/I2C_2_MASTER.c **** *
 769:.\Generated_Source\PSoC5/I2C_2_MASTER.c **** * Global variables:
 770:.\Generated_Source\PSoC5/I2C_2_MASTER.c **** *  I2C_2_mstrRdBufIndex - used to current index within master read
 771:.\Generated_Source\PSoC5/I2C_2_MASTER.c **** *   buffer.
 772:.\Generated_Source\PSoC5/I2C_2_MASTER.c **** *  I2C_2_mstrStatus - used to store current status of I2C Master.
 773:.\Generated_Source\PSoC5/I2C_2_MASTER.c **** *
 774:.\Generated_Source\PSoC5/I2C_2_MASTER.c **** * Reentrant:
 775:.\Generated_Source\PSoC5/I2C_2_MASTER.c **** *  No
 776:.\Generated_Source\PSoC5/I2C_2_MASTER.c **** *
 777:.\Generated_Source\PSoC5/I2C_2_MASTER.c **** *******************************************************************************/
 778:.\Generated_Source\PSoC5/I2C_2_MASTER.c **** void I2C_2_MasterClearReadBuf(void) 
 779:.\Generated_Source\PSoC5/I2C_2_MASTER.c **** {
 1119              		.loc 1 779 0
 1120              		.cfi_startproc
 1121              		@ args = 0, pretend = 0, frame = 0
 1122              		@ frame_needed = 1, uses_anonymous_args = 0
 1123              		@ link register save eliminated.
 1124 0000 80B4     		push	{r7}
 1125              		.cfi_def_cfa_offset 4
 1126              		.cfi_offset 7, -4
 1127 0002 00AF     		add	r7, sp, #0
 1128              		.cfi_def_cfa_register 7
 780:.\Generated_Source\PSoC5/I2C_2_MASTER.c ****     I2C_2_mstrRdBufIndex = 0u;
 1129              		.loc 1 780 0
 1130 0004 074B     		ldr	r3, .L87
 1131 0006 0022     		movs	r2, #0
 1132 0008 1A70     		strb	r2, [r3]
 781:.\Generated_Source\PSoC5/I2C_2_MASTER.c ****     I2C_2_mstrStatus    &= ((uint8) ~I2C_2_MSTAT_RD_CMPLT);
 1133              		.loc 1 781 0
 1134 000a 074B     		ldr	r3, .L87+4
 1135 000c 1B78     		ldrb	r3, [r3]
 1136 000e DBB2     		uxtb	r3, r3
 1137 0010 23F00103 		bic	r3, r3, #1
 1138 0014 DAB2     		uxtb	r2, r3
 1139 0016 044B     		ldr	r3, .L87+4
 1140 0018 1A70     		strb	r2, [r3]
 782:.\Generated_Source\PSoC5/I2C_2_MASTER.c **** }
 1141              		.loc 1 782 0
 1142 001a BD46     		mov	sp, r7
 1143              		@ sp needed
 1144 001c 5DF8047B 		ldr	r7, [sp], #4
 1145 0020 7047     		bx	lr
 1146              	.L88:
 1147 0022 00BF     		.align	2
 1148              	.L87:
 1149 0024 00000000 		.word	I2C_2_mstrRdBufIndex
 1150 0028 00000000 		.word	I2C_2_mstrStatus
 1151              		.cfi_endproc
 1152              	.LFE11:
 1153              		.size	I2C_2_MasterClearReadBuf, .-I2C_2_MasterClearReadBuf
 1154              		.section	.text.I2C_2_MasterClearWriteBuf,"ax",%progbits
 1155              		.align	2
 1156              		.global	I2C_2_MasterClearWriteBuf
ARM GAS  C:\Users\dskyNote\AppData\Local\Temp\ccLkSjFG.s 			page 35


 1157              		.thumb
 1158              		.thumb_func
 1159              		.type	I2C_2_MasterClearWriteBuf, %function
 1160              	I2C_2_MasterClearWriteBuf:
 1161              	.LFB12:
 783:.\Generated_Source\PSoC5/I2C_2_MASTER.c **** 
 784:.\Generated_Source\PSoC5/I2C_2_MASTER.c **** 
 785:.\Generated_Source\PSoC5/I2C_2_MASTER.c **** /*******************************************************************************
 786:.\Generated_Source\PSoC5/I2C_2_MASTER.c **** * Function Name: I2C_2_MasterClearWriteBuf
 787:.\Generated_Source\PSoC5/I2C_2_MASTER.c **** ********************************************************************************
 788:.\Generated_Source\PSoC5/I2C_2_MASTER.c **** *
 789:.\Generated_Source\PSoC5/I2C_2_MASTER.c **** * Summary:
 790:.\Generated_Source\PSoC5/I2C_2_MASTER.c **** *  Resets the write buffer pointer back to the first byte in the buffer.
 791:.\Generated_Source\PSoC5/I2C_2_MASTER.c **** *
 792:.\Generated_Source\PSoC5/I2C_2_MASTER.c **** * Parameters:
 793:.\Generated_Source\PSoC5/I2C_2_MASTER.c **** *  None
 794:.\Generated_Source\PSoC5/I2C_2_MASTER.c **** *
 795:.\Generated_Source\PSoC5/I2C_2_MASTER.c **** * Return:
 796:.\Generated_Source\PSoC5/I2C_2_MASTER.c **** *  None
 797:.\Generated_Source\PSoC5/I2C_2_MASTER.c **** *
 798:.\Generated_Source\PSoC5/I2C_2_MASTER.c **** * Global variables:
 799:.\Generated_Source\PSoC5/I2C_2_MASTER.c **** *  I2C_2_mstrRdBufIndex - used to current index within master read
 800:.\Generated_Source\PSoC5/I2C_2_MASTER.c **** *   buffer.
 801:.\Generated_Source\PSoC5/I2C_2_MASTER.c **** *  I2C_2_mstrStatus - used to store current status of I2C Master.
 802:.\Generated_Source\PSoC5/I2C_2_MASTER.c **** *
 803:.\Generated_Source\PSoC5/I2C_2_MASTER.c **** * Reentrant:
 804:.\Generated_Source\PSoC5/I2C_2_MASTER.c **** *  No
 805:.\Generated_Source\PSoC5/I2C_2_MASTER.c **** *
 806:.\Generated_Source\PSoC5/I2C_2_MASTER.c **** *******************************************************************************/
 807:.\Generated_Source\PSoC5/I2C_2_MASTER.c **** void I2C_2_MasterClearWriteBuf(void) 
 808:.\Generated_Source\PSoC5/I2C_2_MASTER.c **** {
 1162              		.loc 1 808 0
 1163              		.cfi_startproc
 1164              		@ args = 0, pretend = 0, frame = 0
 1165              		@ frame_needed = 1, uses_anonymous_args = 0
 1166              		@ link register save eliminated.
 1167 0000 80B4     		push	{r7}
 1168              		.cfi_def_cfa_offset 4
 1169              		.cfi_offset 7, -4
 1170 0002 00AF     		add	r7, sp, #0
 1171              		.cfi_def_cfa_register 7
 809:.\Generated_Source\PSoC5/I2C_2_MASTER.c ****     I2C_2_mstrWrBufIndex = 0u;
 1172              		.loc 1 809 0
 1173 0004 074B     		ldr	r3, .L90
 1174 0006 0022     		movs	r2, #0
 1175 0008 1A70     		strb	r2, [r3]
 810:.\Generated_Source\PSoC5/I2C_2_MASTER.c ****     I2C_2_mstrStatus    &= ((uint8) ~I2C_2_MSTAT_WR_CMPLT);
 1176              		.loc 1 810 0
 1177 000a 074B     		ldr	r3, .L90+4
 1178 000c 1B78     		ldrb	r3, [r3]
 1179 000e DBB2     		uxtb	r3, r3
 1180 0010 23F00203 		bic	r3, r3, #2
 1181 0014 DAB2     		uxtb	r2, r3
 1182 0016 044B     		ldr	r3, .L90+4
 1183 0018 1A70     		strb	r2, [r3]
 811:.\Generated_Source\PSoC5/I2C_2_MASTER.c **** }
 1184              		.loc 1 811 0
ARM GAS  C:\Users\dskyNote\AppData\Local\Temp\ccLkSjFG.s 			page 36


 1185 001a BD46     		mov	sp, r7
 1186              		@ sp needed
 1187 001c 5DF8047B 		ldr	r7, [sp], #4
 1188 0020 7047     		bx	lr
 1189              	.L91:
 1190 0022 00BF     		.align	2
 1191              	.L90:
 1192 0024 00000000 		.word	I2C_2_mstrWrBufIndex
 1193 0028 00000000 		.word	I2C_2_mstrStatus
 1194              		.cfi_endproc
 1195              	.LFE12:
 1196              		.size	I2C_2_MasterClearWriteBuf, .-I2C_2_MasterClearWriteBuf
 1197              		.section	.text.I2C_2_Workaround,"ax",%progbits
 1198              		.align	2
 1199              		.global	I2C_2_Workaround
 1200              		.thumb
 1201              		.thumb_func
 1202              		.type	I2C_2_Workaround, %function
 1203              	I2C_2_Workaround:
 1204              	.LFB13:
 812:.\Generated_Source\PSoC5/I2C_2_MASTER.c **** 
 813:.\Generated_Source\PSoC5/I2C_2_MASTER.c **** 
 814:.\Generated_Source\PSoC5/I2C_2_MASTER.c **** /*******************************************************************************
 815:.\Generated_Source\PSoC5/I2C_2_MASTER.c **** * Function Name: I2C_2_Workaround
 816:.\Generated_Source\PSoC5/I2C_2_MASTER.c **** ********************************************************************************
 817:.\Generated_Source\PSoC5/I2C_2_MASTER.c **** *
 818:.\Generated_Source\PSoC5/I2C_2_MASTER.c **** * Summary:
 819:.\Generated_Source\PSoC5/I2C_2_MASTER.c **** *  Do nothing. This fake fuction use as workaround for CDT 78083.
 820:.\Generated_Source\PSoC5/I2C_2_MASTER.c **** *
 821:.\Generated_Source\PSoC5/I2C_2_MASTER.c **** * Parameters:
 822:.\Generated_Source\PSoC5/I2C_2_MASTER.c **** *  None
 823:.\Generated_Source\PSoC5/I2C_2_MASTER.c **** *
 824:.\Generated_Source\PSoC5/I2C_2_MASTER.c **** * Return:
 825:.\Generated_Source\PSoC5/I2C_2_MASTER.c **** *  None
 826:.\Generated_Source\PSoC5/I2C_2_MASTER.c **** *
 827:.\Generated_Source\PSoC5/I2C_2_MASTER.c **** * Reentrant:
 828:.\Generated_Source\PSoC5/I2C_2_MASTER.c **** *  No
 829:.\Generated_Source\PSoC5/I2C_2_MASTER.c **** *
 830:.\Generated_Source\PSoC5/I2C_2_MASTER.c **** *******************************************************************************/
 831:.\Generated_Source\PSoC5/I2C_2_MASTER.c **** void I2C_2_Workaround(void) 
 832:.\Generated_Source\PSoC5/I2C_2_MASTER.c **** {
 1205              		.loc 1 832 0
 1206              		.cfi_startproc
 1207              		@ args = 0, pretend = 0, frame = 0
 1208              		@ frame_needed = 1, uses_anonymous_args = 0
 1209              		@ link register save eliminated.
 1210 0000 80B4     		push	{r7}
 1211              		.cfi_def_cfa_offset 4
 1212              		.cfi_offset 7, -4
 1213 0002 00AF     		add	r7, sp, #0
 1214              		.cfi_def_cfa_register 7
 833:.\Generated_Source\PSoC5/I2C_2_MASTER.c ****     /* Does nothing */
 834:.\Generated_Source\PSoC5/I2C_2_MASTER.c **** }
 1215              		.loc 1 834 0
 1216 0004 BD46     		mov	sp, r7
 1217              		@ sp needed
 1218 0006 5DF8047B 		ldr	r7, [sp], #4
ARM GAS  C:\Users\dskyNote\AppData\Local\Temp\ccLkSjFG.s 			page 37


 1219 000a 7047     		bx	lr
 1220              		.cfi_endproc
 1221              	.LFE13:
 1222              		.size	I2C_2_Workaround, .-I2C_2_Workaround
 1223              		.text
 1224              	.Letext0:
 1225              		.file 2 ".\\Generated_Source\\PSoC5\\cytypes.h"
 1226              		.file 3 ".\\Generated_Source\\PSoC5\\I2C_2_PVT.h"
 1227              		.section	.debug_info,"",%progbits
 1228              	.Ldebug_info0:
 1229 0000 FB030000 		.4byte	0x3fb
 1230 0004 0400     		.2byte	0x4
 1231 0006 00000000 		.4byte	.Ldebug_abbrev0
 1232 000a 04       		.byte	0x4
 1233 000b 01       		.uleb128 0x1
 1234 000c 39020000 		.4byte	.LASF49
 1235 0010 01       		.byte	0x1
 1236 0011 24030000 		.4byte	.LASF50
 1237 0015 B5020000 		.4byte	.LASF51
 1238 0019 00000000 		.4byte	.Ldebug_ranges0+0
 1239 001d 00000000 		.4byte	0
 1240 0021 00000000 		.4byte	.Ldebug_line0
 1241 0025 02       		.uleb128 0x2
 1242 0026 01       		.byte	0x1
 1243 0027 06       		.byte	0x6
 1244 0028 94030000 		.4byte	.LASF0
 1245 002c 02       		.uleb128 0x2
 1246 002d 01       		.byte	0x1
 1247 002e 08       		.byte	0x8
 1248 002f 34010000 		.4byte	.LASF1
 1249 0033 02       		.uleb128 0x2
 1250 0034 02       		.byte	0x2
 1251 0035 05       		.byte	0x5
 1252 0036 4C030000 		.4byte	.LASF2
 1253 003a 02       		.uleb128 0x2
 1254 003b 02       		.byte	0x2
 1255 003c 07       		.byte	0x7
 1256 003d 5B000000 		.4byte	.LASF3
 1257 0041 02       		.uleb128 0x2
 1258 0042 04       		.byte	0x4
 1259 0043 05       		.byte	0x5
 1260 0044 73030000 		.4byte	.LASF4
 1261 0048 02       		.uleb128 0x2
 1262 0049 04       		.byte	0x4
 1263 004a 07       		.byte	0x7
 1264 004b 47010000 		.4byte	.LASF5
 1265 004f 02       		.uleb128 0x2
 1266 0050 08       		.byte	0x8
 1267 0051 05       		.byte	0x5
 1268 0052 FB020000 		.4byte	.LASF6
 1269 0056 02       		.uleb128 0x2
 1270 0057 08       		.byte	0x8
 1271 0058 07       		.byte	0x7
 1272 0059 E7010000 		.4byte	.LASF7
 1273 005d 03       		.uleb128 0x3
 1274 005e 04       		.byte	0x4
 1275 005f 05       		.byte	0x5
ARM GAS  C:\Users\dskyNote\AppData\Local\Temp\ccLkSjFG.s 			page 38


 1276 0060 696E7400 		.ascii	"int\000"
 1277 0064 02       		.uleb128 0x2
 1278 0065 04       		.byte	0x4
 1279 0066 07       		.byte	0x7
 1280 0067 83000000 		.4byte	.LASF8
 1281 006b 04       		.uleb128 0x4
 1282 006c 6E010000 		.4byte	.LASF9
 1283 0070 02       		.byte	0x2
 1284 0071 5B       		.byte	0x5b
 1285 0072 2C000000 		.4byte	0x2c
 1286 0076 04       		.uleb128 0x4
 1287 0077 BF010000 		.4byte	.LASF10
 1288 007b 02       		.byte	0x2
 1289 007c 5D       		.byte	0x5d
 1290 007d 48000000 		.4byte	0x48
 1291 0081 02       		.uleb128 0x2
 1292 0082 04       		.byte	0x4
 1293 0083 04       		.byte	0x4
 1294 0084 1B010000 		.4byte	.LASF11
 1295 0088 02       		.uleb128 0x2
 1296 0089 08       		.byte	0x8
 1297 008a 04       		.byte	0x4
 1298 008b 7E010000 		.4byte	.LASF12
 1299 008f 02       		.uleb128 0x2
 1300 0090 01       		.byte	0x1
 1301 0091 08       		.byte	0x8
 1302 0092 09030000 		.4byte	.LASF13
 1303 0096 04       		.uleb128 0x4
 1304 0097 42010000 		.4byte	.LASF14
 1305 009b 02       		.byte	0x2
 1306 009c F0       		.byte	0xf0
 1307 009d A1000000 		.4byte	0xa1
 1308 00a1 05       		.uleb128 0x5
 1309 00a2 6B000000 		.4byte	0x6b
 1310 00a6 04       		.uleb128 0x4
 1311 00a7 15000000 		.4byte	.LASF15
 1312 00ab 02       		.byte	0x2
 1313 00ac F2       		.byte	0xf2
 1314 00ad B1000000 		.4byte	0xb1
 1315 00b1 05       		.uleb128 0x5
 1316 00b2 76000000 		.4byte	0x76
 1317 00b6 02       		.uleb128 0x2
 1318 00b7 04       		.byte	0x4
 1319 00b8 07       		.byte	0x7
 1320 00b9 DC020000 		.4byte	.LASF16
 1321 00bd 06       		.uleb128 0x6
 1322 00be 1B000000 		.4byte	.LASF20
 1323 00c2 01       		.byte	0x1
 1324 00c3 4D       		.byte	0x4d
 1325 00c4 6B000000 		.4byte	0x6b
 1326 00c8 00000000 		.4byte	.LFB0
 1327 00cc 08010000 		.4byte	.LFE0-.LFB0
 1328 00d0 01       		.uleb128 0x1
 1329 00d1 9C       		.byte	0x9c
 1330 00d2 1D010000 		.4byte	0x11d
 1331 00d6 07       		.uleb128 0x7
 1332 00d7 2C020000 		.4byte	.LASF17
ARM GAS  C:\Users\dskyNote\AppData\Local\Temp\ccLkSjFG.s 			page 39


 1333 00db 01       		.byte	0x1
 1334 00dc 4D       		.byte	0x4d
 1335 00dd 6B000000 		.4byte	0x6b
 1336 00e1 02       		.uleb128 0x2
 1337 00e2 91       		.byte	0x91
 1338 00e3 6F       		.sleb128 -17
 1339 00e4 07       		.uleb128 0x7
 1340 00e5 E0010000 		.4byte	.LASF18
 1341 00e9 01       		.byte	0x1
 1342 00ea 4D       		.byte	0x4d
 1343 00eb 1D010000 		.4byte	0x11d
 1344 00ef 02       		.uleb128 0x2
 1345 00f0 91       		.byte	0x91
 1346 00f1 68       		.sleb128 -24
 1347 00f2 08       		.uleb128 0x8
 1348 00f3 636E7400 		.ascii	"cnt\000"
 1349 00f7 01       		.byte	0x1
 1350 00f8 4D       		.byte	0x4d
 1351 00f9 6B000000 		.4byte	0x6b
 1352 00fd 02       		.uleb128 0x2
 1353 00fe 91       		.byte	0x91
 1354 00ff 6E       		.sleb128 -18
 1355 0100 07       		.uleb128 0x7
 1356 0101 E5020000 		.4byte	.LASF19
 1357 0105 01       		.byte	0x1
 1358 0106 4D       		.byte	0x4d
 1359 0107 6B000000 		.4byte	0x6b
 1360 010b 02       		.uleb128 0x2
 1361 010c 91       		.byte	0x91
 1362 010d 6D       		.sleb128 -19
 1363 010e 09       		.uleb128 0x9
 1364 010f 74010000 		.4byte	.LASF23
 1365 0113 01       		.byte	0x1
 1366 0114 50       		.byte	0x50
 1367 0115 6B000000 		.4byte	0x6b
 1368 0119 02       		.uleb128 0x2
 1369 011a 91       		.byte	0x91
 1370 011b 77       		.sleb128 -9
 1371 011c 00       		.byte	0
 1372 011d 0A       		.uleb128 0xa
 1373 011e 04       		.byte	0x4
 1374 011f 6B000000 		.4byte	0x6b
 1375 0123 06       		.uleb128 0x6
 1376 0124 AB000000 		.4byte	.LASF21
 1377 0128 01       		.byte	0x1
 1378 0129 B4       		.byte	0xb4
 1379 012a 6B000000 		.4byte	0x6b
 1380 012e 00000000 		.4byte	.LFB1
 1381 0132 10010000 		.4byte	.LFE1-.LFB1
 1382 0136 01       		.uleb128 0x1
 1383 0137 9C       		.byte	0x9c
 1384 0138 83010000 		.4byte	0x183
 1385 013c 07       		.uleb128 0x7
 1386 013d 2C020000 		.4byte	.LASF17
 1387 0141 01       		.byte	0x1
 1388 0142 B4       		.byte	0xb4
 1389 0143 6B000000 		.4byte	0x6b
ARM GAS  C:\Users\dskyNote\AppData\Local\Temp\ccLkSjFG.s 			page 40


 1390 0147 02       		.uleb128 0x2
 1391 0148 91       		.byte	0x91
 1392 0149 6F       		.sleb128 -17
 1393 014a 07       		.uleb128 0x7
 1394 014b B8010000 		.4byte	.LASF22
 1395 014f 01       		.byte	0x1
 1396 0150 B4       		.byte	0xb4
 1397 0151 1D010000 		.4byte	0x11d
 1398 0155 02       		.uleb128 0x2
 1399 0156 91       		.byte	0x91
 1400 0157 68       		.sleb128 -24
 1401 0158 08       		.uleb128 0x8
 1402 0159 636E7400 		.ascii	"cnt\000"
 1403 015d 01       		.byte	0x1
 1404 015e B4       		.byte	0xb4
 1405 015f 6B000000 		.4byte	0x6b
 1406 0163 02       		.uleb128 0x2
 1407 0164 91       		.byte	0x91
 1408 0165 6E       		.sleb128 -18
 1409 0166 07       		.uleb128 0x7
 1410 0167 E5020000 		.4byte	.LASF19
 1411 016b 01       		.byte	0x1
 1412 016c B4       		.byte	0xb4
 1413 016d 6B000000 		.4byte	0x6b
 1414 0171 02       		.uleb128 0x2
 1415 0172 91       		.byte	0x91
 1416 0173 6D       		.sleb128 -19
 1417 0174 09       		.uleb128 0x9
 1418 0175 74010000 		.4byte	.LASF23
 1419 0179 01       		.byte	0x1
 1420 017a B7       		.byte	0xb7
 1421 017b 6B000000 		.4byte	0x6b
 1422 017f 02       		.uleb128 0x2
 1423 0180 91       		.byte	0x91
 1424 0181 77       		.sleb128 -9
 1425 0182 00       		.byte	0
 1426 0183 0B       		.uleb128 0xb
 1427 0184 0E030000 		.4byte	.LASF24
 1428 0188 01       		.byte	0x1
 1429 0189 0F01     		.2byte	0x10f
 1430 018b 6B000000 		.4byte	0x6b
 1431 018f 00000000 		.4byte	.LFB2
 1432 0193 C0000000 		.4byte	.LFE2-.LFB2
 1433 0197 01       		.uleb128 0x1
 1434 0198 9C       		.byte	0x9c
 1435 0199 CB010000 		.4byte	0x1cb
 1436 019d 0C       		.uleb128 0xc
 1437 019e 2C020000 		.4byte	.LASF17
 1438 01a2 01       		.byte	0x1
 1439 01a3 0F01     		.2byte	0x10f
 1440 01a5 6B000000 		.4byte	0x6b
 1441 01a9 02       		.uleb128 0x2
 1442 01aa 91       		.byte	0x91
 1443 01ab 6F       		.sleb128 -17
 1444 01ac 0C       		.uleb128 0xc
 1445 01ad B3010000 		.4byte	.LASF25
 1446 01b1 01       		.byte	0x1
ARM GAS  C:\Users\dskyNote\AppData\Local\Temp\ccLkSjFG.s 			page 41


 1447 01b2 0F01     		.2byte	0x10f
 1448 01b4 6B000000 		.4byte	0x6b
 1449 01b8 02       		.uleb128 0x2
 1450 01b9 91       		.byte	0x91
 1451 01ba 6E       		.sleb128 -18
 1452 01bb 0D       		.uleb128 0xd
 1453 01bc 74010000 		.4byte	.LASF23
 1454 01c0 01       		.byte	0x1
 1455 01c1 1201     		.2byte	0x112
 1456 01c3 6B000000 		.4byte	0x6b
 1457 01c7 02       		.uleb128 0x2
 1458 01c8 91       		.byte	0x91
 1459 01c9 77       		.sleb128 -9
 1460 01ca 00       		.byte	0
 1461 01cb 0B       		.uleb128 0xb
 1462 01cc 85010000 		.4byte	.LASF26
 1463 01d0 01       		.byte	0x1
 1464 01d1 7901     		.2byte	0x179
 1465 01d3 6B000000 		.4byte	0x6b
 1466 01d7 00000000 		.4byte	.LFB3
 1467 01db B8000000 		.4byte	.LFE3-.LFB3
 1468 01df 01       		.uleb128 0x1
 1469 01e0 9C       		.byte	0x9c
 1470 01e1 13020000 		.4byte	0x213
 1471 01e5 0C       		.uleb128 0xc
 1472 01e6 2C020000 		.4byte	.LASF17
 1473 01ea 01       		.byte	0x1
 1474 01eb 7901     		.2byte	0x179
 1475 01ed 6B000000 		.4byte	0x6b
 1476 01f1 02       		.uleb128 0x2
 1477 01f2 91       		.byte	0x91
 1478 01f3 6F       		.sleb128 -17
 1479 01f4 0C       		.uleb128 0xc
 1480 01f5 B3010000 		.4byte	.LASF25
 1481 01f9 01       		.byte	0x1
 1482 01fa 7901     		.2byte	0x179
 1483 01fc 6B000000 		.4byte	0x6b
 1484 0200 02       		.uleb128 0x2
 1485 0201 91       		.byte	0x91
 1486 0202 6E       		.sleb128 -18
 1487 0203 0D       		.uleb128 0xd
 1488 0204 74010000 		.4byte	.LASF23
 1489 0208 01       		.byte	0x1
 1490 0209 7C01     		.2byte	0x17c
 1491 020b 6B000000 		.4byte	0x6b
 1492 020f 02       		.uleb128 0x2
 1493 0210 91       		.byte	0x91
 1494 0211 77       		.sleb128 -9
 1495 0212 00       		.byte	0
 1496 0213 0B       		.uleb128 0xb
 1497 0214 6E000000 		.4byte	.LASF27
 1498 0218 01       		.byte	0x1
 1499 0219 CC01     		.2byte	0x1cc
 1500 021b 6B000000 		.4byte	0x6b
 1501 021f 00000000 		.4byte	.LFB4
 1502 0223 6C000000 		.4byte	.LFE4-.LFB4
 1503 0227 01       		.uleb128 0x1
ARM GAS  C:\Users\dskyNote\AppData\Local\Temp\ccLkSjFG.s 			page 42


 1504 0228 9C       		.byte	0x9c
 1505 0229 3D020000 		.4byte	0x23d
 1506 022d 0D       		.uleb128 0xd
 1507 022e 74010000 		.4byte	.LASF23
 1508 0232 01       		.byte	0x1
 1509 0233 CE01     		.2byte	0x1ce
 1510 0235 6B000000 		.4byte	0x6b
 1511 0239 02       		.uleb128 0x2
 1512 023a 91       		.byte	0x91
 1513 023b 77       		.sleb128 -9
 1514 023c 00       		.byte	0
 1515 023d 0B       		.uleb128 0xb
 1516 023e 9D010000 		.4byte	.LASF28
 1517 0242 01       		.byte	0x1
 1518 0243 0402     		.2byte	0x204
 1519 0245 6B000000 		.4byte	0x6b
 1520 0249 00000000 		.4byte	.LFB5
 1521 024d 9C000000 		.4byte	.LFE5-.LFB5
 1522 0251 01       		.uleb128 0x1
 1523 0252 9C       		.byte	0x9c
 1524 0253 76020000 		.4byte	0x276
 1525 0257 0C       		.uleb128 0xc
 1526 0258 56030000 		.4byte	.LASF29
 1527 025c 01       		.byte	0x1
 1528 025d 0402     		.2byte	0x204
 1529 025f 6B000000 		.4byte	0x6b
 1530 0263 02       		.uleb128 0x2
 1531 0264 91       		.byte	0x91
 1532 0265 6F       		.sleb128 -17
 1533 0266 0D       		.uleb128 0xd
 1534 0267 74010000 		.4byte	.LASF23
 1535 026b 01       		.byte	0x1
 1536 026c 0602     		.2byte	0x206
 1537 026e 6B000000 		.4byte	0x6b
 1538 0272 02       		.uleb128 0x2
 1539 0273 91       		.byte	0x91
 1540 0274 77       		.sleb128 -9
 1541 0275 00       		.byte	0
 1542 0276 0B       		.uleb128 0xb
 1543 0277 5E030000 		.4byte	.LASF30
 1544 027b 01       		.byte	0x1
 1545 027c 4F02     		.2byte	0x24f
 1546 027e 6B000000 		.4byte	0x6b
 1547 0282 00000000 		.4byte	.LFB6
 1548 0286 AC000000 		.4byte	.LFE6-.LFB6
 1549 028a 01       		.uleb128 0x1
 1550 028b 9C       		.byte	0x9c
 1551 028c AF020000 		.4byte	0x2af
 1552 0290 0C       		.uleb128 0xc
 1553 0291 D8010000 		.4byte	.LASF31
 1554 0295 01       		.byte	0x1
 1555 0296 4F02     		.2byte	0x24f
 1556 0298 6B000000 		.4byte	0x6b
 1557 029c 02       		.uleb128 0x2
 1558 029d 91       		.byte	0x91
 1559 029e 6F       		.sleb128 -17
 1560 029f 0D       		.uleb128 0xd
ARM GAS  C:\Users\dskyNote\AppData\Local\Temp\ccLkSjFG.s 			page 43


 1561 02a0 56030000 		.4byte	.LASF29
 1562 02a4 01       		.byte	0x1
 1563 02a5 5102     		.2byte	0x251
 1564 02a7 6B000000 		.4byte	0x6b
 1565 02ab 02       		.uleb128 0x2
 1566 02ac 91       		.byte	0x91
 1567 02ad 77       		.sleb128 -9
 1568 02ae 00       		.byte	0
 1569 02af 0B       		.uleb128 0xb
 1570 02b0 BF000000 		.4byte	.LASF32
 1571 02b4 01       		.byte	0x1
 1572 02b5 8A02     		.2byte	0x28a
 1573 02b7 6B000000 		.4byte	0x6b
 1574 02bb 00000000 		.4byte	.LFB7
 1575 02bf 3C000000 		.4byte	.LFE7-.LFB7
 1576 02c3 01       		.uleb128 0x1
 1577 02c4 9C       		.byte	0x9c
 1578 02c5 D9020000 		.4byte	0x2d9
 1579 02c9 0D       		.uleb128 0xd
 1580 02ca A4000000 		.4byte	.LASF33
 1581 02ce 01       		.byte	0x1
 1582 02cf 8C02     		.2byte	0x28c
 1583 02d1 6B000000 		.4byte	0x6b
 1584 02d5 02       		.uleb128 0x2
 1585 02d6 91       		.byte	0x91
 1586 02d7 77       		.sleb128 -9
 1587 02d8 00       		.byte	0
 1588 02d9 0B       		.uleb128 0xb
 1589 02da 7C030000 		.4byte	.LASF34
 1590 02de 01       		.byte	0x1
 1591 02df B302     		.2byte	0x2b3
 1592 02e1 6B000000 		.4byte	0x6b
 1593 02e5 00000000 		.4byte	.LFB8
 1594 02e9 24000000 		.4byte	.LFE8-.LFB8
 1595 02ed 01       		.uleb128 0x1
 1596 02ee 9C       		.byte	0x9c
 1597 02ef 03030000 		.4byte	0x303
 1598 02f3 0D       		.uleb128 0xd
 1599 02f4 A4000000 		.4byte	.LASF33
 1600 02f8 01       		.byte	0x1
 1601 02f9 B602     		.2byte	0x2b6
 1602 02fb 6B000000 		.4byte	0x6b
 1603 02ff 02       		.uleb128 0x2
 1604 0300 91       		.byte	0x91
 1605 0301 77       		.sleb128 -9
 1606 0302 00       		.byte	0
 1607 0303 0E       		.uleb128 0xe
 1608 0304 11020000 		.4byte	.LASF35
 1609 0308 01       		.byte	0x1
 1610 0309 D402     		.2byte	0x2d4
 1611 030b 6B000000 		.4byte	0x6b
 1612 030f 00000000 		.4byte	.LFB9
 1613 0313 18000000 		.4byte	.LFE9-.LFB9
 1614 0317 01       		.uleb128 0x1
 1615 0318 9C       		.byte	0x9c
 1616 0319 0E       		.uleb128 0xe
 1617 031a FF000000 		.4byte	.LASF36
ARM GAS  C:\Users\dskyNote\AppData\Local\Temp\ccLkSjFG.s 			page 44


 1618 031e 01       		.byte	0x1
 1619 031f EE02     		.2byte	0x2ee
 1620 0321 6B000000 		.4byte	0x6b
 1621 0325 00000000 		.4byte	.LFB10
 1622 0329 18000000 		.4byte	.LFE10-.LFB10
 1623 032d 01       		.uleb128 0x1
 1624 032e 9C       		.byte	0x9c
 1625 032f 0F       		.uleb128 0xf
 1626 0330 D2000000 		.4byte	.LASF37
 1627 0334 01       		.byte	0x1
 1628 0335 0A03     		.2byte	0x30a
 1629 0337 00000000 		.4byte	.LFB11
 1630 033b 2C000000 		.4byte	.LFE11-.LFB11
 1631 033f 01       		.uleb128 0x1
 1632 0340 9C       		.byte	0x9c
 1633 0341 0F       		.uleb128 0xf
 1634 0342 41000000 		.4byte	.LASF38
 1635 0346 01       		.byte	0x1
 1636 0347 2703     		.2byte	0x327
 1637 0349 00000000 		.4byte	.LFB12
 1638 034d 2C000000 		.4byte	.LFE12-.LFB12
 1639 0351 01       		.uleb128 0x1
 1640 0352 9C       		.byte	0x9c
 1641 0353 0F       		.uleb128 0xf
 1642 0354 EA020000 		.4byte	.LASF39
 1643 0358 01       		.byte	0x1
 1644 0359 3F03     		.2byte	0x33f
 1645 035b 00000000 		.4byte	.LFB13
 1646 035f 0C000000 		.4byte	.LFE13-.LFB13
 1647 0363 01       		.uleb128 0x1
 1648 0364 9C       		.byte	0x9c
 1649 0365 10       		.uleb128 0x10
 1650 0366 A0030000 		.4byte	.LASF40
 1651 036a 03       		.byte	0x3
 1652 036b 23       		.byte	0x23
 1653 036c A1000000 		.4byte	0xa1
 1654 0370 11       		.uleb128 0x11
 1655 0371 30000000 		.4byte	.LASF41
 1656 0375 01       		.byte	0x1
 1657 0376 19       		.byte	0x19
 1658 0377 A1000000 		.4byte	0xa1
 1659 037b 05       		.uleb128 0x5
 1660 037c 03       		.byte	0x3
 1661 037d 00000000 		.4byte	I2C_2_mstrStatus
 1662 0381 11       		.uleb128 0x11
 1663 0382 C6010000 		.4byte	.LASF42
 1664 0386 01       		.byte	0x1
 1665 0387 1A       		.byte	0x1a
 1666 0388 A1000000 		.4byte	0xa1
 1667 038c 05       		.uleb128 0x5
 1668 038d 03       		.byte	0x3
 1669 038e 00000000 		.4byte	I2C_2_mstrControl
 1670 0392 11       		.uleb128 0x11
 1671 0393 21010000 		.4byte	.LASF43
 1672 0397 01       		.byte	0x1
 1673 0398 1D       		.byte	0x1d
 1674 0399 A3030000 		.4byte	0x3a3
ARM GAS  C:\Users\dskyNote\AppData\Local\Temp\ccLkSjFG.s 			page 45


 1675 039d 05       		.uleb128 0x5
 1676 039e 03       		.byte	0x3
 1677 039f 00000000 		.4byte	I2C_2_mstrRdBufPtr
 1678 03a3 0A       		.uleb128 0xa
 1679 03a4 04       		.byte	0x4
 1680 03a5 A1000000 		.4byte	0xa1
 1681 03a9 11       		.uleb128 0x11
 1682 03aa 90000000 		.4byte	.LASF44
 1683 03ae 01       		.byte	0x1
 1684 03af 1E       		.byte	0x1e
 1685 03b0 A1000000 		.4byte	0xa1
 1686 03b4 05       		.uleb128 0x5
 1687 03b5 03       		.byte	0x3
 1688 03b6 00000000 		.4byte	I2C_2_mstrRdBufSize
 1689 03ba 11       		.uleb128 0x11
 1690 03bb 59010000 		.4byte	.LASF45
 1691 03bf 01       		.byte	0x1
 1692 03c0 1F       		.byte	0x1f
 1693 03c1 A1000000 		.4byte	0xa1
 1694 03c5 05       		.uleb128 0x5
 1695 03c6 03       		.byte	0x3
 1696 03c7 00000000 		.4byte	I2C_2_mstrRdBufIndex
 1697 03cb 11       		.uleb128 0x11
 1698 03cc FE010000 		.4byte	.LASF46
 1699 03d0 01       		.byte	0x1
 1700 03d1 22       		.byte	0x22
 1701 03d2 A3030000 		.4byte	0x3a3
 1702 03d6 05       		.uleb128 0x5
 1703 03d7 03       		.byte	0x3
 1704 03d8 00000000 		.4byte	I2C_2_mstrWrBufPtr
 1705 03dc 11       		.uleb128 0x11
 1706 03dd EB000000 		.4byte	.LASF47
 1707 03e1 01       		.byte	0x1
 1708 03e2 23       		.byte	0x23
 1709 03e3 A1000000 		.4byte	0xa1
 1710 03e7 05       		.uleb128 0x5
 1711 03e8 03       		.byte	0x3
 1712 03e9 00000000 		.4byte	I2C_2_mstrWrBufSize
 1713 03ed 11       		.uleb128 0x11
 1714 03ee 00000000 		.4byte	.LASF48
 1715 03f2 01       		.byte	0x1
 1716 03f3 24       		.byte	0x24
 1717 03f4 A1000000 		.4byte	0xa1
 1718 03f8 05       		.uleb128 0x5
 1719 03f9 03       		.byte	0x3
 1720 03fa 00000000 		.4byte	I2C_2_mstrWrBufIndex
 1721 03fe 00       		.byte	0
 1722              		.section	.debug_abbrev,"",%progbits
 1723              	.Ldebug_abbrev0:
 1724 0000 01       		.uleb128 0x1
 1725 0001 11       		.uleb128 0x11
 1726 0002 01       		.byte	0x1
 1727 0003 25       		.uleb128 0x25
 1728 0004 0E       		.uleb128 0xe
 1729 0005 13       		.uleb128 0x13
 1730 0006 0B       		.uleb128 0xb
 1731 0007 03       		.uleb128 0x3
ARM GAS  C:\Users\dskyNote\AppData\Local\Temp\ccLkSjFG.s 			page 46


 1732 0008 0E       		.uleb128 0xe
 1733 0009 1B       		.uleb128 0x1b
 1734 000a 0E       		.uleb128 0xe
 1735 000b 55       		.uleb128 0x55
 1736 000c 17       		.uleb128 0x17
 1737 000d 11       		.uleb128 0x11
 1738 000e 01       		.uleb128 0x1
 1739 000f 10       		.uleb128 0x10
 1740 0010 17       		.uleb128 0x17
 1741 0011 00       		.byte	0
 1742 0012 00       		.byte	0
 1743 0013 02       		.uleb128 0x2
 1744 0014 24       		.uleb128 0x24
 1745 0015 00       		.byte	0
 1746 0016 0B       		.uleb128 0xb
 1747 0017 0B       		.uleb128 0xb
 1748 0018 3E       		.uleb128 0x3e
 1749 0019 0B       		.uleb128 0xb
 1750 001a 03       		.uleb128 0x3
 1751 001b 0E       		.uleb128 0xe
 1752 001c 00       		.byte	0
 1753 001d 00       		.byte	0
 1754 001e 03       		.uleb128 0x3
 1755 001f 24       		.uleb128 0x24
 1756 0020 00       		.byte	0
 1757 0021 0B       		.uleb128 0xb
 1758 0022 0B       		.uleb128 0xb
 1759 0023 3E       		.uleb128 0x3e
 1760 0024 0B       		.uleb128 0xb
 1761 0025 03       		.uleb128 0x3
 1762 0026 08       		.uleb128 0x8
 1763 0027 00       		.byte	0
 1764 0028 00       		.byte	0
 1765 0029 04       		.uleb128 0x4
 1766 002a 16       		.uleb128 0x16
 1767 002b 00       		.byte	0
 1768 002c 03       		.uleb128 0x3
 1769 002d 0E       		.uleb128 0xe
 1770 002e 3A       		.uleb128 0x3a
 1771 002f 0B       		.uleb128 0xb
 1772 0030 3B       		.uleb128 0x3b
 1773 0031 0B       		.uleb128 0xb
 1774 0032 49       		.uleb128 0x49
 1775 0033 13       		.uleb128 0x13
 1776 0034 00       		.byte	0
 1777 0035 00       		.byte	0
 1778 0036 05       		.uleb128 0x5
 1779 0037 35       		.uleb128 0x35
 1780 0038 00       		.byte	0
 1781 0039 49       		.uleb128 0x49
 1782 003a 13       		.uleb128 0x13
 1783 003b 00       		.byte	0
 1784 003c 00       		.byte	0
 1785 003d 06       		.uleb128 0x6
 1786 003e 2E       		.uleb128 0x2e
 1787 003f 01       		.byte	0x1
 1788 0040 3F       		.uleb128 0x3f
ARM GAS  C:\Users\dskyNote\AppData\Local\Temp\ccLkSjFG.s 			page 47


 1789 0041 19       		.uleb128 0x19
 1790 0042 03       		.uleb128 0x3
 1791 0043 0E       		.uleb128 0xe
 1792 0044 3A       		.uleb128 0x3a
 1793 0045 0B       		.uleb128 0xb
 1794 0046 3B       		.uleb128 0x3b
 1795 0047 0B       		.uleb128 0xb
 1796 0048 27       		.uleb128 0x27
 1797 0049 19       		.uleb128 0x19
 1798 004a 49       		.uleb128 0x49
 1799 004b 13       		.uleb128 0x13
 1800 004c 11       		.uleb128 0x11
 1801 004d 01       		.uleb128 0x1
 1802 004e 12       		.uleb128 0x12
 1803 004f 06       		.uleb128 0x6
 1804 0050 40       		.uleb128 0x40
 1805 0051 18       		.uleb128 0x18
 1806 0052 9742     		.uleb128 0x2117
 1807 0054 19       		.uleb128 0x19
 1808 0055 01       		.uleb128 0x1
 1809 0056 13       		.uleb128 0x13
 1810 0057 00       		.byte	0
 1811 0058 00       		.byte	0
 1812 0059 07       		.uleb128 0x7
 1813 005a 05       		.uleb128 0x5
 1814 005b 00       		.byte	0
 1815 005c 03       		.uleb128 0x3
 1816 005d 0E       		.uleb128 0xe
 1817 005e 3A       		.uleb128 0x3a
 1818 005f 0B       		.uleb128 0xb
 1819 0060 3B       		.uleb128 0x3b
 1820 0061 0B       		.uleb128 0xb
 1821 0062 49       		.uleb128 0x49
 1822 0063 13       		.uleb128 0x13
 1823 0064 02       		.uleb128 0x2
 1824 0065 18       		.uleb128 0x18
 1825 0066 00       		.byte	0
 1826 0067 00       		.byte	0
 1827 0068 08       		.uleb128 0x8
 1828 0069 05       		.uleb128 0x5
 1829 006a 00       		.byte	0
 1830 006b 03       		.uleb128 0x3
 1831 006c 08       		.uleb128 0x8
 1832 006d 3A       		.uleb128 0x3a
 1833 006e 0B       		.uleb128 0xb
 1834 006f 3B       		.uleb128 0x3b
 1835 0070 0B       		.uleb128 0xb
 1836 0071 49       		.uleb128 0x49
 1837 0072 13       		.uleb128 0x13
 1838 0073 02       		.uleb128 0x2
 1839 0074 18       		.uleb128 0x18
 1840 0075 00       		.byte	0
 1841 0076 00       		.byte	0
 1842 0077 09       		.uleb128 0x9
 1843 0078 34       		.uleb128 0x34
 1844 0079 00       		.byte	0
 1845 007a 03       		.uleb128 0x3
ARM GAS  C:\Users\dskyNote\AppData\Local\Temp\ccLkSjFG.s 			page 48


 1846 007b 0E       		.uleb128 0xe
 1847 007c 3A       		.uleb128 0x3a
 1848 007d 0B       		.uleb128 0xb
 1849 007e 3B       		.uleb128 0x3b
 1850 007f 0B       		.uleb128 0xb
 1851 0080 49       		.uleb128 0x49
 1852 0081 13       		.uleb128 0x13
 1853 0082 02       		.uleb128 0x2
 1854 0083 18       		.uleb128 0x18
 1855 0084 00       		.byte	0
 1856 0085 00       		.byte	0
 1857 0086 0A       		.uleb128 0xa
 1858 0087 0F       		.uleb128 0xf
 1859 0088 00       		.byte	0
 1860 0089 0B       		.uleb128 0xb
 1861 008a 0B       		.uleb128 0xb
 1862 008b 49       		.uleb128 0x49
 1863 008c 13       		.uleb128 0x13
 1864 008d 00       		.byte	0
 1865 008e 00       		.byte	0
 1866 008f 0B       		.uleb128 0xb
 1867 0090 2E       		.uleb128 0x2e
 1868 0091 01       		.byte	0x1
 1869 0092 3F       		.uleb128 0x3f
 1870 0093 19       		.uleb128 0x19
 1871 0094 03       		.uleb128 0x3
 1872 0095 0E       		.uleb128 0xe
 1873 0096 3A       		.uleb128 0x3a
 1874 0097 0B       		.uleb128 0xb
 1875 0098 3B       		.uleb128 0x3b
 1876 0099 05       		.uleb128 0x5
 1877 009a 27       		.uleb128 0x27
 1878 009b 19       		.uleb128 0x19
 1879 009c 49       		.uleb128 0x49
 1880 009d 13       		.uleb128 0x13
 1881 009e 11       		.uleb128 0x11
 1882 009f 01       		.uleb128 0x1
 1883 00a0 12       		.uleb128 0x12
 1884 00a1 06       		.uleb128 0x6
 1885 00a2 40       		.uleb128 0x40
 1886 00a3 18       		.uleb128 0x18
 1887 00a4 9742     		.uleb128 0x2117
 1888 00a6 19       		.uleb128 0x19
 1889 00a7 01       		.uleb128 0x1
 1890 00a8 13       		.uleb128 0x13
 1891 00a9 00       		.byte	0
 1892 00aa 00       		.byte	0
 1893 00ab 0C       		.uleb128 0xc
 1894 00ac 05       		.uleb128 0x5
 1895 00ad 00       		.byte	0
 1896 00ae 03       		.uleb128 0x3
 1897 00af 0E       		.uleb128 0xe
 1898 00b0 3A       		.uleb128 0x3a
 1899 00b1 0B       		.uleb128 0xb
 1900 00b2 3B       		.uleb128 0x3b
 1901 00b3 05       		.uleb128 0x5
 1902 00b4 49       		.uleb128 0x49
ARM GAS  C:\Users\dskyNote\AppData\Local\Temp\ccLkSjFG.s 			page 49


 1903 00b5 13       		.uleb128 0x13
 1904 00b6 02       		.uleb128 0x2
 1905 00b7 18       		.uleb128 0x18
 1906 00b8 00       		.byte	0
 1907 00b9 00       		.byte	0
 1908 00ba 0D       		.uleb128 0xd
 1909 00bb 34       		.uleb128 0x34
 1910 00bc 00       		.byte	0
 1911 00bd 03       		.uleb128 0x3
 1912 00be 0E       		.uleb128 0xe
 1913 00bf 3A       		.uleb128 0x3a
 1914 00c0 0B       		.uleb128 0xb
 1915 00c1 3B       		.uleb128 0x3b
 1916 00c2 05       		.uleb128 0x5
 1917 00c3 49       		.uleb128 0x49
 1918 00c4 13       		.uleb128 0x13
 1919 00c5 02       		.uleb128 0x2
 1920 00c6 18       		.uleb128 0x18
 1921 00c7 00       		.byte	0
 1922 00c8 00       		.byte	0
 1923 00c9 0E       		.uleb128 0xe
 1924 00ca 2E       		.uleb128 0x2e
 1925 00cb 00       		.byte	0
 1926 00cc 3F       		.uleb128 0x3f
 1927 00cd 19       		.uleb128 0x19
 1928 00ce 03       		.uleb128 0x3
 1929 00cf 0E       		.uleb128 0xe
 1930 00d0 3A       		.uleb128 0x3a
 1931 00d1 0B       		.uleb128 0xb
 1932 00d2 3B       		.uleb128 0x3b
 1933 00d3 05       		.uleb128 0x5
 1934 00d4 27       		.uleb128 0x27
 1935 00d5 19       		.uleb128 0x19
 1936 00d6 49       		.uleb128 0x49
 1937 00d7 13       		.uleb128 0x13
 1938 00d8 11       		.uleb128 0x11
 1939 00d9 01       		.uleb128 0x1
 1940 00da 12       		.uleb128 0x12
 1941 00db 06       		.uleb128 0x6
 1942 00dc 40       		.uleb128 0x40
 1943 00dd 18       		.uleb128 0x18
 1944 00de 9742     		.uleb128 0x2117
 1945 00e0 19       		.uleb128 0x19
 1946 00e1 00       		.byte	0
 1947 00e2 00       		.byte	0
 1948 00e3 0F       		.uleb128 0xf
 1949 00e4 2E       		.uleb128 0x2e
 1950 00e5 00       		.byte	0
 1951 00e6 3F       		.uleb128 0x3f
 1952 00e7 19       		.uleb128 0x19
 1953 00e8 03       		.uleb128 0x3
 1954 00e9 0E       		.uleb128 0xe
 1955 00ea 3A       		.uleb128 0x3a
 1956 00eb 0B       		.uleb128 0xb
 1957 00ec 3B       		.uleb128 0x3b
 1958 00ed 05       		.uleb128 0x5
 1959 00ee 27       		.uleb128 0x27
ARM GAS  C:\Users\dskyNote\AppData\Local\Temp\ccLkSjFG.s 			page 50


 1960 00ef 19       		.uleb128 0x19
 1961 00f0 11       		.uleb128 0x11
 1962 00f1 01       		.uleb128 0x1
 1963 00f2 12       		.uleb128 0x12
 1964 00f3 06       		.uleb128 0x6
 1965 00f4 40       		.uleb128 0x40
 1966 00f5 18       		.uleb128 0x18
 1967 00f6 9742     		.uleb128 0x2117
 1968 00f8 19       		.uleb128 0x19
 1969 00f9 00       		.byte	0
 1970 00fa 00       		.byte	0
 1971 00fb 10       		.uleb128 0x10
 1972 00fc 34       		.uleb128 0x34
 1973 00fd 00       		.byte	0
 1974 00fe 03       		.uleb128 0x3
 1975 00ff 0E       		.uleb128 0xe
 1976 0100 3A       		.uleb128 0x3a
 1977 0101 0B       		.uleb128 0xb
 1978 0102 3B       		.uleb128 0x3b
 1979 0103 0B       		.uleb128 0xb
 1980 0104 49       		.uleb128 0x49
 1981 0105 13       		.uleb128 0x13
 1982 0106 3F       		.uleb128 0x3f
 1983 0107 19       		.uleb128 0x19
 1984 0108 3C       		.uleb128 0x3c
 1985 0109 19       		.uleb128 0x19
 1986 010a 00       		.byte	0
 1987 010b 00       		.byte	0
 1988 010c 11       		.uleb128 0x11
 1989 010d 34       		.uleb128 0x34
 1990 010e 00       		.byte	0
 1991 010f 03       		.uleb128 0x3
 1992 0110 0E       		.uleb128 0xe
 1993 0111 3A       		.uleb128 0x3a
 1994 0112 0B       		.uleb128 0xb
 1995 0113 3B       		.uleb128 0x3b
 1996 0114 0B       		.uleb128 0xb
 1997 0115 49       		.uleb128 0x49
 1998 0116 13       		.uleb128 0x13
 1999 0117 3F       		.uleb128 0x3f
 2000 0118 19       		.uleb128 0x19
 2001 0119 02       		.uleb128 0x2
 2002 011a 18       		.uleb128 0x18
 2003 011b 00       		.byte	0
 2004 011c 00       		.byte	0
 2005 011d 00       		.byte	0
 2006              		.section	.debug_aranges,"",%progbits
 2007 0000 84000000 		.4byte	0x84
 2008 0004 0200     		.2byte	0x2
 2009 0006 00000000 		.4byte	.Ldebug_info0
 2010 000a 04       		.byte	0x4
 2011 000b 00       		.byte	0
 2012 000c 0000     		.2byte	0
 2013 000e 0000     		.2byte	0
 2014 0010 00000000 		.4byte	.LFB0
 2015 0014 08010000 		.4byte	.LFE0-.LFB0
 2016 0018 00000000 		.4byte	.LFB1
ARM GAS  C:\Users\dskyNote\AppData\Local\Temp\ccLkSjFG.s 			page 51


 2017 001c 10010000 		.4byte	.LFE1-.LFB1
 2018 0020 00000000 		.4byte	.LFB2
 2019 0024 C0000000 		.4byte	.LFE2-.LFB2
 2020 0028 00000000 		.4byte	.LFB3
 2021 002c B8000000 		.4byte	.LFE3-.LFB3
 2022 0030 00000000 		.4byte	.LFB4
 2023 0034 6C000000 		.4byte	.LFE4-.LFB4
 2024 0038 00000000 		.4byte	.LFB5
 2025 003c 9C000000 		.4byte	.LFE5-.LFB5
 2026 0040 00000000 		.4byte	.LFB6
 2027 0044 AC000000 		.4byte	.LFE6-.LFB6
 2028 0048 00000000 		.4byte	.LFB7
 2029 004c 3C000000 		.4byte	.LFE7-.LFB7
 2030 0050 00000000 		.4byte	.LFB8
 2031 0054 24000000 		.4byte	.LFE8-.LFB8
 2032 0058 00000000 		.4byte	.LFB9
 2033 005c 18000000 		.4byte	.LFE9-.LFB9
 2034 0060 00000000 		.4byte	.LFB10
 2035 0064 18000000 		.4byte	.LFE10-.LFB10
 2036 0068 00000000 		.4byte	.LFB11
 2037 006c 2C000000 		.4byte	.LFE11-.LFB11
 2038 0070 00000000 		.4byte	.LFB12
 2039 0074 2C000000 		.4byte	.LFE12-.LFB12
 2040 0078 00000000 		.4byte	.LFB13
 2041 007c 0C000000 		.4byte	.LFE13-.LFB13
 2042 0080 00000000 		.4byte	0
 2043 0084 00000000 		.4byte	0
 2044              		.section	.debug_ranges,"",%progbits
 2045              	.Ldebug_ranges0:
 2046 0000 00000000 		.4byte	.LFB0
 2047 0004 08010000 		.4byte	.LFE0
 2048 0008 00000000 		.4byte	.LFB1
 2049 000c 10010000 		.4byte	.LFE1
 2050 0010 00000000 		.4byte	.LFB2
 2051 0014 C0000000 		.4byte	.LFE2
 2052 0018 00000000 		.4byte	.LFB3
 2053 001c B8000000 		.4byte	.LFE3
 2054 0020 00000000 		.4byte	.LFB4
 2055 0024 6C000000 		.4byte	.LFE4
 2056 0028 00000000 		.4byte	.LFB5
 2057 002c 9C000000 		.4byte	.LFE5
 2058 0030 00000000 		.4byte	.LFB6
 2059 0034 AC000000 		.4byte	.LFE6
 2060 0038 00000000 		.4byte	.LFB7
 2061 003c 3C000000 		.4byte	.LFE7
 2062 0040 00000000 		.4byte	.LFB8
 2063 0044 24000000 		.4byte	.LFE8
 2064 0048 00000000 		.4byte	.LFB9
 2065 004c 18000000 		.4byte	.LFE9
 2066 0050 00000000 		.4byte	.LFB10
 2067 0054 18000000 		.4byte	.LFE10
 2068 0058 00000000 		.4byte	.LFB11
 2069 005c 2C000000 		.4byte	.LFE11
 2070 0060 00000000 		.4byte	.LFB12
 2071 0064 2C000000 		.4byte	.LFE12
 2072 0068 00000000 		.4byte	.LFB13
 2073 006c 0C000000 		.4byte	.LFE13
ARM GAS  C:\Users\dskyNote\AppData\Local\Temp\ccLkSjFG.s 			page 52


 2074 0070 00000000 		.4byte	0
 2075 0074 00000000 		.4byte	0
 2076              		.section	.debug_line,"",%progbits
 2077              	.Ldebug_line0:
 2078 0000 13020000 		.section	.debug_str,"MS",%progbits,1
 2078      02005A00 
 2078      00000201 
 2078      FB0E0D00 
 2078      01010101 
 2079              	.LASF48:
 2080 0000 4932435F 		.ascii	"I2C_2_mstrWrBufIndex\000"
 2080      325F6D73 
 2080      74725772 
 2080      42756649 
 2080      6E646578 
 2081              	.LASF15:
 2082 0015 72656733 		.ascii	"reg32\000"
 2082      3200
 2083              	.LASF20:
 2084 001b 4932435F 		.ascii	"I2C_2_MasterWriteBuf\000"
 2084      325F4D61 
 2084      73746572 
 2084      57726974 
 2084      65427566 
 2085              	.LASF41:
 2086 0030 4932435F 		.ascii	"I2C_2_mstrStatus\000"
 2086      325F6D73 
 2086      74725374 
 2086      61747573 
 2086      00
 2087              	.LASF38:
 2088 0041 4932435F 		.ascii	"I2C_2_MasterClearWriteBuf\000"
 2088      325F4D61 
 2088      73746572 
 2088      436C6561 
 2088      72577269 
 2089              	.LASF3:
 2090 005b 73686F72 		.ascii	"short unsigned int\000"
 2090      7420756E 
 2090      7369676E 
 2090      65642069 
 2090      6E7400
 2091              	.LASF27:
 2092 006e 4932435F 		.ascii	"I2C_2_MasterSendStop\000"
 2092      325F4D61 
 2092      73746572 
 2092      53656E64 
 2092      53746F70 
 2093              	.LASF8:
 2094 0083 756E7369 		.ascii	"unsigned int\000"
 2094      676E6564 
 2094      20696E74 
 2094      00
 2095              	.LASF44:
 2096 0090 4932435F 		.ascii	"I2C_2_mstrRdBufSize\000"
 2096      325F6D73 
 2096      74725264 
ARM GAS  C:\Users\dskyNote\AppData\Local\Temp\ccLkSjFG.s 			page 53


 2096      42756653 
 2096      697A6500 
 2097              	.LASF33:
 2098 00a4 73746174 		.ascii	"status\000"
 2098      757300
 2099              	.LASF21:
 2100 00ab 4932435F 		.ascii	"I2C_2_MasterReadBuf\000"
 2100      325F4D61 
 2100      73746572 
 2100      52656164 
 2100      42756600 
 2101              	.LASF32:
 2102 00bf 4932435F 		.ascii	"I2C_2_MasterStatus\000"
 2102      325F4D61 
 2102      73746572 
 2102      53746174 
 2102      757300
 2103              	.LASF37:
 2104 00d2 4932435F 		.ascii	"I2C_2_MasterClearReadBuf\000"
 2104      325F4D61 
 2104      73746572 
 2104      436C6561 
 2104      72526561 
 2105              	.LASF47:
 2106 00eb 4932435F 		.ascii	"I2C_2_mstrWrBufSize\000"
 2106      325F6D73 
 2106      74725772 
 2106      42756653 
 2106      697A6500 
 2107              	.LASF36:
 2108 00ff 4932435F 		.ascii	"I2C_2_MasterGetWriteBufSize\000"
 2108      325F4D61 
 2108      73746572 
 2108      47657457 
 2108      72697465 
 2109              	.LASF11:
 2110 011b 666C6F61 		.ascii	"float\000"
 2110      7400
 2111              	.LASF43:
 2112 0121 4932435F 		.ascii	"I2C_2_mstrRdBufPtr\000"
 2112      325F6D73 
 2112      74725264 
 2112      42756650 
 2112      747200
 2113              	.LASF1:
 2114 0134 756E7369 		.ascii	"unsigned char\000"
 2114      676E6564 
 2114      20636861 
 2114      7200
 2115              	.LASF14:
 2116 0142 72656738 		.ascii	"reg8\000"
 2116      00
 2117              	.LASF5:
 2118 0147 6C6F6E67 		.ascii	"long unsigned int\000"
 2118      20756E73 
 2118      69676E65 
 2118      6420696E 
ARM GAS  C:\Users\dskyNote\AppData\Local\Temp\ccLkSjFG.s 			page 54


 2118      7400
 2119              	.LASF45:
 2120 0159 4932435F 		.ascii	"I2C_2_mstrRdBufIndex\000"
 2120      325F6D73 
 2120      74725264 
 2120      42756649 
 2120      6E646578 
 2121              	.LASF9:
 2122 016e 75696E74 		.ascii	"uint8\000"
 2122      3800
 2123              	.LASF23:
 2124 0174 65727253 		.ascii	"errStatus\000"
 2124      74617475 
 2124      7300
 2125              	.LASF12:
 2126 017e 646F7562 		.ascii	"double\000"
 2126      6C6500
 2127              	.LASF26:
 2128 0185 4932435F 		.ascii	"I2C_2_MasterSendRestart\000"
 2128      325F4D61 
 2128      73746572 
 2128      53656E64 
 2128      52657374 
 2129              	.LASF28:
 2130 019d 4932435F 		.ascii	"I2C_2_MasterWriteByte\000"
 2130      325F4D61 
 2130      73746572 
 2130      57726974 
 2130      65427974 
 2131              	.LASF25:
 2132 01b3 525F6E57 		.ascii	"R_nW\000"
 2132      00
 2133              	.LASF22:
 2134 01b8 72644461 		.ascii	"rdData\000"
 2134      746100
 2135              	.LASF10:
 2136 01bf 75696E74 		.ascii	"uint32\000"
 2136      333200
 2137              	.LASF42:
 2138 01c6 4932435F 		.ascii	"I2C_2_mstrControl\000"
 2138      325F6D73 
 2138      7472436F 
 2138      6E74726F 
 2138      6C00
 2139              	.LASF31:
 2140 01d8 61636B6E 		.ascii	"acknNak\000"
 2140      4E616B00 
 2141              	.LASF18:
 2142 01e0 77724461 		.ascii	"wrData\000"
 2142      746100
 2143              	.LASF7:
 2144 01e7 6C6F6E67 		.ascii	"long long unsigned int\000"
 2144      206C6F6E 
 2144      6720756E 
 2144      7369676E 
 2144      65642069 
 2145              	.LASF46:
ARM GAS  C:\Users\dskyNote\AppData\Local\Temp\ccLkSjFG.s 			page 55


 2146 01fe 4932435F 		.ascii	"I2C_2_mstrWrBufPtr\000"
 2146      325F6D73 
 2146      74725772 
 2146      42756650 
 2146      747200
 2147              	.LASF35:
 2148 0211 4932435F 		.ascii	"I2C_2_MasterGetReadBufSize\000"
 2148      325F4D61 
 2148      73746572 
 2148      47657452 
 2148      65616442 
 2149              	.LASF17:
 2150 022c 736C6176 		.ascii	"slaveAddress\000"
 2150      65416464 
 2150      72657373 
 2150      00
 2151              	.LASF49:
 2152 0239 474E5520 		.ascii	"GNU C 4.8.4 20140526 (release) [ARM/embedded-4_8-br"
 2152      4320342E 
 2152      382E3420 
 2152      32303134 
 2152      30353236 
 2153 026c 616E6368 		.ascii	"anch revision 211358] -mcpu=cortex-m3 -mthumb -g -O"
 2153      20726576 
 2153      6973696F 
 2153      6E203231 
 2153      31333538 
 2154 029f 30202D66 		.ascii	"0 -ffunction-sections\000"
 2154      66756E63 
 2154      74696F6E 
 2154      2D736563 
 2154      74696F6E 
 2155              	.LASF51:
 2156 02b5 433A5C67 		.ascii	"C:\\gitData\\PSoC\\SFT1.0v\\Design01.cydsn\000"
 2156      69744461 
 2156      74615C50 
 2156      536F435C 
 2156      53465431 
 2157              	.LASF16:
 2158 02dc 73697A65 		.ascii	"sizetype\000"
 2158      74797065 
 2158      00
 2159              	.LASF19:
 2160 02e5 6D6F6465 		.ascii	"mode\000"
 2160      00
 2161              	.LASF39:
 2162 02ea 4932435F 		.ascii	"I2C_2_Workaround\000"
 2162      325F576F 
 2162      726B6172 
 2162      6F756E64 
 2162      00
 2163              	.LASF6:
 2164 02fb 6C6F6E67 		.ascii	"long long int\000"
 2164      206C6F6E 
 2164      6720696E 
 2164      7400
 2165              	.LASF13:
ARM GAS  C:\Users\dskyNote\AppData\Local\Temp\ccLkSjFG.s 			page 56


 2166 0309 63686172 		.ascii	"char\000"
 2166      00
 2167              	.LASF24:
 2168 030e 4932435F 		.ascii	"I2C_2_MasterSendStart\000"
 2168      325F4D61 
 2168      73746572 
 2168      53656E64 
 2168      53746172 
 2169              	.LASF50:
 2170 0324 2E5C4765 		.ascii	".\\Generated_Source\\PSoC5\\I2C_2_MASTER.c\000"
 2170      6E657261 
 2170      7465645F 
 2170      536F7572 
 2170      63655C50 
 2171              	.LASF2:
 2172 034c 73686F72 		.ascii	"short int\000"
 2172      7420696E 
 2172      7400
 2173              	.LASF29:
 2174 0356 74686542 		.ascii	"theByte\000"
 2174      79746500 
 2175              	.LASF30:
 2176 035e 4932435F 		.ascii	"I2C_2_MasterReadByte\000"
 2176      325F4D61 
 2176      73746572 
 2176      52656164 
 2176      42797465 
 2177              	.LASF4:
 2178 0373 6C6F6E67 		.ascii	"long int\000"
 2178      20696E74 
 2178      00
 2179              	.LASF34:
 2180 037c 4932435F 		.ascii	"I2C_2_MasterClearStatus\000"
 2180      325F4D61 
 2180      73746572 
 2180      436C6561 
 2180      72537461 
 2181              	.LASF0:
 2182 0394 7369676E 		.ascii	"signed char\000"
 2182      65642063 
 2182      68617200 
 2183              	.LASF40:
 2184 03a0 4932435F 		.ascii	"I2C_2_state\000"
 2184      325F7374 
 2184      61746500 
 2185              		.ident	"GCC: (GNU Tools for ARM Embedded Processors) 4.8.4 20140526 (release) [ARM/embedded-4_8-br
