ARM GAS  C:\Users\dskyNote\AppData\Local\Temp\ccLkSjFG.s 			page 1


   1              		.syntax unified
   2              		.cpu cortex-m3
   3              		.fpu softvfp
   4              		.eabi_attribute 20, 1
   5              		.eabi_attribute 21, 1
   6              		.eabi_attribute 23, 3
   7              		.eabi_attribute 24, 1
   8              		.eabi_attribute 25, 1
   9              		.eabi_attribute 26, 1
  10              		.eabi_attribute 30, 6
  11              		.eabi_attribute 34, 1
  12              		.eabi_attribute 18, 4
  13              		.thumb
  14              		.file	"I2C_2_MASTER.c"
  15              		.text
  16              	.Ltext0:
  17              		.cfi_sections	.debug_frame
  18              		.comm	I2C_2_mstrStatus,1,1
  19              		.comm	I2C_2_mstrControl,1,1
  20              		.comm	I2C_2_mstrRdBufPtr,4,4
  21              		.comm	I2C_2_mstrRdBufSize,1,1
  22              		.comm	I2C_2_mstrRdBufIndex,1,1
  23              		.comm	I2C_2_mstrWrBufPtr,4,4
  24              		.comm	I2C_2_mstrWrBufSize,1,1
  25              		.comm	I2C_2_mstrWrBufIndex,1,1
  26              		.section	.text.I2C_2_MasterWriteBuf,"ax",%progbits
  27              		.align	2
  28              		.global	I2C_2_MasterWriteBuf
  29              		.thumb
  30              		.thumb_func
  31              		.type	I2C_2_MasterWriteBuf, %function
  32              	I2C_2_MasterWriteBuf:
  33              	.LFB0:
  34              		.file 1 ".\\Generated_Source\\PSoC5\\I2C_2_MASTER.c"
   1:.\Generated_Source\PSoC5/I2C_2_MASTER.c **** /*******************************************************************************
   2:.\Generated_Source\PSoC5/I2C_2_MASTER.c **** * File Name: I2C_2_MASTER.c
   3:.\Generated_Source\PSoC5/I2C_2_MASTER.c **** * Version 3.30
   4:.\Generated_Source\PSoC5/I2C_2_MASTER.c **** *
   5:.\Generated_Source\PSoC5/I2C_2_MASTER.c **** * Description:
   6:.\Generated_Source\PSoC5/I2C_2_MASTER.c **** *  This file provides the source code of APIs for the I2C component Master mode.
   7:.\Generated_Source\PSoC5/I2C_2_MASTER.c **** *
   8:.\Generated_Source\PSoC5/I2C_2_MASTER.c **** * Note:
   9:.\Generated_Source\PSoC5/I2C_2_MASTER.c **** *
  10:.\Generated_Source\PSoC5/I2C_2_MASTER.c **** *******************************************************************************
  11:.\Generated_Source\PSoC5/I2C_2_MASTER.c **** * Copyright 2012, Cypress Semiconductor Corporation.  All rights reserved.
  12:.\Generated_Source\PSoC5/I2C_2_MASTER.c **** * You may use this file only in accordance with the license, terms, conditions,
  13:.\Generated_Source\PSoC5/I2C_2_MASTER.c **** * disclaimers, and limitations in the end user license agreement accompanying
  14:.\Generated_Source\PSoC5/I2C_2_MASTER.c **** * the software package with which this file was provided.
  15:.\Generated_Source\PSoC5/I2C_2_MASTER.c **** *******************************************************************************/
  16:.\Generated_Source\PSoC5/I2C_2_MASTER.c **** 
  17:.\Generated_Source\PSoC5/I2C_2_MASTER.c **** #include "I2C_2_PVT.h"
  18:.\Generated_Source\PSoC5/I2C_2_MASTER.c **** 
  19:.\Generated_Source\PSoC5/I2C_2_MASTER.c **** #if(I2C_2_MODE_MASTER_ENABLED)
  20:.\Generated_Source\PSoC5/I2C_2_MASTER.c **** 
  21:.\Generated_Source\PSoC5/I2C_2_MASTER.c **** /**********************************
  22:.\Generated_Source\PSoC5/I2C_2_MASTER.c **** *      System variables
  23:.\Generated_Source\PSoC5/I2C_2_MASTER.c **** **********************************/
ARM GAS  C:\Users\dskyNote\AppData\Local\Temp\ccLkSjFG.s 			page 2


  24:.\Generated_Source\PSoC5/I2C_2_MASTER.c **** 
  25:.\Generated_Source\PSoC5/I2C_2_MASTER.c **** volatile uint8 I2C_2_mstrStatus;     /* Master Status byte  */
  26:.\Generated_Source\PSoC5/I2C_2_MASTER.c **** volatile uint8 I2C_2_mstrControl;    /* Master Control byte */
  27:.\Generated_Source\PSoC5/I2C_2_MASTER.c **** 
  28:.\Generated_Source\PSoC5/I2C_2_MASTER.c **** /* Transmit buffer variables */
  29:.\Generated_Source\PSoC5/I2C_2_MASTER.c **** volatile uint8 * I2C_2_mstrRdBufPtr;     /* Pointer to Master Read buffer */
  30:.\Generated_Source\PSoC5/I2C_2_MASTER.c **** volatile uint8   I2C_2_mstrRdBufSize;    /* Master Read buffer size       */
  31:.\Generated_Source\PSoC5/I2C_2_MASTER.c **** volatile uint8   I2C_2_mstrRdBufIndex;   /* Master Read buffer Index      */
  32:.\Generated_Source\PSoC5/I2C_2_MASTER.c **** 
  33:.\Generated_Source\PSoC5/I2C_2_MASTER.c **** /* Receive buffer variables */
  34:.\Generated_Source\PSoC5/I2C_2_MASTER.c **** volatile uint8 * I2C_2_mstrWrBufPtr;     /* Pointer to Master Write buffer */
  35:.\Generated_Source\PSoC5/I2C_2_MASTER.c **** volatile uint8   I2C_2_mstrWrBufSize;    /* Master Write buffer size       */
  36:.\Generated_Source\PSoC5/I2C_2_MASTER.c **** volatile uint8   I2C_2_mstrWrBufIndex;   /* Master Write buffer Index      */
  37:.\Generated_Source\PSoC5/I2C_2_MASTER.c **** 
  38:.\Generated_Source\PSoC5/I2C_2_MASTER.c **** 
  39:.\Generated_Source\PSoC5/I2C_2_MASTER.c **** /*******************************************************************************
  40:.\Generated_Source\PSoC5/I2C_2_MASTER.c **** * Function Name: I2C_2_MasterWriteBuf
  41:.\Generated_Source\PSoC5/I2C_2_MASTER.c **** ********************************************************************************
  42:.\Generated_Source\PSoC5/I2C_2_MASTER.c **** *
  43:.\Generated_Source\PSoC5/I2C_2_MASTER.c **** * Summary:
  44:.\Generated_Source\PSoC5/I2C_2_MASTER.c **** *  Automatically writes an entire buffer of data to a slave device. Once the
  45:.\Generated_Source\PSoC5/I2C_2_MASTER.c **** *  data transfer is initiated by this function, further data transfer is handled
  46:.\Generated_Source\PSoC5/I2C_2_MASTER.c **** *  by the included ISR in byte by byte mode.
  47:.\Generated_Source\PSoC5/I2C_2_MASTER.c **** *
  48:.\Generated_Source\PSoC5/I2C_2_MASTER.c **** * Parameters:
  49:.\Generated_Source\PSoC5/I2C_2_MASTER.c **** *  slaveAddr: 7-bit slave address.
  50:.\Generated_Source\PSoC5/I2C_2_MASTER.c **** *  xferData:  Pointer to buffer of data to be sent.
  51:.\Generated_Source\PSoC5/I2C_2_MASTER.c **** *  cnt:       Size of buffer to send.
  52:.\Generated_Source\PSoC5/I2C_2_MASTER.c **** *  mode:      Transfer mode defines: start or restart condition generation at
  53:.\Generated_Source\PSoC5/I2C_2_MASTER.c **** *             begin of the transfer and complete the transfer or halt before
  54:.\Generated_Source\PSoC5/I2C_2_MASTER.c **** *             generating a stop.
  55:.\Generated_Source\PSoC5/I2C_2_MASTER.c **** *
  56:.\Generated_Source\PSoC5/I2C_2_MASTER.c **** * Return:
  57:.\Generated_Source\PSoC5/I2C_2_MASTER.c **** *  Status error - zero means no errors.
  58:.\Generated_Source\PSoC5/I2C_2_MASTER.c **** *
  59:.\Generated_Source\PSoC5/I2C_2_MASTER.c **** * Side Effects:
  60:.\Generated_Source\PSoC5/I2C_2_MASTER.c **** *  The included ISR will start transfer after start or restart condition will
  61:.\Generated_Source\PSoC5/I2C_2_MASTER.c **** *  be generated.
  62:.\Generated_Source\PSoC5/I2C_2_MASTER.c **** *
  63:.\Generated_Source\PSoC5/I2C_2_MASTER.c **** * Global variables:
  64:.\Generated_Source\PSoC5/I2C_2_MASTER.c **** *  I2C_2_mstrStatus  - used to store current status of I2C Master.
  65:.\Generated_Source\PSoC5/I2C_2_MASTER.c **** *  I2C_2_state       - used to store current state of software FSM.
  66:.\Generated_Source\PSoC5/I2C_2_MASTER.c **** *  I2C_2_mstrControl - used to control master end of transaction with
  67:.\Generated_Source\PSoC5/I2C_2_MASTER.c **** *  or without the Stop generation.
  68:.\Generated_Source\PSoC5/I2C_2_MASTER.c **** *  I2C_2_mstrWrBufPtr - used to store pointer to master write buffer.
  69:.\Generated_Source\PSoC5/I2C_2_MASTER.c **** *  I2C_2_mstrWrBufIndex - used to current index within master write
  70:.\Generated_Source\PSoC5/I2C_2_MASTER.c **** *  buffer.
  71:.\Generated_Source\PSoC5/I2C_2_MASTER.c **** *  I2C_2_mstrWrBufSize - used to store master write buffer size.
  72:.\Generated_Source\PSoC5/I2C_2_MASTER.c **** *
  73:.\Generated_Source\PSoC5/I2C_2_MASTER.c **** * Reentrant:
  74:.\Generated_Source\PSoC5/I2C_2_MASTER.c **** *  No
  75:.\Generated_Source\PSoC5/I2C_2_MASTER.c **** *
  76:.\Generated_Source\PSoC5/I2C_2_MASTER.c **** *******************************************************************************/
  77:.\Generated_Source\PSoC5/I2C_2_MASTER.c **** uint8 I2C_2_MasterWriteBuf(uint8 slaveAddress, uint8 * wrData, uint8 cnt, uint8 mode)
  78:.\Generated_Source\PSoC5/I2C_2_MASTER.c ****       
  79:.\Generated_Source\PSoC5/I2C_2_MASTER.c **** {
  35              		.loc 1 79 0
ARM GAS  C:\Users\dskyNote\AppData\Local\Temp\ccLkSjFG.s 			page 3


  36              		.cfi_startproc
  37              		@ args = 0, pretend = 0, frame = 16
  38              		@ frame_needed = 1, uses_anonymous_args = 0
  39              		@ link register save eliminated.
  40 0000 80B4     		push	{r7}
  41              		.cfi_def_cfa_offset 4
  42              		.cfi_offset 7, -4
  43 0002 85B0     		sub	sp, sp, #20
  44              		.cfi_def_cfa_offset 24
  45 0004 00AF     		add	r7, sp, #0
  46              		.cfi_def_cfa_register 7
  47 0006 3960     		str	r1, [r7]
  48 0008 0146     		mov	r1, r0
  49 000a F971     		strb	r1, [r7, #7]
  50 000c BA71     		strb	r2, [r7, #6]
  51 000e 7B71     		strb	r3, [r7, #5]
  80:.\Generated_Source\PSoC5/I2C_2_MASTER.c ****     uint8 errStatus;
  81:.\Generated_Source\PSoC5/I2C_2_MASTER.c **** 
  82:.\Generated_Source\PSoC5/I2C_2_MASTER.c ****     errStatus = I2C_2_MSTR_NOT_READY;
  52              		.loc 1 82 0
  53 0010 0223     		movs	r3, #2
  54 0012 FB73     		strb	r3, [r7, #15]
  83:.\Generated_Source\PSoC5/I2C_2_MASTER.c **** 
  84:.\Generated_Source\PSoC5/I2C_2_MASTER.c ****     if(NULL != wrData)
  55              		.loc 1 84 0
  56 0014 3B68     		ldr	r3, [r7]
  57 0016 002B     		cmp	r3, #0
  58 0018 57D0     		beq	.L2
  85:.\Generated_Source\PSoC5/I2C_2_MASTER.c ****     {
  86:.\Generated_Source\PSoC5/I2C_2_MASTER.c ****         /* Check I2C state before transfer: valid are IDLE or HALT */
  87:.\Generated_Source\PSoC5/I2C_2_MASTER.c ****         if(I2C_2_SM_IDLE == I2C_2_state)
  59              		.loc 1 87 0
  60 001a 2F4B     		ldr	r3, .L10
  61 001c 1B78     		ldrb	r3, [r3]
  62 001e DBB2     		uxtb	r3, r3
  63 0020 102B     		cmp	r3, #16
  64 0022 0CD1     		bne	.L3
  88:.\Generated_Source\PSoC5/I2C_2_MASTER.c ****         {
  89:.\Generated_Source\PSoC5/I2C_2_MASTER.c ****             /* Check if free: Master is ready to transaction */
  90:.\Generated_Source\PSoC5/I2C_2_MASTER.c ****             if(I2C_2_CHECK_BUS_FREE(I2C_2_MCSR_REG))
  65              		.loc 1 90 0
  66 0024 2D4B     		ldr	r3, .L10+4
  67 0026 1B78     		ldrb	r3, [r3]
  68 0028 DBB2     		uxtb	r3, r3
  69 002a 03F01003 		and	r3, r3, #16
  70 002e 002B     		cmp	r3, #0
  71 0030 02D1     		bne	.L4
  91:.\Generated_Source\PSoC5/I2C_2_MASTER.c ****             {
  92:.\Generated_Source\PSoC5/I2C_2_MASTER.c ****                 errStatus = I2C_2_MSTR_NO_ERROR;
  72              		.loc 1 92 0
  73 0032 0023     		movs	r3, #0
  74 0034 FB73     		strb	r3, [r7, #15]
  75 0036 14E0     		b	.L6
  76              	.L4:
  93:.\Generated_Source\PSoC5/I2C_2_MASTER.c ****             }
  94:.\Generated_Source\PSoC5/I2C_2_MASTER.c ****             else
  95:.\Generated_Source\PSoC5/I2C_2_MASTER.c ****             {
ARM GAS  C:\Users\dskyNote\AppData\Local\Temp\ccLkSjFG.s 			page 4


  96:.\Generated_Source\PSoC5/I2C_2_MASTER.c ****                 errStatus = I2C_2_MSTR_BUS_BUSY;
  77              		.loc 1 96 0
  78 0038 0123     		movs	r3, #1
  79 003a FB73     		strb	r3, [r7, #15]
  80 003c 11E0     		b	.L6
  81              	.L3:
  97:.\Generated_Source\PSoC5/I2C_2_MASTER.c ****             }
  98:.\Generated_Source\PSoC5/I2C_2_MASTER.c ****         }
  99:.\Generated_Source\PSoC5/I2C_2_MASTER.c ****         else if(I2C_2_SM_MSTR_HALT == I2C_2_state)
  82              		.loc 1 99 0
  83 003e 264B     		ldr	r3, .L10
  84 0040 1B78     		ldrb	r3, [r3]
  85 0042 DBB2     		uxtb	r3, r3
  86 0044 602B     		cmp	r3, #96
  87 0046 0CD1     		bne	.L6
 100:.\Generated_Source\PSoC5/I2C_2_MASTER.c ****         {
 101:.\Generated_Source\PSoC5/I2C_2_MASTER.c ****             errStatus = I2C_2_MSTR_NO_ERROR;
  88              		.loc 1 101 0
  89 0048 0023     		movs	r3, #0
  90 004a FB73     		strb	r3, [r7, #15]
 102:.\Generated_Source\PSoC5/I2C_2_MASTER.c **** 
 103:.\Generated_Source\PSoC5/I2C_2_MASTER.c ****             CyIntClearPending(I2C_2_ISR_NUMBER);
  91              		.loc 1 103 0
  92 004c 244B     		ldr	r3, .L10+8
  93 004e 0222     		movs	r2, #2
  94 0050 1A60     		str	r2, [r3]
 104:.\Generated_Source\PSoC5/I2C_2_MASTER.c ****             I2C_2_mstrStatus &= ((uint8) ~I2C_2_MSTAT_XFER_HALT);
  95              		.loc 1 104 0
  96 0052 244B     		ldr	r3, .L10+12
  97 0054 1B78     		ldrb	r3, [r3]
  98 0056 DBB2     		uxtb	r3, r3
  99 0058 23F00803 		bic	r3, r3, #8
 100 005c DAB2     		uxtb	r2, r3
 101 005e 214B     		ldr	r3, .L10+12
 102 0060 1A70     		strb	r2, [r3]
 103              	.L6:
 105:.\Generated_Source\PSoC5/I2C_2_MASTER.c ****         }
 106:.\Generated_Source\PSoC5/I2C_2_MASTER.c ****         else
 107:.\Generated_Source\PSoC5/I2C_2_MASTER.c ****         {
 108:.\Generated_Source\PSoC5/I2C_2_MASTER.c ****             /* errStatus = I2C_2_MSTR_NOT_READY was send before */
 109:.\Generated_Source\PSoC5/I2C_2_MASTER.c ****         }
 110:.\Generated_Source\PSoC5/I2C_2_MASTER.c **** 
 111:.\Generated_Source\PSoC5/I2C_2_MASTER.c ****         if(I2C_2_MSTR_NO_ERROR == errStatus)
 104              		.loc 1 111 0
 105 0062 FB7B     		ldrb	r3, [r7, #15]	@ zero_extendqisi2
 106 0064 002B     		cmp	r3, #0
 107 0066 30D1     		bne	.L2
 112:.\Generated_Source\PSoC5/I2C_2_MASTER.c ****         {
 113:.\Generated_Source\PSoC5/I2C_2_MASTER.c ****             I2C_2_state    = I2C_2_SM_MSTR_WR_ADDR;
 108              		.loc 1 113 0
 109 0068 1B4B     		ldr	r3, .L10
 110 006a 4522     		movs	r2, #69
 111 006c 1A70     		strb	r2, [r3]
 114:.\Generated_Source\PSoC5/I2C_2_MASTER.c ****             I2C_2_DATA_REG = ((uint8) (slaveAddress << I2C_2_SLAVE_ADDR_SHIFT));
 112              		.loc 1 114 0
 113 006e 1E4B     		ldr	r3, .L10+16
 114 0070 FA79     		ldrb	r2, [r7, #7]
ARM GAS  C:\Users\dskyNote\AppData\Local\Temp\ccLkSjFG.s 			page 5


 115 0072 5200     		lsls	r2, r2, #1
 116 0074 D2B2     		uxtb	r2, r2
 117 0076 1A70     		strb	r2, [r3]
 115:.\Generated_Source\PSoC5/I2C_2_MASTER.c **** 
 116:.\Generated_Source\PSoC5/I2C_2_MASTER.c ****             I2C_2_mstrWrBufIndex = 0u;
 118              		.loc 1 116 0
 119 0078 1C4B     		ldr	r3, .L10+20
 120 007a 0022     		movs	r2, #0
 121 007c 1A70     		strb	r2, [r3]
 117:.\Generated_Source\PSoC5/I2C_2_MASTER.c ****             I2C_2_mstrWrBufSize  = cnt;
 122              		.loc 1 117 0
 123 007e 1C4B     		ldr	r3, .L10+24
 124 0080 BA79     		ldrb	r2, [r7, #6]
 125 0082 1A70     		strb	r2, [r3]
 118:.\Generated_Source\PSoC5/I2C_2_MASTER.c ****             I2C_2_mstrWrBufPtr   = (volatile uint8 *) wrData;
 126              		.loc 1 118 0
 127 0084 1B4B     		ldr	r3, .L10+28
 128 0086 3A68     		ldr	r2, [r7]
 129 0088 1A60     		str	r2, [r3]
 119:.\Generated_Source\PSoC5/I2C_2_MASTER.c **** 
 120:.\Generated_Source\PSoC5/I2C_2_MASTER.c ****             I2C_2_mstrControl = mode;    /* Save transaction mode */
 130              		.loc 1 120 0
 131 008a 1B4B     		ldr	r3, .L10+32
 132 008c 7A79     		ldrb	r2, [r7, #5]
 133 008e 1A70     		strb	r2, [r3]
 121:.\Generated_Source\PSoC5/I2C_2_MASTER.c **** 
 122:.\Generated_Source\PSoC5/I2C_2_MASTER.c ****             /* Generate a Start or ReStart depends on mode */
 123:.\Generated_Source\PSoC5/I2C_2_MASTER.c ****             if(I2C_2_CHECK_RESTART(mode))
 134              		.loc 1 123 0
 135 0090 7B79     		ldrb	r3, [r7, #5]	@ zero_extendqisi2
 136 0092 03F00103 		and	r3, r3, #1
 137 0096 002B     		cmp	r3, #0
 138 0098 06D0     		beq	.L7
 124:.\Generated_Source\PSoC5/I2C_2_MASTER.c ****             {
 125:.\Generated_Source\PSoC5/I2C_2_MASTER.c ****                 I2C_2_GENERATE_RESTART;
 139              		.loc 1 125 0
 140 009a 184B     		ldr	r3, .L10+36
 141 009c 3222     		movs	r2, #50
 142 009e 1A70     		strb	r2, [r3]
 143 00a0 174B     		ldr	r3, .L10+40
 144 00a2 0022     		movs	r2, #0
 145 00a4 1A70     		strb	r2, [r3]
 146 00a6 05E0     		b	.L8
 147              	.L7:
 126:.\Generated_Source\PSoC5/I2C_2_MASTER.c ****             }
 127:.\Generated_Source\PSoC5/I2C_2_MASTER.c ****             else
 128:.\Generated_Source\PSoC5/I2C_2_MASTER.c ****             {
 129:.\Generated_Source\PSoC5/I2C_2_MASTER.c ****                 I2C_2_GENERATE_START;
 148              		.loc 1 129 0
 149 00a8 144B     		ldr	r3, .L10+36
 150 00aa 8222     		movs	r2, #130
 151 00ac 1A70     		strb	r2, [r3]
 152 00ae 144B     		ldr	r3, .L10+40
 153 00b0 0022     		movs	r2, #0
 154 00b2 1A70     		strb	r2, [r3]
 155              	.L8:
 130:.\Generated_Source\PSoC5/I2C_2_MASTER.c ****             }
ARM GAS  C:\Users\dskyNote\AppData\Local\Temp\ccLkSjFG.s 			page 6


 131:.\Generated_Source\PSoC5/I2C_2_MASTER.c **** 
 132:.\Generated_Source\PSoC5/I2C_2_MASTER.c ****             I2C_2_mstrStatus &= ((uint8) ~I2C_2_MSTAT_WR_CMPLT);
 156              		.loc 1 132 0
 157 00b4 0B4B     		ldr	r3, .L10+12
 158 00b6 1B78     		ldrb	r3, [r3]
 159 00b8 DBB2     		uxtb	r3, r3
 160 00ba 23F00203 		bic	r3, r3, #2
 161 00be DAB2     		uxtb	r2, r3
 162 00c0 084B     		ldr	r3, .L10+12
 163 00c2 1A70     		strb	r2, [r3]
 133:.\Generated_Source\PSoC5/I2C_2_MASTER.c **** 
 134:.\Generated_Source\PSoC5/I2C_2_MASTER.c ****             I2C_2_EnableInt();   /* Enable intr to complete transfer */
 164              		.loc 1 134 0
 165 00c4 0F4B     		ldr	r3, .L10+44
 166 00c6 0222     		movs	r2, #2
 167 00c8 1A60     		str	r2, [r3]
 168              	.L2:
 135:.\Generated_Source\PSoC5/I2C_2_MASTER.c ****         }
 136:.\Generated_Source\PSoC5/I2C_2_MASTER.c ****     }
 137:.\Generated_Source\PSoC5/I2C_2_MASTER.c **** 
 138:.\Generated_Source\PSoC5/I2C_2_MASTER.c ****     return(errStatus);
 169              		.loc 1 138 0
 170 00ca FB7B     		ldrb	r3, [r7, #15]	@ zero_extendqisi2
 139:.\Generated_Source\PSoC5/I2C_2_MASTER.c **** }
 171              		.loc 1 139 0
 172 00cc 1846     		mov	r0, r3
 173 00ce 1437     		adds	r7, r7, #20
 174 00d0 BD46     		mov	sp, r7
 175              		@ sp needed
 176 00d2 5DF8047B 		ldr	r7, [sp], #4
 177 00d6 7047     		bx	lr
 178              	.L11:
 179              		.align	2
 180              	.L10:
 181 00d8 00000000 		.word	I2C_2_state
 182 00dc 68640040 		.word	1073767528
 183 00e0 80E200E0 		.word	-536812928
 184 00e4 00000000 		.word	I2C_2_mstrStatus
 185 00e8 09650040 		.word	1073767689
 186 00ec 00000000 		.word	I2C_2_mstrWrBufIndex
 187 00f0 00000000 		.word	I2C_2_mstrWrBufSize
 188 00f4 00000000 		.word	I2C_2_mstrWrBufPtr
 189 00f8 00000000 		.word	I2C_2_mstrControl
 190 00fc 79650040 		.word	1073767801
 191 0100 59650040 		.word	1073767769
 192 0104 00E100E0 		.word	-536813312
 193              		.cfi_endproc
 194              	.LFE0:
 195              		.size	I2C_2_MasterWriteBuf, .-I2C_2_MasterWriteBuf
 196              		.section	.text.I2C_2_MasterReadBuf,"ax",%progbits
 197              		.align	2
 198              		.global	I2C_2_MasterReadBuf
 199              		.thumb
 200              		.thumb_func
 201              		.type	I2C_2_MasterReadBuf, %function
 202              	I2C_2_MasterReadBuf:
 203              	.LFB1:
ARM GAS  C:\Users\dskyNote\AppData\Local\Temp\ccLkSjFG.s 			page 7


 140:.\Generated_Source\PSoC5/I2C_2_MASTER.c **** 
 141:.\Generated_Source\PSoC5/I2C_2_MASTER.c **** 
 142:.\Generated_Source\PSoC5/I2C_2_MASTER.c **** /*******************************************************************************
 143:.\Generated_Source\PSoC5/I2C_2_MASTER.c **** * Function Name: I2C_2_MasterReadBuf
 144:.\Generated_Source\PSoC5/I2C_2_MASTER.c **** ********************************************************************************
 145:.\Generated_Source\PSoC5/I2C_2_MASTER.c **** *
 146:.\Generated_Source\PSoC5/I2C_2_MASTER.c **** * Summary:
 147:.\Generated_Source\PSoC5/I2C_2_MASTER.c **** *  Automatically writes an entire buffer of data to a slave device. Once the
 148:.\Generated_Source\PSoC5/I2C_2_MASTER.c **** *  data transfer is initiated by this function, further data transfer is handled
 149:.\Generated_Source\PSoC5/I2C_2_MASTER.c **** *  by the included ISR in byte by byte mode.
 150:.\Generated_Source\PSoC5/I2C_2_MASTER.c **** *
 151:.\Generated_Source\PSoC5/I2C_2_MASTER.c **** * Parameters:
 152:.\Generated_Source\PSoC5/I2C_2_MASTER.c **** *  slaveAddr: 7-bit slave address.
 153:.\Generated_Source\PSoC5/I2C_2_MASTER.c **** *  xferData:  Pointer to buffer where to put data from slave.
 154:.\Generated_Source\PSoC5/I2C_2_MASTER.c **** *  cnt:       Size of buffer to read.
 155:.\Generated_Source\PSoC5/I2C_2_MASTER.c **** *  mode:      Transfer mode defines: start or restart condition generation at
 156:.\Generated_Source\PSoC5/I2C_2_MASTER.c **** *             begin of the transfer and complete the transfer or halt before
 157:.\Generated_Source\PSoC5/I2C_2_MASTER.c **** *             generating a stop.
 158:.\Generated_Source\PSoC5/I2C_2_MASTER.c **** *
 159:.\Generated_Source\PSoC5/I2C_2_MASTER.c **** * Return:
 160:.\Generated_Source\PSoC5/I2C_2_MASTER.c **** *  Status error - zero means no errors.
 161:.\Generated_Source\PSoC5/I2C_2_MASTER.c **** *
 162:.\Generated_Source\PSoC5/I2C_2_MASTER.c **** * Side Effects:
 163:.\Generated_Source\PSoC5/I2C_2_MASTER.c **** *  The included ISR will start transfer after start or restart condition will
 164:.\Generated_Source\PSoC5/I2C_2_MASTER.c **** *  be generated.
 165:.\Generated_Source\PSoC5/I2C_2_MASTER.c **** *
 166:.\Generated_Source\PSoC5/I2C_2_MASTER.c **** * Global variables:
 167:.\Generated_Source\PSoC5/I2C_2_MASTER.c **** *  I2C_2_mstrStatus  - used to store current status of I2C Master.
 168:.\Generated_Source\PSoC5/I2C_2_MASTER.c **** *  I2C_2_state       - used to store current state of software FSM.
 169:.\Generated_Source\PSoC5/I2C_2_MASTER.c **** *  I2C_2_mstrControl - used to control master end of transaction with
 170:.\Generated_Source\PSoC5/I2C_2_MASTER.c **** *  or without the Stop generation.
 171:.\Generated_Source\PSoC5/I2C_2_MASTER.c **** *  I2C_2_mstrRdBufPtr - used to store pointer to master write buffer.
 172:.\Generated_Source\PSoC5/I2C_2_MASTER.c **** *  I2C_2_mstrRdBufIndex - used to current index within master write
 173:.\Generated_Source\PSoC5/I2C_2_MASTER.c **** *  buffer.
 174:.\Generated_Source\PSoC5/I2C_2_MASTER.c **** *  I2C_2_mstrRdBufSize - used to store master write buffer size.
 175:.\Generated_Source\PSoC5/I2C_2_MASTER.c **** *
 176:.\Generated_Source\PSoC5/I2C_2_MASTER.c **** * Reentrant:
 177:.\Generated_Source\PSoC5/I2C_2_MASTER.c **** *  No
 178:.\Generated_Source\PSoC5/I2C_2_MASTER.c **** *
 179:.\Generated_Source\PSoC5/I2C_2_MASTER.c **** *******************************************************************************/
 180:.\Generated_Source\PSoC5/I2C_2_MASTER.c **** uint8 I2C_2_MasterReadBuf(uint8 slaveAddress, uint8 * rdData, uint8 cnt, uint8 mode)
 181:.\Generated_Source\PSoC5/I2C_2_MASTER.c ****       
 182:.\Generated_Source\PSoC5/I2C_2_MASTER.c **** {
 204              		.loc 1 182 0
 205              		.cfi_startproc
 206              		@ args = 0, pretend = 0, frame = 16
 207              		@ frame_needed = 1, uses_anonymous_args = 0
 208              		@ link register save eliminated.
 209 0000 80B4     		push	{r7}
 210              		.cfi_def_cfa_offset 4
 211              		.cfi_offset 7, -4
 212 0002 85B0     		sub	sp, sp, #20
 213              		.cfi_def_cfa_offset 24
 214 0004 00AF     		add	r7, sp, #0
 215              		.cfi_def_cfa_register 7
 216 0006 3960     		str	r1, [r7]
 217 0008 0146     		mov	r1, r0
ARM GAS  C:\Users\dskyNote\AppData\Local\Temp\ccLkSjFG.s 			page 8


 218 000a F971     		strb	r1, [r7, #7]
 219 000c BA71     		strb	r2, [r7, #6]
 220 000e 7B71     		strb	r3, [r7, #5]
 183:.\Generated_Source\PSoC5/I2C_2_MASTER.c ****     uint8 errStatus;
 184:.\Generated_Source\PSoC5/I2C_2_MASTER.c **** 
 185:.\Generated_Source\PSoC5/I2C_2_MASTER.c ****     errStatus = I2C_2_MSTR_NOT_READY;
 221              		.loc 1 185 0
 222 0010 0223     		movs	r3, #2
 223 0012 FB73     		strb	r3, [r7, #15]
 186:.\Generated_Source\PSoC5/I2C_2_MASTER.c **** 
 187:.\Generated_Source\PSoC5/I2C_2_MASTER.c ****     if(NULL != rdData)
 224              		.loc 1 187 0
 225 0014 3B68     		ldr	r3, [r7]
 226 0016 002B     		cmp	r3, #0
 227 0018 5AD0     		beq	.L13
 188:.\Generated_Source\PSoC5/I2C_2_MASTER.c ****     {
 189:.\Generated_Source\PSoC5/I2C_2_MASTER.c ****         /* Check I2C state before transfer: valid are IDLE or HALT */
 190:.\Generated_Source\PSoC5/I2C_2_MASTER.c ****         if(I2C_2_SM_IDLE == I2C_2_state)
 228              		.loc 1 190 0
 229 001a 314B     		ldr	r3, .L21
 230 001c 1B78     		ldrb	r3, [r3]
 231 001e DBB2     		uxtb	r3, r3
 232 0020 102B     		cmp	r3, #16
 233 0022 0CD1     		bne	.L14
 191:.\Generated_Source\PSoC5/I2C_2_MASTER.c ****         {
 192:.\Generated_Source\PSoC5/I2C_2_MASTER.c ****             /* Check if free: Master is ready to transaction */
 193:.\Generated_Source\PSoC5/I2C_2_MASTER.c ****             if(I2C_2_CHECK_BUS_FREE(I2C_2_MCSR_REG))
 234              		.loc 1 193 0
 235 0024 2F4B     		ldr	r3, .L21+4
 236 0026 1B78     		ldrb	r3, [r3]
 237 0028 DBB2     		uxtb	r3, r3
 238 002a 03F01003 		and	r3, r3, #16
 239 002e 002B     		cmp	r3, #0
 240 0030 02D1     		bne	.L15
 194:.\Generated_Source\PSoC5/I2C_2_MASTER.c ****             {
 195:.\Generated_Source\PSoC5/I2C_2_MASTER.c ****                 errStatus = I2C_2_MSTR_NO_ERROR;
 241              		.loc 1 195 0
 242 0032 0023     		movs	r3, #0
 243 0034 FB73     		strb	r3, [r7, #15]
 244 0036 14E0     		b	.L17
 245              	.L15:
 196:.\Generated_Source\PSoC5/I2C_2_MASTER.c ****             }
 197:.\Generated_Source\PSoC5/I2C_2_MASTER.c ****             else
 198:.\Generated_Source\PSoC5/I2C_2_MASTER.c ****             {
 199:.\Generated_Source\PSoC5/I2C_2_MASTER.c ****                 errStatus = I2C_2_MSTR_BUS_BUSY;
 246              		.loc 1 199 0
 247 0038 0123     		movs	r3, #1
 248 003a FB73     		strb	r3, [r7, #15]
 249 003c 11E0     		b	.L17
 250              	.L14:
 200:.\Generated_Source\PSoC5/I2C_2_MASTER.c ****             }
 201:.\Generated_Source\PSoC5/I2C_2_MASTER.c ****         }
 202:.\Generated_Source\PSoC5/I2C_2_MASTER.c ****         else if(I2C_2_SM_MSTR_HALT == I2C_2_state)
 251              		.loc 1 202 0
 252 003e 284B     		ldr	r3, .L21
 253 0040 1B78     		ldrb	r3, [r3]
 254 0042 DBB2     		uxtb	r3, r3
ARM GAS  C:\Users\dskyNote\AppData\Local\Temp\ccLkSjFG.s 			page 9


 255 0044 602B     		cmp	r3, #96
 256 0046 0CD1     		bne	.L17
 203:.\Generated_Source\PSoC5/I2C_2_MASTER.c ****         {
 204:.\Generated_Source\PSoC5/I2C_2_MASTER.c ****             errStatus = I2C_2_MSTR_NO_ERROR;
 257              		.loc 1 204 0
 258 0048 0023     		movs	r3, #0
 259 004a FB73     		strb	r3, [r7, #15]
 205:.\Generated_Source\PSoC5/I2C_2_MASTER.c **** 
 206:.\Generated_Source\PSoC5/I2C_2_MASTER.c ****             CyIntClearPending(I2C_2_ISR_NUMBER);
 260              		.loc 1 206 0
 261 004c 264B     		ldr	r3, .L21+8
 262 004e 0222     		movs	r2, #2
 263 0050 1A60     		str	r2, [r3]
 207:.\Generated_Source\PSoC5/I2C_2_MASTER.c ****             I2C_2_mstrStatus &= ((uint8) ~I2C_2_MSTAT_XFER_HALT);
 264              		.loc 1 207 0
 265 0052 264B     		ldr	r3, .L21+12
 266 0054 1B78     		ldrb	r3, [r3]
 267 0056 DBB2     		uxtb	r3, r3
 268 0058 23F00803 		bic	r3, r3, #8
 269 005c DAB2     		uxtb	r2, r3
 270 005e 234B     		ldr	r3, .L21+12
 271 0060 1A70     		strb	r2, [r3]
 272              	.L17:
 208:.\Generated_Source\PSoC5/I2C_2_MASTER.c ****         }
 209:.\Generated_Source\PSoC5/I2C_2_MASTER.c ****         else
 210:.\Generated_Source\PSoC5/I2C_2_MASTER.c ****         {
 211:.\Generated_Source\PSoC5/I2C_2_MASTER.c ****             /* errStatus = I2C_2_MSTR_NOT_READY was send before */
 212:.\Generated_Source\PSoC5/I2C_2_MASTER.c ****         }
 213:.\Generated_Source\PSoC5/I2C_2_MASTER.c **** 
 214:.\Generated_Source\PSoC5/I2C_2_MASTER.c ****         if(I2C_2_MSTR_NO_ERROR == errStatus)
 273              		.loc 1 214 0
 274 0062 FB7B     		ldrb	r3, [r7, #15]	@ zero_extendqisi2
 275 0064 002B     		cmp	r3, #0
 276 0066 33D1     		bne	.L13
 215:.\Generated_Source\PSoC5/I2C_2_MASTER.c ****         {
 216:.\Generated_Source\PSoC5/I2C_2_MASTER.c ****             I2C_2_state    = I2C_2_SM_MSTR_RD_ADDR;
 277              		.loc 1 216 0
 278 0068 1D4B     		ldr	r3, .L21
 279 006a 4922     		movs	r2, #73
 280 006c 1A70     		strb	r2, [r3]
 217:.\Generated_Source\PSoC5/I2C_2_MASTER.c ****             I2C_2_DATA_REG = (((uint8) (slaveAddress << I2C_2_SLAVE_ADDR_SHIFT)) |
 281              		.loc 1 217 0
 282 006e 204B     		ldr	r3, .L21+16
 283 0070 FA79     		ldrb	r2, [r7, #7]
 284 0072 5200     		lsls	r2, r2, #1
 285 0074 D2B2     		uxtb	r2, r2
 286 0076 42F00102 		orr	r2, r2, #1
 287 007a D2B2     		uxtb	r2, r2
 288 007c 1A70     		strb	r2, [r3]
 218:.\Generated_Source\PSoC5/I2C_2_MASTER.c ****                                                    I2C_2_READ_FLAG);
 219:.\Generated_Source\PSoC5/I2C_2_MASTER.c **** 
 220:.\Generated_Source\PSoC5/I2C_2_MASTER.c ****             I2C_2_mstrRdBufIndex  = 0u;
 289              		.loc 1 220 0
 290 007e 1D4B     		ldr	r3, .L21+20
 291 0080 0022     		movs	r2, #0
 292 0082 1A70     		strb	r2, [r3]
 221:.\Generated_Source\PSoC5/I2C_2_MASTER.c ****             I2C_2_mstrRdBufSize   = cnt;
ARM GAS  C:\Users\dskyNote\AppData\Local\Temp\ccLkSjFG.s 			page 10


 293              		.loc 1 221 0
 294 0084 1C4B     		ldr	r3, .L21+24
 295 0086 BA79     		ldrb	r2, [r7, #6]
 296 0088 1A70     		strb	r2, [r3]
 222:.\Generated_Source\PSoC5/I2C_2_MASTER.c ****             I2C_2_mstrRdBufPtr    = (volatile uint8 *) rdData;
 297              		.loc 1 222 0
 298 008a 1C4B     		ldr	r3, .L21+28
 299 008c 3A68     		ldr	r2, [r7]
 300 008e 1A60     		str	r2, [r3]
 223:.\Generated_Source\PSoC5/I2C_2_MASTER.c **** 
 224:.\Generated_Source\PSoC5/I2C_2_MASTER.c ****             I2C_2_mstrControl = mode;    /* Save transaction mode */
 301              		.loc 1 224 0
 302 0090 1B4B     		ldr	r3, .L21+32
 303 0092 7A79     		ldrb	r2, [r7, #5]
 304 0094 1A70     		strb	r2, [r3]
 225:.\Generated_Source\PSoC5/I2C_2_MASTER.c **** 
 226:.\Generated_Source\PSoC5/I2C_2_MASTER.c ****             /* Generate a Start or ReStart depends on mode */
 227:.\Generated_Source\PSoC5/I2C_2_MASTER.c ****             if(I2C_2_CHECK_RESTART(mode))
 305              		.loc 1 227 0
 306 0096 7B79     		ldrb	r3, [r7, #5]	@ zero_extendqisi2
 307 0098 03F00103 		and	r3, r3, #1
 308 009c 002B     		cmp	r3, #0
 309 009e 06D0     		beq	.L18
 228:.\Generated_Source\PSoC5/I2C_2_MASTER.c ****             {
 229:.\Generated_Source\PSoC5/I2C_2_MASTER.c ****                 I2C_2_GENERATE_RESTART;
 310              		.loc 1 229 0
 311 00a0 184B     		ldr	r3, .L21+36
 312 00a2 3222     		movs	r2, #50
 313 00a4 1A70     		strb	r2, [r3]
 314 00a6 184B     		ldr	r3, .L21+40
 315 00a8 0022     		movs	r2, #0
 316 00aa 1A70     		strb	r2, [r3]
 317 00ac 05E0     		b	.L19
 318              	.L18:
 230:.\Generated_Source\PSoC5/I2C_2_MASTER.c ****             }
 231:.\Generated_Source\PSoC5/I2C_2_MASTER.c ****             else
 232:.\Generated_Source\PSoC5/I2C_2_MASTER.c ****             {
 233:.\Generated_Source\PSoC5/I2C_2_MASTER.c ****                 I2C_2_GENERATE_START;
 319              		.loc 1 233 0
 320 00ae 154B     		ldr	r3, .L21+36
 321 00b0 8222     		movs	r2, #130
 322 00b2 1A70     		strb	r2, [r3]
 323 00b4 144B     		ldr	r3, .L21+40
 324 00b6 0022     		movs	r2, #0
 325 00b8 1A70     		strb	r2, [r3]
 326              	.L19:
 234:.\Generated_Source\PSoC5/I2C_2_MASTER.c ****             }
 235:.\Generated_Source\PSoC5/I2C_2_MASTER.c **** 
 236:.\Generated_Source\PSoC5/I2C_2_MASTER.c ****             I2C_2_mstrStatus &= ((uint8) ~I2C_2_MSTAT_RD_CMPLT);
 327              		.loc 1 236 0
 328 00ba 0C4B     		ldr	r3, .L21+12
 329 00bc 1B78     		ldrb	r3, [r3]
 330 00be DBB2     		uxtb	r3, r3
 331 00c0 23F00103 		bic	r3, r3, #1
 332 00c4 DAB2     		uxtb	r2, r3
 333 00c6 094B     		ldr	r3, .L21+12
 334 00c8 1A70     		strb	r2, [r3]
ARM GAS  C:\Users\dskyNote\AppData\Local\Temp\ccLkSjFG.s 			page 11


 237:.\Generated_Source\PSoC5/I2C_2_MASTER.c **** 
 238:.\Generated_Source\PSoC5/I2C_2_MASTER.c ****             I2C_2_EnableInt();   /* Enable intr to complete transfer */
 335              		.loc 1 238 0
 336 00ca 104B     		ldr	r3, .L21+44
 337 00cc 0222     		movs	r2, #2
 338 00ce 1A60     		str	r2, [r3]
 339              	.L13:
 239:.\Generated_Source\PSoC5/I2C_2_MASTER.c ****         }
 240:.\Generated_Source\PSoC5/I2C_2_MASTER.c ****     }
 241:.\Generated_Source\PSoC5/I2C_2_MASTER.c **** 
 242:.\Generated_Source\PSoC5/I2C_2_MASTER.c ****     return(errStatus);
 340              		.loc 1 242 0
 341 00d0 FB7B     		ldrb	r3, [r7, #15]	@ zero_extendqisi2
 243:.\Generated_Source\PSoC5/I2C_2_MASTER.c **** }
 342              		.loc 1 243 0
 343 00d2 1846     		mov	r0, r3
 344 00d4 1437     		adds	r7, r7, #20
 345 00d6 BD46     		mov	sp, r7
 346              		@ sp needed
 347 00d8 5DF8047B 		ldr	r7, [sp], #4
 348 00dc 7047     		bx	lr
 349              	.L22:
 350 00de 00BF     		.align	2
 351              	.L21:
 352 00e0 00000000 		.word	I2C_2_state
 353 00e4 68640040 		.word	1073767528
 354 00e8 80E200E0 		.word	-536812928
 355 00ec 00000000 		.word	I2C_2_mstrStatus
 356 00f0 09650040 		.word	1073767689
 357 00f4 00000000 		.word	I2C_2_mstrRdBufIndex
 358 00f8 00000000 		.word	I2C_2_mstrRdBufSize
 359 00fc 00000000 		.word	I2C_2_mstrRdBufPtr
 360 0100 00000000 		.word	I2C_2_mstrControl
 361 0104 79650040 		.word	1073767801
 362 0108 59650040 		.word	1073767769
 363 010c 00E100E0 		.word	-536813312
 364              		.cfi_endproc
 365              	.LFE1:
 366              		.size	I2C_2_MasterReadBuf, .-I2C_2_MasterReadBuf
 367              		.section	.text.I2C_2_MasterSendStart,"ax",%progbits
 368              		.align	2
 369              		.global	I2C_2_MasterSendStart
 370              		.thumb
 371              		.thumb_func
 372              		.type	I2C_2_MasterSendStart, %function
 373              	I2C_2_MasterSendStart:
 374              	.LFB2:
 244:.\Generated_Source\PSoC5/I2C_2_MASTER.c **** 
 245:.\Generated_Source\PSoC5/I2C_2_MASTER.c **** 
 246:.\Generated_Source\PSoC5/I2C_2_MASTER.c **** /*******************************************************************************
 247:.\Generated_Source\PSoC5/I2C_2_MASTER.c **** * Function Name: I2C_2_MasterSendStart
 248:.\Generated_Source\PSoC5/I2C_2_MASTER.c **** ********************************************************************************
 249:.\Generated_Source\PSoC5/I2C_2_MASTER.c **** *
 250:.\Generated_Source\PSoC5/I2C_2_MASTER.c **** * Summary:
 251:.\Generated_Source\PSoC5/I2C_2_MASTER.c **** *  Generates Start condition and sends slave address with read/write bit.
 252:.\Generated_Source\PSoC5/I2C_2_MASTER.c **** *
 253:.\Generated_Source\PSoC5/I2C_2_MASTER.c **** * Parameters:
ARM GAS  C:\Users\dskyNote\AppData\Local\Temp\ccLkSjFG.s 			page 12


 254:.\Generated_Source\PSoC5/I2C_2_MASTER.c **** *  slaveAddress:  7-bit slave address.
 255:.\Generated_Source\PSoC5/I2C_2_MASTER.c **** *  R_nW:          Zero, send write command, non-zero send read command.
 256:.\Generated_Source\PSoC5/I2C_2_MASTER.c **** *
 257:.\Generated_Source\PSoC5/I2C_2_MASTER.c **** * Return:
 258:.\Generated_Source\PSoC5/I2C_2_MASTER.c **** *  Status error - zero means no errors.
 259:.\Generated_Source\PSoC5/I2C_2_MASTER.c **** *
 260:.\Generated_Source\PSoC5/I2C_2_MASTER.c **** * Side Effects:
 261:.\Generated_Source\PSoC5/I2C_2_MASTER.c **** *  This function is entered without a 'byte complete' bit set in the I2C_CSR
 262:.\Generated_Source\PSoC5/I2C_2_MASTER.c **** *  register. It does not exit until it will be set.
 263:.\Generated_Source\PSoC5/I2C_2_MASTER.c **** *
 264:.\Generated_Source\PSoC5/I2C_2_MASTER.c **** * Global variables:
 265:.\Generated_Source\PSoC5/I2C_2_MASTER.c **** *  I2C_2_state - used to store current state of software FSM.
 266:.\Generated_Source\PSoC5/I2C_2_MASTER.c **** *
 267:.\Generated_Source\PSoC5/I2C_2_MASTER.c **** * Reentrant:
 268:.\Generated_Source\PSoC5/I2C_2_MASTER.c **** *  No
 269:.\Generated_Source\PSoC5/I2C_2_MASTER.c **** *
 270:.\Generated_Source\PSoC5/I2C_2_MASTER.c **** *******************************************************************************/
 271:.\Generated_Source\PSoC5/I2C_2_MASTER.c **** uint8 I2C_2_MasterSendStart(uint8 slaveAddress, uint8 R_nW)
 272:.\Generated_Source\PSoC5/I2C_2_MASTER.c ****       
 273:.\Generated_Source\PSoC5/I2C_2_MASTER.c **** {
 375              		.loc 1 273 0
 376              		.cfi_startproc
 377              		@ args = 0, pretend = 0, frame = 16
 378              		@ frame_needed = 1, uses_anonymous_args = 0
 379              		@ link register save eliminated.
 380 0000 80B4     		push	{r7}
 381              		.cfi_def_cfa_offset 4
 382              		.cfi_offset 7, -4
 383 0002 85B0     		sub	sp, sp, #20
 384              		.cfi_def_cfa_offset 24
 385 0004 00AF     		add	r7, sp, #0
 386              		.cfi_def_cfa_register 7
 387 0006 0246     		mov	r2, r0
 388 0008 0B46     		mov	r3, r1
 389 000a FA71     		strb	r2, [r7, #7]
 390 000c BB71     		strb	r3, [r7, #6]
 274:.\Generated_Source\PSoC5/I2C_2_MASTER.c ****     uint8 errStatus;
 275:.\Generated_Source\PSoC5/I2C_2_MASTER.c **** 
 276:.\Generated_Source\PSoC5/I2C_2_MASTER.c ****     errStatus = I2C_2_MSTR_NOT_READY;
 391              		.loc 1 276 0
 392 000e 0223     		movs	r3, #2
 393 0010 FB73     		strb	r3, [r7, #15]
 277:.\Generated_Source\PSoC5/I2C_2_MASTER.c **** 
 278:.\Generated_Source\PSoC5/I2C_2_MASTER.c ****     /* If IDLE, check if bus is free */
 279:.\Generated_Source\PSoC5/I2C_2_MASTER.c ****     if(I2C_2_SM_IDLE == I2C_2_state)
 394              		.loc 1 279 0
 395 0012 254B     		ldr	r3, .L32
 396 0014 1B78     		ldrb	r3, [r3]
 397 0016 DBB2     		uxtb	r3, r3
 398 0018 102B     		cmp	r3, #16
 399 001a 3ED1     		bne	.L24
 280:.\Generated_Source\PSoC5/I2C_2_MASTER.c ****     {
 281:.\Generated_Source\PSoC5/I2C_2_MASTER.c ****         /* If bus is free, generate Start condition */
 282:.\Generated_Source\PSoC5/I2C_2_MASTER.c ****         if(I2C_2_CHECK_BUS_FREE(I2C_2_MCSR_REG))
 400              		.loc 1 282 0
 401 001c 234B     		ldr	r3, .L32+4
 402 001e 1B78     		ldrb	r3, [r3]
ARM GAS  C:\Users\dskyNote\AppData\Local\Temp\ccLkSjFG.s 			page 13


 403 0020 DBB2     		uxtb	r3, r3
 404 0022 03F01003 		and	r3, r3, #16
 405 0026 002B     		cmp	r3, #0
 406 0028 35D1     		bne	.L25
 283:.\Generated_Source\PSoC5/I2C_2_MASTER.c ****         {
 284:.\Generated_Source\PSoC5/I2C_2_MASTER.c ****             I2C_2_DisableInt();  /* Disable ISR for Manual functions */
 407              		.loc 1 284 0
 408 002a 214B     		ldr	r3, .L32+8
 409 002c 0222     		movs	r2, #2
 410 002e 1A60     		str	r2, [r3]
 285:.\Generated_Source\PSoC5/I2C_2_MASTER.c **** 
 286:.\Generated_Source\PSoC5/I2C_2_MASTER.c ****             slaveAddress = ((uint8) (slaveAddress << I2C_2_SLAVE_ADDR_SHIFT)); /* Set Address */
 411              		.loc 1 286 0
 412 0030 FB79     		ldrb	r3, [r7, #7]
 413 0032 5B00     		lsls	r3, r3, #1
 414 0034 FB71     		strb	r3, [r7, #7]
 287:.\Generated_Source\PSoC5/I2C_2_MASTER.c ****             if(0u != R_nW)                                      /* Set the Read/Write flag */
 415              		.loc 1 287 0
 416 0036 BB79     		ldrb	r3, [r7, #6]	@ zero_extendqisi2
 417 0038 002B     		cmp	r3, #0
 418 003a 07D0     		beq	.L26
 288:.\Generated_Source\PSoC5/I2C_2_MASTER.c ****             {
 289:.\Generated_Source\PSoC5/I2C_2_MASTER.c ****                 slaveAddress |= I2C_2_READ_FLAG;
 419              		.loc 1 289 0
 420 003c FB79     		ldrb	r3, [r7, #7]
 421 003e 43F00103 		orr	r3, r3, #1
 422 0042 FB71     		strb	r3, [r7, #7]
 290:.\Generated_Source\PSoC5/I2C_2_MASTER.c ****                 I2C_2_state = I2C_2_SM_MSTR_RD_ADDR;
 423              		.loc 1 290 0
 424 0044 184B     		ldr	r3, .L32
 425 0046 4922     		movs	r2, #73
 426 0048 1A70     		strb	r2, [r3]
 427 004a 02E0     		b	.L27
 428              	.L26:
 291:.\Generated_Source\PSoC5/I2C_2_MASTER.c ****             }
 292:.\Generated_Source\PSoC5/I2C_2_MASTER.c ****             else
 293:.\Generated_Source\PSoC5/I2C_2_MASTER.c ****             {
 294:.\Generated_Source\PSoC5/I2C_2_MASTER.c ****                 I2C_2_state = I2C_2_SM_MSTR_WR_ADDR;
 429              		.loc 1 294 0
 430 004c 164B     		ldr	r3, .L32
 431 004e 4522     		movs	r2, #69
 432 0050 1A70     		strb	r2, [r3]
 433              	.L27:
 295:.\Generated_Source\PSoC5/I2C_2_MASTER.c ****             }
 296:.\Generated_Source\PSoC5/I2C_2_MASTER.c ****             I2C_2_DATA_REG = slaveAddress;   /* Write address to data reg */
 434              		.loc 1 296 0
 435 0052 184B     		ldr	r3, .L32+12
 436 0054 FA79     		ldrb	r2, [r7, #7]
 437 0056 1A70     		strb	r2, [r3]
 297:.\Generated_Source\PSoC5/I2C_2_MASTER.c **** 
 298:.\Generated_Source\PSoC5/I2C_2_MASTER.c **** 
 299:.\Generated_Source\PSoC5/I2C_2_MASTER.c ****             I2C_2_GENERATE_START;
 438              		.loc 1 299 0
 439 0058 174B     		ldr	r3, .L32+16
 440 005a 8222     		movs	r2, #130
 441 005c 1A70     		strb	r2, [r3]
 442 005e 174B     		ldr	r3, .L32+20
ARM GAS  C:\Users\dskyNote\AppData\Local\Temp\ccLkSjFG.s 			page 14


 443 0060 0022     		movs	r2, #0
 444 0062 1A70     		strb	r2, [r3]
 300:.\Generated_Source\PSoC5/I2C_2_MASTER.c ****             while(I2C_2_WAIT_BYTE_COMPLETE(I2C_2_CSR_REG))
 445              		.loc 1 300 0
 446 0064 00BF     		nop
 447              	.L28:
 448              		.loc 1 300 0 is_stmt 0 discriminator 1
 449 0066 114B     		ldr	r3, .L32+4
 450 0068 1B78     		ldrb	r3, [r3]
 451 006a DBB2     		uxtb	r3, r3
 452 006c 03F00103 		and	r3, r3, #1
 453 0070 002B     		cmp	r3, #0
 454 0072 F8D0     		beq	.L28
 301:.\Generated_Source\PSoC5/I2C_2_MASTER.c ****             {
 302:.\Generated_Source\PSoC5/I2C_2_MASTER.c ****                 ; /* Wait for the address to be transfered */
 303:.\Generated_Source\PSoC5/I2C_2_MASTER.c ****             }
 304:.\Generated_Source\PSoC5/I2C_2_MASTER.c **** 
 305:.\Generated_Source\PSoC5/I2C_2_MASTER.c ****             #if(I2C_2_MODE_MULTI_MASTER_SLAVE_ENABLED)
 306:.\Generated_Source\PSoC5/I2C_2_MASTER.c ****                 if(I2C_2_CHECK_START_GEN(I2C_2_MCSR_REG))
 307:.\Generated_Source\PSoC5/I2C_2_MASTER.c ****                 {
 308:.\Generated_Source\PSoC5/I2C_2_MASTER.c ****                     I2C_2_CLEAR_START_GEN;
 309:.\Generated_Source\PSoC5/I2C_2_MASTER.c **** 
 310:.\Generated_Source\PSoC5/I2C_2_MASTER.c ****                     /* Start condition was not generated: reset FSM to IDLE */
 311:.\Generated_Source\PSoC5/I2C_2_MASTER.c ****                     I2C_2_state = I2C_2_SM_IDLE;
 312:.\Generated_Source\PSoC5/I2C_2_MASTER.c ****                     errStatus = I2C_2_MSTR_ERR_ABORT_START_GEN;
 313:.\Generated_Source\PSoC5/I2C_2_MASTER.c ****                 }
 314:.\Generated_Source\PSoC5/I2C_2_MASTER.c ****                 else
 315:.\Generated_Source\PSoC5/I2C_2_MASTER.c ****             #endif /* (I2C_2_MODE_MULTI_MASTER_SLAVE_ENABLED) */
 316:.\Generated_Source\PSoC5/I2C_2_MASTER.c **** 
 317:.\Generated_Source\PSoC5/I2C_2_MASTER.c ****             #if(I2C_2_MODE_MULTI_MASTER_ENABLED)
 318:.\Generated_Source\PSoC5/I2C_2_MASTER.c **** 
 319:.\Generated_Source\PSoC5/I2C_2_MASTER.c ****                 if(I2C_2_CHECK_LOST_ARB(I2C_2_CSR_REG))
 320:.\Generated_Source\PSoC5/I2C_2_MASTER.c ****                 {
 321:.\Generated_Source\PSoC5/I2C_2_MASTER.c ****                     I2C_2_BUS_RELEASE;
 322:.\Generated_Source\PSoC5/I2C_2_MASTER.c **** 
 323:.\Generated_Source\PSoC5/I2C_2_MASTER.c ****                     /* Master lost arbitrage: reset FSM to IDLE */
 324:.\Generated_Source\PSoC5/I2C_2_MASTER.c ****                     I2C_2_state = I2C_2_SM_IDLE;
 325:.\Generated_Source\PSoC5/I2C_2_MASTER.c ****                     errStatus = I2C_2_MSTR_ERR_ARB_LOST;
 326:.\Generated_Source\PSoC5/I2C_2_MASTER.c ****                 }
 327:.\Generated_Source\PSoC5/I2C_2_MASTER.c ****                 else
 328:.\Generated_Source\PSoC5/I2C_2_MASTER.c ****             #endif /* (I2C_2_MODE_MULTI_MASTER_ENABLED) */
 329:.\Generated_Source\PSoC5/I2C_2_MASTER.c **** 
 330:.\Generated_Source\PSoC5/I2C_2_MASTER.c ****                 if(I2C_2_CHECK_ADDR_NAK(I2C_2_CSR_REG))
 455              		.loc 1 330 0 is_stmt 1
 456 0074 0D4B     		ldr	r3, .L32+4
 457 0076 1B78     		ldrb	r3, [r3]
 458 0078 DBB2     		uxtb	r3, r3
 459 007a 03F00A03 		and	r3, r3, #10
 460 007e DBB2     		uxtb	r3, r3
 461 0080 0A2B     		cmp	r3, #10
 462 0082 05D1     		bne	.L29
 331:.\Generated_Source\PSoC5/I2C_2_MASTER.c ****                 {
 332:.\Generated_Source\PSoC5/I2C_2_MASTER.c ****                     /* Address has been NACKed: reset FSM to IDLE */
 333:.\Generated_Source\PSoC5/I2C_2_MASTER.c ****                     I2C_2_state = I2C_2_SM_IDLE;
 463              		.loc 1 333 0
 464 0084 084B     		ldr	r3, .L32
 465 0086 1022     		movs	r2, #16
ARM GAS  C:\Users\dskyNote\AppData\Local\Temp\ccLkSjFG.s 			page 15


 466 0088 1A70     		strb	r2, [r3]
 334:.\Generated_Source\PSoC5/I2C_2_MASTER.c ****                     errStatus = I2C_2_MSTR_ERR_LB_NAK;
 467              		.loc 1 334 0
 468 008a 0323     		movs	r3, #3
 469 008c FB73     		strb	r3, [r7, #15]
 470 008e 04E0     		b	.L24
 471              	.L29:
 335:.\Generated_Source\PSoC5/I2C_2_MASTER.c ****                 }
 336:.\Generated_Source\PSoC5/I2C_2_MASTER.c ****                 else
 337:.\Generated_Source\PSoC5/I2C_2_MASTER.c ****                 {
 338:.\Generated_Source\PSoC5/I2C_2_MASTER.c ****                     /* Start was sent witout errors */
 339:.\Generated_Source\PSoC5/I2C_2_MASTER.c ****                     errStatus = I2C_2_MSTR_NO_ERROR;
 472              		.loc 1 339 0
 473 0090 0023     		movs	r3, #0
 474 0092 FB73     		strb	r3, [r7, #15]
 475 0094 01E0     		b	.L24
 476              	.L25:
 340:.\Generated_Source\PSoC5/I2C_2_MASTER.c ****                 }
 341:.\Generated_Source\PSoC5/I2C_2_MASTER.c ****         }
 342:.\Generated_Source\PSoC5/I2C_2_MASTER.c ****         else
 343:.\Generated_Source\PSoC5/I2C_2_MASTER.c ****         {
 344:.\Generated_Source\PSoC5/I2C_2_MASTER.c ****             errStatus = I2C_2_MSTR_BUS_BUSY; /* Bus is busy */
 477              		.loc 1 344 0
 478 0096 0123     		movs	r3, #1
 479 0098 FB73     		strb	r3, [r7, #15]
 480              	.L24:
 345:.\Generated_Source\PSoC5/I2C_2_MASTER.c ****         }
 346:.\Generated_Source\PSoC5/I2C_2_MASTER.c ****     }
 347:.\Generated_Source\PSoC5/I2C_2_MASTER.c **** 
 348:.\Generated_Source\PSoC5/I2C_2_MASTER.c ****     return(errStatus);
 481              		.loc 1 348 0
 482 009a FB7B     		ldrb	r3, [r7, #15]	@ zero_extendqisi2
 349:.\Generated_Source\PSoC5/I2C_2_MASTER.c **** }
 483              		.loc 1 349 0
 484 009c 1846     		mov	r0, r3
 485 009e 1437     		adds	r7, r7, #20
 486 00a0 BD46     		mov	sp, r7
 487              		@ sp needed
 488 00a2 5DF8047B 		ldr	r7, [sp], #4
 489 00a6 7047     		bx	lr
 490              	.L33:
 491              		.align	2
 492              	.L32:
 493 00a8 00000000 		.word	I2C_2_state
 494 00ac 68640040 		.word	1073767528
 495 00b0 80E100E0 		.word	-536813184
 496 00b4 09650040 		.word	1073767689
 497 00b8 79650040 		.word	1073767801
 498 00bc 59650040 		.word	1073767769
 499              		.cfi_endproc
 500              	.LFE2:
 501              		.size	I2C_2_MasterSendStart, .-I2C_2_MasterSendStart
 502              		.section	.text.I2C_2_MasterSendRestart,"ax",%progbits
 503              		.align	2
 504              		.global	I2C_2_MasterSendRestart
 505              		.thumb
 506              		.thumb_func
ARM GAS  C:\Users\dskyNote\AppData\Local\Temp\ccLkSjFG.s 			page 16


 507              		.type	I2C_2_MasterSendRestart, %function
 508              	I2C_2_MasterSendRestart:
 509              	.LFB3:
 350:.\Generated_Source\PSoC5/I2C_2_MASTER.c **** 
 351:.\Generated_Source\PSoC5/I2C_2_MASTER.c **** 
 352:.\Generated_Source\PSoC5/I2C_2_MASTER.c **** /*******************************************************************************
 353:.\Generated_Source\PSoC5/I2C_2_MASTER.c **** * Function Name: I2C_2_MasterSendRestart
 354:.\Generated_Source\PSoC5/I2C_2_MASTER.c **** ********************************************************************************
 355:.\Generated_Source\PSoC5/I2C_2_MASTER.c **** *
 356:.\Generated_Source\PSoC5/I2C_2_MASTER.c **** * Summary:
 357:.\Generated_Source\PSoC5/I2C_2_MASTER.c **** *  Generates ReStart condition and sends slave address with read/write bit.
 358:.\Generated_Source\PSoC5/I2C_2_MASTER.c **** *
 359:.\Generated_Source\PSoC5/I2C_2_MASTER.c **** * Parameters:
 360:.\Generated_Source\PSoC5/I2C_2_MASTER.c **** *  slaveAddress:  7-bit slave address.
 361:.\Generated_Source\PSoC5/I2C_2_MASTER.c **** *  R_nW:          Zero, send write command, non-zero send read command.
 362:.\Generated_Source\PSoC5/I2C_2_MASTER.c **** *
 363:.\Generated_Source\PSoC5/I2C_2_MASTER.c **** * Return:
 364:.\Generated_Source\PSoC5/I2C_2_MASTER.c **** *  Status error - zero means no errors.
 365:.\Generated_Source\PSoC5/I2C_2_MASTER.c **** *
 366:.\Generated_Source\PSoC5/I2C_2_MASTER.c **** * Side Effects:
 367:.\Generated_Source\PSoC5/I2C_2_MASTER.c **** *  This function is entered without a 'byte complete' bit set in the I2C_CSR
 368:.\Generated_Source\PSoC5/I2C_2_MASTER.c **** *  register. It does not exit until it will be set.
 369:.\Generated_Source\PSoC5/I2C_2_MASTER.c **** *
 370:.\Generated_Source\PSoC5/I2C_2_MASTER.c **** * Global variables:
 371:.\Generated_Source\PSoC5/I2C_2_MASTER.c **** *  I2C_2_state - used to store current state of software FSM.
 372:.\Generated_Source\PSoC5/I2C_2_MASTER.c **** *
 373:.\Generated_Source\PSoC5/I2C_2_MASTER.c **** * Reentrant:
 374:.\Generated_Source\PSoC5/I2C_2_MASTER.c **** *  No
 375:.\Generated_Source\PSoC5/I2C_2_MASTER.c **** *
 376:.\Generated_Source\PSoC5/I2C_2_MASTER.c **** *******************************************************************************/
 377:.\Generated_Source\PSoC5/I2C_2_MASTER.c **** uint8 I2C_2_MasterSendRestart(uint8 slaveAddress, uint8 R_nW)
 378:.\Generated_Source\PSoC5/I2C_2_MASTER.c ****       
 379:.\Generated_Source\PSoC5/I2C_2_MASTER.c **** {
 510              		.loc 1 379 0
 511              		.cfi_startproc
 512              		@ args = 0, pretend = 0, frame = 16
 513              		@ frame_needed = 1, uses_anonymous_args = 0
 514              		@ link register save eliminated.
 515 0000 80B4     		push	{r7}
 516              		.cfi_def_cfa_offset 4
 517              		.cfi_offset 7, -4
 518 0002 85B0     		sub	sp, sp, #20
 519              		.cfi_def_cfa_offset 24
 520 0004 00AF     		add	r7, sp, #0
 521              		.cfi_def_cfa_register 7
 522 0006 0246     		mov	r2, r0
 523 0008 0B46     		mov	r3, r1
 524 000a FA71     		strb	r2, [r7, #7]
 525 000c BB71     		strb	r3, [r7, #6]
 380:.\Generated_Source\PSoC5/I2C_2_MASTER.c ****     uint8 errStatus;
 381:.\Generated_Source\PSoC5/I2C_2_MASTER.c **** 
 382:.\Generated_Source\PSoC5/I2C_2_MASTER.c ****     errStatus = I2C_2_MSTR_NOT_READY;
 526              		.loc 1 382 0
 527 000e 0223     		movs	r3, #2
 528 0010 FB73     		strb	r3, [r7, #15]
 383:.\Generated_Source\PSoC5/I2C_2_MASTER.c **** 
 384:.\Generated_Source\PSoC5/I2C_2_MASTER.c ****     /* Check if START condition was generated */
ARM GAS  C:\Users\dskyNote\AppData\Local\Temp\ccLkSjFG.s 			page 17


 385:.\Generated_Source\PSoC5/I2C_2_MASTER.c ****     if(I2C_2_CHECK_MASTER_MODE(I2C_2_MCSR_REG))
 529              		.loc 1 385 0
 530 0012 244B     		ldr	r3, .L42
 531 0014 1B78     		ldrb	r3, [r3]
 532 0016 DBB2     		uxtb	r3, r3
 533 0018 03F00403 		and	r3, r3, #4
 534 001c 002B     		cmp	r3, #0
 535 001e 39D0     		beq	.L35
 386:.\Generated_Source\PSoC5/I2C_2_MASTER.c ****     {
 387:.\Generated_Source\PSoC5/I2C_2_MASTER.c ****         slaveAddress = ((uint8) (slaveAddress << I2C_2_SLAVE_ADDR_SHIFT)); /* Set Address */
 536              		.loc 1 387 0
 537 0020 FB79     		ldrb	r3, [r7, #7]
 538 0022 5B00     		lsls	r3, r3, #1
 539 0024 FB71     		strb	r3, [r7, #7]
 388:.\Generated_Source\PSoC5/I2C_2_MASTER.c ****         if(0u != R_nW)  /* Set the Read/Write flag */
 540              		.loc 1 388 0
 541 0026 BB79     		ldrb	r3, [r7, #6]	@ zero_extendqisi2
 542 0028 002B     		cmp	r3, #0
 543 002a 07D0     		beq	.L36
 389:.\Generated_Source\PSoC5/I2C_2_MASTER.c ****         {
 390:.\Generated_Source\PSoC5/I2C_2_MASTER.c ****             slaveAddress |= I2C_2_READ_FLAG;
 544              		.loc 1 390 0
 545 002c FB79     		ldrb	r3, [r7, #7]
 546 002e 43F00103 		orr	r3, r3, #1
 547 0032 FB71     		strb	r3, [r7, #7]
 391:.\Generated_Source\PSoC5/I2C_2_MASTER.c ****             I2C_2_state = I2C_2_SM_MSTR_RD_ADDR;
 548              		.loc 1 391 0
 549 0034 1C4B     		ldr	r3, .L42+4
 550 0036 4922     		movs	r2, #73
 551 0038 1A70     		strb	r2, [r3]
 552 003a 02E0     		b	.L37
 553              	.L36:
 392:.\Generated_Source\PSoC5/I2C_2_MASTER.c ****         }
 393:.\Generated_Source\PSoC5/I2C_2_MASTER.c ****         else
 394:.\Generated_Source\PSoC5/I2C_2_MASTER.c ****         {
 395:.\Generated_Source\PSoC5/I2C_2_MASTER.c ****             I2C_2_state = I2C_2_SM_MSTR_WR_ADDR;
 554              		.loc 1 395 0
 555 003c 1A4B     		ldr	r3, .L42+4
 556 003e 4522     		movs	r2, #69
 557 0040 1A70     		strb	r2, [r3]
 558              	.L37:
 396:.\Generated_Source\PSoC5/I2C_2_MASTER.c ****         }
 397:.\Generated_Source\PSoC5/I2C_2_MASTER.c ****         I2C_2_DATA_REG = slaveAddress;    /* Write address to data reg */
 559              		.loc 1 397 0
 560 0042 1A4B     		ldr	r3, .L42+8
 561 0044 FA79     		ldrb	r2, [r7, #7]
 562 0046 1A70     		strb	r2, [r3]
 398:.\Generated_Source\PSoC5/I2C_2_MASTER.c **** 
 399:.\Generated_Source\PSoC5/I2C_2_MASTER.c **** 
 400:.\Generated_Source\PSoC5/I2C_2_MASTER.c ****         I2C_2_GENERATE_RESTART_MANUAL;
 563              		.loc 1 400 0
 564 0048 194B     		ldr	r3, .L42+12
 565 004a 3222     		movs	r2, #50
 566 004c 1A70     		strb	r2, [r3]
 567 004e 194B     		ldr	r3, .L42+16
 568 0050 0022     		movs	r2, #0
 569 0052 1A70     		strb	r2, [r3]
ARM GAS  C:\Users\dskyNote\AppData\Local\Temp\ccLkSjFG.s 			page 18


 570 0054 00BF     		nop
 571              	.L38:
 572              		.loc 1 400 0 is_stmt 0 discriminator 1
 573 0056 134B     		ldr	r3, .L42
 574 0058 1B78     		ldrb	r3, [r3]
 575 005a DBB2     		uxtb	r3, r3
 576 005c 03F00103 		and	r3, r3, #1
 577 0060 002B     		cmp	r3, #0
 578 0062 F8D1     		bne	.L38
 401:.\Generated_Source\PSoC5/I2C_2_MASTER.c ****         while(I2C_2_WAIT_BYTE_COMPLETE(I2C_2_CSR_REG))
 579              		.loc 1 401 0 is_stmt 1
 580 0064 00BF     		nop
 581              	.L39:
 582              		.loc 1 401 0 is_stmt 0 discriminator 1
 583 0066 0F4B     		ldr	r3, .L42
 584 0068 1B78     		ldrb	r3, [r3]
 585 006a DBB2     		uxtb	r3, r3
 586 006c 03F00103 		and	r3, r3, #1
 587 0070 002B     		cmp	r3, #0
 588 0072 F8D0     		beq	.L39
 402:.\Generated_Source\PSoC5/I2C_2_MASTER.c ****         {
 403:.\Generated_Source\PSoC5/I2C_2_MASTER.c ****             ; /* Wait for the address to be transfered */
 404:.\Generated_Source\PSoC5/I2C_2_MASTER.c ****         }
 405:.\Generated_Source\PSoC5/I2C_2_MASTER.c **** 
 406:.\Generated_Source\PSoC5/I2C_2_MASTER.c ****         #if(I2C_2_MODE_MULTI_MASTER_ENABLED)
 407:.\Generated_Source\PSoC5/I2C_2_MASTER.c ****             if(I2C_2_CHECK_LOST_ARB(I2C_2_CSR_REG))
 408:.\Generated_Source\PSoC5/I2C_2_MASTER.c ****             {
 409:.\Generated_Source\PSoC5/I2C_2_MASTER.c ****                 I2C_2_BUS_RELEASE;
 410:.\Generated_Source\PSoC5/I2C_2_MASTER.c **** 
 411:.\Generated_Source\PSoC5/I2C_2_MASTER.c ****                 /* Master lost arbitrage: reset FSM to IDLE */
 412:.\Generated_Source\PSoC5/I2C_2_MASTER.c ****                 I2C_2_state = I2C_2_SM_IDLE;
 413:.\Generated_Source\PSoC5/I2C_2_MASTER.c ****                 errStatus = I2C_2_MSTR_ERR_ARB_LOST;
 414:.\Generated_Source\PSoC5/I2C_2_MASTER.c ****             }
 415:.\Generated_Source\PSoC5/I2C_2_MASTER.c ****             else
 416:.\Generated_Source\PSoC5/I2C_2_MASTER.c ****         #endif /* (I2C_2_MODE_MULTI_MASTER_ENABLED) */
 417:.\Generated_Source\PSoC5/I2C_2_MASTER.c **** 
 418:.\Generated_Source\PSoC5/I2C_2_MASTER.c ****             if(I2C_2_CHECK_ADDR_NAK(I2C_2_CSR_REG))
 589              		.loc 1 418 0 is_stmt 1
 590 0074 0B4B     		ldr	r3, .L42
 591 0076 1B78     		ldrb	r3, [r3]
 592 0078 DBB2     		uxtb	r3, r3
 593 007a 03F00A03 		and	r3, r3, #10
 594 007e DBB2     		uxtb	r3, r3
 595 0080 0A2B     		cmp	r3, #10
 596 0082 05D1     		bne	.L40
 419:.\Generated_Source\PSoC5/I2C_2_MASTER.c ****             {
 420:.\Generated_Source\PSoC5/I2C_2_MASTER.c ****                 /* Address has been NACKed: reset FSM to IDLE */
 421:.\Generated_Source\PSoC5/I2C_2_MASTER.c ****                 I2C_2_state = I2C_2_SM_IDLE;
 597              		.loc 1 421 0
 598 0084 084B     		ldr	r3, .L42+4
 599 0086 1022     		movs	r2, #16
 600 0088 1A70     		strb	r2, [r3]
 422:.\Generated_Source\PSoC5/I2C_2_MASTER.c ****                 errStatus = I2C_2_MSTR_ERR_LB_NAK;
 601              		.loc 1 422 0
 602 008a 0323     		movs	r3, #3
 603 008c FB73     		strb	r3, [r7, #15]
 604 008e 01E0     		b	.L35
ARM GAS  C:\Users\dskyNote\AppData\Local\Temp\ccLkSjFG.s 			page 19


 605              	.L40:
 423:.\Generated_Source\PSoC5/I2C_2_MASTER.c ****             }
 424:.\Generated_Source\PSoC5/I2C_2_MASTER.c ****             else
 425:.\Generated_Source\PSoC5/I2C_2_MASTER.c ****             {
 426:.\Generated_Source\PSoC5/I2C_2_MASTER.c ****                 /* ReStart was sent witout errors */
 427:.\Generated_Source\PSoC5/I2C_2_MASTER.c ****                 errStatus = I2C_2_MSTR_NO_ERROR;
 606              		.loc 1 427 0
 607 0090 0023     		movs	r3, #0
 608 0092 FB73     		strb	r3, [r7, #15]
 609              	.L35:
 428:.\Generated_Source\PSoC5/I2C_2_MASTER.c ****             }
 429:.\Generated_Source\PSoC5/I2C_2_MASTER.c ****     }
 430:.\Generated_Source\PSoC5/I2C_2_MASTER.c **** 
 431:.\Generated_Source\PSoC5/I2C_2_MASTER.c ****     return(errStatus);
 610              		.loc 1 431 0
 611 0094 FB7B     		ldrb	r3, [r7, #15]	@ zero_extendqisi2
 432:.\Generated_Source\PSoC5/I2C_2_MASTER.c **** }
 612              		.loc 1 432 0
 613 0096 1846     		mov	r0, r3
 614 0098 1437     		adds	r7, r7, #20
 615 009a BD46     		mov	sp, r7
 616              		@ sp needed
 617 009c 5DF8047B 		ldr	r7, [sp], #4
 618 00a0 7047     		bx	lr
 619              	.L43:
 620 00a2 00BF     		.align	2
 621              	.L42:
 622 00a4 68640040 		.word	1073767528
 623 00a8 00000000 		.word	I2C_2_state
 624 00ac 09650040 		.word	1073767689
 625 00b0 79650040 		.word	1073767801
 626 00b4 59650040 		.word	1073767769
 627              		.cfi_endproc
 628              	.LFE3:
 629              		.size	I2C_2_MasterSendRestart, .-I2C_2_MasterSendRestart
 630              		.section	.text.I2C_2_MasterSendStop,"ax",%progbits
 631              		.align	2
 632              		.global	I2C_2_MasterSendStop
 633              		.thumb
 634              		.thumb_func
 635              		.type	I2C_2_MasterSendStop, %function
 636              	I2C_2_MasterSendStop:
 637              	.LFB4:
 433:.\Generated_Source\PSoC5/I2C_2_MASTER.c **** 
 434:.\Generated_Source\PSoC5/I2C_2_MASTER.c **** 
 435:.\Generated_Source\PSoC5/I2C_2_MASTER.c **** /*******************************************************************************
 436:.\Generated_Source\PSoC5/I2C_2_MASTER.c **** * Function Name: I2C_2_MasterSendStop
 437:.\Generated_Source\PSoC5/I2C_2_MASTER.c **** ********************************************************************************
 438:.\Generated_Source\PSoC5/I2C_2_MASTER.c **** *
 439:.\Generated_Source\PSoC5/I2C_2_MASTER.c **** * Summary:
 440:.\Generated_Source\PSoC5/I2C_2_MASTER.c **** *  Generates I2C Stop condition on bus. Function do nothing if Start or Restart
 441:.\Generated_Source\PSoC5/I2C_2_MASTER.c **** *  condition was failed before call this function.
 442:.\Generated_Source\PSoC5/I2C_2_MASTER.c **** *
 443:.\Generated_Source\PSoC5/I2C_2_MASTER.c **** * Parameters:
 444:.\Generated_Source\PSoC5/I2C_2_MASTER.c **** *  None
 445:.\Generated_Source\PSoC5/I2C_2_MASTER.c **** *
 446:.\Generated_Source\PSoC5/I2C_2_MASTER.c **** * Return:
ARM GAS  C:\Users\dskyNote\AppData\Local\Temp\ccLkSjFG.s 			page 20


 447:.\Generated_Source\PSoC5/I2C_2_MASTER.c **** *  Status error - zero means no errors.
 448:.\Generated_Source\PSoC5/I2C_2_MASTER.c **** *
 449:.\Generated_Source\PSoC5/I2C_2_MASTER.c **** * Side Effects:
 450:.\Generated_Source\PSoC5/I2C_2_MASTER.c **** *  The Stop generation is required to complete transaction.
 451:.\Generated_Source\PSoC5/I2C_2_MASTER.c **** *  This function does not wait whileStop condition will be generated.
 452:.\Generated_Source\PSoC5/I2C_2_MASTER.c **** *
 453:.\Generated_Source\PSoC5/I2C_2_MASTER.c **** * Global variables:
 454:.\Generated_Source\PSoC5/I2C_2_MASTER.c **** *  I2C_2_state - used to store current state of software FSM.
 455:.\Generated_Source\PSoC5/I2C_2_MASTER.c **** *
 456:.\Generated_Source\PSoC5/I2C_2_MASTER.c **** * Reentrant:
 457:.\Generated_Source\PSoC5/I2C_2_MASTER.c **** *  No
 458:.\Generated_Source\PSoC5/I2C_2_MASTER.c **** *
 459:.\Generated_Source\PSoC5/I2C_2_MASTER.c **** *******************************************************************************/
 460:.\Generated_Source\PSoC5/I2C_2_MASTER.c **** uint8 I2C_2_MasterSendStop(void) 
 461:.\Generated_Source\PSoC5/I2C_2_MASTER.c **** {
 638              		.loc 1 461 0
 639              		.cfi_startproc
 640              		@ args = 0, pretend = 0, frame = 8
 641              		@ frame_needed = 1, uses_anonymous_args = 0
 642              		@ link register save eliminated.
 643 0000 80B4     		push	{r7}
 644              		.cfi_def_cfa_offset 4
 645              		.cfi_offset 7, -4
 646 0002 83B0     		sub	sp, sp, #12
 647              		.cfi_def_cfa_offset 16
 648 0004 00AF     		add	r7, sp, #0
 649              		.cfi_def_cfa_register 7
 462:.\Generated_Source\PSoC5/I2C_2_MASTER.c ****     uint8 errStatus;
 463:.\Generated_Source\PSoC5/I2C_2_MASTER.c **** 
 464:.\Generated_Source\PSoC5/I2C_2_MASTER.c ****     errStatus = I2C_2_MSTR_NOT_READY;
 650              		.loc 1 464 0
 651 0006 0223     		movs	r3, #2
 652 0008 FB71     		strb	r3, [r7, #7]
 465:.\Generated_Source\PSoC5/I2C_2_MASTER.c **** 
 466:.\Generated_Source\PSoC5/I2C_2_MASTER.c ****     /* Check if START condition was generated */
 467:.\Generated_Source\PSoC5/I2C_2_MASTER.c ****     if(I2C_2_CHECK_MASTER_MODE(I2C_2_MCSR_REG))
 653              		.loc 1 467 0
 654 000a 144B     		ldr	r3, .L49
 655 000c 1B78     		ldrb	r3, [r3]
 656 000e DBB2     		uxtb	r3, r3
 657 0010 03F00403 		and	r3, r3, #4
 658 0014 002B     		cmp	r3, #0
 659 0016 1AD0     		beq	.L45
 468:.\Generated_Source\PSoC5/I2C_2_MASTER.c ****     {
 469:.\Generated_Source\PSoC5/I2C_2_MASTER.c ****         I2C_2_GENERATE_STOP_MANUAL;              /* Generate STOP */
 660              		.loc 1 469 0
 661 0018 114B     		ldr	r3, .L49+4
 662 001a 5222     		movs	r2, #82
 663 001c 1A70     		strb	r2, [r3]
 664 001e 114B     		ldr	r3, .L49+8
 665 0020 0022     		movs	r2, #0
 666 0022 1A70     		strb	r2, [r3]
 667 0024 00BF     		nop
 668              	.L46:
 669              		.loc 1 469 0 is_stmt 0 discriminator 1
 670 0026 0D4B     		ldr	r3, .L49
 671 0028 1B78     		ldrb	r3, [r3]
ARM GAS  C:\Users\dskyNote\AppData\Local\Temp\ccLkSjFG.s 			page 21


 672 002a DBB2     		uxtb	r3, r3
 673 002c 03F00103 		and	r3, r3, #1
 674 0030 002B     		cmp	r3, #0
 675 0032 F8D1     		bne	.L46
 470:.\Generated_Source\PSoC5/I2C_2_MASTER.c ****         I2C_2_state = I2C_2_SM_IDLE;  /* Reset state to IDLE */
 676              		.loc 1 470 0 is_stmt 1
 677 0034 0C4B     		ldr	r3, .L49+12
 678 0036 1022     		movs	r2, #16
 679 0038 1A70     		strb	r2, [r3]
 471:.\Generated_Source\PSoC5/I2C_2_MASTER.c **** 
 472:.\Generated_Source\PSoC5/I2C_2_MASTER.c ****         while(I2C_2_WAIT_STOP_COMPLETE(I2C_2_CSR_REG))
 680              		.loc 1 472 0
 681 003a 00BF     		nop
 682              	.L47:
 683              		.loc 1 472 0 is_stmt 0 discriminator 1
 684 003c 074B     		ldr	r3, .L49
 685 003e 1B78     		ldrb	r3, [r3]
 686 0040 DBB2     		uxtb	r3, r3
 687 0042 03F02103 		and	r3, r3, #33
 688 0046 002B     		cmp	r3, #0
 689 0048 F8D0     		beq	.L47
 473:.\Generated_Source\PSoC5/I2C_2_MASTER.c ****         {
 474:.\Generated_Source\PSoC5/I2C_2_MASTER.c ****             ; /* Wait for Stop to be generated */
 475:.\Generated_Source\PSoC5/I2C_2_MASTER.c ****         }
 476:.\Generated_Source\PSoC5/I2C_2_MASTER.c **** 
 477:.\Generated_Source\PSoC5/I2C_2_MASTER.c ****         errStatus = I2C_2_MSTR_NO_ERROR;
 690              		.loc 1 477 0 is_stmt 1
 691 004a 0023     		movs	r3, #0
 692 004c FB71     		strb	r3, [r7, #7]
 693              	.L45:
 478:.\Generated_Source\PSoC5/I2C_2_MASTER.c ****         #if(I2C_2_MODE_MULTI_MASTER_ENABLED)
 479:.\Generated_Source\PSoC5/I2C_2_MASTER.c ****             if(I2C_2_CHECK_LOST_ARB(I2C_2_CSR_REG))
 480:.\Generated_Source\PSoC5/I2C_2_MASTER.c ****             {
 481:.\Generated_Source\PSoC5/I2C_2_MASTER.c ****                 I2C_2_BUS_RELEASE;
 482:.\Generated_Source\PSoC5/I2C_2_MASTER.c **** 
 483:.\Generated_Source\PSoC5/I2C_2_MASTER.c ****                 /* NACK was generated by enother instead Stop */
 484:.\Generated_Source\PSoC5/I2C_2_MASTER.c ****                 errStatus = I2C_2_MSTR_ERR_ARB_LOST;
 485:.\Generated_Source\PSoC5/I2C_2_MASTER.c ****             }
 486:.\Generated_Source\PSoC5/I2C_2_MASTER.c ****         #endif /* (I2C_2_MODE_MULTI_MASTER_ENABLED) */
 487:.\Generated_Source\PSoC5/I2C_2_MASTER.c ****     }
 488:.\Generated_Source\PSoC5/I2C_2_MASTER.c **** 
 489:.\Generated_Source\PSoC5/I2C_2_MASTER.c ****     return(errStatus);
 694              		.loc 1 489 0
 695 004e FB79     		ldrb	r3, [r7, #7]	@ zero_extendqisi2
 490:.\Generated_Source\PSoC5/I2C_2_MASTER.c **** }
 696              		.loc 1 490 0
 697 0050 1846     		mov	r0, r3
 698 0052 0C37     		adds	r7, r7, #12
 699 0054 BD46     		mov	sp, r7
 700              		@ sp needed
 701 0056 5DF8047B 		ldr	r7, [sp], #4
 702 005a 7047     		bx	lr
 703              	.L50:
 704              		.align	2
 705              	.L49:
 706 005c 68640040 		.word	1073767528
 707 0060 79650040 		.word	1073767801
ARM GAS  C:\Users\dskyNote\AppData\Local\Temp\ccLkSjFG.s 			page 22


 708 0064 59650040 		.word	1073767769
 709 0068 00000000 		.word	I2C_2_state
 710              		.cfi_endproc
 711              	.LFE4:
 712              		.size	I2C_2_MasterSendStop, .-I2C_2_MasterSendStop
 713              		.section	.text.I2C_2_MasterWriteByte,"ax",%progbits
 714              		.align	2
 715              		.global	I2C_2_MasterWriteByte
 716              		.thumb
 717              		.thumb_func
 718              		.type	I2C_2_MasterWriteByte, %function
 719              	I2C_2_MasterWriteByte:
 720              	.LFB5:
 491:.\Generated_Source\PSoC5/I2C_2_MASTER.c **** 
 492:.\Generated_Source\PSoC5/I2C_2_MASTER.c **** 
 493:.\Generated_Source\PSoC5/I2C_2_MASTER.c **** /*******************************************************************************
 494:.\Generated_Source\PSoC5/I2C_2_MASTER.c **** * Function Name: I2C_2_MasterWriteByte
 495:.\Generated_Source\PSoC5/I2C_2_MASTER.c **** ********************************************************************************
 496:.\Generated_Source\PSoC5/I2C_2_MASTER.c **** *
 497:.\Generated_Source\PSoC5/I2C_2_MASTER.c **** * Summary:
 498:.\Generated_Source\PSoC5/I2C_2_MASTER.c **** *  Sends one byte to a slave. A valid Start or ReStart condition must be
 499:.\Generated_Source\PSoC5/I2C_2_MASTER.c **** *  generated before this call this function. Function do nothing if Start or
 500:.\Generated_Source\PSoC5/I2C_2_MASTER.c **** *  Restart condition was failed before call this function.
 501:.\Generated_Source\PSoC5/I2C_2_MASTER.c **** *
 502:.\Generated_Source\PSoC5/I2C_2_MASTER.c **** * Parameters:
 503:.\Generated_Source\PSoC5/I2C_2_MASTER.c **** *  data:  The data byte to send to the slave.
 504:.\Generated_Source\PSoC5/I2C_2_MASTER.c **** *
 505:.\Generated_Source\PSoC5/I2C_2_MASTER.c **** * Return:
 506:.\Generated_Source\PSoC5/I2C_2_MASTER.c **** *  Status error - zero means no errors.
 507:.\Generated_Source\PSoC5/I2C_2_MASTER.c **** *
 508:.\Generated_Source\PSoC5/I2C_2_MASTER.c **** * Side Effects:
 509:.\Generated_Source\PSoC5/I2C_2_MASTER.c **** *  This function is entered without a 'byte complete' bit set in the I2C_CSR
 510:.\Generated_Source\PSoC5/I2C_2_MASTER.c **** *  register. It does not exit until it will be set.
 511:.\Generated_Source\PSoC5/I2C_2_MASTER.c **** *
 512:.\Generated_Source\PSoC5/I2C_2_MASTER.c **** * Global variables:
 513:.\Generated_Source\PSoC5/I2C_2_MASTER.c **** *  I2C_2_state - used to store current state of software FSM.
 514:.\Generated_Source\PSoC5/I2C_2_MASTER.c **** *
 515:.\Generated_Source\PSoC5/I2C_2_MASTER.c **** *******************************************************************************/
 516:.\Generated_Source\PSoC5/I2C_2_MASTER.c **** uint8 I2C_2_MasterWriteByte(uint8 theByte) 
 517:.\Generated_Source\PSoC5/I2C_2_MASTER.c **** {
 721              		.loc 1 517 0
 722              		.cfi_startproc
 723              		@ args = 0, pretend = 0, frame = 16
 724              		@ frame_needed = 1, uses_anonymous_args = 0
 725              		@ link register save eliminated.
 726 0000 80B4     		push	{r7}
 727              		.cfi_def_cfa_offset 4
 728              		.cfi_offset 7, -4
 729 0002 85B0     		sub	sp, sp, #20
 730              		.cfi_def_cfa_offset 24
 731 0004 00AF     		add	r7, sp, #0
 732              		.cfi_def_cfa_register 7
 733 0006 0346     		mov	r3, r0
 734 0008 FB71     		strb	r3, [r7, #7]
 518:.\Generated_Source\PSoC5/I2C_2_MASTER.c ****     uint8 errStatus;
 519:.\Generated_Source\PSoC5/I2C_2_MASTER.c **** 
 520:.\Generated_Source\PSoC5/I2C_2_MASTER.c ****     errStatus = I2C_2_MSTR_NOT_READY;
ARM GAS  C:\Users\dskyNote\AppData\Local\Temp\ccLkSjFG.s 			page 23


 735              		.loc 1 520 0
 736 000a 0223     		movs	r3, #2
 737 000c FB73     		strb	r3, [r7, #15]
 521:.\Generated_Source\PSoC5/I2C_2_MASTER.c **** 
 522:.\Generated_Source\PSoC5/I2C_2_MASTER.c ****     /* Check if START condition was generated */
 523:.\Generated_Source\PSoC5/I2C_2_MASTER.c ****     if(I2C_2_CHECK_MASTER_MODE(I2C_2_MCSR_REG))
 738              		.loc 1 523 0
 739 000e 1E4B     		ldr	r3, .L57
 740 0010 1B78     		ldrb	r3, [r3]
 741 0012 DBB2     		uxtb	r3, r3
 742 0014 03F00403 		and	r3, r3, #4
 743 0018 002B     		cmp	r3, #0
 744 001a 2DD0     		beq	.L52
 524:.\Generated_Source\PSoC5/I2C_2_MASTER.c ****     {
 525:.\Generated_Source\PSoC5/I2C_2_MASTER.c ****         I2C_2_DATA_REG = theByte;                        /* Write DATA register */
 745              		.loc 1 525 0
 746 001c 1B4B     		ldr	r3, .L57+4
 747 001e FA79     		ldrb	r2, [r7, #7]
 748 0020 1A70     		strb	r2, [r3]
 526:.\Generated_Source\PSoC5/I2C_2_MASTER.c ****         I2C_2_TRANSMIT_DATA_MANUAL;                      /* Set transmit mode */
 749              		.loc 1 526 0
 750 0022 1B4B     		ldr	r3, .L57+8
 751 0024 0622     		movs	r2, #6
 752 0026 1A70     		strb	r2, [r3]
 753 0028 1A4B     		ldr	r3, .L57+12
 754 002a 0022     		movs	r2, #0
 755 002c 1A70     		strb	r2, [r3]
 756 002e 00BF     		nop
 757              	.L53:
 758              		.loc 1 526 0 is_stmt 0 discriminator 1
 759 0030 154B     		ldr	r3, .L57
 760 0032 1B78     		ldrb	r3, [r3]
 761 0034 DBB2     		uxtb	r3, r3
 762 0036 03F00103 		and	r3, r3, #1
 763 003a 002B     		cmp	r3, #0
 764 003c F8D1     		bne	.L53
 527:.\Generated_Source\PSoC5/I2C_2_MASTER.c ****         I2C_2_state = I2C_2_SM_MSTR_WR_DATA;  /* Set state WR_DATA */
 765              		.loc 1 527 0 is_stmt 1
 766 003e 164B     		ldr	r3, .L57+16
 767 0040 4622     		movs	r2, #70
 768 0042 1A70     		strb	r2, [r3]
 528:.\Generated_Source\PSoC5/I2C_2_MASTER.c **** 
 529:.\Generated_Source\PSoC5/I2C_2_MASTER.c ****         /* Make sure the last byte has been transfered first */
 530:.\Generated_Source\PSoC5/I2C_2_MASTER.c ****         while(I2C_2_WAIT_BYTE_COMPLETE(I2C_2_CSR_REG))
 769              		.loc 1 530 0
 770 0044 00BF     		nop
 771              	.L54:
 772              		.loc 1 530 0 is_stmt 0 discriminator 1
 773 0046 104B     		ldr	r3, .L57
 774 0048 1B78     		ldrb	r3, [r3]
 775 004a DBB2     		uxtb	r3, r3
 776 004c 03F00103 		and	r3, r3, #1
 777 0050 002B     		cmp	r3, #0
 778 0052 F8D0     		beq	.L54
 531:.\Generated_Source\PSoC5/I2C_2_MASTER.c ****         {
 532:.\Generated_Source\PSoC5/I2C_2_MASTER.c ****             ; /* Wait for byte to be written */
 533:.\Generated_Source\PSoC5/I2C_2_MASTER.c ****         }
ARM GAS  C:\Users\dskyNote\AppData\Local\Temp\ccLkSjFG.s 			page 24


 534:.\Generated_Source\PSoC5/I2C_2_MASTER.c **** 
 535:.\Generated_Source\PSoC5/I2C_2_MASTER.c ****         #if(I2C_2_MODE_MULTI_MASTER_ENABLED)
 536:.\Generated_Source\PSoC5/I2C_2_MASTER.c ****             if(I2C_2_CHECK_LOST_ARB(I2C_2_CSR_REG))
 537:.\Generated_Source\PSoC5/I2C_2_MASTER.c ****             {
 538:.\Generated_Source\PSoC5/I2C_2_MASTER.c ****                 I2C_2_BUS_RELEASE;
 539:.\Generated_Source\PSoC5/I2C_2_MASTER.c **** 
 540:.\Generated_Source\PSoC5/I2C_2_MASTER.c ****                 /* Master lost arbitrage: reset FSM to IDLE */
 541:.\Generated_Source\PSoC5/I2C_2_MASTER.c ****                 I2C_2_state = I2C_2_SM_IDLE;
 542:.\Generated_Source\PSoC5/I2C_2_MASTER.c ****                 errStatus = I2C_2_MSTR_ERR_ARB_LOST;
 543:.\Generated_Source\PSoC5/I2C_2_MASTER.c ****             }
 544:.\Generated_Source\PSoC5/I2C_2_MASTER.c ****             /* Check LRB bit */
 545:.\Generated_Source\PSoC5/I2C_2_MASTER.c ****             else
 546:.\Generated_Source\PSoC5/I2C_2_MASTER.c ****         #endif /* (I2C_2_MODE_MULTI_MASTER_ENABLED) */
 547:.\Generated_Source\PSoC5/I2C_2_MASTER.c **** 
 548:.\Generated_Source\PSoC5/I2C_2_MASTER.c ****             if(I2C_2_CHECK_DATA_ACK(I2C_2_CSR_REG))
 779              		.loc 1 548 0 is_stmt 1
 780 0054 0C4B     		ldr	r3, .L57
 781 0056 1B78     		ldrb	r3, [r3]
 782 0058 DBB2     		uxtb	r3, r3
 783 005a 03F00203 		and	r3, r3, #2
 784 005e 002B     		cmp	r3, #0
 785 0060 05D1     		bne	.L55
 549:.\Generated_Source\PSoC5/I2C_2_MASTER.c ****             {
 550:.\Generated_Source\PSoC5/I2C_2_MASTER.c ****                 I2C_2_state = I2C_2_SM_MSTR_HALT;     /* Set state to HALT */
 786              		.loc 1 550 0
 787 0062 0D4B     		ldr	r3, .L57+16
 788 0064 6022     		movs	r2, #96
 789 0066 1A70     		strb	r2, [r3]
 551:.\Generated_Source\PSoC5/I2C_2_MASTER.c ****                 errStatus = I2C_2_MSTR_NO_ERROR;                 /* The LRB was ACKed */
 790              		.loc 1 551 0
 791 0068 0023     		movs	r3, #0
 792 006a FB73     		strb	r3, [r7, #15]
 793 006c 04E0     		b	.L52
 794              	.L55:
 552:.\Generated_Source\PSoC5/I2C_2_MASTER.c ****             }
 553:.\Generated_Source\PSoC5/I2C_2_MASTER.c ****             else
 554:.\Generated_Source\PSoC5/I2C_2_MASTER.c ****             {
 555:.\Generated_Source\PSoC5/I2C_2_MASTER.c ****                 I2C_2_state = I2C_2_SM_MSTR_HALT;     /* Set state to HALT */
 795              		.loc 1 555 0
 796 006e 0A4B     		ldr	r3, .L57+16
 797 0070 6022     		movs	r2, #96
 798 0072 1A70     		strb	r2, [r3]
 556:.\Generated_Source\PSoC5/I2C_2_MASTER.c ****                 errStatus = I2C_2_MSTR_ERR_LB_NAK;               /* The LRB was NACKed */
 799              		.loc 1 556 0
 800 0074 0323     		movs	r3, #3
 801 0076 FB73     		strb	r3, [r7, #15]
 802              	.L52:
 557:.\Generated_Source\PSoC5/I2C_2_MASTER.c ****             }
 558:.\Generated_Source\PSoC5/I2C_2_MASTER.c ****     }
 559:.\Generated_Source\PSoC5/I2C_2_MASTER.c **** 
 560:.\Generated_Source\PSoC5/I2C_2_MASTER.c ****     return(errStatus);
 803              		.loc 1 560 0
 804 0078 FB7B     		ldrb	r3, [r7, #15]	@ zero_extendqisi2
 561:.\Generated_Source\PSoC5/I2C_2_MASTER.c **** }
 805              		.loc 1 561 0
 806 007a 1846     		mov	r0, r3
 807 007c 1437     		adds	r7, r7, #20
ARM GAS  C:\Users\dskyNote\AppData\Local\Temp\ccLkSjFG.s 			page 25


 808 007e BD46     		mov	sp, r7
 809              		@ sp needed
 810 0080 5DF8047B 		ldr	r7, [sp], #4
 811 0084 7047     		bx	lr
 812              	.L58:
 813 0086 00BF     		.align	2
 814              	.L57:
 815 0088 68640040 		.word	1073767528
 816 008c 09650040 		.word	1073767689
 817 0090 79650040 		.word	1073767801
 818 0094 59650040 		.word	1073767769
 819 0098 00000000 		.word	I2C_2_state
 820              		.cfi_endproc
 821              	.LFE5:
 822              		.size	I2C_2_MasterWriteByte, .-I2C_2_MasterWriteByte
 823              		.section	.text.I2C_2_MasterReadByte,"ax",%progbits
 824              		.align	2
 825              		.global	I2C_2_MasterReadByte
 826              		.thumb
 827              		.thumb_func
 828              		.type	I2C_2_MasterReadByte, %function
 829              	I2C_2_MasterReadByte:
 830              	.LFB6:
 562:.\Generated_Source\PSoC5/I2C_2_MASTER.c **** 
 563:.\Generated_Source\PSoC5/I2C_2_MASTER.c **** 
 564:.\Generated_Source\PSoC5/I2C_2_MASTER.c **** /*******************************************************************************
 565:.\Generated_Source\PSoC5/I2C_2_MASTER.c **** * Function Name: I2C_2_MasterReadByte
 566:.\Generated_Source\PSoC5/I2C_2_MASTER.c **** ********************************************************************************
 567:.\Generated_Source\PSoC5/I2C_2_MASTER.c **** *
 568:.\Generated_Source\PSoC5/I2C_2_MASTER.c **** * Summary:
 569:.\Generated_Source\PSoC5/I2C_2_MASTER.c **** *  Reads one byte from a slave and ACK or NACK the transfer. A valid Start or
 570:.\Generated_Source\PSoC5/I2C_2_MASTER.c **** *  ReStart condition must be generated before this call this function. Function
 571:.\Generated_Source\PSoC5/I2C_2_MASTER.c **** *  do nothing if Start or Restart condition was failed before call this
 572:.\Generated_Source\PSoC5/I2C_2_MASTER.c **** *  function.
 573:.\Generated_Source\PSoC5/I2C_2_MASTER.c **** *
 574:.\Generated_Source\PSoC5/I2C_2_MASTER.c **** * Parameters:
 575:.\Generated_Source\PSoC5/I2C_2_MASTER.c **** *  acknNack:  Zero, response with NACK, if non-zero response with ACK.
 576:.\Generated_Source\PSoC5/I2C_2_MASTER.c **** *
 577:.\Generated_Source\PSoC5/I2C_2_MASTER.c **** * Return:
 578:.\Generated_Source\PSoC5/I2C_2_MASTER.c **** *  Byte read from slave.
 579:.\Generated_Source\PSoC5/I2C_2_MASTER.c **** *
 580:.\Generated_Source\PSoC5/I2C_2_MASTER.c **** * Side Effects:
 581:.\Generated_Source\PSoC5/I2C_2_MASTER.c **** *  This function is entered without a 'byte complete' bit set in the I2C_CSR
 582:.\Generated_Source\PSoC5/I2C_2_MASTER.c **** *  register. It does not exit until it will be set.
 583:.\Generated_Source\PSoC5/I2C_2_MASTER.c **** *
 584:.\Generated_Source\PSoC5/I2C_2_MASTER.c **** * Global variables:
 585:.\Generated_Source\PSoC5/I2C_2_MASTER.c **** *  I2C_2_state - used to store current state of software FSM.
 586:.\Generated_Source\PSoC5/I2C_2_MASTER.c **** *
 587:.\Generated_Source\PSoC5/I2C_2_MASTER.c **** * Reentrant:
 588:.\Generated_Source\PSoC5/I2C_2_MASTER.c **** *  No
 589:.\Generated_Source\PSoC5/I2C_2_MASTER.c **** *
 590:.\Generated_Source\PSoC5/I2C_2_MASTER.c **** *******************************************************************************/
 591:.\Generated_Source\PSoC5/I2C_2_MASTER.c **** uint8 I2C_2_MasterReadByte(uint8 acknNak) 
 592:.\Generated_Source\PSoC5/I2C_2_MASTER.c **** {
 831              		.loc 1 592 0
 832              		.cfi_startproc
 833              		@ args = 0, pretend = 0, frame = 16
ARM GAS  C:\Users\dskyNote\AppData\Local\Temp\ccLkSjFG.s 			page 26


 834              		@ frame_needed = 1, uses_anonymous_args = 0
 835              		@ link register save eliminated.
 836 0000 80B4     		push	{r7}
 837              		.cfi_def_cfa_offset 4
 838              		.cfi_offset 7, -4
 839 0002 85B0     		sub	sp, sp, #20
 840              		.cfi_def_cfa_offset 24
 841 0004 00AF     		add	r7, sp, #0
 842              		.cfi_def_cfa_register 7
 843 0006 0346     		mov	r3, r0
 844 0008 FB71     		strb	r3, [r7, #7]
 593:.\Generated_Source\PSoC5/I2C_2_MASTER.c ****     uint8 theByte;
 594:.\Generated_Source\PSoC5/I2C_2_MASTER.c **** 
 595:.\Generated_Source\PSoC5/I2C_2_MASTER.c ****     theByte = 0u;
 845              		.loc 1 595 0
 846 000a 0023     		movs	r3, #0
 847 000c FB73     		strb	r3, [r7, #15]
 596:.\Generated_Source\PSoC5/I2C_2_MASTER.c **** 
 597:.\Generated_Source\PSoC5/I2C_2_MASTER.c ****     /* Check if START condition was generated */
 598:.\Generated_Source\PSoC5/I2C_2_MASTER.c ****     if(I2C_2_CHECK_MASTER_MODE(I2C_2_MCSR_REG))
 848              		.loc 1 598 0
 849 000e 224B     		ldr	r3, .L67
 850 0010 1B78     		ldrb	r3, [r3]
 851 0012 DBB2     		uxtb	r3, r3
 852 0014 03F00403 		and	r3, r3, #4
 853 0018 002B     		cmp	r3, #0
 854 001a 35D0     		beq	.L60
 599:.\Generated_Source\PSoC5/I2C_2_MASTER.c ****     {
 600:.\Generated_Source\PSoC5/I2C_2_MASTER.c ****         /* When address phase need release the bus and receive the byte, then decide ACK or NACK */
 601:.\Generated_Source\PSoC5/I2C_2_MASTER.c ****         if(I2C_2_SM_MSTR_RD_ADDR == I2C_2_state)
 855              		.loc 1 601 0
 856 001c 1F4B     		ldr	r3, .L67+4
 857 001e 1B78     		ldrb	r3, [r3]
 858 0020 DBB2     		uxtb	r3, r3
 859 0022 492B     		cmp	r3, #73
 860 0024 10D1     		bne	.L61
 602:.\Generated_Source\PSoC5/I2C_2_MASTER.c ****         {
 603:.\Generated_Source\PSoC5/I2C_2_MASTER.c ****             I2C_2_state = I2C_2_SM_MSTR_RD_DATA;
 861              		.loc 1 603 0
 862 0026 1D4B     		ldr	r3, .L67+4
 863 0028 4A22     		movs	r2, #74
 864 002a 1A70     		strb	r2, [r3]
 604:.\Generated_Source\PSoC5/I2C_2_MASTER.c ****             I2C_2_READY_TO_READ_MANUAL;
 865              		.loc 1 604 0
 866 002c 1C4B     		ldr	r3, .L67+8
 867 002e 0222     		movs	r2, #2
 868 0030 1A70     		strb	r2, [r3]
 869 0032 1C4B     		ldr	r3, .L67+12
 870 0034 0022     		movs	r2, #0
 871 0036 1A70     		strb	r2, [r3]
 872 0038 00BF     		nop
 873              	.L62:
 874              		.loc 1 604 0 is_stmt 0 discriminator 1
 875 003a 174B     		ldr	r3, .L67
 876 003c 1B78     		ldrb	r3, [r3]
 877 003e DBB2     		uxtb	r3, r3
 878 0040 03F00103 		and	r3, r3, #1
ARM GAS  C:\Users\dskyNote\AppData\Local\Temp\ccLkSjFG.s 			page 27


 879 0044 002B     		cmp	r3, #0
 880 0046 F8D1     		bne	.L62
 881              	.L61:
 605:.\Generated_Source\PSoC5/I2C_2_MASTER.c ****         }
 606:.\Generated_Source\PSoC5/I2C_2_MASTER.c **** 
 607:.\Generated_Source\PSoC5/I2C_2_MASTER.c ****         while(I2C_2_WAIT_BYTE_COMPLETE(I2C_2_CSR_REG))
 882              		.loc 1 607 0 is_stmt 1
 883 0048 00BF     		nop
 884              	.L63:
 885              		.loc 1 607 0 is_stmt 0 discriminator 1
 886 004a 134B     		ldr	r3, .L67
 887 004c 1B78     		ldrb	r3, [r3]
 888 004e DBB2     		uxtb	r3, r3
 889 0050 03F00103 		and	r3, r3, #1
 890 0054 002B     		cmp	r3, #0
 891 0056 F8D0     		beq	.L63
 608:.\Generated_Source\PSoC5/I2C_2_MASTER.c ****         {
 609:.\Generated_Source\PSoC5/I2C_2_MASTER.c ****             ; /* Wait for byte to be read */
 610:.\Generated_Source\PSoC5/I2C_2_MASTER.c ****         }
 611:.\Generated_Source\PSoC5/I2C_2_MASTER.c **** 
 612:.\Generated_Source\PSoC5/I2C_2_MASTER.c ****         theByte = I2C_2_DATA_REG;
 892              		.loc 1 612 0 is_stmt 1
 893 0058 134B     		ldr	r3, .L67+16
 894 005a 1B78     		ldrb	r3, [r3]
 895 005c FB73     		strb	r3, [r7, #15]
 613:.\Generated_Source\PSoC5/I2C_2_MASTER.c **** 
 614:.\Generated_Source\PSoC5/I2C_2_MASTER.c ****         /* Now if the ACK flag was set, ACK the data which will release the bus and
 615:.\Generated_Source\PSoC5/I2C_2_MASTER.c ****            start the next byte in otherwise do NOTHING to the CSR reg.
 616:.\Generated_Source\PSoC5/I2C_2_MASTER.c ****            This will allow the calling routine to generate a repeat start or
 617:.\Generated_Source\PSoC5/I2C_2_MASTER.c ****            stop depending on it's preference. */
 618:.\Generated_Source\PSoC5/I2C_2_MASTER.c ****         if(acknNak != 0u)   /* Do ACK */
 896              		.loc 1 618 0
 897 005e FB79     		ldrb	r3, [r7, #7]	@ zero_extendqisi2
 898 0060 002B     		cmp	r3, #0
 899 0062 0ED0     		beq	.L64
 619:.\Generated_Source\PSoC5/I2C_2_MASTER.c ****         {
 620:.\Generated_Source\PSoC5/I2C_2_MASTER.c ****             I2C_2_ACK_AND_RECEIVE_MANUAL;
 900              		.loc 1 620 0
 901 0064 0E4B     		ldr	r3, .L67+8
 902 0066 0222     		movs	r2, #2
 903 0068 1A70     		strb	r2, [r3]
 904 006a 0E4B     		ldr	r3, .L67+12
 905 006c 0022     		movs	r2, #0
 906 006e 1A70     		strb	r2, [r3]
 907 0070 00BF     		nop
 908              	.L65:
 909              		.loc 1 620 0 is_stmt 0 discriminator 1
 910 0072 094B     		ldr	r3, .L67
 911 0074 1B78     		ldrb	r3, [r3]
 912 0076 DBB2     		uxtb	r3, r3
 913 0078 03F00103 		and	r3, r3, #1
 914 007c 002B     		cmp	r3, #0
 915 007e F8D1     		bne	.L65
 916 0080 02E0     		b	.L60
 917              	.L64:
 621:.\Generated_Source\PSoC5/I2C_2_MASTER.c ****         }
 622:.\Generated_Source\PSoC5/I2C_2_MASTER.c ****         else                /* Do NACK */
ARM GAS  C:\Users\dskyNote\AppData\Local\Temp\ccLkSjFG.s 			page 28


 623:.\Generated_Source\PSoC5/I2C_2_MASTER.c ****         {
 624:.\Generated_Source\PSoC5/I2C_2_MASTER.c ****             /* Do nothing to be able work with ReStart */
 625:.\Generated_Source\PSoC5/I2C_2_MASTER.c ****             I2C_2_state = I2C_2_SM_MSTR_HALT;
 918              		.loc 1 625 0 is_stmt 1
 919 0082 064B     		ldr	r3, .L67+4
 920 0084 6022     		movs	r2, #96
 921 0086 1A70     		strb	r2, [r3]
 922              	.L60:
 626:.\Generated_Source\PSoC5/I2C_2_MASTER.c ****         }
 627:.\Generated_Source\PSoC5/I2C_2_MASTER.c ****     }
 628:.\Generated_Source\PSoC5/I2C_2_MASTER.c **** 
 629:.\Generated_Source\PSoC5/I2C_2_MASTER.c ****     return(theByte);
 923              		.loc 1 629 0
 924 0088 FB7B     		ldrb	r3, [r7, #15]	@ zero_extendqisi2
 630:.\Generated_Source\PSoC5/I2C_2_MASTER.c **** }
 925              		.loc 1 630 0
 926 008a 1846     		mov	r0, r3
 927 008c 1437     		adds	r7, r7, #20
 928 008e BD46     		mov	sp, r7
 929              		@ sp needed
 930 0090 5DF8047B 		ldr	r7, [sp], #4
 931 0094 7047     		bx	lr
 932              	.L68:
 933 0096 00BF     		.align	2
 934              	.L67:
 935 0098 68640040 		.word	1073767528
 936 009c 00000000 		.word	I2C_2_state
 937 00a0 79650040 		.word	1073767801
 938 00a4 59650040 		.word	1073767769
 939 00a8 09650040 		.word	1073767689
 940              		.cfi_endproc
 941              	.LFE6:
 942              		.size	I2C_2_MasterReadByte, .-I2C_2_MasterReadByte
 943              		.section	.text.I2C_2_MasterStatus,"ax",%progbits
 944              		.align	2
 945              		.global	I2C_2_MasterStatus
 946              		.thumb
 947              		.thumb_func
 948              		.type	I2C_2_MasterStatus, %function
 949              	I2C_2_MasterStatus:
 950              	.LFB7:
 631:.\Generated_Source\PSoC5/I2C_2_MASTER.c **** 
 632:.\Generated_Source\PSoC5/I2C_2_MASTER.c **** 
 633:.\Generated_Source\PSoC5/I2C_2_MASTER.c **** /*******************************************************************************
 634:.\Generated_Source\PSoC5/I2C_2_MASTER.c **** * Function Name: I2C_2_MasterStatus
 635:.\Generated_Source\PSoC5/I2C_2_MASTER.c **** ********************************************************************************
 636:.\Generated_Source\PSoC5/I2C_2_MASTER.c **** *
 637:.\Generated_Source\PSoC5/I2C_2_MASTER.c **** * Summary:
 638:.\Generated_Source\PSoC5/I2C_2_MASTER.c **** *  Returns the master's communication status.
 639:.\Generated_Source\PSoC5/I2C_2_MASTER.c **** *
 640:.\Generated_Source\PSoC5/I2C_2_MASTER.c **** * Parameters:
 641:.\Generated_Source\PSoC5/I2C_2_MASTER.c **** *  None
 642:.\Generated_Source\PSoC5/I2C_2_MASTER.c **** *
 643:.\Generated_Source\PSoC5/I2C_2_MASTER.c **** * Return:
 644:.\Generated_Source\PSoC5/I2C_2_MASTER.c **** *  Current status of I2C master.
 645:.\Generated_Source\PSoC5/I2C_2_MASTER.c **** *
 646:.\Generated_Source\PSoC5/I2C_2_MASTER.c **** * Global variables:
ARM GAS  C:\Users\dskyNote\AppData\Local\Temp\ccLkSjFG.s 			page 29


 647:.\Generated_Source\PSoC5/I2C_2_MASTER.c **** *  I2C_2_mstrStatus - used to store current status of I2C Master.
 648:.\Generated_Source\PSoC5/I2C_2_MASTER.c **** *
 649:.\Generated_Source\PSoC5/I2C_2_MASTER.c **** *******************************************************************************/
 650:.\Generated_Source\PSoC5/I2C_2_MASTER.c **** uint8 I2C_2_MasterStatus(void) 
 651:.\Generated_Source\PSoC5/I2C_2_MASTER.c **** {
 951              		.loc 1 651 0
 952              		.cfi_startproc
 953              		@ args = 0, pretend = 0, frame = 8
 954              		@ frame_needed = 1, uses_anonymous_args = 0
 955              		@ link register save eliminated.
 956 0000 80B4     		push	{r7}
 957              		.cfi_def_cfa_offset 4
 958              		.cfi_offset 7, -4
 959 0002 83B0     		sub	sp, sp, #12
 960              		.cfi_def_cfa_offset 16
 961 0004 00AF     		add	r7, sp, #0
 962              		.cfi_def_cfa_register 7
 652:.\Generated_Source\PSoC5/I2C_2_MASTER.c ****     uint8 status;
 653:.\Generated_Source\PSoC5/I2C_2_MASTER.c **** 
 654:.\Generated_Source\PSoC5/I2C_2_MASTER.c ****     status = I2C_2_mstrStatus;
 963              		.loc 1 654 0
 964 0006 0B4B     		ldr	r3, .L72
 965 0008 1B78     		ldrb	r3, [r3]
 966 000a FB71     		strb	r3, [r7, #7]
 655:.\Generated_Source\PSoC5/I2C_2_MASTER.c **** 
 656:.\Generated_Source\PSoC5/I2C_2_MASTER.c ****     /* When in Master state only transaction is in progress */
 657:.\Generated_Source\PSoC5/I2C_2_MASTER.c ****     if(I2C_2_CHECK_SM_MASTER)
 967              		.loc 1 657 0
 968 000c 0A4B     		ldr	r3, .L72+4
 969 000e 1B78     		ldrb	r3, [r3]
 970 0010 DBB2     		uxtb	r3, r3
 971 0012 03F04003 		and	r3, r3, #64
 972 0016 DBB2     		uxtb	r3, r3
 973 0018 002B     		cmp	r3, #0
 974 001a 03D0     		beq	.L70
 658:.\Generated_Source\PSoC5/I2C_2_MASTER.c ****     {
 659:.\Generated_Source\PSoC5/I2C_2_MASTER.c ****         /* Add transaction in progress activity to master status */
 660:.\Generated_Source\PSoC5/I2C_2_MASTER.c ****         status |= I2C_2_MSTAT_XFER_INP;
 975              		.loc 1 660 0
 976 001c FB79     		ldrb	r3, [r7, #7]
 977 001e 43F00403 		orr	r3, r3, #4
 978 0022 FB71     		strb	r3, [r7, #7]
 979              	.L70:
 661:.\Generated_Source\PSoC5/I2C_2_MASTER.c ****     }
 662:.\Generated_Source\PSoC5/I2C_2_MASTER.c ****     else
 663:.\Generated_Source\PSoC5/I2C_2_MASTER.c ****     {
 664:.\Generated_Source\PSoC5/I2C_2_MASTER.c ****         /* Current master status is valid */
 665:.\Generated_Source\PSoC5/I2C_2_MASTER.c ****     }
 666:.\Generated_Source\PSoC5/I2C_2_MASTER.c **** 
 667:.\Generated_Source\PSoC5/I2C_2_MASTER.c ****     return(status);
 980              		.loc 1 667 0
 981 0024 FB79     		ldrb	r3, [r7, #7]	@ zero_extendqisi2
 668:.\Generated_Source\PSoC5/I2C_2_MASTER.c **** }
 982              		.loc 1 668 0
 983 0026 1846     		mov	r0, r3
 984 0028 0C37     		adds	r7, r7, #12
 985 002a BD46     		mov	sp, r7
ARM GAS  C:\Users\dskyNote\AppData\Local\Temp\ccLkSjFG.s 			page 30


 986              		@ sp needed
 987 002c 5DF8047B 		ldr	r7, [sp], #4
 988 0030 7047     		bx	lr
 989              	.L73:
 990 0032 00BF     		.align	2
 991              	.L72:
 992 0034 00000000 		.word	I2C_2_mstrStatus
 993 0038 00000000 		.word	I2C_2_state
 994              		.cfi_endproc
 995              	.LFE7:
 996              		.size	I2C_2_MasterStatus, .-I2C_2_MasterStatus
 997              		.section	.text.I2C_2_MasterClearStatus,"ax",%progbits
 998              		.align	2
 999              		.global	I2C_2_MasterClearStatus
 1000              		.thumb
 1001              		.thumb_func
 1002              		.type	I2C_2_MasterClearStatus, %function
 1003              	I2C_2_MasterClearStatus:
 1004              	.LFB8:
 669:.\Generated_Source\PSoC5/I2C_2_MASTER.c **** 
 670:.\Generated_Source\PSoC5/I2C_2_MASTER.c **** 
 671:.\Generated_Source\PSoC5/I2C_2_MASTER.c **** /*******************************************************************************
 672:.\Generated_Source\PSoC5/I2C_2_MASTER.c **** * Function Name: I2C_2_MasterClearStatus
 673:.\Generated_Source\PSoC5/I2C_2_MASTER.c **** ********************************************************************************
 674:.\Generated_Source\PSoC5/I2C_2_MASTER.c **** *
 675:.\Generated_Source\PSoC5/I2C_2_MASTER.c **** * Summary:
 676:.\Generated_Source\PSoC5/I2C_2_MASTER.c **** *  Clears all status flags and returns the master status.
 677:.\Generated_Source\PSoC5/I2C_2_MASTER.c **** *
 678:.\Generated_Source\PSoC5/I2C_2_MASTER.c **** * Parameters:
 679:.\Generated_Source\PSoC5/I2C_2_MASTER.c **** *  None
 680:.\Generated_Source\PSoC5/I2C_2_MASTER.c **** *
 681:.\Generated_Source\PSoC5/I2C_2_MASTER.c **** * Return:
 682:.\Generated_Source\PSoC5/I2C_2_MASTER.c **** *  Current status of I2C master.
 683:.\Generated_Source\PSoC5/I2C_2_MASTER.c **** *
 684:.\Generated_Source\PSoC5/I2C_2_MASTER.c **** * Global variables:
 685:.\Generated_Source\PSoC5/I2C_2_MASTER.c **** *  I2C_2_mstrStatus - used to store current status of I2C Master.
 686:.\Generated_Source\PSoC5/I2C_2_MASTER.c **** *
 687:.\Generated_Source\PSoC5/I2C_2_MASTER.c **** * Reentrant:
 688:.\Generated_Source\PSoC5/I2C_2_MASTER.c **** *  No
 689:.\Generated_Source\PSoC5/I2C_2_MASTER.c **** *
 690:.\Generated_Source\PSoC5/I2C_2_MASTER.c **** *******************************************************************************/
 691:.\Generated_Source\PSoC5/I2C_2_MASTER.c **** uint8 I2C_2_MasterClearStatus(void) 
 692:.\Generated_Source\PSoC5/I2C_2_MASTER.c **** {
 1005              		.loc 1 692 0
 1006              		.cfi_startproc
 1007              		@ args = 0, pretend = 0, frame = 8
 1008              		@ frame_needed = 1, uses_anonymous_args = 0
 1009              		@ link register save eliminated.
 1010 0000 80B4     		push	{r7}
 1011              		.cfi_def_cfa_offset 4
 1012              		.cfi_offset 7, -4
 1013 0002 83B0     		sub	sp, sp, #12
 1014              		.cfi_def_cfa_offset 16
 1015 0004 00AF     		add	r7, sp, #0
 1016              		.cfi_def_cfa_register 7
 693:.\Generated_Source\PSoC5/I2C_2_MASTER.c ****     /* Current master status */
 694:.\Generated_Source\PSoC5/I2C_2_MASTER.c ****     uint8 status;
ARM GAS  C:\Users\dskyNote\AppData\Local\Temp\ccLkSjFG.s 			page 31


 695:.\Generated_Source\PSoC5/I2C_2_MASTER.c **** 
 696:.\Generated_Source\PSoC5/I2C_2_MASTER.c ****     /* Read and clear master status */
 697:.\Generated_Source\PSoC5/I2C_2_MASTER.c ****     status = I2C_2_mstrStatus;
 1017              		.loc 1 697 0
 1018 0006 064B     		ldr	r3, .L76
 1019 0008 1B78     		ldrb	r3, [r3]
 1020 000a FB71     		strb	r3, [r7, #7]
 698:.\Generated_Source\PSoC5/I2C_2_MASTER.c ****     I2C_2_mstrStatus = I2C_2_MSTAT_CLEAR;
 1021              		.loc 1 698 0
 1022 000c 044B     		ldr	r3, .L76
 1023 000e 0022     		movs	r2, #0
 1024 0010 1A70     		strb	r2, [r3]
 699:.\Generated_Source\PSoC5/I2C_2_MASTER.c **** 
 700:.\Generated_Source\PSoC5/I2C_2_MASTER.c ****     return(status);
 1025              		.loc 1 700 0
 1026 0012 FB79     		ldrb	r3, [r7, #7]	@ zero_extendqisi2
 701:.\Generated_Source\PSoC5/I2C_2_MASTER.c **** }
 1027              		.loc 1 701 0
 1028 0014 1846     		mov	r0, r3
 1029 0016 0C37     		adds	r7, r7, #12
 1030 0018 BD46     		mov	sp, r7
 1031              		@ sp needed
 1032 001a 5DF8047B 		ldr	r7, [sp], #4
 1033 001e 7047     		bx	lr
 1034              	.L77:
 1035              		.align	2
 1036              	.L76:
 1037 0020 00000000 		.word	I2C_2_mstrStatus
 1038              		.cfi_endproc
 1039              	.LFE8:
 1040              		.size	I2C_2_MasterClearStatus, .-I2C_2_MasterClearStatus
 1041              		.section	.text.I2C_2_MasterGetReadBufSize,"ax",%progbits
 1042              		.align	2
 1043              		.global	I2C_2_MasterGetReadBufSize
 1044              		.thumb
 1045              		.thumb_func
 1046              		.type	I2C_2_MasterGetReadBufSize, %function
 1047              	I2C_2_MasterGetReadBufSize:
 1048              	.LFB9:
 702:.\Generated_Source\PSoC5/I2C_2_MASTER.c **** 
 703:.\Generated_Source\PSoC5/I2C_2_MASTER.c **** 
 704:.\Generated_Source\PSoC5/I2C_2_MASTER.c **** /*******************************************************************************
 705:.\Generated_Source\PSoC5/I2C_2_MASTER.c **** * Function Name: I2C_2_MasterGetReadBufSize
 706:.\Generated_Source\PSoC5/I2C_2_MASTER.c **** ********************************************************************************
 707:.\Generated_Source\PSoC5/I2C_2_MASTER.c **** *
 708:.\Generated_Source\PSoC5/I2C_2_MASTER.c **** * Summary:
 709:.\Generated_Source\PSoC5/I2C_2_MASTER.c **** *  Returns the amount of bytes that has been transferred with an
 710:.\Generated_Source\PSoC5/I2C_2_MASTER.c **** *  I2C_MasterReadBuf command.
 711:.\Generated_Source\PSoC5/I2C_2_MASTER.c **** *
 712:.\Generated_Source\PSoC5/I2C_2_MASTER.c **** * Parameters:
 713:.\Generated_Source\PSoC5/I2C_2_MASTER.c **** *  None
 714:.\Generated_Source\PSoC5/I2C_2_MASTER.c **** *
 715:.\Generated_Source\PSoC5/I2C_2_MASTER.c **** * Return:
 716:.\Generated_Source\PSoC5/I2C_2_MASTER.c **** *  Byte count of transfer. If the transfer is not yet complete, it will return
 717:.\Generated_Source\PSoC5/I2C_2_MASTER.c **** *  the byte count transferred so far.
 718:.\Generated_Source\PSoC5/I2C_2_MASTER.c **** *
 719:.\Generated_Source\PSoC5/I2C_2_MASTER.c **** * Global variables:
ARM GAS  C:\Users\dskyNote\AppData\Local\Temp\ccLkSjFG.s 			page 32


 720:.\Generated_Source\PSoC5/I2C_2_MASTER.c **** *  I2C_2_mstrRdBufIndex - used to current index within master read
 721:.\Generated_Source\PSoC5/I2C_2_MASTER.c **** *  buffer.
 722:.\Generated_Source\PSoC5/I2C_2_MASTER.c **** *
 723:.\Generated_Source\PSoC5/I2C_2_MASTER.c **** *******************************************************************************/
 724:.\Generated_Source\PSoC5/I2C_2_MASTER.c **** uint8 I2C_2_MasterGetReadBufSize(void) 
 725:.\Generated_Source\PSoC5/I2C_2_MASTER.c **** {
 1049              		.loc 1 725 0
 1050              		.cfi_startproc
 1051              		@ args = 0, pretend = 0, frame = 0
 1052              		@ frame_needed = 1, uses_anonymous_args = 0
 1053              		@ link register save eliminated.
 1054 0000 80B4     		push	{r7}
 1055              		.cfi_def_cfa_offset 4
 1056              		.cfi_offset 7, -4
 1057 0002 00AF     		add	r7, sp, #0
 1058              		.cfi_def_cfa_register 7
 726:.\Generated_Source\PSoC5/I2C_2_MASTER.c ****     return(I2C_2_mstrRdBufIndex);
 1059              		.loc 1 726 0
 1060 0004 034B     		ldr	r3, .L80
 1061 0006 1B78     		ldrb	r3, [r3]
 1062 0008 DBB2     		uxtb	r3, r3
 727:.\Generated_Source\PSoC5/I2C_2_MASTER.c **** }
 1063              		.loc 1 727 0
 1064 000a 1846     		mov	r0, r3
 1065 000c BD46     		mov	sp, r7
 1066              		@ sp needed
 1067 000e 5DF8047B 		ldr	r7, [sp], #4
 1068 0012 7047     		bx	lr
 1069              	.L81:
 1070              		.align	2
 1071              	.L80:
 1072 0014 00000000 		.word	I2C_2_mstrRdBufIndex
 1073              		.cfi_endproc
 1074              	.LFE9:
 1075              		.size	I2C_2_MasterGetReadBufSize, .-I2C_2_MasterGetReadBufSize
 1076              		.section	.text.I2C_2_MasterGetWriteBufSize,"ax",%progbits
 1077              		.align	2
 1078              		.global	I2C_2_MasterGetWriteBufSize
 1079              		.thumb
 1080              		.thumb_func
 1081              		.type	I2C_2_MasterGetWriteBufSize, %function
 1082              	I2C_2_MasterGetWriteBufSize:
 1083              	.LFB10:
 728:.\Generated_Source\PSoC5/I2C_2_MASTER.c **** 
 729:.\Generated_Source\PSoC5/I2C_2_MASTER.c **** 
 730:.\Generated_Source\PSoC5/I2C_2_MASTER.c **** /*******************************************************************************
 731:.\Generated_Source\PSoC5/I2C_2_MASTER.c **** * Function Name: I2C_2_MasterGetWriteBufSize
 732:.\Generated_Source\PSoC5/I2C_2_MASTER.c **** ********************************************************************************
 733:.\Generated_Source\PSoC5/I2C_2_MASTER.c **** *
 734:.\Generated_Source\PSoC5/I2C_2_MASTER.c **** * Summary:
 735:.\Generated_Source\PSoC5/I2C_2_MASTER.c **** *  Returns the amount of bytes that has been transferred with an
 736:.\Generated_Source\PSoC5/I2C_2_MASTER.c **** *  I2C_MasterWriteBuf command.
 737:.\Generated_Source\PSoC5/I2C_2_MASTER.c **** *
 738:.\Generated_Source\PSoC5/I2C_2_MASTER.c **** * Parameters:
 739:.\Generated_Source\PSoC5/I2C_2_MASTER.c **** *  None
 740:.\Generated_Source\PSoC5/I2C_2_MASTER.c **** *
 741:.\Generated_Source\PSoC5/I2C_2_MASTER.c **** * Return:
ARM GAS  C:\Users\dskyNote\AppData\Local\Temp\ccLkSjFG.s 			page 33


 742:.\Generated_Source\PSoC5/I2C_2_MASTER.c **** *  Byte count of transfer. If the transfer is not yet complete, it will return
 743:.\Generated_Source\PSoC5/I2C_2_MASTER.c **** *  the byte count transferred so far.
 744:.\Generated_Source\PSoC5/I2C_2_MASTER.c **** *
 745:.\Generated_Source\PSoC5/I2C_2_MASTER.c **** * Global variables:
 746:.\Generated_Source\PSoC5/I2C_2_MASTER.c **** *  I2C_2_mstrWrBufIndex - used to current index within master write
 747:.\Generated_Source\PSoC5/I2C_2_MASTER.c **** *  buffer.
 748:.\Generated_Source\PSoC5/I2C_2_MASTER.c **** *
 749:.\Generated_Source\PSoC5/I2C_2_MASTER.c **** *******************************************************************************/
 750:.\Generated_Source\PSoC5/I2C_2_MASTER.c **** uint8 I2C_2_MasterGetWriteBufSize(void) 
 751:.\Generated_Source\PSoC5/I2C_2_MASTER.c **** {
 1084              		.loc 1 751 0
 1085              		.cfi_startproc
 1086              		@ args = 0, pretend = 0, frame = 0
 1087              		@ frame_needed = 1, uses_anonymous_args = 0
 1088              		@ link register save eliminated.
 1089 0000 80B4     		push	{r7}
 1090              		.cfi_def_cfa_offset 4
 1091              		.cfi_offset 7, -4
 1092 0002 00AF     		add	r7, sp, #0
 1093              		.cfi_def_cfa_register 7
 752:.\Generated_Source\PSoC5/I2C_2_MASTER.c ****     return(I2C_2_mstrWrBufIndex);
 1094              		.loc 1 752 0
 1095 0004 034B     		ldr	r3, .L84
 1096 0006 1B78     		ldrb	r3, [r3]
 1097 0008 DBB2     		uxtb	r3, r3
 753:.\Generated_Source\PSoC5/I2C_2_MASTER.c **** }
 1098              		.loc 1 753 0
 1099 000a 1846     		mov	r0, r3
 1100 000c BD46     		mov	sp, r7
 1101              		@ sp needed
 1102 000e 5DF8047B 		ldr	r7, [sp], #4
 1103 0012 7047     		bx	lr
 1104              	.L85:
 1105              		.align	2
 1106              	.L84:
 1107 0014 00000000 		.word	I2C_2_mstrWrBufIndex
 1108              		.cfi_endproc
 1109              	.LFE10:
 1110              		.size	I2C_2_MasterGetWriteBufSize, .-I2C_2_MasterGetWriteBufSize
 1111              		.section	.text.I2C_2_MasterClearReadBuf,"ax",%progbits
 1112              		.align	2
 1113              		.global	I2C_2_MasterClearReadBuf
 1114              		.thumb
 1115              		.thumb_func
 1116              		.type	I2C_2_MasterClearReadBuf, %function
 1117              	I2C_2_MasterClearReadBuf:
 1118              	.LFB11:
 754:.\Generated_Source\PSoC5/I2C_2_MASTER.c **** 
 755:.\Generated_Source\PSoC5/I2C_2_MASTER.c **** 
 756:.\Generated_Source\PSoC5/I2C_2_MASTER.c **** /*******************************************************************************
 757:.\Generated_Source\PSoC5/I2C_2_MASTER.c **** * Function Name: I2C_2_MasterClearReadBuf
 758:.\Generated_Source\PSoC5/I2C_2_MASTER.c **** ********************************************************************************
 759:.\Generated_Source\PSoC5/I2C_2_MASTER.c **** *
 760:.\Generated_Source\PSoC5/I2C_2_MASTER.c **** * Summary:
 761:.\Generated_Source\PSoC5/I2C_2_MASTER.c **** *  Resets the read buffer pointer back to the first byte in the buffer.
 762:.\Generated_Source\PSoC5/I2C_2_MASTER.c **** *
 763:.\Generated_Source\PSoC5/I2C_2_MASTER.c **** * Parameters:
ARM GAS  C:\Users\dskyNote\AppData\Local\Temp\ccLkSjFG.s 			page 34


 764:.\Generated_Source\PSoC5/I2C_2_MASTER.c **** *  None
 765:.\Generated_Source\PSoC5/I2C_2_MASTER.c **** *
 766:.\Generated_Source\PSoC5/I2C_2_MASTER.c **** * Return:
 767:.\Generated_Source\PSoC5/I2C_2_MASTER.c **** *  None
 768:.\Generated_Source\PSoC5/I2C_2_MASTER.c **** *
 769:.\Generated_Source\PSoC5/I2C_2_MASTER.c **** * Global variables:
 770:.\Generated_Source\PSoC5/I2C_2_MASTER.c **** *  I2C_2_mstrRdBufIndex - used to current index within master read
 771:.\Generated_Source\PSoC5/I2C_2_MASTER.c **** *   buffer.
 772:.\Generated_Source\PSoC5/I2C_2_MASTER.c **** *  I2C_2_mstrStatus - used to store current status of I2C Master.
 773:.\Generated_Source\PSoC5/I2C_2_MASTER.c **** *
 774:.\Generated_Source\PSoC5/I2C_2_MASTER.c **** * Reentrant:
 775:.\Generated_Source\PSoC5/I2C_2_MASTER.c **** *  No
 776:.\Generated_Source\PSoC5/I2C_2_MASTER.c **** *
 777:.\Generated_Source\PSoC5/I2C_2_MASTER.c **** *******************************************************************************/
 778:.\Generated_Source\PSoC5/I2C_2_MASTER.c **** void I2C_2_MasterClearReadBuf(void) 
 779:.\Generated_Source\PSoC5/I2C_2_MASTER.c **** {
 1119              		.loc 1 779 0
 1120              		.cfi_startproc
 1121              		@ args = 0, pretend = 0, frame = 0
 1122              		@ frame_needed = 1, uses_anonymous_args = 0
 1123              		@ link register save eliminated.
 1124 0000 80B4     		push	{r7}
 1125              		.cfi_def_cfa_offset 4
 1126              		.cfi_offset 7, -4
 1127 0002 00AF     		add	r7, sp, #0
 1128              		.cfi_def_cfa_register 7
 780:.\Generated_Source\PSoC5/I2C_2_MASTER.c ****     I2C_2_mstrRdBufIndex = 0u;
 1129              		.loc 1 780 0
 1130 0004 074B     		ldr	r3, .L87
 1131 0006 0022     		movs	r2, #0
 1132 0008 1A70     		strb	r2, [r3]
 781:.\Generated_Source\PSoC5/I2C_2_MASTER.c ****     I2C_2_mstrStatus    &= ((uint8) ~I2C_2_MSTAT_RD_CMPLT);
 1133              		.loc 1 781 0
 1134 000a 074B     		ldr	r3, .L87+4
 1135 000c 1B78     		ldrb	r3, [r3]
 1136 000e DBB2     		uxtb	r3, r3
 1137 0010 23F00103 		bic	r3, r3, #1
 1138 0014 DAB2     		uxtb	r2, r3
 1139 0016 044B     		ldr	r3, .L87+4
 1140 0018 1A70     		strb	r2, [r3]
 782:.\Generated_Source\PSoC5/I2C_2_MASTER.c **** }
 1141              		.loc 1 782 0
 1142 001a BD46     		mov	sp, r7
 1143              		@ sp needed
 1144 001c 5DF8047B 		ldr	r7, [sp], #4
 1145 0020 7047     		bx	lr
 1146              	.L88:
 1147 0022 00BF     		.align	2
 1148              	.L87:
 1149 0024 00000000 		.word	I2C_2_mstrRdBufIndex
 1150 0028 00000000 		.word	I2C_2_mstrStatus
 1151              		.cfi_endproc
 1152              	.LFE11:
 1153              		.size	I2C_2_MasterClearReadBuf, .-I2C_2_MasterClearReadBuf
 1154              		.section	.text.I2C_2_MasterClearWriteBuf,"ax",%progbits
 1155              		.align	2
 1156              		.global	I2C_2_MasterClearWriteBuf
ARM GAS  C:\Users\dskyNote\AppData\Local\Temp\ccLkSjFG.s 			page 35


 1157              		.thumb
 1158              		.thumb_func
 1159              		.type	I2C_2_MasterClearWriteBuf, %function
 1160              	I2C_2_MasterClearWriteBuf:
 1161              	.LFB12:
 783:.\Generated_Source\PSoC5/I2C_2_MASTER.c **** 
 784:.\Generated_Source\PSoC5/I2C_2_MASTER.c **** 
 785:.\Generated_Source\PSoC5/I2C_2_MASTER.c **** /*******************************************************************************
 786:.\Generated_Source\PSoC5/I2C_2_MASTER.c **** * Function Name: I2C_2_MasterClearWriteBuf
 787:.\Generated_Source\PSoC5/I2C_2_MASTER.c **** ********************************************************************************
 788:.\Generated_Source\PSoC5/I2C_2_MASTER.c **** *
 789:.\Generated_Source\PSoC5/I2C_2_MASTER.c **** * Summary:
 790:.\Generated_Source\PSoC5/I2C_2_MASTER.c **** *  Resets the write buffer pointer back to the first byte in the buffer.
 791:.\Generated_Source\PSoC5/I2C_2_MASTER.c **** *
 792:.\Generated_Source\PSoC5/I2C_2_MASTER.c **** * Parameters:
 793:.\Generated_Source\PSoC5/I2C_2_MASTER.c **** *  None
 794:.\Generated_Source\PSoC5/I2C_2_MASTER.c **** *
 795:.\Generated_Source\PSoC5/I2C_2_MASTER.c **** * Return:
 796:.\Generated_Source\PSoC5/I2C_2_MASTER.c **** *  None
 797:.\Generated_Source\PSoC5/I2C_2_MASTER.c **** *
 798:.\Generated_Source\PSoC5/I2C_2_MASTER.c **** * Global variables:
 799:.\Generated_Source\PSoC5/I2C_2_MASTER.c **** *  I2C_2_mstrRdBufIndex - used to current index within master read
 800:.\Generated_Source\PSoC5/I2C_2_MASTER.c **** *   buffer.
 801:.\Generated_Source\PSoC5/I2C_2_MASTER.c **** *  I2C_2_mstrStatus - used to store current status of I2C Master.
 802:.\Generated_Source\PSoC5/I2C_2_MASTER.c **** *
 803:.\Generated_Source\PSoC5/I2C_2_MASTER.c **** * Reentrant:
 804:.\Generated_Source\PSoC5/I2C_2_MASTER.c **** *  No
 805:.\Generated_Source\PSoC5/I2C_2_MASTER.c **** *
 806:.\Generated_Source\PSoC5/I2C_2_MASTER.c **** *******************************************************************************/
 807:.\Generated_Source\PSoC5/I2C_2_MASTER.c **** void I2C_2_MasterClearWriteBuf(void) 
 808:.\Generated_Source\PSoC5/I2C_2_MASTER.c **** {
 1162              		.loc 1 808 0
 1163              		.cfi_startproc
 1164              		@ args = 0, pretend = 0, frame = 0
 1165              		@ frame_needed = 1, uses_anonymous_args = 0
 1166              		@ link register save eliminated.
 1167 0000 80B4     		push	{r7}
 1168              		.cfi_def_cfa_offset 4
 1169              		.cfi_offset 7, -4
 1170 0002 00AF     		add	r7, sp, #0
 1171              		.cfi_def_cfa_register 7
 809:.\Generated_Source\PSoC5/I2C_2_MASTER.c ****     I2C_2_mstrWrBufIndex = 0u;
 1172              		.loc 1 809 0
 1173 0004 074B     		ldr	r3, .L90
 1174 0006 0022     		movs	r2, #0
 1175 0008 1A70     		strb	r2, [r3]
 810:.\Generated_Source\PSoC5/I2C_2_MASTER.c ****     I2C_2_mstrStatus    &= ((uint8) ~I2C_2_MSTAT_WR_CMPLT);
 1176              		.loc 1 810 0
 1177 000a 074B     		ldr	r3, .L90+4
 1178 000c 1B78     		ldrb	r3, [r3]
 1179 000e DBB2     		uxtb	r3, r3
 1180 0010 23F00203 		bic	r3, r3, #2
 1181 0014 DAB2     		uxtb	r2, r3
 1182 0016 044B     		ldr	r3, .L90+4
 1183 0018 1A70     		strb	r2, [r3]
 811:.\Generated_Source\PSoC5/I2C_2_MASTER.c **** }
 1184              		.loc 1 811 0
ARM GAS  C:\Users\dskyNote\AppData\Local\Temp\ccLkSjFG.s 			page 36


 1185 001a BD46     		mov	sp, r7
 1186              		@ sp needed
 1187 001c 5DF8047B 		ldr	r7, [sp], #4
 1188 0020 7047     		bx	lr
 1189              	.L91:
 1190 0022 00BF     		.align	2
 1191              	.L90:
 1192 0024 00000000 		.word	I2C_2_mstrWrBufIndex
 1193 0028 00000000 		.word	I2C_2_mstrStatus
 1194              		.cfi_endproc
 1195              	.LFE12:
 1196              		.size	I2C_2_MasterClearWriteBuf, .-I2C_2_MasterClearWriteBuf
 1197              		.section	.text.I2C_2_Workaround,"ax",%progbits
 1198              		.align	2
 1199              		.global	I2C_2_Workaround
 1200              		.thumb
 1201              		.thumb_func
 1202              		.type	I2C_2_Workaround, %function
 1203              	I2C_2_Workaround:
 1204              	.LFB13:
 812:.\Generated_Source\PSoC5/I2C_2_MASTER.c **** 
 813:.\Generated_Source\PSoC5/I2C_2_MASTER.c **** 
 814:.\Generated_Source\PSoC5/I2C_2_MASTER.c **** /*******************************************************************************
 815:.\Generated_Source\PSoC5/I2C_2_MASTER.c **** * Function Name: I2C_2_Workaround
 816:.\Generated_Source\PSoC5/I2C_2_MASTER.c **** ********************************************************************************
 817:.\Generated_Source\PSoC5/I2C_2_MASTER.c **** *
 818:.\Generated_Source\PSoC5/I2C_2_MASTER.c **** * Summary:
 819:.\Generated_Source\PSoC5/I2C_2_MASTER.c **** *  Do nothing. This fake fuction use as workaround for CDT 78083.
 820:.\Generated_Source\PSoC5/I2C_2_MASTER.c **** *
 821:.\Generated_Source\PSoC5/I2C_2_MASTER.c **** * Parameters:
 822:.\Generated_Source\PSoC5/I2C_2_MASTER.c **** *  None
 823:.\Generated_Source\PSoC5/I2C_2_MASTER.c **** *
 824:.\Generated_Source\PSoC5/I2C_2_MASTER.c **** * Return:
 825:.\Generated_Source\PSoC5/I2C_2_MASTER.c **** *  None
 826:.\Generated_Source\PSoC5/I2C_2_MASTER.c **** *
 827:.\Generated_Source\PSoC5/I2C_2_MASTER.c **** * Reentrant:
 828:.\Generated_Source\PSoC5/I2C_2_MASTER.c **** *  No
 829:.\Generated_Source\PSoC5/I2C_2_MASTER.c **** *
 830:.\Generated_Source\PSoC5/I2C_2_MASTER.c **** *******************************************************************************/
 831:.\Generated_Source\PSoC5/I2C_2_MASTER.c **** void I2C_2_Workaround(void) 
 832:.\Generated_Source\PSoC5/I2C_2_MASTER.c **** {
 1205              		.loc 1 832 0
 1206              		.cfi_startproc
 1207              		@ args = 0, pretend = 0, frame = 0
 1208              		@ frame_needed = 1, uses_anonymous_args = 0
 1209              		@ link register save eliminated.
 1210 0000 80B4     		push	{r7}
 1211              		.cfi_def_cfa_offset 4
 1212              		.cfi_offset 7, -4
 1213 0002 00AF     		add	r7, sp, #0
 1214              		.cfi_def_cfa_register 7
 833:.\Generated_Source\PSoC5/I2C_2_MASTER.c ****     /* Does nothing */
 834:.\Generated_Source\PSoC5/I2C_2_MASTER.c **** }
 1215              		.loc 1 834 0
 1216 0004 BD46     		mov	sp, r7
 1217              		@ sp needed
 1218 0006 5DF8047B 		ldr	r7, [sp], #4
ARM GAS  C:\Users\dskyNote\AppData\Local\Temp\ccLkSjFG.s 			page 37


 1219 000a 7047     		bx	lr
 1220              		.cfi_endproc
 1221              	.LFE13:
 1222              		.size	I2C_2_Workaround, .-I2C_2_Workaround
 1223              		.text
 1224              	.Letext0:
 1225              		.file 2 ".\\Generated_Source\\PSoC5\\cytypes.h"
 1226              		.file 3 ".\\Generated_Source\\PSoC5\\I2C_2_PVT.h"