ARM GAS  C:\Users\dskyNote\AppData\Local\Temp\ccIGAmPA.s 			page 1


   1              		.syntax unified
   2              		.cpu cortex-m3
   3              		.fpu softvfp
   4              		.eabi_attribute 20, 1
   5              		.eabi_attribute 21, 1
   6              		.eabi_attribute 23, 3
   7              		.eabi_attribute 24, 1
   8              		.eabi_attribute 25, 1
   9              		.eabi_attribute 26, 1
  10              		.eabi_attribute 30, 6
  11              		.eabi_attribute 34, 1
  12              		.eabi_attribute 18, 4
  13              		.thumb
  14              		.file	"I2C_3_SLAVE.c"
  15              		.text
  16              	.Ltext0:
  17              		.cfi_sections	.debug_frame
  18              		.comm	I2C_3_slStatus,1,1
  19              		.comm	I2C_3_slRdBufPtr,4,4
  20              		.comm	I2C_3_slRdBufSize,1,1
  21              		.comm	I2C_3_slRdBufIndex,1,1
  22              		.comm	I2C_3_slWrBufPtr,4,4
  23              		.comm	I2C_3_slWrBufSize,1,1
  24              		.comm	I2C_3_slWrBufIndex,1,1
  25              		.section	.text.I2C_3_SlaveStatus,"ax",%progbits
  26              		.align	2
  27              		.global	I2C_3_SlaveStatus
  28              		.thumb
  29              		.thumb_func
  30              		.type	I2C_3_SlaveStatus, %function
  31              	I2C_3_SlaveStatus:
  32              	.LFB0:
  33              		.file 1 ".\\Generated_Source\\PSoC5\\I2C_3_SLAVE.c"
   1:.\Generated_Source\PSoC5/I2C_3_SLAVE.c **** /*******************************************************************************
   2:.\Generated_Source\PSoC5/I2C_3_SLAVE.c **** * File Name: I2C_3_SLAVE.c
   3:.\Generated_Source\PSoC5/I2C_3_SLAVE.c **** * Version 3.30
   4:.\Generated_Source\PSoC5/I2C_3_SLAVE.c **** *
   5:.\Generated_Source\PSoC5/I2C_3_SLAVE.c **** * Description:
   6:.\Generated_Source\PSoC5/I2C_3_SLAVE.c **** *  This file provides the source code of APIs for the I2C component Slave mode.
   7:.\Generated_Source\PSoC5/I2C_3_SLAVE.c **** *
   8:.\Generated_Source\PSoC5/I2C_3_SLAVE.c **** * Note:
   9:.\Generated_Source\PSoC5/I2C_3_SLAVE.c **** *
  10:.\Generated_Source\PSoC5/I2C_3_SLAVE.c **** *******************************************************************************
  11:.\Generated_Source\PSoC5/I2C_3_SLAVE.c **** * Copyright 2012, Cypress Semiconductor Corporation.  All rights reserved.
  12:.\Generated_Source\PSoC5/I2C_3_SLAVE.c **** * You may use this file only in accordance with the license, terms, conditions,
  13:.\Generated_Source\PSoC5/I2C_3_SLAVE.c **** * disclaimers, and limitations in the end user license agreement accompanying
  14:.\Generated_Source\PSoC5/I2C_3_SLAVE.c **** * the software package with which this file was provided.
  15:.\Generated_Source\PSoC5/I2C_3_SLAVE.c **** *******************************************************************************/
  16:.\Generated_Source\PSoC5/I2C_3_SLAVE.c **** 
  17:.\Generated_Source\PSoC5/I2C_3_SLAVE.c **** #include "I2C_3_PVT.h"
  18:.\Generated_Source\PSoC5/I2C_3_SLAVE.c **** 
  19:.\Generated_Source\PSoC5/I2C_3_SLAVE.c **** #if(I2C_3_MODE_SLAVE_ENABLED)
  20:.\Generated_Source\PSoC5/I2C_3_SLAVE.c **** 
  21:.\Generated_Source\PSoC5/I2C_3_SLAVE.c **** /**********************************
  22:.\Generated_Source\PSoC5/I2C_3_SLAVE.c **** *      System variables
  23:.\Generated_Source\PSoC5/I2C_3_SLAVE.c **** **********************************/
  24:.\Generated_Source\PSoC5/I2C_3_SLAVE.c **** 
ARM GAS  C:\Users\dskyNote\AppData\Local\Temp\ccIGAmPA.s 			page 2


  25:.\Generated_Source\PSoC5/I2C_3_SLAVE.c **** volatile uint8 I2C_3_slStatus;   /* Slave Status  */
  26:.\Generated_Source\PSoC5/I2C_3_SLAVE.c **** 
  27:.\Generated_Source\PSoC5/I2C_3_SLAVE.c **** /* Transmit buffer variables */
  28:.\Generated_Source\PSoC5/I2C_3_SLAVE.c **** volatile uint8 * I2C_3_slRdBufPtr;   /* Pointer to Transmit buffer  */
  29:.\Generated_Source\PSoC5/I2C_3_SLAVE.c **** volatile uint8   I2C_3_slRdBufSize;  /* Slave Transmit buffer size  */
  30:.\Generated_Source\PSoC5/I2C_3_SLAVE.c **** volatile uint8   I2C_3_slRdBufIndex; /* Slave Transmit buffer Index */
  31:.\Generated_Source\PSoC5/I2C_3_SLAVE.c **** 
  32:.\Generated_Source\PSoC5/I2C_3_SLAVE.c **** /* Receive buffer variables */
  33:.\Generated_Source\PSoC5/I2C_3_SLAVE.c **** volatile uint8 * I2C_3_slWrBufPtr;   /* Pointer to Receive buffer  */
  34:.\Generated_Source\PSoC5/I2C_3_SLAVE.c **** volatile uint8   I2C_3_slWrBufSize;  /* Slave Receive buffer size  */
  35:.\Generated_Source\PSoC5/I2C_3_SLAVE.c **** volatile uint8   I2C_3_slWrBufIndex; /* Slave Receive buffer Index */
  36:.\Generated_Source\PSoC5/I2C_3_SLAVE.c **** 
  37:.\Generated_Source\PSoC5/I2C_3_SLAVE.c **** #if(I2C_3_SW_ADRR_DECODE)
  38:.\Generated_Source\PSoC5/I2C_3_SLAVE.c ****     volatile uint8 I2C_3_slAddress;  /* Software address variable */
  39:.\Generated_Source\PSoC5/I2C_3_SLAVE.c **** #endif   /* (I2C_3_SW_ADRR_DECODE) */
  40:.\Generated_Source\PSoC5/I2C_3_SLAVE.c **** 
  41:.\Generated_Source\PSoC5/I2C_3_SLAVE.c **** 
  42:.\Generated_Source\PSoC5/I2C_3_SLAVE.c **** /*******************************************************************************
  43:.\Generated_Source\PSoC5/I2C_3_SLAVE.c **** * Function Name: I2C_3_SlaveStatus
  44:.\Generated_Source\PSoC5/I2C_3_SLAVE.c **** ********************************************************************************
  45:.\Generated_Source\PSoC5/I2C_3_SLAVE.c **** *
  46:.\Generated_Source\PSoC5/I2C_3_SLAVE.c **** * Summary:
  47:.\Generated_Source\PSoC5/I2C_3_SLAVE.c **** *  Returns I2C slave's communication status.
  48:.\Generated_Source\PSoC5/I2C_3_SLAVE.c **** *
  49:.\Generated_Source\PSoC5/I2C_3_SLAVE.c **** * Parameters:
  50:.\Generated_Source\PSoC5/I2C_3_SLAVE.c **** *  None
  51:.\Generated_Source\PSoC5/I2C_3_SLAVE.c **** *
  52:.\Generated_Source\PSoC5/I2C_3_SLAVE.c **** * Return:
  53:.\Generated_Source\PSoC5/I2C_3_SLAVE.c **** *  Current status of I2C slave.
  54:.\Generated_Source\PSoC5/I2C_3_SLAVE.c **** *
  55:.\Generated_Source\PSoC5/I2C_3_SLAVE.c **** * Global variables:
  56:.\Generated_Source\PSoC5/I2C_3_SLAVE.c **** *  I2C_3_slStatus  - used to store current status of I2C slave.
  57:.\Generated_Source\PSoC5/I2C_3_SLAVE.c **** *
  58:.\Generated_Source\PSoC5/I2C_3_SLAVE.c **** *******************************************************************************/
  59:.\Generated_Source\PSoC5/I2C_3_SLAVE.c **** uint8 I2C_3_SlaveStatus(void) 
  60:.\Generated_Source\PSoC5/I2C_3_SLAVE.c **** {
  34              		.loc 1 60 0
  35              		.cfi_startproc
  36              		@ args = 0, pretend = 0, frame = 0
  37              		@ frame_needed = 1, uses_anonymous_args = 0
  38              		@ link register save eliminated.
  39 0000 80B4     		push	{r7}
  40              		.cfi_def_cfa_offset 4
  41              		.cfi_offset 7, -4
  42 0002 00AF     		add	r7, sp, #0
  43              		.cfi_def_cfa_register 7
  61:.\Generated_Source\PSoC5/I2C_3_SLAVE.c ****     return(I2C_3_slStatus);
  44              		.loc 1 61 0
  45 0004 034B     		ldr	r3, .L3
  46 0006 1B78     		ldrb	r3, [r3]
  47 0008 DBB2     		uxtb	r3, r3
  62:.\Generated_Source\PSoC5/I2C_3_SLAVE.c **** }
  48              		.loc 1 62 0
  49 000a 1846     		mov	r0, r3
  50 000c BD46     		mov	sp, r7
  51              		@ sp needed
  52 000e 5DF8047B 		ldr	r7, [sp], #4
ARM GAS  C:\Users\dskyNote\AppData\Local\Temp\ccIGAmPA.s 			page 3


  53 0012 7047     		bx	lr
  54              	.L4:
  55              		.align	2
  56              	.L3:
  57 0014 00000000 		.word	I2C_3_slStatus
  58              		.cfi_endproc
  59              	.LFE0:
  60              		.size	I2C_3_SlaveStatus, .-I2C_3_SlaveStatus
  61              		.section	.text.I2C_3_SlaveClearReadStatus,"ax",%progbits
  62              		.align	2
  63              		.global	I2C_3_SlaveClearReadStatus
  64              		.thumb
  65              		.thumb_func
  66              		.type	I2C_3_SlaveClearReadStatus, %function
  67              	I2C_3_SlaveClearReadStatus:
  68              	.LFB1:
  63:.\Generated_Source\PSoC5/I2C_3_SLAVE.c **** 
  64:.\Generated_Source\PSoC5/I2C_3_SLAVE.c **** 
  65:.\Generated_Source\PSoC5/I2C_3_SLAVE.c **** /*******************************************************************************
  66:.\Generated_Source\PSoC5/I2C_3_SLAVE.c **** * Function Name: I2C_3_SlaveClearReadStatus
  67:.\Generated_Source\PSoC5/I2C_3_SLAVE.c **** ********************************************************************************
  68:.\Generated_Source\PSoC5/I2C_3_SLAVE.c **** *
  69:.\Generated_Source\PSoC5/I2C_3_SLAVE.c **** * Summary:
  70:.\Generated_Source\PSoC5/I2C_3_SLAVE.c **** *  Clears the read status flags and returns they values.
  71:.\Generated_Source\PSoC5/I2C_3_SLAVE.c **** *  The I2C_3_SSTAT_RD_BUSY flag is not effected by clear.
  72:.\Generated_Source\PSoC5/I2C_3_SLAVE.c **** *
  73:.\Generated_Source\PSoC5/I2C_3_SLAVE.c **** * Parameters:
  74:.\Generated_Source\PSoC5/I2C_3_SLAVE.c **** *  None
  75:.\Generated_Source\PSoC5/I2C_3_SLAVE.c **** *
  76:.\Generated_Source\PSoC5/I2C_3_SLAVE.c **** * Return:
  77:.\Generated_Source\PSoC5/I2C_3_SLAVE.c **** *  Current read status of I2C slave.
  78:.\Generated_Source\PSoC5/I2C_3_SLAVE.c **** *
  79:.\Generated_Source\PSoC5/I2C_3_SLAVE.c **** * Global variables:
  80:.\Generated_Source\PSoC5/I2C_3_SLAVE.c **** *  I2C_3_slStatus  - used to store current status of I2C slave.
  81:.\Generated_Source\PSoC5/I2C_3_SLAVE.c **** *
  82:.\Generated_Source\PSoC5/I2C_3_SLAVE.c **** * Reentrant:
  83:.\Generated_Source\PSoC5/I2C_3_SLAVE.c **** *  No
  84:.\Generated_Source\PSoC5/I2C_3_SLAVE.c **** *
  85:.\Generated_Source\PSoC5/I2C_3_SLAVE.c **** *******************************************************************************/
  86:.\Generated_Source\PSoC5/I2C_3_SLAVE.c **** uint8 I2C_3_SlaveClearReadStatus(void) 
  87:.\Generated_Source\PSoC5/I2C_3_SLAVE.c **** {
  69              		.loc 1 87 0
  70              		.cfi_startproc
  71              		@ args = 0, pretend = 0, frame = 8
  72              		@ frame_needed = 1, uses_anonymous_args = 0
  73              		@ link register save eliminated.
  74 0000 80B4     		push	{r7}
  75              		.cfi_def_cfa_offset 4
  76              		.cfi_offset 7, -4
  77 0002 83B0     		sub	sp, sp, #12
  78              		.cfi_def_cfa_offset 16
  79 0004 00AF     		add	r7, sp, #0
  80              		.cfi_def_cfa_register 7
  88:.\Generated_Source\PSoC5/I2C_3_SLAVE.c ****     uint8 status;
  89:.\Generated_Source\PSoC5/I2C_3_SLAVE.c **** 
  90:.\Generated_Source\PSoC5/I2C_3_SLAVE.c ****     /* Mask of transfer complete flag and Error status */
  91:.\Generated_Source\PSoC5/I2C_3_SLAVE.c ****     status = (I2C_3_slStatus & I2C_3_SSTAT_RD_MASK);
ARM GAS  C:\Users\dskyNote\AppData\Local\Temp\ccIGAmPA.s 			page 4


  81              		.loc 1 91 0
  82 0006 0A4B     		ldr	r3, .L7
  83 0008 1B78     		ldrb	r3, [r3]
  84 000a DBB2     		uxtb	r3, r3
  85 000c 03F00F03 		and	r3, r3, #15
  86 0010 FB71     		strb	r3, [r7, #7]
  92:.\Generated_Source\PSoC5/I2C_3_SLAVE.c ****     I2C_3_slStatus &= ((uint8) ~I2C_3_SSTAT_RD_CLEAR);
  87              		.loc 1 92 0
  88 0012 074B     		ldr	r3, .L7
  89 0014 1B78     		ldrb	r3, [r3]
  90 0016 DBB2     		uxtb	r3, r3
  91 0018 23F00D03 		bic	r3, r3, #13
  92 001c DAB2     		uxtb	r2, r3
  93 001e 044B     		ldr	r3, .L7
  94 0020 1A70     		strb	r2, [r3]
  93:.\Generated_Source\PSoC5/I2C_3_SLAVE.c **** 
  94:.\Generated_Source\PSoC5/I2C_3_SLAVE.c ****     return(status);
  95              		.loc 1 94 0
  96 0022 FB79     		ldrb	r3, [r7, #7]	@ zero_extendqisi2
  95:.\Generated_Source\PSoC5/I2C_3_SLAVE.c **** }
  97              		.loc 1 95 0
  98 0024 1846     		mov	r0, r3
  99 0026 0C37     		adds	r7, r7, #12
 100 0028 BD46     		mov	sp, r7
 101              		@ sp needed
 102 002a 5DF8047B 		ldr	r7, [sp], #4
 103 002e 7047     		bx	lr
 104              	.L8:
 105              		.align	2
 106              	.L7:
 107 0030 00000000 		.word	I2C_3_slStatus
 108              		.cfi_endproc
 109              	.LFE1:
 110              		.size	I2C_3_SlaveClearReadStatus, .-I2C_3_SlaveClearReadStatus
 111              		.section	.text.I2C_3_SlaveClearWriteStatus,"ax",%progbits
 112              		.align	2
 113              		.global	I2C_3_SlaveClearWriteStatus
 114              		.thumb
 115              		.thumb_func
 116              		.type	I2C_3_SlaveClearWriteStatus, %function
 117              	I2C_3_SlaveClearWriteStatus:
 118              	.LFB2:
  96:.\Generated_Source\PSoC5/I2C_3_SLAVE.c **** 
  97:.\Generated_Source\PSoC5/I2C_3_SLAVE.c **** 
  98:.\Generated_Source\PSoC5/I2C_3_SLAVE.c **** /*******************************************************************************
  99:.\Generated_Source\PSoC5/I2C_3_SLAVE.c **** * Function Name: I2C_3_SlaveClearWriteStatus
 100:.\Generated_Source\PSoC5/I2C_3_SLAVE.c **** ********************************************************************************
 101:.\Generated_Source\PSoC5/I2C_3_SLAVE.c **** *
 102:.\Generated_Source\PSoC5/I2C_3_SLAVE.c **** * Summary:
 103:.\Generated_Source\PSoC5/I2C_3_SLAVE.c **** *  Clears the write status flags and returns they values.
 104:.\Generated_Source\PSoC5/I2C_3_SLAVE.c **** *  The I2C_3_SSTAT_WR_BUSY flag is not effected by clear.
 105:.\Generated_Source\PSoC5/I2C_3_SLAVE.c **** *
 106:.\Generated_Source\PSoC5/I2C_3_SLAVE.c **** * Parameters:
 107:.\Generated_Source\PSoC5/I2C_3_SLAVE.c **** *  None
 108:.\Generated_Source\PSoC5/I2C_3_SLAVE.c **** *
 109:.\Generated_Source\PSoC5/I2C_3_SLAVE.c **** * Return:
 110:.\Generated_Source\PSoC5/I2C_3_SLAVE.c **** *  Current write status of I2C slave.
ARM GAS  C:\Users\dskyNote\AppData\Local\Temp\ccIGAmPA.s 			page 5


 111:.\Generated_Source\PSoC5/I2C_3_SLAVE.c **** *
 112:.\Generated_Source\PSoC5/I2C_3_SLAVE.c **** * Global variables:
 113:.\Generated_Source\PSoC5/I2C_3_SLAVE.c **** *  I2C_3_slStatus  - used to store current status of I2C slave.
 114:.\Generated_Source\PSoC5/I2C_3_SLAVE.c **** *
 115:.\Generated_Source\PSoC5/I2C_3_SLAVE.c **** * Reentrant:
 116:.\Generated_Source\PSoC5/I2C_3_SLAVE.c **** *  No
 117:.\Generated_Source\PSoC5/I2C_3_SLAVE.c **** *
 118:.\Generated_Source\PSoC5/I2C_3_SLAVE.c **** *******************************************************************************/
 119:.\Generated_Source\PSoC5/I2C_3_SLAVE.c **** uint8 I2C_3_SlaveClearWriteStatus(void) 
 120:.\Generated_Source\PSoC5/I2C_3_SLAVE.c **** {
 119              		.loc 1 120 0
 120              		.cfi_startproc
 121              		@ args = 0, pretend = 0, frame = 8
 122              		@ frame_needed = 1, uses_anonymous_args = 0
 123              		@ link register save eliminated.
 124 0000 80B4     		push	{r7}
 125              		.cfi_def_cfa_offset 4
 126              		.cfi_offset 7, -4
 127 0002 83B0     		sub	sp, sp, #12
 128              		.cfi_def_cfa_offset 16
 129 0004 00AF     		add	r7, sp, #0
 130              		.cfi_def_cfa_register 7
 121:.\Generated_Source\PSoC5/I2C_3_SLAVE.c ****     uint8 status;
 122:.\Generated_Source\PSoC5/I2C_3_SLAVE.c **** 
 123:.\Generated_Source\PSoC5/I2C_3_SLAVE.c ****     /* Mask of transfer complete flag and Error status */
 124:.\Generated_Source\PSoC5/I2C_3_SLAVE.c ****     status = (I2C_3_slStatus & I2C_3_SSTAT_WR_MASK);
 131              		.loc 1 124 0
 132 0006 0A4B     		ldr	r3, .L11
 133 0008 1B78     		ldrb	r3, [r3]
 134 000a DBB2     		uxtb	r3, r3
 135 000c 23F00F03 		bic	r3, r3, #15
 136 0010 FB71     		strb	r3, [r7, #7]
 125:.\Generated_Source\PSoC5/I2C_3_SLAVE.c ****     I2C_3_slStatus &= ((uint8) ~I2C_3_SSTAT_WR_CLEAR);
 137              		.loc 1 125 0
 138 0012 074B     		ldr	r3, .L11
 139 0014 1B78     		ldrb	r3, [r3]
 140 0016 DBB2     		uxtb	r3, r3
 141 0018 03F02F03 		and	r3, r3, #47
 142 001c DAB2     		uxtb	r2, r3
 143 001e 044B     		ldr	r3, .L11
 144 0020 1A70     		strb	r2, [r3]
 126:.\Generated_Source\PSoC5/I2C_3_SLAVE.c **** 
 127:.\Generated_Source\PSoC5/I2C_3_SLAVE.c ****     return(status);
 145              		.loc 1 127 0
 146 0022 FB79     		ldrb	r3, [r7, #7]	@ zero_extendqisi2
 128:.\Generated_Source\PSoC5/I2C_3_SLAVE.c **** }
 147              		.loc 1 128 0
 148 0024 1846     		mov	r0, r3
 149 0026 0C37     		adds	r7, r7, #12
 150 0028 BD46     		mov	sp, r7
 151              		@ sp needed
 152 002a 5DF8047B 		ldr	r7, [sp], #4
 153 002e 7047     		bx	lr
 154              	.L12:
 155              		.align	2
 156              	.L11:
 157 0030 00000000 		.word	I2C_3_slStatus
ARM GAS  C:\Users\dskyNote\AppData\Local\Temp\ccIGAmPA.s 			page 6


 158              		.cfi_endproc
 159              	.LFE2:
 160              		.size	I2C_3_SlaveClearWriteStatus, .-I2C_3_SlaveClearWriteStatus
 161              		.section	.text.I2C_3_SlaveSetAddress,"ax",%progbits
 162              		.align	2
 163              		.global	I2C_3_SlaveSetAddress
 164              		.thumb
 165              		.thumb_func
 166              		.type	I2C_3_SlaveSetAddress, %function
 167              	I2C_3_SlaveSetAddress:
 168              	.LFB3:
 129:.\Generated_Source\PSoC5/I2C_3_SLAVE.c **** 
 130:.\Generated_Source\PSoC5/I2C_3_SLAVE.c **** 
 131:.\Generated_Source\PSoC5/I2C_3_SLAVE.c **** /*******************************************************************************
 132:.\Generated_Source\PSoC5/I2C_3_SLAVE.c **** * Function Name: I2C_3_SlaveSetAddress
 133:.\Generated_Source\PSoC5/I2C_3_SLAVE.c **** ********************************************************************************
 134:.\Generated_Source\PSoC5/I2C_3_SLAVE.c **** *
 135:.\Generated_Source\PSoC5/I2C_3_SLAVE.c **** * Summary:
 136:.\Generated_Source\PSoC5/I2C_3_SLAVE.c **** *  Sets the I2C slave address.
 137:.\Generated_Source\PSoC5/I2C_3_SLAVE.c **** *
 138:.\Generated_Source\PSoC5/I2C_3_SLAVE.c **** * Parameters:
 139:.\Generated_Source\PSoC5/I2C_3_SLAVE.c **** *  address: I2C slave address for the primary device. This value may be any
 140:.\Generated_Source\PSoC5/I2C_3_SLAVE.c **** *  address between 0 and 127.
 141:.\Generated_Source\PSoC5/I2C_3_SLAVE.c **** *
 142:.\Generated_Source\PSoC5/I2C_3_SLAVE.c **** * Return:
 143:.\Generated_Source\PSoC5/I2C_3_SLAVE.c **** *  None
 144:.\Generated_Source\PSoC5/I2C_3_SLAVE.c **** *
 145:.\Generated_Source\PSoC5/I2C_3_SLAVE.c **** * Global variables:
 146:.\Generated_Source\PSoC5/I2C_3_SLAVE.c **** *  I2C_3_Address  - used to store I2C slave address for the primary
 147:.\Generated_Source\PSoC5/I2C_3_SLAVE.c **** *  device when software address detect feature is used.
 148:.\Generated_Source\PSoC5/I2C_3_SLAVE.c **** *
 149:.\Generated_Source\PSoC5/I2C_3_SLAVE.c **** * Reentrant:
 150:.\Generated_Source\PSoC5/I2C_3_SLAVE.c **** *  No
 151:.\Generated_Source\PSoC5/I2C_3_SLAVE.c **** *
 152:.\Generated_Source\PSoC5/I2C_3_SLAVE.c **** *******************************************************************************/
 153:.\Generated_Source\PSoC5/I2C_3_SLAVE.c **** void I2C_3_SlaveSetAddress(uint8 address) 
 154:.\Generated_Source\PSoC5/I2C_3_SLAVE.c **** {
 169              		.loc 1 154 0
 170              		.cfi_startproc
 171              		@ args = 0, pretend = 0, frame = 8
 172              		@ frame_needed = 1, uses_anonymous_args = 0
 173              		@ link register save eliminated.
 174 0000 80B4     		push	{r7}
 175              		.cfi_def_cfa_offset 4
 176              		.cfi_offset 7, -4
 177 0002 83B0     		sub	sp, sp, #12
 178              		.cfi_def_cfa_offset 16
 179 0004 00AF     		add	r7, sp, #0
 180              		.cfi_def_cfa_register 7
 181 0006 0346     		mov	r3, r0
 182 0008 FB71     		strb	r3, [r7, #7]
 155:.\Generated_Source\PSoC5/I2C_3_SLAVE.c ****     #if(I2C_3_SW_ADRR_DECODE)
 156:.\Generated_Source\PSoC5/I2C_3_SLAVE.c ****         I2C_3_slAddress = (address & I2C_3_SLAVE_ADDR_MASK);
 157:.\Generated_Source\PSoC5/I2C_3_SLAVE.c ****     #else
 158:.\Generated_Source\PSoC5/I2C_3_SLAVE.c ****         I2C_3_ADDR_REG  = (address & I2C_3_SLAVE_ADDR_MASK);
 183              		.loc 1 158 0
 184 000a 054B     		ldr	r3, .L14
ARM GAS  C:\Users\dskyNote\AppData\Local\Temp\ccIGAmPA.s 			page 7


 185 000c FA79     		ldrb	r2, [r7, #7]
 186 000e 02F07F02 		and	r2, r2, #127
 187 0012 D2B2     		uxtb	r2, r2
 188 0014 1A70     		strb	r2, [r3]
 159:.\Generated_Source\PSoC5/I2C_3_SLAVE.c ****     #endif /* (I2C_3_SW_ADRR_DECODE) */
 160:.\Generated_Source\PSoC5/I2C_3_SLAVE.c **** }
 189              		.loc 1 160 0
 190 0016 0C37     		adds	r7, r7, #12
 191 0018 BD46     		mov	sp, r7
 192              		@ sp needed
 193 001a 5DF8047B 		ldr	r7, [sp], #4
 194 001e 7047     		bx	lr
 195              	.L15:
 196              		.align	2
 197              	.L14:
 198 0020 CA490040 		.word	1073760714
 199              		.cfi_endproc
 200              	.LFE3:
 201              		.size	I2C_3_SlaveSetAddress, .-I2C_3_SlaveSetAddress
 202              		.section	.text.I2C_3_SlaveInitReadBuf,"ax",%progbits
 203              		.align	2
 204              		.global	I2C_3_SlaveInitReadBuf
 205              		.thumb
 206              		.thumb_func
 207              		.type	I2C_3_SlaveInitReadBuf, %function
 208              	I2C_3_SlaveInitReadBuf:
 209              	.LFB4:
 161:.\Generated_Source\PSoC5/I2C_3_SLAVE.c **** 
 162:.\Generated_Source\PSoC5/I2C_3_SLAVE.c **** 
 163:.\Generated_Source\PSoC5/I2C_3_SLAVE.c **** /*******************************************************************************
 164:.\Generated_Source\PSoC5/I2C_3_SLAVE.c **** * Function Name: I2C_3_SlaveInitReadBuf
 165:.\Generated_Source\PSoC5/I2C_3_SLAVE.c **** ********************************************************************************
 166:.\Generated_Source\PSoC5/I2C_3_SLAVE.c **** *
 167:.\Generated_Source\PSoC5/I2C_3_SLAVE.c **** * Summary:
 168:.\Generated_Source\PSoC5/I2C_3_SLAVE.c **** *  Sets the buffer pointer and size of the read buffer. This function also
 169:.\Generated_Source\PSoC5/I2C_3_SLAVE.c **** *  resets the transfer count returned with the I2C_SlaveGetReadBufSize function.
 170:.\Generated_Source\PSoC5/I2C_3_SLAVE.c **** *
 171:.\Generated_Source\PSoC5/I2C_3_SLAVE.c **** * Parameters:
 172:.\Generated_Source\PSoC5/I2C_3_SLAVE.c **** *  readBuf:  Pointer to the data buffer to be read by the master.
 173:.\Generated_Source\PSoC5/I2C_3_SLAVE.c **** *  bufSize:  Size of the read buffer exposed to the I2C master.
 174:.\Generated_Source\PSoC5/I2C_3_SLAVE.c **** *
 175:.\Generated_Source\PSoC5/I2C_3_SLAVE.c **** * Return:
 176:.\Generated_Source\PSoC5/I2C_3_SLAVE.c **** *  None
 177:.\Generated_Source\PSoC5/I2C_3_SLAVE.c **** *
 178:.\Generated_Source\PSoC5/I2C_3_SLAVE.c **** * Global variables:
 179:.\Generated_Source\PSoC5/I2C_3_SLAVE.c **** *  I2C_3_slRdBufPtr   - used to store pointer to slave read buffer.
 180:.\Generated_Source\PSoC5/I2C_3_SLAVE.c **** *  I2C_3_slRdBufSize  - used to store salve read buffer size.
 181:.\Generated_Source\PSoC5/I2C_3_SLAVE.c **** *  I2C_3_slRdBufIndex - used to store current index within slave
 182:.\Generated_Source\PSoC5/I2C_3_SLAVE.c **** *  read buffer.
 183:.\Generated_Source\PSoC5/I2C_3_SLAVE.c **** *
 184:.\Generated_Source\PSoC5/I2C_3_SLAVE.c **** * Side Effects:
 185:.\Generated_Source\PSoC5/I2C_3_SLAVE.c **** *  If this function is called during a bus transaction, data from the previous
 186:.\Generated_Source\PSoC5/I2C_3_SLAVE.c **** *  buffer location and the beginning of current buffer may be transmitted.
 187:.\Generated_Source\PSoC5/I2C_3_SLAVE.c **** *
 188:.\Generated_Source\PSoC5/I2C_3_SLAVE.c **** * Reentrant:
 189:.\Generated_Source\PSoC5/I2C_3_SLAVE.c **** *  No
 190:.\Generated_Source\PSoC5/I2C_3_SLAVE.c **** *
ARM GAS  C:\Users\dskyNote\AppData\Local\Temp\ccIGAmPA.s 			page 8


 191:.\Generated_Source\PSoC5/I2C_3_SLAVE.c **** *******************************************************************************/
 192:.\Generated_Source\PSoC5/I2C_3_SLAVE.c **** void I2C_3_SlaveInitReadBuf(uint8 * rdBuf, uint8 bufSize)
 193:.\Generated_Source\PSoC5/I2C_3_SLAVE.c ****      
 194:.\Generated_Source\PSoC5/I2C_3_SLAVE.c **** {
 210              		.loc 1 194 0
 211              		.cfi_startproc
 212              		@ args = 0, pretend = 0, frame = 8
 213              		@ frame_needed = 1, uses_anonymous_args = 0
 214              		@ link register save eliminated.
 215 0000 80B4     		push	{r7}
 216              		.cfi_def_cfa_offset 4
 217              		.cfi_offset 7, -4
 218 0002 83B0     		sub	sp, sp, #12
 219              		.cfi_def_cfa_offset 16
 220 0004 00AF     		add	r7, sp, #0
 221              		.cfi_def_cfa_register 7
 222 0006 7860     		str	r0, [r7, #4]
 223 0008 0B46     		mov	r3, r1
 224 000a FB70     		strb	r3, [r7, #3]
 195:.\Generated_Source\PSoC5/I2C_3_SLAVE.c ****     /* Check for proper buffer */
 196:.\Generated_Source\PSoC5/I2C_3_SLAVE.c ****     if(NULL != rdBuf)
 225              		.loc 1 196 0
 226 000c 7B68     		ldr	r3, [r7, #4]
 227 000e 002B     		cmp	r3, #0
 228 0010 08D0     		beq	.L16
 197:.\Generated_Source\PSoC5/I2C_3_SLAVE.c ****     {
 198:.\Generated_Source\PSoC5/I2C_3_SLAVE.c ****         I2C_3_slRdBufPtr   = (volatile uint8 *) rdBuf;    /* Set buffer pointer */
 229              		.loc 1 198 0
 230 0012 074B     		ldr	r3, .L18
 231 0014 7A68     		ldr	r2, [r7, #4]
 232 0016 1A60     		str	r2, [r3]
 199:.\Generated_Source\PSoC5/I2C_3_SLAVE.c ****         I2C_3_slRdBufSize  = bufSize;    /* Set buffer size */
 233              		.loc 1 199 0
 234 0018 064B     		ldr	r3, .L18+4
 235 001a FA78     		ldrb	r2, [r7, #3]
 236 001c 1A70     		strb	r2, [r3]
 200:.\Generated_Source\PSoC5/I2C_3_SLAVE.c ****         I2C_3_slRdBufIndex = 0u;         /* Clears buffer index */
 237              		.loc 1 200 0
 238 001e 064B     		ldr	r3, .L18+8
 239 0020 0022     		movs	r2, #0
 240 0022 1A70     		strb	r2, [r3]
 241              	.L16:
 201:.\Generated_Source\PSoC5/I2C_3_SLAVE.c ****     }
 202:.\Generated_Source\PSoC5/I2C_3_SLAVE.c **** }
 242              		.loc 1 202 0
 243 0024 0C37     		adds	r7, r7, #12
 244 0026 BD46     		mov	sp, r7
 245              		@ sp needed
 246 0028 5DF8047B 		ldr	r7, [sp], #4
 247 002c 7047     		bx	lr
 248              	.L19:
 249 002e 00BF     		.align	2
 250              	.L18:
 251 0030 00000000 		.word	I2C_3_slRdBufPtr
 252 0034 00000000 		.word	I2C_3_slRdBufSize
 253 0038 00000000 		.word	I2C_3_slRdBufIndex
 254              		.cfi_endproc
ARM GAS  C:\Users\dskyNote\AppData\Local\Temp\ccIGAmPA.s 			page 9


 255              	.LFE4:
 256              		.size	I2C_3_SlaveInitReadBuf, .-I2C_3_SlaveInitReadBuf
 257              		.section	.text.I2C_3_SlaveInitWriteBuf,"ax",%progbits
 258              		.align	2
 259              		.global	I2C_3_SlaveInitWriteBuf
 260              		.thumb
 261              		.thumb_func
 262              		.type	I2C_3_SlaveInitWriteBuf, %function
 263              	I2C_3_SlaveInitWriteBuf:
 264              	.LFB5:
 203:.\Generated_Source\PSoC5/I2C_3_SLAVE.c **** 
 204:.\Generated_Source\PSoC5/I2C_3_SLAVE.c **** 
 205:.\Generated_Source\PSoC5/I2C_3_SLAVE.c **** /*******************************************************************************
 206:.\Generated_Source\PSoC5/I2C_3_SLAVE.c **** * Function Name: I2C_3_SlaveInitWriteBuf
 207:.\Generated_Source\PSoC5/I2C_3_SLAVE.c **** ********************************************************************************
 208:.\Generated_Source\PSoC5/I2C_3_SLAVE.c **** *
 209:.\Generated_Source\PSoC5/I2C_3_SLAVE.c **** * Summary:
 210:.\Generated_Source\PSoC5/I2C_3_SLAVE.c **** *  Sets the buffer pointer and size of the read buffer. This function also
 211:.\Generated_Source\PSoC5/I2C_3_SLAVE.c **** *  resets the transfer count returned with the I2C_SlaveGetReadBufSize function.
 212:.\Generated_Source\PSoC5/I2C_3_SLAVE.c **** *
 213:.\Generated_Source\PSoC5/I2C_3_SLAVE.c **** * Parameters:
 214:.\Generated_Source\PSoC5/I2C_3_SLAVE.c **** *  writeBuf:  Pointer to the data buffer to be read by the master.
 215:.\Generated_Source\PSoC5/I2C_3_SLAVE.c **** *  bufSize:  Size of the buffer exposed to the I2C master.
 216:.\Generated_Source\PSoC5/I2C_3_SLAVE.c **** *
 217:.\Generated_Source\PSoC5/I2C_3_SLAVE.c **** * Return:
 218:.\Generated_Source\PSoC5/I2C_3_SLAVE.c **** *  None
 219:.\Generated_Source\PSoC5/I2C_3_SLAVE.c **** *
 220:.\Generated_Source\PSoC5/I2C_3_SLAVE.c **** * Global variables:
 221:.\Generated_Source\PSoC5/I2C_3_SLAVE.c **** *  I2C_3_slWrBufPtr   - used to store pointer to slave write buffer.
 222:.\Generated_Source\PSoC5/I2C_3_SLAVE.c **** *  I2C_3_slWrBufSize  - used to store salve write buffer size.
 223:.\Generated_Source\PSoC5/I2C_3_SLAVE.c **** *  I2C_3_slWrBufIndex - used to store current index within slave
 224:.\Generated_Source\PSoC5/I2C_3_SLAVE.c **** *  write buffer.
 225:.\Generated_Source\PSoC5/I2C_3_SLAVE.c **** *
 226:.\Generated_Source\PSoC5/I2C_3_SLAVE.c **** * Side Effects:
 227:.\Generated_Source\PSoC5/I2C_3_SLAVE.c **** *  If this function is called during a bus transaction, data from the previous
 228:.\Generated_Source\PSoC5/I2C_3_SLAVE.c **** *  buffer location and the beginning of current buffer may be transmitted.
 229:.\Generated_Source\PSoC5/I2C_3_SLAVE.c **** *
 230:.\Generated_Source\PSoC5/I2C_3_SLAVE.c **** * Reentrant:
 231:.\Generated_Source\PSoC5/I2C_3_SLAVE.c **** *  No
 232:.\Generated_Source\PSoC5/I2C_3_SLAVE.c **** *
 233:.\Generated_Source\PSoC5/I2C_3_SLAVE.c **** *******************************************************************************/
 234:.\Generated_Source\PSoC5/I2C_3_SLAVE.c **** void I2C_3_SlaveInitWriteBuf(uint8 * wrBuf, uint8 bufSize)
 235:.\Generated_Source\PSoC5/I2C_3_SLAVE.c ****      
 236:.\Generated_Source\PSoC5/I2C_3_SLAVE.c **** {
 265              		.loc 1 236 0
 266              		.cfi_startproc
 267              		@ args = 0, pretend = 0, frame = 8
 268              		@ frame_needed = 1, uses_anonymous_args = 0
 269              		@ link register save eliminated.
 270 0000 80B4     		push	{r7}
 271              		.cfi_def_cfa_offset 4
 272              		.cfi_offset 7, -4
 273 0002 83B0     		sub	sp, sp, #12
 274              		.cfi_def_cfa_offset 16
 275 0004 00AF     		add	r7, sp, #0
 276              		.cfi_def_cfa_register 7
 277 0006 7860     		str	r0, [r7, #4]
ARM GAS  C:\Users\dskyNote\AppData\Local\Temp\ccIGAmPA.s 			page 10


 278 0008 0B46     		mov	r3, r1
 279 000a FB70     		strb	r3, [r7, #3]
 237:.\Generated_Source\PSoC5/I2C_3_SLAVE.c ****     /* Check for proper buffer */
 238:.\Generated_Source\PSoC5/I2C_3_SLAVE.c ****     if(NULL != wrBuf)
 280              		.loc 1 238 0
 281 000c 7B68     		ldr	r3, [r7, #4]
 282 000e 002B     		cmp	r3, #0
 283 0010 08D0     		beq	.L20
 239:.\Generated_Source\PSoC5/I2C_3_SLAVE.c ****     {
 240:.\Generated_Source\PSoC5/I2C_3_SLAVE.c ****         I2C_3_slWrBufPtr   = (volatile uint8 *) wrBuf;  /* Set buffer pointer */
 284              		.loc 1 240 0
 285 0012 074B     		ldr	r3, .L22
 286 0014 7A68     		ldr	r2, [r7, #4]
 287 0016 1A60     		str	r2, [r3]
 241:.\Generated_Source\PSoC5/I2C_3_SLAVE.c ****         I2C_3_slWrBufSize  = bufSize;   /* Set buffer size */
 288              		.loc 1 241 0
 289 0018 064B     		ldr	r3, .L22+4
 290 001a FA78     		ldrb	r2, [r7, #3]
 291 001c 1A70     		strb	r2, [r3]
 242:.\Generated_Source\PSoC5/I2C_3_SLAVE.c ****         I2C_3_slWrBufIndex = 0u;        /* Clears buffer index */
 292              		.loc 1 242 0
 293 001e 064B     		ldr	r3, .L22+8
 294 0020 0022     		movs	r2, #0
 295 0022 1A70     		strb	r2, [r3]
 296              	.L20:
 243:.\Generated_Source\PSoC5/I2C_3_SLAVE.c ****     }
 244:.\Generated_Source\PSoC5/I2C_3_SLAVE.c **** }
 297              		.loc 1 244 0
 298 0024 0C37     		adds	r7, r7, #12
 299 0026 BD46     		mov	sp, r7
 300              		@ sp needed
 301 0028 5DF8047B 		ldr	r7, [sp], #4
 302 002c 7047     		bx	lr
 303              	.L23:
 304 002e 00BF     		.align	2
 305              	.L22:
 306 0030 00000000 		.word	I2C_3_slWrBufPtr
 307 0034 00000000 		.word	I2C_3_slWrBufSize
 308 0038 00000000 		.word	I2C_3_slWrBufIndex
 309              		.cfi_endproc
 310              	.LFE5:
 311              		.size	I2C_3_SlaveInitWriteBuf, .-I2C_3_SlaveInitWriteBuf
 312              		.section	.text.I2C_3_SlaveGetReadBufSize,"ax",%progbits
 313              		.align	2
 314              		.global	I2C_3_SlaveGetReadBufSize
 315              		.thumb
 316              		.thumb_func
 317              		.type	I2C_3_SlaveGetReadBufSize, %function
 318              	I2C_3_SlaveGetReadBufSize:
 319              	.LFB6:
 245:.\Generated_Source\PSoC5/I2C_3_SLAVE.c **** 
 246:.\Generated_Source\PSoC5/I2C_3_SLAVE.c **** 
 247:.\Generated_Source\PSoC5/I2C_3_SLAVE.c **** /*******************************************************************************
 248:.\Generated_Source\PSoC5/I2C_3_SLAVE.c **** * Function Name: I2C_3_SlaveGetReadBufSize
 249:.\Generated_Source\PSoC5/I2C_3_SLAVE.c **** ********************************************************************************
 250:.\Generated_Source\PSoC5/I2C_3_SLAVE.c **** *
 251:.\Generated_Source\PSoC5/I2C_3_SLAVE.c **** * Summary:
ARM GAS  C:\Users\dskyNote\AppData\Local\Temp\ccIGAmPA.s 			page 11


 252:.\Generated_Source\PSoC5/I2C_3_SLAVE.c **** *  Returns the number of bytes read by the I2C master since an
 253:.\Generated_Source\PSoC5/I2C_3_SLAVE.c **** *  I2C_SlaveInitReadBuf or I2C_SlaveClearReadBuf function was executed.
 254:.\Generated_Source\PSoC5/I2C_3_SLAVE.c **** *  The maximum return value will be the size of the read buffer.
 255:.\Generated_Source\PSoC5/I2C_3_SLAVE.c **** *
 256:.\Generated_Source\PSoC5/I2C_3_SLAVE.c **** * Parameters:
 257:.\Generated_Source\PSoC5/I2C_3_SLAVE.c **** *  None
 258:.\Generated_Source\PSoC5/I2C_3_SLAVE.c **** *
 259:.\Generated_Source\PSoC5/I2C_3_SLAVE.c **** * Return:
 260:.\Generated_Source\PSoC5/I2C_3_SLAVE.c **** *  Bytes read by master.
 261:.\Generated_Source\PSoC5/I2C_3_SLAVE.c **** *
 262:.\Generated_Source\PSoC5/I2C_3_SLAVE.c **** * Global variables:
 263:.\Generated_Source\PSoC5/I2C_3_SLAVE.c **** *  I2C_3_slRdBufIndex - used to store current index within slave
 264:.\Generated_Source\PSoC5/I2C_3_SLAVE.c **** *  read buffer.
 265:.\Generated_Source\PSoC5/I2C_3_SLAVE.c **** *
 266:.\Generated_Source\PSoC5/I2C_3_SLAVE.c **** *******************************************************************************/
 267:.\Generated_Source\PSoC5/I2C_3_SLAVE.c **** uint8 I2C_3_SlaveGetReadBufSize(void) 
 268:.\Generated_Source\PSoC5/I2C_3_SLAVE.c **** {
 320              		.loc 1 268 0
 321              		.cfi_startproc
 322              		@ args = 0, pretend = 0, frame = 0
 323              		@ frame_needed = 1, uses_anonymous_args = 0
 324              		@ link register save eliminated.
 325 0000 80B4     		push	{r7}
 326              		.cfi_def_cfa_offset 4
 327              		.cfi_offset 7, -4
 328 0002 00AF     		add	r7, sp, #0
 329              		.cfi_def_cfa_register 7
 269:.\Generated_Source\PSoC5/I2C_3_SLAVE.c ****     return(I2C_3_slRdBufIndex);
 330              		.loc 1 269 0
 331 0004 034B     		ldr	r3, .L26
 332 0006 1B78     		ldrb	r3, [r3]
 333 0008 DBB2     		uxtb	r3, r3
 270:.\Generated_Source\PSoC5/I2C_3_SLAVE.c **** }
 334              		.loc 1 270 0
 335 000a 1846     		mov	r0, r3
 336 000c BD46     		mov	sp, r7
 337              		@ sp needed
 338 000e 5DF8047B 		ldr	r7, [sp], #4
 339 0012 7047     		bx	lr
 340              	.L27:
 341              		.align	2
 342              	.L26:
 343 0014 00000000 		.word	I2C_3_slRdBufIndex
 344              		.cfi_endproc
 345              	.LFE6:
 346              		.size	I2C_3_SlaveGetReadBufSize, .-I2C_3_SlaveGetReadBufSize
 347              		.section	.text.I2C_3_SlaveGetWriteBufSize,"ax",%progbits
 348              		.align	2
 349              		.global	I2C_3_SlaveGetWriteBufSize
 350              		.thumb
 351              		.thumb_func
 352              		.type	I2C_3_SlaveGetWriteBufSize, %function
 353              	I2C_3_SlaveGetWriteBufSize:
 354              	.LFB7:
 271:.\Generated_Source\PSoC5/I2C_3_SLAVE.c **** 
 272:.\Generated_Source\PSoC5/I2C_3_SLAVE.c **** 
 273:.\Generated_Source\PSoC5/I2C_3_SLAVE.c **** /*******************************************************************************
ARM GAS  C:\Users\dskyNote\AppData\Local\Temp\ccIGAmPA.s 			page 12


 274:.\Generated_Source\PSoC5/I2C_3_SLAVE.c **** * Function Name: I2C_3_SlaveGetWriteBufSize
 275:.\Generated_Source\PSoC5/I2C_3_SLAVE.c **** ********************************************************************************
 276:.\Generated_Source\PSoC5/I2C_3_SLAVE.c **** *
 277:.\Generated_Source\PSoC5/I2C_3_SLAVE.c **** * Summary:
 278:.\Generated_Source\PSoC5/I2C_3_SLAVE.c **** *  Returns the number of bytes written by the I2C master since an
 279:.\Generated_Source\PSoC5/I2C_3_SLAVE.c **** *  I2C_SlaveInitWriteBuf or I2C_SlaveClearWriteBuf function was executed.
 280:.\Generated_Source\PSoC5/I2C_3_SLAVE.c **** *  The maximum return value will be the size of the write buffer.
 281:.\Generated_Source\PSoC5/I2C_3_SLAVE.c **** *
 282:.\Generated_Source\PSoC5/I2C_3_SLAVE.c **** * Parameters:
 283:.\Generated_Source\PSoC5/I2C_3_SLAVE.c **** *  None
 284:.\Generated_Source\PSoC5/I2C_3_SLAVE.c **** *
 285:.\Generated_Source\PSoC5/I2C_3_SLAVE.c **** * Return:
 286:.\Generated_Source\PSoC5/I2C_3_SLAVE.c **** *  Bytes written by master.
 287:.\Generated_Source\PSoC5/I2C_3_SLAVE.c **** *
 288:.\Generated_Source\PSoC5/I2C_3_SLAVE.c **** * Global variables:
 289:.\Generated_Source\PSoC5/I2C_3_SLAVE.c **** *  I2C_3_slWrBufIndex - used to store current index within slave
 290:.\Generated_Source\PSoC5/I2C_3_SLAVE.c **** *  write buffer.
 291:.\Generated_Source\PSoC5/I2C_3_SLAVE.c **** *
 292:.\Generated_Source\PSoC5/I2C_3_SLAVE.c **** *******************************************************************************/
 293:.\Generated_Source\PSoC5/I2C_3_SLAVE.c **** uint8 I2C_3_SlaveGetWriteBufSize(void) 
 294:.\Generated_Source\PSoC5/I2C_3_SLAVE.c **** {
 355              		.loc 1 294 0
 356              		.cfi_startproc
 357              		@ args = 0, pretend = 0, frame = 0
 358              		@ frame_needed = 1, uses_anonymous_args = 0
 359              		@ link register save eliminated.
 360 0000 80B4     		push	{r7}
 361              		.cfi_def_cfa_offset 4
 362              		.cfi_offset 7, -4
 363 0002 00AF     		add	r7, sp, #0
 364              		.cfi_def_cfa_register 7
 295:.\Generated_Source\PSoC5/I2C_3_SLAVE.c ****     return(I2C_3_slWrBufIndex);
 365              		.loc 1 295 0
 366 0004 034B     		ldr	r3, .L30
 367 0006 1B78     		ldrb	r3, [r3]
 368 0008 DBB2     		uxtb	r3, r3
 296:.\Generated_Source\PSoC5/I2C_3_SLAVE.c **** }
 369              		.loc 1 296 0
 370 000a 1846     		mov	r0, r3
 371 000c BD46     		mov	sp, r7
 372              		@ sp needed
 373 000e 5DF8047B 		ldr	r7, [sp], #4
 374 0012 7047     		bx	lr
 375              	.L31:
 376              		.align	2
 377              	.L30:
 378 0014 00000000 		.word	I2C_3_slWrBufIndex
 379              		.cfi_endproc
 380              	.LFE7:
 381              		.size	I2C_3_SlaveGetWriteBufSize, .-I2C_3_SlaveGetWriteBufSize
 382              		.section	.text.I2C_3_SlaveClearReadBuf,"ax",%progbits
 383              		.align	2
 384              		.global	I2C_3_SlaveClearReadBuf
 385              		.thumb
 386              		.thumb_func
 387              		.type	I2C_3_SlaveClearReadBuf, %function
 388              	I2C_3_SlaveClearReadBuf:
ARM GAS  C:\Users\dskyNote\AppData\Local\Temp\ccIGAmPA.s 			page 13


 389              	.LFB8:
 297:.\Generated_Source\PSoC5/I2C_3_SLAVE.c **** 
 298:.\Generated_Source\PSoC5/I2C_3_SLAVE.c **** 
 299:.\Generated_Source\PSoC5/I2C_3_SLAVE.c **** /*******************************************************************************
 300:.\Generated_Source\PSoC5/I2C_3_SLAVE.c **** * Function Name: I2C_3_SlaveClearReadBuf
 301:.\Generated_Source\PSoC5/I2C_3_SLAVE.c **** ********************************************************************************
 302:.\Generated_Source\PSoC5/I2C_3_SLAVE.c **** *
 303:.\Generated_Source\PSoC5/I2C_3_SLAVE.c **** * Summary:
 304:.\Generated_Source\PSoC5/I2C_3_SLAVE.c **** *  Resets the read pointer to the first byte in the read buffer. The next byte
 305:.\Generated_Source\PSoC5/I2C_3_SLAVE.c **** *  read by the master will be the first byte in the read buffer.
 306:.\Generated_Source\PSoC5/I2C_3_SLAVE.c **** *
 307:.\Generated_Source\PSoC5/I2C_3_SLAVE.c **** * Parameters:
 308:.\Generated_Source\PSoC5/I2C_3_SLAVE.c **** *  None
 309:.\Generated_Source\PSoC5/I2C_3_SLAVE.c **** *
 310:.\Generated_Source\PSoC5/I2C_3_SLAVE.c **** * Return:
 311:.\Generated_Source\PSoC5/I2C_3_SLAVE.c **** *  None
 312:.\Generated_Source\PSoC5/I2C_3_SLAVE.c **** *
 313:.\Generated_Source\PSoC5/I2C_3_SLAVE.c **** * Global variables:
 314:.\Generated_Source\PSoC5/I2C_3_SLAVE.c **** *  I2C_3_slRdBufIndex - used to store current index within slave
 315:.\Generated_Source\PSoC5/I2C_3_SLAVE.c **** *  read buffer.
 316:.\Generated_Source\PSoC5/I2C_3_SLAVE.c **** *
 317:.\Generated_Source\PSoC5/I2C_3_SLAVE.c **** * Reentrant:
 318:.\Generated_Source\PSoC5/I2C_3_SLAVE.c **** *  No
 319:.\Generated_Source\PSoC5/I2C_3_SLAVE.c **** *
 320:.\Generated_Source\PSoC5/I2C_3_SLAVE.c **** *******************************************************************************/
 321:.\Generated_Source\PSoC5/I2C_3_SLAVE.c **** void I2C_3_SlaveClearReadBuf(void) 
 322:.\Generated_Source\PSoC5/I2C_3_SLAVE.c **** {
 390              		.loc 1 322 0
 391              		.cfi_startproc
 392              		@ args = 0, pretend = 0, frame = 0
 393              		@ frame_needed = 1, uses_anonymous_args = 0
 394              		@ link register save eliminated.
 395 0000 80B4     		push	{r7}
 396              		.cfi_def_cfa_offset 4
 397              		.cfi_offset 7, -4
 398 0002 00AF     		add	r7, sp, #0
 399              		.cfi_def_cfa_register 7
 323:.\Generated_Source\PSoC5/I2C_3_SLAVE.c ****     I2C_3_slRdBufIndex = 0u;
 400              		.loc 1 323 0
 401 0004 034B     		ldr	r3, .L33
 402 0006 0022     		movs	r2, #0
 403 0008 1A70     		strb	r2, [r3]
 324:.\Generated_Source\PSoC5/I2C_3_SLAVE.c **** }
 404              		.loc 1 324 0
 405 000a BD46     		mov	sp, r7
 406              		@ sp needed
 407 000c 5DF8047B 		ldr	r7, [sp], #4
 408 0010 7047     		bx	lr
 409              	.L34:
 410 0012 00BF     		.align	2
 411              	.L33:
 412 0014 00000000 		.word	I2C_3_slRdBufIndex
 413              		.cfi_endproc
 414              	.LFE8:
 415              		.size	I2C_3_SlaveClearReadBuf, .-I2C_3_SlaveClearReadBuf
 416              		.section	.text.I2C_3_SlaveClearWriteBuf,"ax",%progbits
 417              		.align	2
ARM GAS  C:\Users\dskyNote\AppData\Local\Temp\ccIGAmPA.s 			page 14


 418              		.global	I2C_3_SlaveClearWriteBuf
 419              		.thumb
 420              		.thumb_func
 421              		.type	I2C_3_SlaveClearWriteBuf, %function
 422              	I2C_3_SlaveClearWriteBuf:
 423              	.LFB9:
 325:.\Generated_Source\PSoC5/I2C_3_SLAVE.c **** 
 326:.\Generated_Source\PSoC5/I2C_3_SLAVE.c **** 
 327:.\Generated_Source\PSoC5/I2C_3_SLAVE.c **** /*******************************************************************************
 328:.\Generated_Source\PSoC5/I2C_3_SLAVE.c **** * Function Name: I2C_3_SlaveClearRxBuf
 329:.\Generated_Source\PSoC5/I2C_3_SLAVE.c **** ********************************************************************************
 330:.\Generated_Source\PSoC5/I2C_3_SLAVE.c **** *
 331:.\Generated_Source\PSoC5/I2C_3_SLAVE.c **** * Summary:
 332:.\Generated_Source\PSoC5/I2C_3_SLAVE.c **** *  Resets the write pointer to the first byte in the write buffer. The next byte
 333:.\Generated_Source\PSoC5/I2C_3_SLAVE.c **** *  written by the master will be the first byte in the write buffer.
 334:.\Generated_Source\PSoC5/I2C_3_SLAVE.c **** *
 335:.\Generated_Source\PSoC5/I2C_3_SLAVE.c **** * Parameters:
 336:.\Generated_Source\PSoC5/I2C_3_SLAVE.c **** *  None
 337:.\Generated_Source\PSoC5/I2C_3_SLAVE.c **** *
 338:.\Generated_Source\PSoC5/I2C_3_SLAVE.c **** * Return:
 339:.\Generated_Source\PSoC5/I2C_3_SLAVE.c **** *  None
 340:.\Generated_Source\PSoC5/I2C_3_SLAVE.c **** *
 341:.\Generated_Source\PSoC5/I2C_3_SLAVE.c **** * Global variables:
 342:.\Generated_Source\PSoC5/I2C_3_SLAVE.c **** *  I2C_3_slWrBufIndex - used to store current index within slave
 343:.\Generated_Source\PSoC5/I2C_3_SLAVE.c **** *  write buffer.
 344:.\Generated_Source\PSoC5/I2C_3_SLAVE.c **** *
 345:.\Generated_Source\PSoC5/I2C_3_SLAVE.c **** * Reentrant:
 346:.\Generated_Source\PSoC5/I2C_3_SLAVE.c **** *  No
 347:.\Generated_Source\PSoC5/I2C_3_SLAVE.c **** *
 348:.\Generated_Source\PSoC5/I2C_3_SLAVE.c **** *******************************************************************************/
 349:.\Generated_Source\PSoC5/I2C_3_SLAVE.c **** void I2C_3_SlaveClearWriteBuf(void) 
 350:.\Generated_Source\PSoC5/I2C_3_SLAVE.c **** {
 424              		.loc 1 350 0
 425              		.cfi_startproc
 426              		@ args = 0, pretend = 0, frame = 0
 427              		@ frame_needed = 1, uses_anonymous_args = 0
 428              		@ link register save eliminated.
 429 0000 80B4     		push	{r7}
 430              		.cfi_def_cfa_offset 4
 431              		.cfi_offset 7, -4
 432 0002 00AF     		add	r7, sp, #0
 433              		.cfi_def_cfa_register 7
 351:.\Generated_Source\PSoC5/I2C_3_SLAVE.c ****     I2C_3_slWrBufIndex = 0u;
 434              		.loc 1 351 0
 435 0004 034B     		ldr	r3, .L36
 436 0006 0022     		movs	r2, #0
 437 0008 1A70     		strb	r2, [r3]
 352:.\Generated_Source\PSoC5/I2C_3_SLAVE.c **** }
 438              		.loc 1 352 0
 439 000a BD46     		mov	sp, r7
 440              		@ sp needed
 441 000c 5DF8047B 		ldr	r7, [sp], #4
 442 0010 7047     		bx	lr
 443              	.L37:
 444 0012 00BF     		.align	2
 445              	.L36:
 446 0014 00000000 		.word	I2C_3_slWrBufIndex
ARM GAS  C:\Users\dskyNote\AppData\Local\Temp\ccIGAmPA.s 			page 15


 447              		.cfi_endproc
 448              	.LFE9:
 449              		.size	I2C_3_SlaveClearWriteBuf, .-I2C_3_SlaveClearWriteBuf
 450              		.text
 451              	.Letext0:
 452              		.file 2 ".\\Generated_Source\\PSoC5\\cytypes.h"