ARM GAS  C:\Users\dskyNote\AppData\Local\Temp\cceiaKWl.s 			page 1


   1              		.syntax unified
   2              		.cpu cortex-m3
   3              		.fpu softvfp
   4              		.eabi_attribute 20, 1
   5              		.eabi_attribute 21, 1
   6              		.eabi_attribute 23, 3
   7              		.eabi_attribute 24, 1
   8              		.eabi_attribute 25, 1
   9              		.eabi_attribute 26, 1
  10              		.eabi_attribute 30, 6
  11              		.eabi_attribute 34, 1
  12              		.eabi_attribute 18, 4
  13              		.thumb
  14              		.file	"I2C_2.c"
  15              		.text
  16              	.Ltext0:
  17              		.cfi_sections	.debug_frame
  18              		.global	I2C_2_initVar
  19              		.bss
  20              		.type	I2C_2_initVar, %object
  21              		.size	I2C_2_initVar, 1
  22              	I2C_2_initVar:
  23 0000 00       		.space	1
  24              		.comm	I2C_2_state,1,1
  25              		.section	.text.I2C_2_Init,"ax",%progbits
  26              		.align	2
  27              		.global	I2C_2_Init
  28              		.thumb
  29              		.thumb_func
  30              		.type	I2C_2_Init, %function
  31              	I2C_2_Init:
  32              	.LFB0:
  33              		.file 1 ".\\Generated_Source\\PSoC5\\I2C_2.c"
   1:.\Generated_Source\PSoC5/I2C_2.c **** /*******************************************************************************
   2:.\Generated_Source\PSoC5/I2C_2.c **** * File Name: I2C_2.c
   3:.\Generated_Source\PSoC5/I2C_2.c **** * Version 3.30
   4:.\Generated_Source\PSoC5/I2C_2.c **** *
   5:.\Generated_Source\PSoC5/I2C_2.c **** * Description:
   6:.\Generated_Source\PSoC5/I2C_2.c **** *  This file provides the source code of APIs for the I2C component.
   7:.\Generated_Source\PSoC5/I2C_2.c **** *  Actual protocol and operation code resides in the interrupt service routine
   8:.\Generated_Source\PSoC5/I2C_2.c **** *  file.
   9:.\Generated_Source\PSoC5/I2C_2.c **** *
  10:.\Generated_Source\PSoC5/I2C_2.c **** * Note:
  11:.\Generated_Source\PSoC5/I2C_2.c **** *
  12:.\Generated_Source\PSoC5/I2C_2.c **** *******************************************************************************
  13:.\Generated_Source\PSoC5/I2C_2.c **** * Copyright 2008-2012, Cypress Semiconductor Corporation. All rights reserved.
  14:.\Generated_Source\PSoC5/I2C_2.c **** * You may use this file only in accordance with the license, terms, conditions,
  15:.\Generated_Source\PSoC5/I2C_2.c **** * disclaimers, and limitations in the end user license agreement accompanying
  16:.\Generated_Source\PSoC5/I2C_2.c **** * the software package with which this file was provided.
  17:.\Generated_Source\PSoC5/I2C_2.c **** *******************************************************************************/
  18:.\Generated_Source\PSoC5/I2C_2.c **** 
  19:.\Generated_Source\PSoC5/I2C_2.c **** #include "I2C_2_PVT.h"
  20:.\Generated_Source\PSoC5/I2C_2.c **** 
  21:.\Generated_Source\PSoC5/I2C_2.c **** 
  22:.\Generated_Source\PSoC5/I2C_2.c **** /**********************************
  23:.\Generated_Source\PSoC5/I2C_2.c **** *      System variables
  24:.\Generated_Source\PSoC5/I2C_2.c **** **********************************/
ARM GAS  C:\Users\dskyNote\AppData\Local\Temp\cceiaKWl.s 			page 2


  25:.\Generated_Source\PSoC5/I2C_2.c **** 
  26:.\Generated_Source\PSoC5/I2C_2.c **** uint8 I2C_2_initVar = 0u;    /* Defines if component was initialized */
  27:.\Generated_Source\PSoC5/I2C_2.c **** 
  28:.\Generated_Source\PSoC5/I2C_2.c **** volatile uint8 I2C_2_state;  /* Current state of I2C FSM */
  29:.\Generated_Source\PSoC5/I2C_2.c **** 
  30:.\Generated_Source\PSoC5/I2C_2.c **** 
  31:.\Generated_Source\PSoC5/I2C_2.c **** /*******************************************************************************
  32:.\Generated_Source\PSoC5/I2C_2.c **** * Function Name: I2C_2_Init
  33:.\Generated_Source\PSoC5/I2C_2.c **** ********************************************************************************
  34:.\Generated_Source\PSoC5/I2C_2.c **** *
  35:.\Generated_Source\PSoC5/I2C_2.c **** * Summary:
  36:.\Generated_Source\PSoC5/I2C_2.c **** *  Initializes I2C registers with initial values provided from customizer.
  37:.\Generated_Source\PSoC5/I2C_2.c **** *
  38:.\Generated_Source\PSoC5/I2C_2.c **** * Parameters:
  39:.\Generated_Source\PSoC5/I2C_2.c **** *  None
  40:.\Generated_Source\PSoC5/I2C_2.c **** *
  41:.\Generated_Source\PSoC5/I2C_2.c **** * Return:
  42:.\Generated_Source\PSoC5/I2C_2.c **** *  None
  43:.\Generated_Source\PSoC5/I2C_2.c **** *
  44:.\Generated_Source\PSoC5/I2C_2.c **** * Global variables:
  45:.\Generated_Source\PSoC5/I2C_2.c **** *  None
  46:.\Generated_Source\PSoC5/I2C_2.c **** *
  47:.\Generated_Source\PSoC5/I2C_2.c **** * Reentrant:
  48:.\Generated_Source\PSoC5/I2C_2.c **** *  No
  49:.\Generated_Source\PSoC5/I2C_2.c **** *
  50:.\Generated_Source\PSoC5/I2C_2.c **** *******************************************************************************/
  51:.\Generated_Source\PSoC5/I2C_2.c **** void I2C_2_Init(void) 
  52:.\Generated_Source\PSoC5/I2C_2.c **** {
  34              		.loc 1 52 0
  35              		.cfi_startproc
  36              		@ args = 0, pretend = 0, frame = 8
  37              		@ frame_needed = 1, uses_anonymous_args = 0
  38 0000 80B5     		push	{r7, lr}
  39              		.cfi_def_cfa_offset 8
  40              		.cfi_offset 7, -8
  41              		.cfi_offset 14, -4
  42 0002 82B0     		sub	sp, sp, #8
  43              		.cfi_def_cfa_offset 16
  44 0004 00AF     		add	r7, sp, #0
  45              		.cfi_def_cfa_register 7
  53:.\Generated_Source\PSoC5/I2C_2.c ****     #if(I2C_2_FF_IMPLEMENTED)
  54:.\Generated_Source\PSoC5/I2C_2.c ****         I2C_2_CFG_REG  = I2C_2_DEFAULT_CFG;
  55:.\Generated_Source\PSoC5/I2C_2.c ****         I2C_2_XCFG_REG = I2C_2_DEFAULT_XCFG;
  56:.\Generated_Source\PSoC5/I2C_2.c **** 
  57:.\Generated_Source\PSoC5/I2C_2.c ****         #if(CY_PSOC5A)
  58:.\Generated_Source\PSoC5/I2C_2.c ****             I2C_2_CLKDIV_REG  = LO8(I2C_2_DEFAULT_DIVIDE_FACTOR);
  59:.\Generated_Source\PSoC5/I2C_2.c ****         #else
  60:.\Generated_Source\PSoC5/I2C_2.c ****             I2C_2_CLKDIV1_REG = LO8(I2C_2_DEFAULT_DIVIDE_FACTOR);
  61:.\Generated_Source\PSoC5/I2C_2.c ****             I2C_2_CLKDIV2_REG = HI8(I2C_2_DEFAULT_DIVIDE_FACTOR);
  62:.\Generated_Source\PSoC5/I2C_2.c ****         #endif /* (CY_PSOC5A) */
  63:.\Generated_Source\PSoC5/I2C_2.c **** 
  64:.\Generated_Source\PSoC5/I2C_2.c ****     #else
  65:.\Generated_Source\PSoC5/I2C_2.c ****         uint8 enableInterrupts;
  66:.\Generated_Source\PSoC5/I2C_2.c **** 
  67:.\Generated_Source\PSoC5/I2C_2.c ****         I2C_2_CFG_REG      = I2C_2_DEFAULT_CFG;      /* control  */
  46              		.loc 1 67 0
  47 0006 194B     		ldr	r3, .L2
ARM GAS  C:\Users\dskyNote\AppData\Local\Temp\cceiaKWl.s 			page 3


  48 0008 0022     		movs	r2, #0
  49 000a 1A70     		strb	r2, [r3]
  68:.\Generated_Source\PSoC5/I2C_2.c ****         I2C_2_INT_MASK_REG = I2C_2_DEFAULT_INT_MASK; /* int_mask */
  50              		.loc 1 68 0
  51 000c 184B     		ldr	r3, .L2+4
  52 000e 0122     		movs	r2, #1
  53 0010 1A70     		strb	r2, [r3]
  69:.\Generated_Source\PSoC5/I2C_2.c **** 
  70:.\Generated_Source\PSoC5/I2C_2.c ****         /* Enable interrupts from block */
  71:.\Generated_Source\PSoC5/I2C_2.c ****         enableInterrupts = CyEnterCriticalSection();
  54              		.loc 1 71 0
  55 0012 FFF7FEFF 		bl	CyEnterCriticalSection
  56 0016 0346     		mov	r3, r0
  57 0018 FB71     		strb	r3, [r7, #7]
  72:.\Generated_Source\PSoC5/I2C_2.c ****         I2C_2_INT_ENABLE_REG |= I2C_2_INTR_ENABLE; /* aux_ctl */
  58              		.loc 1 72 0
  59 001a 164B     		ldr	r3, .L2+8
  60 001c 154A     		ldr	r2, .L2+8
  61 001e 1278     		ldrb	r2, [r2]
  62 0020 D2B2     		uxtb	r2, r2
  63 0022 42F01002 		orr	r2, r2, #16
  64 0026 D2B2     		uxtb	r2, r2
  65 0028 1A70     		strb	r2, [r3]
  73:.\Generated_Source\PSoC5/I2C_2.c ****         CyExitCriticalSection(enableInterrupts);
  66              		.loc 1 73 0
  67 002a FB79     		ldrb	r3, [r7, #7]	@ zero_extendqisi2
  68 002c 1846     		mov	r0, r3
  69 002e FFF7FEFF 		bl	CyExitCriticalSection
  74:.\Generated_Source\PSoC5/I2C_2.c **** 
  75:.\Generated_Source\PSoC5/I2C_2.c ****         #if(I2C_2_MODE_MASTER_ENABLED)
  76:.\Generated_Source\PSoC5/I2C_2.c ****             I2C_2_MCLK_PRD_REG = I2C_2_DEFAULT_MCLK_PRD;
  70              		.loc 1 76 0
  71 0032 114B     		ldr	r3, .L2+12
  72 0034 0F22     		movs	r2, #15
  73 0036 1A70     		strb	r2, [r3]
  77:.\Generated_Source\PSoC5/I2C_2.c ****             I2C_2_MCLK_CMP_REG = I2C_2_DEFAULT_MCLK_CMP;
  74              		.loc 1 77 0
  75 0038 104B     		ldr	r3, .L2+16
  76 003a 0822     		movs	r2, #8
  77 003c 1A70     		strb	r2, [r3]
  78:.\Generated_Source\PSoC5/I2C_2.c ****          #endif /* (I2C_2_MODE_MASTER_ENABLED) */
  79:.\Generated_Source\PSoC5/I2C_2.c **** 
  80:.\Generated_Source\PSoC5/I2C_2.c ****         #if(I2C_2_MODE_SLAVE_ENABLED)
  81:.\Generated_Source\PSoC5/I2C_2.c ****             I2C_2_PERIOD_REG = I2C_2_DEFAULT_PERIOD;
  82:.\Generated_Source\PSoC5/I2C_2.c ****         #endif  /* (I2C_2_MODE_SLAVE_ENABLED) */
  83:.\Generated_Source\PSoC5/I2C_2.c **** 
  84:.\Generated_Source\PSoC5/I2C_2.c ****     #endif /* (I2C_2_FF_IMPLEMENTED) */
  85:.\Generated_Source\PSoC5/I2C_2.c **** 
  86:.\Generated_Source\PSoC5/I2C_2.c ****     #if(I2C_2_TIMEOUT_ENABLED)
  87:.\Generated_Source\PSoC5/I2C_2.c ****         I2C_2_TimeoutInit();
  88:.\Generated_Source\PSoC5/I2C_2.c ****     #endif /* (I2C_2_TIMEOUT_ENABLED) */
  89:.\Generated_Source\PSoC5/I2C_2.c **** 
  90:.\Generated_Source\PSoC5/I2C_2.c ****     /* Disable Interrupt and set vector and priority */
  91:.\Generated_Source\PSoC5/I2C_2.c ****     CyIntDisable    (I2C_2_ISR_NUMBER);
  78              		.loc 1 91 0
  79 003e 104B     		ldr	r3, .L2+20
  80 0040 0222     		movs	r2, #2
ARM GAS  C:\Users\dskyNote\AppData\Local\Temp\cceiaKWl.s 			page 4


  81 0042 1A60     		str	r2, [r3]
  92:.\Generated_Source\PSoC5/I2C_2.c ****     CyIntSetPriority(I2C_2_ISR_NUMBER, I2C_2_ISR_PRIORITY);
  82              		.loc 1 92 0
  83 0044 0120     		movs	r0, #1
  84 0046 0421     		movs	r1, #4
  85 0048 FFF7FEFF 		bl	CyIntSetPriority
  93:.\Generated_Source\PSoC5/I2C_2.c ****     #if(I2C_2_INTERN_I2C_INTR_HANDLER)
  94:.\Generated_Source\PSoC5/I2C_2.c ****         (void) CyIntSetVector(I2C_2_ISR_NUMBER, &I2C_2_ISR);
  86              		.loc 1 94 0
  87 004c 0120     		movs	r0, #1
  88 004e 0D49     		ldr	r1, .L2+24
  89 0050 FFF7FEFF 		bl	CyIntSetVector
  95:.\Generated_Source\PSoC5/I2C_2.c ****     #endif /* (I2C_2_INTERN_I2C_INTR_HANDLER) */
  96:.\Generated_Source\PSoC5/I2C_2.c **** 
  97:.\Generated_Source\PSoC5/I2C_2.c **** 
  98:.\Generated_Source\PSoC5/I2C_2.c ****     /* Put state machine in idle state */
  99:.\Generated_Source\PSoC5/I2C_2.c ****     I2C_2_state = I2C_2_SM_IDLE;
  90              		.loc 1 99 0
  91 0054 0C4B     		ldr	r3, .L2+28
  92 0056 1022     		movs	r2, #16
  93 0058 1A70     		strb	r2, [r3]
 100:.\Generated_Source\PSoC5/I2C_2.c **** 
 101:.\Generated_Source\PSoC5/I2C_2.c ****     #if(I2C_2_MODE_SLAVE_ENABLED)
 102:.\Generated_Source\PSoC5/I2C_2.c ****         /* Reset status and buffers index */
 103:.\Generated_Source\PSoC5/I2C_2.c ****         I2C_2_SlaveClearReadBuf();
 104:.\Generated_Source\PSoC5/I2C_2.c ****         I2C_2_SlaveClearWriteBuf();
 105:.\Generated_Source\PSoC5/I2C_2.c ****         I2C_2_slStatus = 0u; /* Reset slave status */
 106:.\Generated_Source\PSoC5/I2C_2.c **** 
 107:.\Generated_Source\PSoC5/I2C_2.c ****         /* Set default address */
 108:.\Generated_Source\PSoC5/I2C_2.c ****         I2C_2_SlaveSetAddress(I2C_2_DEFAULT_ADDR);
 109:.\Generated_Source\PSoC5/I2C_2.c ****     #endif /* (I2C_2_MODE_SLAVE_ENABLED) */
 110:.\Generated_Source\PSoC5/I2C_2.c **** 
 111:.\Generated_Source\PSoC5/I2C_2.c ****     #if(I2C_2_MODE_MASTER_ENABLED)
 112:.\Generated_Source\PSoC5/I2C_2.c ****         /* Reset status and buffers index */
 113:.\Generated_Source\PSoC5/I2C_2.c ****         I2C_2_MasterClearReadBuf();
  94              		.loc 1 113 0
  95 005a FFF7FEFF 		bl	I2C_2_MasterClearReadBuf
 114:.\Generated_Source\PSoC5/I2C_2.c ****         I2C_2_MasterClearWriteBuf();
  96              		.loc 1 114 0
  97 005e FFF7FEFF 		bl	I2C_2_MasterClearWriteBuf
 115:.\Generated_Source\PSoC5/I2C_2.c ****         (void) I2C_2_MasterClearStatus();
  98              		.loc 1 115 0
  99 0062 FFF7FEFF 		bl	I2C_2_MasterClearStatus
 116:.\Generated_Source\PSoC5/I2C_2.c ****     #endif /* (I2C_2_MODE_MASTER_ENABLED) */
 117:.\Generated_Source\PSoC5/I2C_2.c **** }
 100              		.loc 1 117 0
 101 0066 0837     		adds	r7, r7, #8
 102 0068 BD46     		mov	sp, r7
 103              		@ sp needed
 104 006a 80BD     		pop	{r7, pc}
 105              	.L3:
 106              		.align	2
 107              	.L2:
 108 006c 79650040 		.word	1073767801
 109 0070 88640040 		.word	1073767560
 110 0074 98640040 		.word	1073767576
 111 0078 28650040 		.word	1073767720
ARM GAS  C:\Users\dskyNote\AppData\Local\Temp\cceiaKWl.s 			page 5


 112 007c 38650040 		.word	1073767736
 113 0080 80E100E0 		.word	-536813184
 114 0084 00000000 		.word	I2C_2_ISR
 115 0088 00000000 		.word	I2C_2_state
 116              		.cfi_endproc
 117              	.LFE0:
 118              		.size	I2C_2_Init, .-I2C_2_Init
 119              		.section	.text.I2C_2_Enable,"ax",%progbits
 120              		.align	2
 121              		.global	I2C_2_Enable
 122              		.thumb
 123              		.thumb_func
 124              		.type	I2C_2_Enable, %function
 125              	I2C_2_Enable:
 126              	.LFB1:
 118:.\Generated_Source\PSoC5/I2C_2.c **** 
 119:.\Generated_Source\PSoC5/I2C_2.c **** 
 120:.\Generated_Source\PSoC5/I2C_2.c **** /*******************************************************************************
 121:.\Generated_Source\PSoC5/I2C_2.c **** * Function Name: I2C_2_Enable
 122:.\Generated_Source\PSoC5/I2C_2.c **** ********************************************************************************
 123:.\Generated_Source\PSoC5/I2C_2.c **** *
 124:.\Generated_Source\PSoC5/I2C_2.c **** * Summary:
 125:.\Generated_Source\PSoC5/I2C_2.c **** *  Enables I2C operations.
 126:.\Generated_Source\PSoC5/I2C_2.c **** *
 127:.\Generated_Source\PSoC5/I2C_2.c **** * Parameters:
 128:.\Generated_Source\PSoC5/I2C_2.c **** *  None
 129:.\Generated_Source\PSoC5/I2C_2.c **** *
 130:.\Generated_Source\PSoC5/I2C_2.c **** * Return:
 131:.\Generated_Source\PSoC5/I2C_2.c **** *  None
 132:.\Generated_Source\PSoC5/I2C_2.c **** *
 133:.\Generated_Source\PSoC5/I2C_2.c **** * Global variables:
 134:.\Generated_Source\PSoC5/I2C_2.c **** *  None
 135:.\Generated_Source\PSoC5/I2C_2.c **** *
 136:.\Generated_Source\PSoC5/I2C_2.c **** *******************************************************************************/
 137:.\Generated_Source\PSoC5/I2C_2.c **** void I2C_2_Enable(void) 
 138:.\Generated_Source\PSoC5/I2C_2.c **** {
 127              		.loc 1 138 0
 128              		.cfi_startproc
 129              		@ args = 0, pretend = 0, frame = 0
 130              		@ frame_needed = 1, uses_anonymous_args = 0
 131              		@ link register save eliminated.
 132 0000 80B4     		push	{r7}
 133              		.cfi_def_cfa_offset 4
 134              		.cfi_offset 7, -4
 135 0002 00AF     		add	r7, sp, #0
 136              		.cfi_def_cfa_register 7
 139:.\Generated_Source\PSoC5/I2C_2.c ****     #if(I2C_2_FF_IMPLEMENTED)
 140:.\Generated_Source\PSoC5/I2C_2.c ****         uint8 enableInterrupts;
 141:.\Generated_Source\PSoC5/I2C_2.c **** 
 142:.\Generated_Source\PSoC5/I2C_2.c ****         /* Enable power to I2C FF block */
 143:.\Generated_Source\PSoC5/I2C_2.c ****         enableInterrupts = CyEnterCriticalSection();
 144:.\Generated_Source\PSoC5/I2C_2.c ****         I2C_2_ACT_PWRMGR_REG  |= I2C_2_ACT_PWR_EN;
 145:.\Generated_Source\PSoC5/I2C_2.c ****         I2C_2_STBY_PWRMGR_REG |= I2C_2_STBY_PWR_EN;
 146:.\Generated_Source\PSoC5/I2C_2.c ****         CyExitCriticalSection(enableInterrupts);
 147:.\Generated_Source\PSoC5/I2C_2.c **** 
 148:.\Generated_Source\PSoC5/I2C_2.c ****     #else
 149:.\Generated_Source\PSoC5/I2C_2.c **** 
ARM GAS  C:\Users\dskyNote\AppData\Local\Temp\cceiaKWl.s 			page 6


 150:.\Generated_Source\PSoC5/I2C_2.c ****         #if(I2C_2_MODE_SLAVE_ENABLED)
 151:.\Generated_Source\PSoC5/I2C_2.c ****             uint8 enableInterrupts;
 152:.\Generated_Source\PSoC5/I2C_2.c ****         #endif /* (I2C_2_MODE_SLAVE_ENABLED) */
 153:.\Generated_Source\PSoC5/I2C_2.c **** 
 154:.\Generated_Source\PSoC5/I2C_2.c ****         #if(I2C_2_MODE_SLAVE_ENABLED)
 155:.\Generated_Source\PSoC5/I2C_2.c ****             /* Enable slave bit counter */
 156:.\Generated_Source\PSoC5/I2C_2.c ****             enableInterrupts = CyEnterCriticalSection();
 157:.\Generated_Source\PSoC5/I2C_2.c ****             I2C_2_COUNTER_AUX_CTL_REG |= I2C_2_CNT7_ENABLE;   /* aux_ctl */
 158:.\Generated_Source\PSoC5/I2C_2.c ****             CyExitCriticalSection(enableInterrupts);
 159:.\Generated_Source\PSoC5/I2C_2.c ****         #endif /* (I2C_2_MODE_SLAVE_ENABLED) */
 160:.\Generated_Source\PSoC5/I2C_2.c **** 
 161:.\Generated_Source\PSoC5/I2C_2.c ****         I2C_2_CFG_REG |= I2C_2_ENABLE_MS;
 137              		.loc 1 161 0
 138 0004 054B     		ldr	r3, .L5
 139 0006 054A     		ldr	r2, .L5
 140 0008 1278     		ldrb	r2, [r2]
 141 000a D2B2     		uxtb	r2, r2
 142 000c 42F00202 		orr	r2, r2, #2
 143 0010 D2B2     		uxtb	r2, r2
 144 0012 1A70     		strb	r2, [r3]
 162:.\Generated_Source\PSoC5/I2C_2.c **** 
 163:.\Generated_Source\PSoC5/I2C_2.c ****     #endif /* (I2C_2_FF_IMPLEMENTED) */
 164:.\Generated_Source\PSoC5/I2C_2.c **** 
 165:.\Generated_Source\PSoC5/I2C_2.c ****     #if(I2C_2_TIMEOUT_ENABLED)
 166:.\Generated_Source\PSoC5/I2C_2.c ****         I2C_2_TimeoutEnable();
 167:.\Generated_Source\PSoC5/I2C_2.c ****     #endif /* (I2C_2_TIMEOUT_ENABLED) */
 168:.\Generated_Source\PSoC5/I2C_2.c **** }
 145              		.loc 1 168 0
 146 0014 BD46     		mov	sp, r7
 147              		@ sp needed
 148 0016 5DF8047B 		ldr	r7, [sp], #4
 149 001a 7047     		bx	lr
 150              	.L6:
 151              		.align	2
 152              	.L5:
 153 001c 79650040 		.word	1073767801
 154              		.cfi_endproc
 155              	.LFE1:
 156              		.size	I2C_2_Enable, .-I2C_2_Enable
 157              		.section	.text.I2C_2_Start,"ax",%progbits
 158              		.align	2
 159              		.global	I2C_2_Start
 160              		.thumb
 161              		.thumb_func
 162              		.type	I2C_2_Start, %function
 163              	I2C_2_Start:
 164              	.LFB2:
 169:.\Generated_Source\PSoC5/I2C_2.c **** 
 170:.\Generated_Source\PSoC5/I2C_2.c **** 
 171:.\Generated_Source\PSoC5/I2C_2.c **** /*******************************************************************************
 172:.\Generated_Source\PSoC5/I2C_2.c **** * Function Name: I2C_2_Start
 173:.\Generated_Source\PSoC5/I2C_2.c **** ********************************************************************************
 174:.\Generated_Source\PSoC5/I2C_2.c **** *
 175:.\Generated_Source\PSoC5/I2C_2.c **** * Summary:
 176:.\Generated_Source\PSoC5/I2C_2.c **** *  Starts the I2C hardware. Enables Active mode power template bits or clock
 177:.\Generated_Source\PSoC5/I2C_2.c **** *  gating as appropriate. It is required to be executed before I2C bus
 178:.\Generated_Source\PSoC5/I2C_2.c **** *  operation.
ARM GAS  C:\Users\dskyNote\AppData\Local\Temp\cceiaKWl.s 			page 7


 179:.\Generated_Source\PSoC5/I2C_2.c **** *
 180:.\Generated_Source\PSoC5/I2C_2.c **** * Parameters:
 181:.\Generated_Source\PSoC5/I2C_2.c **** *  None
 182:.\Generated_Source\PSoC5/I2C_2.c **** *
 183:.\Generated_Source\PSoC5/I2C_2.c **** * Return:
 184:.\Generated_Source\PSoC5/I2C_2.c **** *  None
 185:.\Generated_Source\PSoC5/I2C_2.c **** *
 186:.\Generated_Source\PSoC5/I2C_2.c **** * Side Effects:
 187:.\Generated_Source\PSoC5/I2C_2.c **** *  This component automatically enables it's interrupt.  If I2C is enabled
 188:.\Generated_Source\PSoC5/I2C_2.c **** *  without the interrupt enabled, it could lock up the I2C bus.
 189:.\Generated_Source\PSoC5/I2C_2.c **** *
 190:.\Generated_Source\PSoC5/I2C_2.c **** * Global variables:
 191:.\Generated_Source\PSoC5/I2C_2.c **** *  I2C_2_initVar - used to check initial configuration, modified
 192:.\Generated_Source\PSoC5/I2C_2.c **** *  on first function call.
 193:.\Generated_Source\PSoC5/I2C_2.c **** *
 194:.\Generated_Source\PSoC5/I2C_2.c **** * Reentrant:
 195:.\Generated_Source\PSoC5/I2C_2.c **** *  No
 196:.\Generated_Source\PSoC5/I2C_2.c **** *
 197:.\Generated_Source\PSoC5/I2C_2.c **** *******************************************************************************/
 198:.\Generated_Source\PSoC5/I2C_2.c **** void I2C_2_Start(void) 
 199:.\Generated_Source\PSoC5/I2C_2.c **** {
 165              		.loc 1 199 0
 166              		.cfi_startproc
 167              		@ args = 0, pretend = 0, frame = 0
 168              		@ frame_needed = 1, uses_anonymous_args = 0
 169 0000 80B5     		push	{r7, lr}
 170              		.cfi_def_cfa_offset 8
 171              		.cfi_offset 7, -8
 172              		.cfi_offset 14, -4
 173 0002 00AF     		add	r7, sp, #0
 174              		.cfi_def_cfa_register 7
 200:.\Generated_Source\PSoC5/I2C_2.c ****     /* Initialize I2C registers, reset I2C buffer index and clears status */
 201:.\Generated_Source\PSoC5/I2C_2.c ****     if(0u == I2C_2_initVar)
 175              		.loc 1 201 0
 176 0004 074B     		ldr	r3, .L9
 177 0006 1B78     		ldrb	r3, [r3]	@ zero_extendqisi2
 178 0008 002B     		cmp	r3, #0
 179 000a 04D1     		bne	.L8
 202:.\Generated_Source\PSoC5/I2C_2.c ****     {
 203:.\Generated_Source\PSoC5/I2C_2.c ****         I2C_2_Init();
 180              		.loc 1 203 0
 181 000c FFF7FEFF 		bl	I2C_2_Init
 204:.\Generated_Source\PSoC5/I2C_2.c ****         I2C_2_initVar = 1u; /* Component initialized */
 182              		.loc 1 204 0
 183 0010 044B     		ldr	r3, .L9
 184 0012 0122     		movs	r2, #1
 185 0014 1A70     		strb	r2, [r3]
 186              	.L8:
 205:.\Generated_Source\PSoC5/I2C_2.c ****     }
 206:.\Generated_Source\PSoC5/I2C_2.c **** 
 207:.\Generated_Source\PSoC5/I2C_2.c ****     I2C_2_Enable();
 187              		.loc 1 207 0
 188 0016 FFF7FEFF 		bl	I2C_2_Enable
 208:.\Generated_Source\PSoC5/I2C_2.c ****     I2C_2_EnableInt();
 189              		.loc 1 208 0
 190 001a 034B     		ldr	r3, .L9+4
 191 001c 0222     		movs	r2, #2
ARM GAS  C:\Users\dskyNote\AppData\Local\Temp\cceiaKWl.s 			page 8


 192 001e 1A60     		str	r2, [r3]
 209:.\Generated_Source\PSoC5/I2C_2.c **** }
 193              		.loc 1 209 0
 194 0020 80BD     		pop	{r7, pc}
 195              	.L10:
 196 0022 00BF     		.align	2
 197              	.L9:
 198 0024 00000000 		.word	I2C_2_initVar
 199 0028 00E100E0 		.word	-536813312
 200              		.cfi_endproc
 201              	.LFE2:
 202              		.size	I2C_2_Start, .-I2C_2_Start
 203              		.section	.text.I2C_2_Stop,"ax",%progbits
 204              		.align	2
 205              		.global	I2C_2_Stop
 206              		.thumb
 207              		.thumb_func
 208              		.type	I2C_2_Stop, %function
 209              	I2C_2_Stop:
 210              	.LFB3:
 210:.\Generated_Source\PSoC5/I2C_2.c **** 
 211:.\Generated_Source\PSoC5/I2C_2.c **** 
 212:.\Generated_Source\PSoC5/I2C_2.c **** /*******************************************************************************
 213:.\Generated_Source\PSoC5/I2C_2.c **** * Function Name: I2C_2_Stop
 214:.\Generated_Source\PSoC5/I2C_2.c **** ********************************************************************************
 215:.\Generated_Source\PSoC5/I2C_2.c **** *
 216:.\Generated_Source\PSoC5/I2C_2.c **** * Summary:
 217:.\Generated_Source\PSoC5/I2C_2.c **** *  Disables I2C hardware and disables I2C interrupt. Disables Active mode power
 218:.\Generated_Source\PSoC5/I2C_2.c **** *  template bits or clock gating as appropriate.
 219:.\Generated_Source\PSoC5/I2C_2.c **** *
 220:.\Generated_Source\PSoC5/I2C_2.c **** * Parameters:
 221:.\Generated_Source\PSoC5/I2C_2.c **** *  None
 222:.\Generated_Source\PSoC5/I2C_2.c **** *
 223:.\Generated_Source\PSoC5/I2C_2.c **** * Return:
 224:.\Generated_Source\PSoC5/I2C_2.c **** *  None
 225:.\Generated_Source\PSoC5/I2C_2.c **** *
 226:.\Generated_Source\PSoC5/I2C_2.c **** *******************************************************************************/
 227:.\Generated_Source\PSoC5/I2C_2.c **** void I2C_2_Stop(void) 
 228:.\Generated_Source\PSoC5/I2C_2.c **** {
 211              		.loc 1 228 0
 212              		.cfi_startproc
 213              		@ args = 0, pretend = 0, frame = 0
 214              		@ frame_needed = 1, uses_anonymous_args = 0
 215              		@ link register save eliminated.
 216 0000 80B4     		push	{r7}
 217              		.cfi_def_cfa_offset 4
 218              		.cfi_offset 7, -4
 219 0002 00AF     		add	r7, sp, #0
 220              		.cfi_def_cfa_register 7
 229:.\Generated_Source\PSoC5/I2C_2.c ****     #if((I2C_2_FF_IMPLEMENTED)  || \
 230:.\Generated_Source\PSoC5/I2C_2.c ****         (I2C_2_UDB_IMPLEMENTED && I2C_2_MODE_SLAVE_ENABLED))
 231:.\Generated_Source\PSoC5/I2C_2.c ****         uint8 enableInterrupts;
 232:.\Generated_Source\PSoC5/I2C_2.c ****     #endif /* ((I2C_2_FF_IMPLEMENTED)  || \
 233:.\Generated_Source\PSoC5/I2C_2.c ****                (I2C_2_UDB_IMPLEMENTED && I2C_2_MODE_SLAVE_ENABLED)) */
 234:.\Generated_Source\PSoC5/I2C_2.c **** 
 235:.\Generated_Source\PSoC5/I2C_2.c ****     I2C_2_DisableInt();
 221              		.loc 1 235 0
ARM GAS  C:\Users\dskyNote\AppData\Local\Temp\cceiaKWl.s 			page 9


 222 0004 0F4B     		ldr	r3, .L12
 223 0006 0222     		movs	r2, #2
 224 0008 1A60     		str	r2, [r3]
 236:.\Generated_Source\PSoC5/I2C_2.c **** 
 237:.\Generated_Source\PSoC5/I2C_2.c ****     I2C_2_DISABLE_INT_ON_STOP;   /* Interrupt on Stop can be enabled by write */
 225              		.loc 1 237 0
 226 000a 0F4B     		ldr	r3, .L12+4
 227 000c 0E4A     		ldr	r2, .L12+4
 228 000e 1278     		ldrb	r2, [r2]
 229 0010 D2B2     		uxtb	r2, r2
 230 0012 22F02002 		bic	r2, r2, #32
 231 0016 D2B2     		uxtb	r2, r2
 232 0018 1A70     		strb	r2, [r3]
 238:.\Generated_Source\PSoC5/I2C_2.c ****     (void) I2C_2_CSR_REG;        /* Clear CSR reg */
 233              		.loc 1 238 0
 234 001a 0C4B     		ldr	r3, .L12+8
 235 001c 1B78     		ldrb	r3, [r3]
 239:.\Generated_Source\PSoC5/I2C_2.c ****     
 240:.\Generated_Source\PSoC5/I2C_2.c ****     #if(I2C_2_TIMEOUT_ENABLED)
 241:.\Generated_Source\PSoC5/I2C_2.c ****         I2C_2_TimeoutStop();
 242:.\Generated_Source\PSoC5/I2C_2.c ****     #endif  /* End (I2C_2_TIMEOUT_ENABLED) */
 243:.\Generated_Source\PSoC5/I2C_2.c **** 
 244:.\Generated_Source\PSoC5/I2C_2.c ****     #if(I2C_2_FF_IMPLEMENTED)
 245:.\Generated_Source\PSoC5/I2C_2.c ****         #if(CY_PSOC3 || CY_PSOC5LP)
 246:.\Generated_Source\PSoC5/I2C_2.c ****             /* Store registers which are held in reset when Master and Slave bits are cleared */
 247:.\Generated_Source\PSoC5/I2C_2.c ****             #if(I2C_2_MODE_SLAVE_ENABLED)
 248:.\Generated_Source\PSoC5/I2C_2.c ****                 I2C_2_backup.addr = I2C_2_ADDR_REG;
 249:.\Generated_Source\PSoC5/I2C_2.c ****             #endif /* (I2C_2_MODE_SLAVE_ENABLED) */
 250:.\Generated_Source\PSoC5/I2C_2.c **** 
 251:.\Generated_Source\PSoC5/I2C_2.c ****             I2C_2_backup.clkDiv1  = I2C_2_CLKDIV1_REG;
 252:.\Generated_Source\PSoC5/I2C_2.c ****             I2C_2_backup.clkDiv2  = I2C_2_CLKDIV2_REG;
 253:.\Generated_Source\PSoC5/I2C_2.c **** 
 254:.\Generated_Source\PSoC5/I2C_2.c **** 
 255:.\Generated_Source\PSoC5/I2C_2.c ****             /* Reset FF block */
 256:.\Generated_Source\PSoC5/I2C_2.c ****             I2C_2_CFG_REG &= ((uint8) ~I2C_2_ENABLE_MS);
 257:.\Generated_Source\PSoC5/I2C_2.c ****             CyDelayUs(I2C_2_FF_RESET_DELAY);
 258:.\Generated_Source\PSoC5/I2C_2.c ****             I2C_2_CFG_REG |= ((uint8)  I2C_2_ENABLE_MS);
 259:.\Generated_Source\PSoC5/I2C_2.c **** 
 260:.\Generated_Source\PSoC5/I2C_2.c **** 
 261:.\Generated_Source\PSoC5/I2C_2.c ****             /* Restore registers */
 262:.\Generated_Source\PSoC5/I2C_2.c ****             #if(I2C_2_MODE_SLAVE_ENABLED)
 263:.\Generated_Source\PSoC5/I2C_2.c ****                 I2C_2_ADDR_REG = I2C_2_backup.addr;
 264:.\Generated_Source\PSoC5/I2C_2.c ****             #endif /* (I2C_2_MODE_SLAVE_ENABLED) */
 265:.\Generated_Source\PSoC5/I2C_2.c **** 
 266:.\Generated_Source\PSoC5/I2C_2.c ****             I2C_2_CLKDIV1_REG = I2C_2_backup.clkDiv1;
 267:.\Generated_Source\PSoC5/I2C_2.c ****             I2C_2_CLKDIV2_REG = I2C_2_backup.clkDiv2;
 268:.\Generated_Source\PSoC5/I2C_2.c **** 
 269:.\Generated_Source\PSoC5/I2C_2.c ****         #endif /* (CY_PSOC3 || CY_PSOC5LP) */
 270:.\Generated_Source\PSoC5/I2C_2.c **** 
 271:.\Generated_Source\PSoC5/I2C_2.c ****         /* Disable power to I2C block */
 272:.\Generated_Source\PSoC5/I2C_2.c ****         enableInterrupts = CyEnterCriticalSection();
 273:.\Generated_Source\PSoC5/I2C_2.c ****         I2C_2_ACT_PWRMGR_REG  &= ((uint8) ~I2C_2_ACT_PWR_EN);
 274:.\Generated_Source\PSoC5/I2C_2.c ****         I2C_2_STBY_PWRMGR_REG &= ((uint8) ~I2C_2_STBY_PWR_EN);
 275:.\Generated_Source\PSoC5/I2C_2.c ****         CyExitCriticalSection(enableInterrupts);
 276:.\Generated_Source\PSoC5/I2C_2.c **** 
 277:.\Generated_Source\PSoC5/I2C_2.c ****     #else
 278:.\Generated_Source\PSoC5/I2C_2.c **** 
ARM GAS  C:\Users\dskyNote\AppData\Local\Temp\cceiaKWl.s 			page 10


 279:.\Generated_Source\PSoC5/I2C_2.c ****         #if(I2C_2_MODE_SLAVE_ENABLED)
 280:.\Generated_Source\PSoC5/I2C_2.c ****             /* Disable slave bit counter */
 281:.\Generated_Source\PSoC5/I2C_2.c ****             enableInterrupts = CyEnterCriticalSection();
 282:.\Generated_Source\PSoC5/I2C_2.c ****             I2C_2_COUNTER_AUX_CTL_REG &= ((uint8) ~I2C_2_CNT7_ENABLE);
 283:.\Generated_Source\PSoC5/I2C_2.c ****             CyExitCriticalSection(enableInterrupts);
 284:.\Generated_Source\PSoC5/I2C_2.c ****         #endif /* (I2C_2_MODE_SLAVE_ENABLED) */
 285:.\Generated_Source\PSoC5/I2C_2.c **** 
 286:.\Generated_Source\PSoC5/I2C_2.c ****         I2C_2_CFG_REG &= ((uint8) ~I2C_2_ENABLE_MS);
 236              		.loc 1 286 0
 237 001e 0C4B     		ldr	r3, .L12+12
 238 0020 0B4A     		ldr	r2, .L12+12
 239 0022 1278     		ldrb	r2, [r2]
 240 0024 D2B2     		uxtb	r2, r2
 241 0026 22F00202 		bic	r2, r2, #2
 242 002a D2B2     		uxtb	r2, r2
 243 002c 1A70     		strb	r2, [r3]
 287:.\Generated_Source\PSoC5/I2C_2.c **** 
 288:.\Generated_Source\PSoC5/I2C_2.c ****     #endif /* (I2C_2_FF_IMPLEMENTED) */
 289:.\Generated_Source\PSoC5/I2C_2.c **** 
 290:.\Generated_Source\PSoC5/I2C_2.c ****     I2C_2_ClearPendingInt();  /* Clear interrupt triggers on reset */
 244              		.loc 1 290 0
 245 002e 094B     		ldr	r3, .L12+16
 246 0030 0222     		movs	r2, #2
 247 0032 1A60     		str	r2, [r3]
 291:.\Generated_Source\PSoC5/I2C_2.c **** 
 292:.\Generated_Source\PSoC5/I2C_2.c ****     I2C_2_state = I2C_2_SM_IDLE;  /* Reset software FSM */
 248              		.loc 1 292 0
 249 0034 084B     		ldr	r3, .L12+20
 250 0036 1022     		movs	r2, #16
 251 0038 1A70     		strb	r2, [r3]
 293:.\Generated_Source\PSoC5/I2C_2.c **** }
 252              		.loc 1 293 0
 253 003a BD46     		mov	sp, r7
 254              		@ sp needed
 255 003c 5DF8047B 		ldr	r7, [sp], #4
 256 0040 7047     		bx	lr
 257              	.L13:
 258 0042 00BF     		.align	2
 259              	.L12:
 260 0044 80E100E0 		.word	-536813184
 261 0048 88640040 		.word	1073767560
 262 004c 68640040 		.word	1073767528
 263 0050 79650040 		.word	1073767801
 264 0054 80E200E0 		.word	-536812928
 265 0058 00000000 		.word	I2C_2_state
 266              		.cfi_endproc
 267              	.LFE3:
 268              		.size	I2C_2_Stop, .-I2C_2_Stop
 269              		.text
 270              	.Letext0:
 271              		.file 2 ".\\Generated_Source\\PSoC5\\cytypes.h"