ARM GAS  C:\Users\dskyNote\AppData\Local\Temp\ccZHyI5i.s 			page 1


   1              		.syntax unified
   2              		.cpu cortex-m3
   3              		.fpu softvfp
   4              		.eabi_attribute 20, 1
   5              		.eabi_attribute 21, 1
   6              		.eabi_attribute 23, 3
   7              		.eabi_attribute 24, 1
   8              		.eabi_attribute 25, 1
   9              		.eabi_attribute 26, 1
  10              		.eabi_attribute 30, 6
  11              		.eabi_attribute 34, 1
  12              		.eabi_attribute 18, 4
  13              		.thumb
  14              		.file	"I2C_3.c"
  15              		.text
  16              	.Ltext0:
  17              		.cfi_sections	.debug_frame
  18              		.global	I2C_3_initVar
  19              		.bss
  20              		.type	I2C_3_initVar, %object
  21              		.size	I2C_3_initVar, 1
  22              	I2C_3_initVar:
  23 0000 00       		.space	1
  24              		.comm	I2C_3_state,1,1
  25              		.section	.text.I2C_3_Init,"ax",%progbits
  26              		.align	2
  27              		.global	I2C_3_Init
  28              		.thumb
  29              		.thumb_func
  30              		.type	I2C_3_Init, %function
  31              	I2C_3_Init:
  32              	.LFB0:
  33              		.file 1 ".\\Generated_Source\\PSoC5\\I2C_3.c"
   1:.\Generated_Source\PSoC5/I2C_3.c **** /*******************************************************************************
   2:.\Generated_Source\PSoC5/I2C_3.c **** * File Name: I2C_3.c
   3:.\Generated_Source\PSoC5/I2C_3.c **** * Version 3.30
   4:.\Generated_Source\PSoC5/I2C_3.c **** *
   5:.\Generated_Source\PSoC5/I2C_3.c **** * Description:
   6:.\Generated_Source\PSoC5/I2C_3.c **** *  This file provides the source code of APIs for the I2C component.
   7:.\Generated_Source\PSoC5/I2C_3.c **** *  Actual protocol and operation code resides in the interrupt service routine
   8:.\Generated_Source\PSoC5/I2C_3.c **** *  file.
   9:.\Generated_Source\PSoC5/I2C_3.c **** *
  10:.\Generated_Source\PSoC5/I2C_3.c **** * Note:
  11:.\Generated_Source\PSoC5/I2C_3.c **** *
  12:.\Generated_Source\PSoC5/I2C_3.c **** *******************************************************************************
  13:.\Generated_Source\PSoC5/I2C_3.c **** * Copyright 2008-2012, Cypress Semiconductor Corporation. All rights reserved.
  14:.\Generated_Source\PSoC5/I2C_3.c **** * You may use this file only in accordance with the license, terms, conditions,
  15:.\Generated_Source\PSoC5/I2C_3.c **** * disclaimers, and limitations in the end user license agreement accompanying
  16:.\Generated_Source\PSoC5/I2C_3.c **** * the software package with which this file was provided.
  17:.\Generated_Source\PSoC5/I2C_3.c **** *******************************************************************************/
  18:.\Generated_Source\PSoC5/I2C_3.c **** 
  19:.\Generated_Source\PSoC5/I2C_3.c **** #include "I2C_3_PVT.h"
  20:.\Generated_Source\PSoC5/I2C_3.c **** 
  21:.\Generated_Source\PSoC5/I2C_3.c **** 
  22:.\Generated_Source\PSoC5/I2C_3.c **** /**********************************
  23:.\Generated_Source\PSoC5/I2C_3.c **** *      System variables
  24:.\Generated_Source\PSoC5/I2C_3.c **** **********************************/
ARM GAS  C:\Users\dskyNote\AppData\Local\Temp\ccZHyI5i.s 			page 2


  25:.\Generated_Source\PSoC5/I2C_3.c **** 
  26:.\Generated_Source\PSoC5/I2C_3.c **** uint8 I2C_3_initVar = 0u;    /* Defines if component was initialized */
  27:.\Generated_Source\PSoC5/I2C_3.c **** 
  28:.\Generated_Source\PSoC5/I2C_3.c **** volatile uint8 I2C_3_state;  /* Current state of I2C FSM */
  29:.\Generated_Source\PSoC5/I2C_3.c **** 
  30:.\Generated_Source\PSoC5/I2C_3.c **** 
  31:.\Generated_Source\PSoC5/I2C_3.c **** /*******************************************************************************
  32:.\Generated_Source\PSoC5/I2C_3.c **** * Function Name: I2C_3_Init
  33:.\Generated_Source\PSoC5/I2C_3.c **** ********************************************************************************
  34:.\Generated_Source\PSoC5/I2C_3.c **** *
  35:.\Generated_Source\PSoC5/I2C_3.c **** * Summary:
  36:.\Generated_Source\PSoC5/I2C_3.c **** *  Initializes I2C registers with initial values provided from customizer.
  37:.\Generated_Source\PSoC5/I2C_3.c **** *
  38:.\Generated_Source\PSoC5/I2C_3.c **** * Parameters:
  39:.\Generated_Source\PSoC5/I2C_3.c **** *  None
  40:.\Generated_Source\PSoC5/I2C_3.c **** *
  41:.\Generated_Source\PSoC5/I2C_3.c **** * Return:
  42:.\Generated_Source\PSoC5/I2C_3.c **** *  None
  43:.\Generated_Source\PSoC5/I2C_3.c **** *
  44:.\Generated_Source\PSoC5/I2C_3.c **** * Global variables:
  45:.\Generated_Source\PSoC5/I2C_3.c **** *  None
  46:.\Generated_Source\PSoC5/I2C_3.c **** *
  47:.\Generated_Source\PSoC5/I2C_3.c **** * Reentrant:
  48:.\Generated_Source\PSoC5/I2C_3.c **** *  No
  49:.\Generated_Source\PSoC5/I2C_3.c **** *
  50:.\Generated_Source\PSoC5/I2C_3.c **** *******************************************************************************/
  51:.\Generated_Source\PSoC5/I2C_3.c **** void I2C_3_Init(void) 
  52:.\Generated_Source\PSoC5/I2C_3.c **** {
  34              		.loc 1 52 0
  35              		.cfi_startproc
  36              		@ args = 0, pretend = 0, frame = 0
  37              		@ frame_needed = 1, uses_anonymous_args = 0
  38 0000 80B5     		push	{r7, lr}
  39              		.cfi_def_cfa_offset 8
  40              		.cfi_offset 7, -8
  41              		.cfi_offset 14, -4
  42 0002 00AF     		add	r7, sp, #0
  43              		.cfi_def_cfa_register 7
  53:.\Generated_Source\PSoC5/I2C_3.c ****     #if(I2C_3_FF_IMPLEMENTED)
  54:.\Generated_Source\PSoC5/I2C_3.c ****         I2C_3_CFG_REG  = I2C_3_DEFAULT_CFG;
  44              		.loc 1 54 0
  45 0004 154B     		ldr	r3, .L2
  46 0006 0322     		movs	r2, #3
  47 0008 1A70     		strb	r2, [r3]
  55:.\Generated_Source\PSoC5/I2C_3.c ****         I2C_3_XCFG_REG = I2C_3_DEFAULT_XCFG;
  48              		.loc 1 55 0
  49 000a 154B     		ldr	r3, .L2+4
  50 000c 8122     		movs	r2, #129
  51 000e 1A70     		strb	r2, [r3]
  56:.\Generated_Source\PSoC5/I2C_3.c **** 
  57:.\Generated_Source\PSoC5/I2C_3.c ****         #if(CY_PSOC5A)
  58:.\Generated_Source\PSoC5/I2C_3.c ****             I2C_3_CLKDIV_REG  = LO8(I2C_3_DEFAULT_DIVIDE_FACTOR);
  59:.\Generated_Source\PSoC5/I2C_3.c ****         #else
  60:.\Generated_Source\PSoC5/I2C_3.c ****             I2C_3_CLKDIV1_REG = LO8(I2C_3_DEFAULT_DIVIDE_FACTOR);
  52              		.loc 1 60 0
  53 0010 144B     		ldr	r3, .L2+8
  54 0012 0F22     		movs	r2, #15
ARM GAS  C:\Users\dskyNote\AppData\Local\Temp\ccZHyI5i.s 			page 3


  55 0014 1A70     		strb	r2, [r3]
  61:.\Generated_Source\PSoC5/I2C_3.c ****             I2C_3_CLKDIV2_REG = HI8(I2C_3_DEFAULT_DIVIDE_FACTOR);
  56              		.loc 1 61 0
  57 0016 144B     		ldr	r3, .L2+12
  58 0018 0022     		movs	r2, #0
  59 001a 1A70     		strb	r2, [r3]
  62:.\Generated_Source\PSoC5/I2C_3.c ****         #endif /* (CY_PSOC5A) */
  63:.\Generated_Source\PSoC5/I2C_3.c **** 
  64:.\Generated_Source\PSoC5/I2C_3.c ****     #else
  65:.\Generated_Source\PSoC5/I2C_3.c ****         uint8 enableInterrupts;
  66:.\Generated_Source\PSoC5/I2C_3.c **** 
  67:.\Generated_Source\PSoC5/I2C_3.c ****         I2C_3_CFG_REG      = I2C_3_DEFAULT_CFG;      /* control  */
  68:.\Generated_Source\PSoC5/I2C_3.c ****         I2C_3_INT_MASK_REG = I2C_3_DEFAULT_INT_MASK; /* int_mask */
  69:.\Generated_Source\PSoC5/I2C_3.c **** 
  70:.\Generated_Source\PSoC5/I2C_3.c ****         /* Enable interrupts from block */
  71:.\Generated_Source\PSoC5/I2C_3.c ****         enableInterrupts = CyEnterCriticalSection();
  72:.\Generated_Source\PSoC5/I2C_3.c ****         I2C_3_INT_ENABLE_REG |= I2C_3_INTR_ENABLE; /* aux_ctl */
  73:.\Generated_Source\PSoC5/I2C_3.c ****         CyExitCriticalSection(enableInterrupts);
  74:.\Generated_Source\PSoC5/I2C_3.c **** 
  75:.\Generated_Source\PSoC5/I2C_3.c ****         #if(I2C_3_MODE_MASTER_ENABLED)
  76:.\Generated_Source\PSoC5/I2C_3.c ****             I2C_3_MCLK_PRD_REG = I2C_3_DEFAULT_MCLK_PRD;
  77:.\Generated_Source\PSoC5/I2C_3.c ****             I2C_3_MCLK_CMP_REG = I2C_3_DEFAULT_MCLK_CMP;
  78:.\Generated_Source\PSoC5/I2C_3.c ****          #endif /* (I2C_3_MODE_MASTER_ENABLED) */
  79:.\Generated_Source\PSoC5/I2C_3.c **** 
  80:.\Generated_Source\PSoC5/I2C_3.c ****         #if(I2C_3_MODE_SLAVE_ENABLED)
  81:.\Generated_Source\PSoC5/I2C_3.c ****             I2C_3_PERIOD_REG = I2C_3_DEFAULT_PERIOD;
  82:.\Generated_Source\PSoC5/I2C_3.c ****         #endif  /* (I2C_3_MODE_SLAVE_ENABLED) */
  83:.\Generated_Source\PSoC5/I2C_3.c **** 
  84:.\Generated_Source\PSoC5/I2C_3.c ****     #endif /* (I2C_3_FF_IMPLEMENTED) */
  85:.\Generated_Source\PSoC5/I2C_3.c **** 
  86:.\Generated_Source\PSoC5/I2C_3.c ****     #if(I2C_3_TIMEOUT_ENABLED)
  87:.\Generated_Source\PSoC5/I2C_3.c ****         I2C_3_TimeoutInit();
  88:.\Generated_Source\PSoC5/I2C_3.c ****     #endif /* (I2C_3_TIMEOUT_ENABLED) */
  89:.\Generated_Source\PSoC5/I2C_3.c **** 
  90:.\Generated_Source\PSoC5/I2C_3.c ****     /* Disable Interrupt and set vector and priority */
  91:.\Generated_Source\PSoC5/I2C_3.c ****     CyIntDisable    (I2C_3_ISR_NUMBER);
  60              		.loc 1 91 0
  61 001c 134B     		ldr	r3, .L2+16
  62 001e 4FF40042 		mov	r2, #32768
  63 0022 1A60     		str	r2, [r3]
  92:.\Generated_Source\PSoC5/I2C_3.c ****     CyIntSetPriority(I2C_3_ISR_NUMBER, I2C_3_ISR_PRIORITY);
  64              		.loc 1 92 0
  65 0024 0F20     		movs	r0, #15
  66 0026 0721     		movs	r1, #7
  67 0028 FFF7FEFF 		bl	CyIntSetPriority
  93:.\Generated_Source\PSoC5/I2C_3.c ****     #if(I2C_3_INTERN_I2C_INTR_HANDLER)
  94:.\Generated_Source\PSoC5/I2C_3.c ****         (void) CyIntSetVector(I2C_3_ISR_NUMBER, &I2C_3_ISR);
  68              		.loc 1 94 0
  69 002c 0F20     		movs	r0, #15
  70 002e 1049     		ldr	r1, .L2+20
  71 0030 FFF7FEFF 		bl	CyIntSetVector
  95:.\Generated_Source\PSoC5/I2C_3.c ****     #endif /* (I2C_3_INTERN_I2C_INTR_HANDLER) */
  96:.\Generated_Source\PSoC5/I2C_3.c **** 
  97:.\Generated_Source\PSoC5/I2C_3.c **** 
  98:.\Generated_Source\PSoC5/I2C_3.c ****     /* Put state machine in idle state */
  99:.\Generated_Source\PSoC5/I2C_3.c ****     I2C_3_state = I2C_3_SM_IDLE;
  72              		.loc 1 99 0
ARM GAS  C:\Users\dskyNote\AppData\Local\Temp\ccZHyI5i.s 			page 4


  73 0034 0F4B     		ldr	r3, .L2+24
  74 0036 1022     		movs	r2, #16
  75 0038 1A70     		strb	r2, [r3]
 100:.\Generated_Source\PSoC5/I2C_3.c **** 
 101:.\Generated_Source\PSoC5/I2C_3.c ****     #if(I2C_3_MODE_SLAVE_ENABLED)
 102:.\Generated_Source\PSoC5/I2C_3.c ****         /* Reset status and buffers index */
 103:.\Generated_Source\PSoC5/I2C_3.c ****         I2C_3_SlaveClearReadBuf();
  76              		.loc 1 103 0
  77 003a FFF7FEFF 		bl	I2C_3_SlaveClearReadBuf
 104:.\Generated_Source\PSoC5/I2C_3.c ****         I2C_3_SlaveClearWriteBuf();
  78              		.loc 1 104 0
  79 003e FFF7FEFF 		bl	I2C_3_SlaveClearWriteBuf
 105:.\Generated_Source\PSoC5/I2C_3.c ****         I2C_3_slStatus = 0u; /* Reset slave status */
  80              		.loc 1 105 0
  81 0042 0D4B     		ldr	r3, .L2+28
  82 0044 0022     		movs	r2, #0
  83 0046 1A70     		strb	r2, [r3]
 106:.\Generated_Source\PSoC5/I2C_3.c **** 
 107:.\Generated_Source\PSoC5/I2C_3.c ****         /* Set default address */
 108:.\Generated_Source\PSoC5/I2C_3.c ****         I2C_3_SlaveSetAddress(I2C_3_DEFAULT_ADDR);
  84              		.loc 1 108 0
  85 0048 0820     		movs	r0, #8
  86 004a FFF7FEFF 		bl	I2C_3_SlaveSetAddress
 109:.\Generated_Source\PSoC5/I2C_3.c ****     #endif /* (I2C_3_MODE_SLAVE_ENABLED) */
 110:.\Generated_Source\PSoC5/I2C_3.c **** 
 111:.\Generated_Source\PSoC5/I2C_3.c ****     #if(I2C_3_MODE_MASTER_ENABLED)
 112:.\Generated_Source\PSoC5/I2C_3.c ****         /* Reset status and buffers index */
 113:.\Generated_Source\PSoC5/I2C_3.c ****         I2C_3_MasterClearReadBuf();
  87              		.loc 1 113 0
  88 004e FFF7FEFF 		bl	I2C_3_MasterClearReadBuf
 114:.\Generated_Source\PSoC5/I2C_3.c ****         I2C_3_MasterClearWriteBuf();
  89              		.loc 1 114 0
  90 0052 FFF7FEFF 		bl	I2C_3_MasterClearWriteBuf
 115:.\Generated_Source\PSoC5/I2C_3.c ****         (void) I2C_3_MasterClearStatus();
  91              		.loc 1 115 0
  92 0056 FFF7FEFF 		bl	I2C_3_MasterClearStatus
 116:.\Generated_Source\PSoC5/I2C_3.c ****     #endif /* (I2C_3_MODE_MASTER_ENABLED) */
 117:.\Generated_Source\PSoC5/I2C_3.c **** }
  93              		.loc 1 117 0
  94 005a 80BD     		pop	{r7, pc}
  95              	.L3:
  96              		.align	2
  97              	.L2:
  98 005c D6490040 		.word	1073760726
  99 0060 C8490040 		.word	1073760712
 100 0064 DB490040 		.word	1073760731
 101 0068 DC490040 		.word	1073760732
 102 006c 80E100E0 		.word	-536813184
 103 0070 00000000 		.word	I2C_3_ISR
 104 0074 00000000 		.word	I2C_3_state
 105 0078 00000000 		.word	I2C_3_slStatus
 106              		.cfi_endproc
 107              	.LFE0:
 108              		.size	I2C_3_Init, .-I2C_3_Init
 109              		.section	.text.I2C_3_Enable,"ax",%progbits
 110              		.align	2
 111              		.global	I2C_3_Enable
ARM GAS  C:\Users\dskyNote\AppData\Local\Temp\ccZHyI5i.s 			page 5


 112              		.thumb
 113              		.thumb_func
 114              		.type	I2C_3_Enable, %function
 115              	I2C_3_Enable:
 116              	.LFB1:
 118:.\Generated_Source\PSoC5/I2C_3.c **** 
 119:.\Generated_Source\PSoC5/I2C_3.c **** 
 120:.\Generated_Source\PSoC5/I2C_3.c **** /*******************************************************************************
 121:.\Generated_Source\PSoC5/I2C_3.c **** * Function Name: I2C_3_Enable
 122:.\Generated_Source\PSoC5/I2C_3.c **** ********************************************************************************
 123:.\Generated_Source\PSoC5/I2C_3.c **** *
 124:.\Generated_Source\PSoC5/I2C_3.c **** * Summary:
 125:.\Generated_Source\PSoC5/I2C_3.c **** *  Enables I2C operations.
 126:.\Generated_Source\PSoC5/I2C_3.c **** *
 127:.\Generated_Source\PSoC5/I2C_3.c **** * Parameters:
 128:.\Generated_Source\PSoC5/I2C_3.c **** *  None
 129:.\Generated_Source\PSoC5/I2C_3.c **** *
 130:.\Generated_Source\PSoC5/I2C_3.c **** * Return:
 131:.\Generated_Source\PSoC5/I2C_3.c **** *  None
 132:.\Generated_Source\PSoC5/I2C_3.c **** *
 133:.\Generated_Source\PSoC5/I2C_3.c **** * Global variables:
 134:.\Generated_Source\PSoC5/I2C_3.c **** *  None
 135:.\Generated_Source\PSoC5/I2C_3.c **** *
 136:.\Generated_Source\PSoC5/I2C_3.c **** *******************************************************************************/
 137:.\Generated_Source\PSoC5/I2C_3.c **** void I2C_3_Enable(void) 
 138:.\Generated_Source\PSoC5/I2C_3.c **** {
 117              		.loc 1 138 0
 118              		.cfi_startproc
 119              		@ args = 0, pretend = 0, frame = 8
 120              		@ frame_needed = 1, uses_anonymous_args = 0
 121 0000 80B5     		push	{r7, lr}
 122              		.cfi_def_cfa_offset 8
 123              		.cfi_offset 7, -8
 124              		.cfi_offset 14, -4
 125 0002 82B0     		sub	sp, sp, #8
 126              		.cfi_def_cfa_offset 16
 127 0004 00AF     		add	r7, sp, #0
 128              		.cfi_def_cfa_register 7
 139:.\Generated_Source\PSoC5/I2C_3.c ****     #if(I2C_3_FF_IMPLEMENTED)
 140:.\Generated_Source\PSoC5/I2C_3.c ****         uint8 enableInterrupts;
 141:.\Generated_Source\PSoC5/I2C_3.c **** 
 142:.\Generated_Source\PSoC5/I2C_3.c ****         /* Enable power to I2C FF block */
 143:.\Generated_Source\PSoC5/I2C_3.c ****         enableInterrupts = CyEnterCriticalSection();
 129              		.loc 1 143 0
 130 0006 FFF7FEFF 		bl	CyEnterCriticalSection
 131 000a 0346     		mov	r3, r0
 132 000c FB71     		strb	r3, [r7, #7]
 144:.\Generated_Source\PSoC5/I2C_3.c ****         I2C_3_ACT_PWRMGR_REG  |= I2C_3_ACT_PWR_EN;
 133              		.loc 1 144 0
 134 000e 0B4B     		ldr	r3, .L5
 135 0010 0A4A     		ldr	r2, .L5
 136 0012 1278     		ldrb	r2, [r2]
 137 0014 D2B2     		uxtb	r2, r2
 138 0016 42F00402 		orr	r2, r2, #4
 139 001a D2B2     		uxtb	r2, r2
 140 001c 1A70     		strb	r2, [r3]
 145:.\Generated_Source\PSoC5/I2C_3.c ****         I2C_3_STBY_PWRMGR_REG |= I2C_3_STBY_PWR_EN;
ARM GAS  C:\Users\dskyNote\AppData\Local\Temp\ccZHyI5i.s 			page 6


 141              		.loc 1 145 0
 142 001e 084B     		ldr	r3, .L5+4
 143 0020 074A     		ldr	r2, .L5+4
 144 0022 1278     		ldrb	r2, [r2]
 145 0024 D2B2     		uxtb	r2, r2
 146 0026 42F00402 		orr	r2, r2, #4
 147 002a D2B2     		uxtb	r2, r2
 148 002c 1A70     		strb	r2, [r3]
 146:.\Generated_Source\PSoC5/I2C_3.c ****         CyExitCriticalSection(enableInterrupts);
 149              		.loc 1 146 0
 150 002e FB79     		ldrb	r3, [r7, #7]	@ zero_extendqisi2
 151 0030 1846     		mov	r0, r3
 152 0032 FFF7FEFF 		bl	CyExitCriticalSection
 147:.\Generated_Source\PSoC5/I2C_3.c **** 
 148:.\Generated_Source\PSoC5/I2C_3.c ****     #else
 149:.\Generated_Source\PSoC5/I2C_3.c **** 
 150:.\Generated_Source\PSoC5/I2C_3.c ****         #if(I2C_3_MODE_SLAVE_ENABLED)
 151:.\Generated_Source\PSoC5/I2C_3.c ****             uint8 enableInterrupts;
 152:.\Generated_Source\PSoC5/I2C_3.c ****         #endif /* (I2C_3_MODE_SLAVE_ENABLED) */
 153:.\Generated_Source\PSoC5/I2C_3.c **** 
 154:.\Generated_Source\PSoC5/I2C_3.c ****         #if(I2C_3_MODE_SLAVE_ENABLED)
 155:.\Generated_Source\PSoC5/I2C_3.c ****             /* Enable slave bit counter */
 156:.\Generated_Source\PSoC5/I2C_3.c ****             enableInterrupts = CyEnterCriticalSection();
 157:.\Generated_Source\PSoC5/I2C_3.c ****             I2C_3_COUNTER_AUX_CTL_REG |= I2C_3_CNT7_ENABLE;   /* aux_ctl */
 158:.\Generated_Source\PSoC5/I2C_3.c ****             CyExitCriticalSection(enableInterrupts);
 159:.\Generated_Source\PSoC5/I2C_3.c ****         #endif /* (I2C_3_MODE_SLAVE_ENABLED) */
 160:.\Generated_Source\PSoC5/I2C_3.c **** 
 161:.\Generated_Source\PSoC5/I2C_3.c ****         I2C_3_CFG_REG |= I2C_3_ENABLE_MS;
 162:.\Generated_Source\PSoC5/I2C_3.c **** 
 163:.\Generated_Source\PSoC5/I2C_3.c ****     #endif /* (I2C_3_FF_IMPLEMENTED) */
 164:.\Generated_Source\PSoC5/I2C_3.c **** 
 165:.\Generated_Source\PSoC5/I2C_3.c ****     #if(I2C_3_TIMEOUT_ENABLED)
 166:.\Generated_Source\PSoC5/I2C_3.c ****         I2C_3_TimeoutEnable();
 167:.\Generated_Source\PSoC5/I2C_3.c ****     #endif /* (I2C_3_TIMEOUT_ENABLED) */
 168:.\Generated_Source\PSoC5/I2C_3.c **** }
 153              		.loc 1 168 0
 154 0036 0837     		adds	r7, r7, #8
 155 0038 BD46     		mov	sp, r7
 156              		@ sp needed
 157 003a 80BD     		pop	{r7, pc}
 158              	.L6:
 159              		.align	2
 160              	.L5:
 161 003c A5430040 		.word	1073759141
 162 0040 B5430040 		.word	1073759157
 163              		.cfi_endproc
 164              	.LFE1:
 165              		.size	I2C_3_Enable, .-I2C_3_Enable
 166              		.section	.text.I2C_3_Start,"ax",%progbits
 167              		.align	2
 168              		.global	I2C_3_Start
 169              		.thumb
 170              		.thumb_func
 171              		.type	I2C_3_Start, %function
 172              	I2C_3_Start:
 173              	.LFB2:
 169:.\Generated_Source\PSoC5/I2C_3.c **** 
ARM GAS  C:\Users\dskyNote\AppData\Local\Temp\ccZHyI5i.s 			page 7


 170:.\Generated_Source\PSoC5/I2C_3.c **** 
 171:.\Generated_Source\PSoC5/I2C_3.c **** /*******************************************************************************
 172:.\Generated_Source\PSoC5/I2C_3.c **** * Function Name: I2C_3_Start
 173:.\Generated_Source\PSoC5/I2C_3.c **** ********************************************************************************
 174:.\Generated_Source\PSoC5/I2C_3.c **** *
 175:.\Generated_Source\PSoC5/I2C_3.c **** * Summary:
 176:.\Generated_Source\PSoC5/I2C_3.c **** *  Starts the I2C hardware. Enables Active mode power template bits or clock
 177:.\Generated_Source\PSoC5/I2C_3.c **** *  gating as appropriate. It is required to be executed before I2C bus
 178:.\Generated_Source\PSoC5/I2C_3.c **** *  operation.
 179:.\Generated_Source\PSoC5/I2C_3.c **** *
 180:.\Generated_Source\PSoC5/I2C_3.c **** * Parameters:
 181:.\Generated_Source\PSoC5/I2C_3.c **** *  None
 182:.\Generated_Source\PSoC5/I2C_3.c **** *
 183:.\Generated_Source\PSoC5/I2C_3.c **** * Return:
 184:.\Generated_Source\PSoC5/I2C_3.c **** *  None
 185:.\Generated_Source\PSoC5/I2C_3.c **** *
 186:.\Generated_Source\PSoC5/I2C_3.c **** * Side Effects:
 187:.\Generated_Source\PSoC5/I2C_3.c **** *  This component automatically enables it's interrupt.  If I2C is enabled
 188:.\Generated_Source\PSoC5/I2C_3.c **** *  without the interrupt enabled, it could lock up the I2C bus.
 189:.\Generated_Source\PSoC5/I2C_3.c **** *
 190:.\Generated_Source\PSoC5/I2C_3.c **** * Global variables:
 191:.\Generated_Source\PSoC5/I2C_3.c **** *  I2C_3_initVar - used to check initial configuration, modified
 192:.\Generated_Source\PSoC5/I2C_3.c **** *  on first function call.
 193:.\Generated_Source\PSoC5/I2C_3.c **** *
 194:.\Generated_Source\PSoC5/I2C_3.c **** * Reentrant:
 195:.\Generated_Source\PSoC5/I2C_3.c **** *  No
 196:.\Generated_Source\PSoC5/I2C_3.c **** *
 197:.\Generated_Source\PSoC5/I2C_3.c **** *******************************************************************************/
 198:.\Generated_Source\PSoC5/I2C_3.c **** void I2C_3_Start(void) 
 199:.\Generated_Source\PSoC5/I2C_3.c **** {
 174              		.loc 1 199 0
 175              		.cfi_startproc
 176              		@ args = 0, pretend = 0, frame = 0
 177              		@ frame_needed = 1, uses_anonymous_args = 0
 178 0000 80B5     		push	{r7, lr}
 179              		.cfi_def_cfa_offset 8
 180              		.cfi_offset 7, -8
 181              		.cfi_offset 14, -4
 182 0002 00AF     		add	r7, sp, #0
 183              		.cfi_def_cfa_register 7
 200:.\Generated_Source\PSoC5/I2C_3.c ****     /* Initialize I2C registers, reset I2C buffer index and clears status */
 201:.\Generated_Source\PSoC5/I2C_3.c ****     if(0u == I2C_3_initVar)
 184              		.loc 1 201 0
 185 0004 074B     		ldr	r3, .L9
 186 0006 1B78     		ldrb	r3, [r3]	@ zero_extendqisi2
 187 0008 002B     		cmp	r3, #0
 188 000a 04D1     		bne	.L8
 202:.\Generated_Source\PSoC5/I2C_3.c ****     {
 203:.\Generated_Source\PSoC5/I2C_3.c ****         I2C_3_Init();
 189              		.loc 1 203 0
 190 000c FFF7FEFF 		bl	I2C_3_Init
 204:.\Generated_Source\PSoC5/I2C_3.c ****         I2C_3_initVar = 1u; /* Component initialized */
 191              		.loc 1 204 0
 192 0010 044B     		ldr	r3, .L9
 193 0012 0122     		movs	r2, #1
 194 0014 1A70     		strb	r2, [r3]
 195              	.L8:
ARM GAS  C:\Users\dskyNote\AppData\Local\Temp\ccZHyI5i.s 			page 8


 205:.\Generated_Source\PSoC5/I2C_3.c ****     }
 206:.\Generated_Source\PSoC5/I2C_3.c **** 
 207:.\Generated_Source\PSoC5/I2C_3.c ****     I2C_3_Enable();
 196              		.loc 1 207 0
 197 0016 FFF7FEFF 		bl	I2C_3_Enable
 208:.\Generated_Source\PSoC5/I2C_3.c ****     I2C_3_EnableInt();
 198              		.loc 1 208 0
 199 001a 034B     		ldr	r3, .L9+4
 200 001c 4FF40042 		mov	r2, #32768
 201 0020 1A60     		str	r2, [r3]
 209:.\Generated_Source\PSoC5/I2C_3.c **** }
 202              		.loc 1 209 0
 203 0022 80BD     		pop	{r7, pc}
 204              	.L10:
 205              		.align	2
 206              	.L9:
 207 0024 00000000 		.word	I2C_3_initVar
 208 0028 00E100E0 		.word	-536813312
 209              		.cfi_endproc
 210              	.LFE2:
 211              		.size	I2C_3_Start, .-I2C_3_Start
 212              		.section	.text.I2C_3_Stop,"ax",%progbits
 213              		.align	2
 214              		.global	I2C_3_Stop
 215              		.thumb
 216              		.thumb_func
 217              		.type	I2C_3_Stop, %function
 218              	I2C_3_Stop:
 219              	.LFB3:
 210:.\Generated_Source\PSoC5/I2C_3.c **** 
 211:.\Generated_Source\PSoC5/I2C_3.c **** 
 212:.\Generated_Source\PSoC5/I2C_3.c **** /*******************************************************************************
 213:.\Generated_Source\PSoC5/I2C_3.c **** * Function Name: I2C_3_Stop
 214:.\Generated_Source\PSoC5/I2C_3.c **** ********************************************************************************
 215:.\Generated_Source\PSoC5/I2C_3.c **** *
 216:.\Generated_Source\PSoC5/I2C_3.c **** * Summary:
 217:.\Generated_Source\PSoC5/I2C_3.c **** *  Disables I2C hardware and disables I2C interrupt. Disables Active mode power
 218:.\Generated_Source\PSoC5/I2C_3.c **** *  template bits or clock gating as appropriate.
 219:.\Generated_Source\PSoC5/I2C_3.c **** *
 220:.\Generated_Source\PSoC5/I2C_3.c **** * Parameters:
 221:.\Generated_Source\PSoC5/I2C_3.c **** *  None
 222:.\Generated_Source\PSoC5/I2C_3.c **** *
 223:.\Generated_Source\PSoC5/I2C_3.c **** * Return:
 224:.\Generated_Source\PSoC5/I2C_3.c **** *  None
 225:.\Generated_Source\PSoC5/I2C_3.c **** *
 226:.\Generated_Source\PSoC5/I2C_3.c **** *******************************************************************************/
 227:.\Generated_Source\PSoC5/I2C_3.c **** void I2C_3_Stop(void) 
 228:.\Generated_Source\PSoC5/I2C_3.c **** {
 220              		.loc 1 228 0
 221              		.cfi_startproc
 222              		@ args = 0, pretend = 0, frame = 8
 223              		@ frame_needed = 1, uses_anonymous_args = 0
 224 0000 80B5     		push	{r7, lr}
 225              		.cfi_def_cfa_offset 8
 226              		.cfi_offset 7, -8
 227              		.cfi_offset 14, -4
 228 0002 82B0     		sub	sp, sp, #8
ARM GAS  C:\Users\dskyNote\AppData\Local\Temp\ccZHyI5i.s 			page 9


 229              		.cfi_def_cfa_offset 16
 230 0004 00AF     		add	r7, sp, #0
 231              		.cfi_def_cfa_register 7
 229:.\Generated_Source\PSoC5/I2C_3.c ****     #if((I2C_3_FF_IMPLEMENTED)  || \
 230:.\Generated_Source\PSoC5/I2C_3.c ****         (I2C_3_UDB_IMPLEMENTED && I2C_3_MODE_SLAVE_ENABLED))
 231:.\Generated_Source\PSoC5/I2C_3.c ****         uint8 enableInterrupts;
 232:.\Generated_Source\PSoC5/I2C_3.c ****     #endif /* ((I2C_3_FF_IMPLEMENTED)  || \
 233:.\Generated_Source\PSoC5/I2C_3.c ****                (I2C_3_UDB_IMPLEMENTED && I2C_3_MODE_SLAVE_ENABLED)) */
 234:.\Generated_Source\PSoC5/I2C_3.c **** 
 235:.\Generated_Source\PSoC5/I2C_3.c ****     I2C_3_DisableInt();
 232              		.loc 1 235 0
 233 0006 2F4B     		ldr	r3, .L12
 234 0008 4FF40042 		mov	r2, #32768
 235 000c 1A60     		str	r2, [r3]
 236:.\Generated_Source\PSoC5/I2C_3.c **** 
 237:.\Generated_Source\PSoC5/I2C_3.c ****     I2C_3_DISABLE_INT_ON_STOP;   /* Interrupt on Stop can be enabled by write */
 236              		.loc 1 237 0
 237 000e 2E4B     		ldr	r3, .L12+4
 238 0010 2D4A     		ldr	r2, .L12+4
 239 0012 1278     		ldrb	r2, [r2]
 240 0014 D2B2     		uxtb	r2, r2
 241 0016 22F01002 		bic	r2, r2, #16
 242 001a D2B2     		uxtb	r2, r2
 243 001c 1A70     		strb	r2, [r3]
 238:.\Generated_Source\PSoC5/I2C_3.c ****     (void) I2C_3_CSR_REG;        /* Clear CSR reg */
 244              		.loc 1 238 0
 245 001e 2B4B     		ldr	r3, .L12+8
 246 0020 1B78     		ldrb	r3, [r3]
 239:.\Generated_Source\PSoC5/I2C_3.c ****     
 240:.\Generated_Source\PSoC5/I2C_3.c ****     #if(I2C_3_TIMEOUT_ENABLED)
 241:.\Generated_Source\PSoC5/I2C_3.c ****         I2C_3_TimeoutStop();
 242:.\Generated_Source\PSoC5/I2C_3.c ****     #endif  /* End (I2C_3_TIMEOUT_ENABLED) */
 243:.\Generated_Source\PSoC5/I2C_3.c **** 
 244:.\Generated_Source\PSoC5/I2C_3.c ****     #if(I2C_3_FF_IMPLEMENTED)
 245:.\Generated_Source\PSoC5/I2C_3.c ****         #if(CY_PSOC3 || CY_PSOC5LP)
 246:.\Generated_Source\PSoC5/I2C_3.c ****             /* Store registers which are held in reset when Master and Slave bits are cleared */
 247:.\Generated_Source\PSoC5/I2C_3.c ****             #if(I2C_3_MODE_SLAVE_ENABLED)
 248:.\Generated_Source\PSoC5/I2C_3.c ****                 I2C_3_backup.addr = I2C_3_ADDR_REG;
 247              		.loc 1 248 0
 248 0022 2B4B     		ldr	r3, .L12+12
 249 0024 1B78     		ldrb	r3, [r3]
 250 0026 DAB2     		uxtb	r2, r3
 251 0028 2A4B     		ldr	r3, .L12+16
 252 002a DA70     		strb	r2, [r3, #3]
 249:.\Generated_Source\PSoC5/I2C_3.c ****             #endif /* (I2C_3_MODE_SLAVE_ENABLED) */
 250:.\Generated_Source\PSoC5/I2C_3.c **** 
 251:.\Generated_Source\PSoC5/I2C_3.c ****             I2C_3_backup.clkDiv1  = I2C_3_CLKDIV1_REG;
 253              		.loc 1 251 0
 254 002c 2A4B     		ldr	r3, .L12+20
 255 002e 1B78     		ldrb	r3, [r3]
 256 0030 DAB2     		uxtb	r2, r3
 257 0032 284B     		ldr	r3, .L12+16
 258 0034 1A71     		strb	r2, [r3, #4]
 252:.\Generated_Source\PSoC5/I2C_3.c ****             I2C_3_backup.clkDiv2  = I2C_3_CLKDIV2_REG;
 259              		.loc 1 252 0
 260 0036 294B     		ldr	r3, .L12+24
 261 0038 1B78     		ldrb	r3, [r3]
ARM GAS  C:\Users\dskyNote\AppData\Local\Temp\ccZHyI5i.s 			page 10


 262 003a DAB2     		uxtb	r2, r3
 263 003c 254B     		ldr	r3, .L12+16
 264 003e 5A71     		strb	r2, [r3, #5]
 253:.\Generated_Source\PSoC5/I2C_3.c **** 
 254:.\Generated_Source\PSoC5/I2C_3.c **** 
 255:.\Generated_Source\PSoC5/I2C_3.c ****             /* Reset FF block */
 256:.\Generated_Source\PSoC5/I2C_3.c ****             I2C_3_CFG_REG &= ((uint8) ~I2C_3_ENABLE_MS);
 265              		.loc 1 256 0
 266 0040 214B     		ldr	r3, .L12+4
 267 0042 214A     		ldr	r2, .L12+4
 268 0044 1278     		ldrb	r2, [r2]
 269 0046 D2B2     		uxtb	r2, r2
 270 0048 22F00302 		bic	r2, r2, #3
 271 004c D2B2     		uxtb	r2, r2
 272 004e 1A70     		strb	r2, [r3]
 257:.\Generated_Source\PSoC5/I2C_3.c ****             CyDelayUs(I2C_3_FF_RESET_DELAY);
 273              		.loc 1 257 0
 274 0050 0220     		movs	r0, #2
 275 0052 FFF7FEFF 		bl	CyDelayUs
 258:.\Generated_Source\PSoC5/I2C_3.c ****             I2C_3_CFG_REG |= ((uint8)  I2C_3_ENABLE_MS);
 276              		.loc 1 258 0
 277 0056 1C4B     		ldr	r3, .L12+4
 278 0058 1B4A     		ldr	r2, .L12+4
 279 005a 1278     		ldrb	r2, [r2]
 280 005c D2B2     		uxtb	r2, r2
 281 005e 42F00302 		orr	r2, r2, #3
 282 0062 D2B2     		uxtb	r2, r2
 283 0064 1A70     		strb	r2, [r3]
 259:.\Generated_Source\PSoC5/I2C_3.c **** 
 260:.\Generated_Source\PSoC5/I2C_3.c **** 
 261:.\Generated_Source\PSoC5/I2C_3.c ****             /* Restore registers */
 262:.\Generated_Source\PSoC5/I2C_3.c ****             #if(I2C_3_MODE_SLAVE_ENABLED)
 263:.\Generated_Source\PSoC5/I2C_3.c ****                 I2C_3_ADDR_REG = I2C_3_backup.addr;
 284              		.loc 1 263 0
 285 0066 1A4B     		ldr	r3, .L12+12
 286 0068 1A4A     		ldr	r2, .L12+16
 287 006a D278     		ldrb	r2, [r2, #3]	@ zero_extendqisi2
 288 006c 1A70     		strb	r2, [r3]
 264:.\Generated_Source\PSoC5/I2C_3.c ****             #endif /* (I2C_3_MODE_SLAVE_ENABLED) */
 265:.\Generated_Source\PSoC5/I2C_3.c **** 
 266:.\Generated_Source\PSoC5/I2C_3.c ****             I2C_3_CLKDIV1_REG = I2C_3_backup.clkDiv1;
 289              		.loc 1 266 0
 290 006e 1A4B     		ldr	r3, .L12+20
 291 0070 184A     		ldr	r2, .L12+16
 292 0072 1279     		ldrb	r2, [r2, #4]	@ zero_extendqisi2
 293 0074 1A70     		strb	r2, [r3]
 267:.\Generated_Source\PSoC5/I2C_3.c ****             I2C_3_CLKDIV2_REG = I2C_3_backup.clkDiv2;
 294              		.loc 1 267 0
 295 0076 194B     		ldr	r3, .L12+24
 296 0078 164A     		ldr	r2, .L12+16
 297 007a 5279     		ldrb	r2, [r2, #5]	@ zero_extendqisi2
 298 007c 1A70     		strb	r2, [r3]
 268:.\Generated_Source\PSoC5/I2C_3.c **** 
 269:.\Generated_Source\PSoC5/I2C_3.c ****         #endif /* (CY_PSOC3 || CY_PSOC5LP) */
 270:.\Generated_Source\PSoC5/I2C_3.c **** 
 271:.\Generated_Source\PSoC5/I2C_3.c ****         /* Disable power to I2C block */
 272:.\Generated_Source\PSoC5/I2C_3.c ****         enableInterrupts = CyEnterCriticalSection();
ARM GAS  C:\Users\dskyNote\AppData\Local\Temp\ccZHyI5i.s 			page 11


 299              		.loc 1 272 0
 300 007e FFF7FEFF 		bl	CyEnterCriticalSection
 301 0082 0346     		mov	r3, r0
 302 0084 FB71     		strb	r3, [r7, #7]
 273:.\Generated_Source\PSoC5/I2C_3.c ****         I2C_3_ACT_PWRMGR_REG  &= ((uint8) ~I2C_3_ACT_PWR_EN);
 303              		.loc 1 273 0
 304 0086 164B     		ldr	r3, .L12+28
 305 0088 154A     		ldr	r2, .L12+28
 306 008a 1278     		ldrb	r2, [r2]
 307 008c D2B2     		uxtb	r2, r2
 308 008e 22F00402 		bic	r2, r2, #4
 309 0092 D2B2     		uxtb	r2, r2
 310 0094 1A70     		strb	r2, [r3]
 274:.\Generated_Source\PSoC5/I2C_3.c ****         I2C_3_STBY_PWRMGR_REG &= ((uint8) ~I2C_3_STBY_PWR_EN);
 311              		.loc 1 274 0
 312 0096 134B     		ldr	r3, .L12+32
 313 0098 124A     		ldr	r2, .L12+32
 314 009a 1278     		ldrb	r2, [r2]
 315 009c D2B2     		uxtb	r2, r2
 316 009e 22F00402 		bic	r2, r2, #4
 317 00a2 D2B2     		uxtb	r2, r2
 318 00a4 1A70     		strb	r2, [r3]
 275:.\Generated_Source\PSoC5/I2C_3.c ****         CyExitCriticalSection(enableInterrupts);
 319              		.loc 1 275 0
 320 00a6 FB79     		ldrb	r3, [r7, #7]	@ zero_extendqisi2
 321 00a8 1846     		mov	r0, r3
 322 00aa FFF7FEFF 		bl	CyExitCriticalSection
 276:.\Generated_Source\PSoC5/I2C_3.c **** 
 277:.\Generated_Source\PSoC5/I2C_3.c ****     #else
 278:.\Generated_Source\PSoC5/I2C_3.c **** 
 279:.\Generated_Source\PSoC5/I2C_3.c ****         #if(I2C_3_MODE_SLAVE_ENABLED)
 280:.\Generated_Source\PSoC5/I2C_3.c ****             /* Disable slave bit counter */
 281:.\Generated_Source\PSoC5/I2C_3.c ****             enableInterrupts = CyEnterCriticalSection();
 282:.\Generated_Source\PSoC5/I2C_3.c ****             I2C_3_COUNTER_AUX_CTL_REG &= ((uint8) ~I2C_3_CNT7_ENABLE);
 283:.\Generated_Source\PSoC5/I2C_3.c ****             CyExitCriticalSection(enableInterrupts);
 284:.\Generated_Source\PSoC5/I2C_3.c ****         #endif /* (I2C_3_MODE_SLAVE_ENABLED) */
 285:.\Generated_Source\PSoC5/I2C_3.c **** 
 286:.\Generated_Source\PSoC5/I2C_3.c ****         I2C_3_CFG_REG &= ((uint8) ~I2C_3_ENABLE_MS);
 287:.\Generated_Source\PSoC5/I2C_3.c **** 
 288:.\Generated_Source\PSoC5/I2C_3.c ****     #endif /* (I2C_3_FF_IMPLEMENTED) */
 289:.\Generated_Source\PSoC5/I2C_3.c **** 
 290:.\Generated_Source\PSoC5/I2C_3.c ****     I2C_3_ClearPendingInt();  /* Clear interrupt triggers on reset */
 323              		.loc 1 290 0
 324 00ae 0E4B     		ldr	r3, .L12+36
 325 00b0 4FF40042 		mov	r2, #32768
 326 00b4 1A60     		str	r2, [r3]
 291:.\Generated_Source\PSoC5/I2C_3.c **** 
 292:.\Generated_Source\PSoC5/I2C_3.c ****     I2C_3_state = I2C_3_SM_IDLE;  /* Reset software FSM */
 327              		.loc 1 292 0
 328 00b6 0D4B     		ldr	r3, .L12+40
 329 00b8 1022     		movs	r2, #16
 330 00ba 1A70     		strb	r2, [r3]
 293:.\Generated_Source\PSoC5/I2C_3.c **** }
 331              		.loc 1 293 0
 332 00bc 0837     		adds	r7, r7, #8
 333 00be BD46     		mov	sp, r7
 334              		@ sp needed
ARM GAS  C:\Users\dskyNote\AppData\Local\Temp\ccZHyI5i.s 			page 12


 335 00c0 80BD     		pop	{r7, pc}
 336              	.L13:
 337 00c2 00BF     		.align	2
 338              	.L12:
 339 00c4 80E100E0 		.word	-536813184
 340 00c8 D6490040 		.word	1073760726
 341 00cc D7490040 		.word	1073760727
 342 00d0 CA490040 		.word	1073760714
 343 00d4 00000000 		.word	I2C_3_backup
 344 00d8 DB490040 		.word	1073760731
 345 00dc DC490040 		.word	1073760732
 346 00e0 A5430040 		.word	1073759141
 347 00e4 B5430040 		.word	1073759157
 348 00e8 80E200E0 		.word	-536812928
 349 00ec 00000000 		.word	I2C_3_state
 350              		.cfi_endproc
 351              	.LFE3:
 352              		.size	I2C_3_Stop, .-I2C_3_Stop
 353              		.text
 354              	.Letext0:
 355              		.file 2 ".\\Generated_Source\\PSoC5\\cytypes.h"
 356              		.file 3 ".\\Generated_Source\\PSoC5\\I2C_3.h"
 357              		.file 4 ".\\Generated_Source\\PSoC5\\I2C_3_PVT.h"