ARM GAS  C:\Users\dskyNote\AppData\Local\Temp\ccT2SVus.s 			page 1


   1              		.syntax unified
   2              		.cpu cortex-m3
   3              		.fpu softvfp
   4              		.eabi_attribute 20, 1
   5              		.eabi_attribute 21, 1
   6              		.eabi_attribute 23, 3
   7              		.eabi_attribute 24, 1
   8              		.eabi_attribute 25, 1
   9              		.eabi_attribute 26, 1
  10              		.eabi_attribute 30, 6
  11              		.eabi_attribute 34, 1
  12              		.eabi_attribute 18, 4
  13              		.thumb
  14              		.file	"main.c"
  15              		.text
  16              	.Ltext0:
  17              		.cfi_sections	.debug_frame
  18              		.global	Sforward
  19              		.data
  20              		.type	Sforward, %object
  21              		.size	Sforward, 1
  22              	Sforward:
  23 0000 D8       		.byte	-40
  24              		.global	Sback
  25              		.type	Sback, %object
  26              		.size	Sback, 1
  27              	Sback:
  28 0001 28       		.byte	40
  29              		.global	Sleft
  30              		.type	Sleft, %object
  31              		.size	Sleft, 1
  32              	Sleft:
  33 0002 D8       		.byte	-40
  34              		.global	Sright
  35              		.type	Sright, %object
  36              		.size	Sright, 1
  37              	Sright:
  38 0003 28       		.byte	40
  39              		.comm	DirectionFR,1,1
  40              		.comm	DirectionRL,1,1
  41              		.comm	DirectionNextFR,1,1
  42              		.global	Speed
  43              		.type	Speed, %object
  44              		.size	Speed, 1
  45              	Speed:
  46 0004 14       		.byte	20
  47              		.comm	ZigBeeModeStage,1,1
  48              		.comm	AutoModeStage,1,1
  49              		.comm	oldRFID,1,1
  50              		.comm	dx,4,4
  51              		.comm	dy,4,4
  52              		.comm	dangle,4,4
  53              		.comm	dvx,2,2
  54              		.comm	dvy,2,2
  55              		.comm	dvangle,2,2
  56              		.global	x1
  57              		.type	x1, %object
ARM GAS  C:\Users\dskyNote\AppData\Local\Temp\ccT2SVus.s 			page 2


  58              		.size	x1, 1
  59              	x1:
  60 0005 40       		.byte	64
  61              		.comm	goalFR,2,2
  62              		.global	maxSpeed
  63              		.type	maxSpeed, %object
  64              		.size	maxSpeed, 1
  65              	maxSpeed:
  66 0006 64       		.byte	100
  67              		.global	delaytime
  68 0007 00       		.align	1
  69              		.type	delaytime, %object
  70              		.size	delaytime, 2
  71              	delaytime:
  72 0008 F401     		.short	500
  73              		.comm	nFR,4,4
  74              		.comm	nRL,4,4
  75              		.comm	nRotate,4,4
  76              		.global	OffSetRotate
  77              		.type	OffSetRotate, %object
  78              		.size	OffSetRotate, 1
  79              	OffSetRotate:
  80 000a 05       		.byte	5
  81              		.global	OffSetRL
  82              		.type	OffSetRL, %object
  83              		.size	OffSetRL, 1
  84              	OffSetRL:
  85 000b FF       		.byte	-1
  86              		.comm	EnabelPS3,1,1
  87              		.comm	i1,1,1
  88              		.comm	i2,1,1
  89              		.comm	i3,1,1
  90              		.comm	i4,1,1
  91              		.comm	i5,1,1
  92              		.comm	LineSensor,4,4
  93              		.comm	SendData,4,4
  94              		.comm	RFID,9,4
  95              		.comm	OLD_RFID,8,4
  96              		.comm	CheckSumRFID,1,1
  97              		.comm	flgException,1,1
  98              		.comm	flgPIPI,1,1
  99              		.comm	flgSlide,1,1
 100              		.comm	flgCompA,1,1
 101              		.comm	flgZigBeeReceived,1,1
 102              		.comm	flgCaught,1,1
 103              		.global	flgZigBeeMode
 104              		.bss
 105              		.type	flgZigBeeMode, %object
 106              		.size	flgZigBeeMode, 1
 107              	flgZigBeeMode:
 108 0000 00       		.space	1
 109              		.comm	flgErr,1,1
 110              		.comm	num,17,4
 111              		.comm	astic,4,4
 112              		.comm	sum1,1,1
 113              		.comm	mode,1,1
 114              		.comm	ButtonStatus1,1,1
ARM GAS  C:\Users\dskyNote\AppData\Local\Temp\ccT2SVus.s 			page 3


 115              		.comm	ButtonStatus2,1,1
 116              		.comm	CheckSum,1,1
 117              		.global	Kp
 118              		.data
 119              		.align	2
 120              		.type	Kp, %object
 121              		.size	Kp, 4
 122              	Kp:
 123 000c 0000803F 		.word	1065353216
 124              		.global	ki
 125              		.align	2
 126              		.type	ki, %object
 127              		.size	ki, 4
 128              	ki:
 129 0010 0000803F 		.word	1065353216
 130              		.global	kd
 131              		.align	2
 132              		.type	kd, %object
 133              		.size	kd, 4
 134              	kd:
 135 0014 0000803F 		.word	1065353216
 136              		.comm	ZigBeeMsg,1,1
 137              		.comm	flgNewRFID,1,1
 138              		.section	.text.LED,"ax",%progbits
 139              		.align	2
 140              		.global	LED
 141              		.thumb
 142              		.thumb_func
 143              		.type	LED, %function
 144              	LED:
 145              	.LFB56:
 146              		.file 1 ".\\main.c"
   1:.\main.c      **** #include	"global01.h"
   2:.\main.c      **** #include    <project.h>
   3:.\main.c      **** #define     AddLineSensor       4
   4:.\main.c      **** #define     AddSub1             11
   5:.\main.c      **** #define     LineFront           0
   6:.\main.c      **** #define     LineRear            1
   7:.\main.c      **** #define     LineRight           2
   8:.\main.c      **** #define     LineLeft            3
   9:.\main.c      **** #define     flgState2           10
  10:.\main.c      **** 
  11:.\main.c      **** int8        Sforward=-40,Sback=40,Sleft=-40,Sright=40,DirectionFR,DirectionRL,DirectionNextFR;
  12:.\main.c      **** uint8       Speed=20,ZigBeeModeStage,AutoModeStage,oldRFID;//max0x40
  13:.\main.c      **** int16      dx[2],dy[2],dangle[2],dvx,dvy,dvangle;
  14:.\main.c      **** int8        x1=64;
  15:.\main.c      **** int16        goalFR;
  16:.\main.c      **** int8        maxSpeed=100;
  17:.\main.c      **** uint16      delaytime=500;
  18:.\main.c      **** float       nFR,nRL,nRotate;
  19:.\main.c      **** int8        OffSetRotate=5,OffSetRL=-1;//rotate+leftmawari,RL+hidariyori        -5
  20:.\main.c      **** int8        EnabelPS3;
  21:.\main.c      **** void        PI(void);
  22:.\main.c      **** void        B_LED_ON(void);
  23:.\main.c      **** void        R_LED_ON(void);
  24:.\main.c      **** void        B_LED_OFF(void);
  25:.\main.c      **** void        R_LED_OFF(void);
ARM GAS  C:\Users\dskyNote\AppData\Local\Temp\ccT2SVus.s 			page 4


  26:.\main.c      **** uint8       i1,i2,i3,i4,i5;
  27:.\main.c      **** uint8       LineSensor[4],SendData[4],RFID[9];
  28:.\main.c      **** uint8       oldRFID,OLD_RFID[8],CheckSumRFID;
  29:.\main.c      **** uint8       flgException,flgPIPI,flgSlide,flgCompA,flgZigBeeReceived,flgCaught,flgZigBeeMode=0,flgE
  30:.\main.c      **** 
  31:.\main.c      **** 
  32:.\main.c      **** uint8       num[17],astic[4];
  33:.\main.c      **** uint8       sum1,mode;
  34:.\main.c      **** uint8       ButtonStatus1,ButtonStatus2,CheckSum;
  35:.\main.c      **** float       Kp=1,ki=1,kd=1;
  36:.\main.c      **** uint8       ZigBeeMsg;
  37:.\main.c      **** uint8       CheckRFID(void);
  38:.\main.c      **** uint8       flgNewRFID;
  39:.\main.c      **** void PIII(void);
  40:.\main.c      **** void PI(void);
  41:.\main.c      **** void PIPI(void);
  42:.\main.c      **** void RightFrontMotor(int16 nRotate);
  43:.\main.c      **** void RightRearMotor(int16 nRotate);
  44:.\main.c      **** void LeftFrontMotor(int16 nRotate);
  45:.\main.c      **** void LeftRearMotor(int16 nRotate);
  46:.\main.c      **** void CalMotorSpeed(void);
  47:.\main.c      **** void Core(void);
  48:.\main.c      **** void CalcRLRotate(void);
  49:.\main.c      **** void AcceleratingFR(int16 maxSpeed,float pitch);
  50:.\main.c      **** void AcceleratingRL(int16 maxSpeed,float pitch);
  51:.\main.c      **** void CatchRFID(uint8 );
  52:.\main.c      **** void AssignmentRFID(void);
  53:.\main.c      **** /*
  54:.\main.c      **** 0:Front
  55:.\main.c      **** 1:Rear
  56:.\main.c      **** 2:Right
  57:.\main.c      **** 3:Left
  58:.\main.c      **** */
  59:.\main.c      **** void LED(uint8 RGB, uint8 time){
 147              		.loc 1 59 0
 148              		.cfi_startproc
 149              		@ args = 0, pretend = 0, frame = 8
 150              		@ frame_needed = 1, uses_anonymous_args = 0
 151 0000 80B5     		push	{r7, lr}
 152              		.cfi_def_cfa_offset 8
 153              		.cfi_offset 7, -8
 154              		.cfi_offset 14, -4
 155 0002 82B0     		sub	sp, sp, #8
 156              		.cfi_def_cfa_offset 16
 157 0004 00AF     		add	r7, sp, #0
 158              		.cfi_def_cfa_register 7
 159 0006 0246     		mov	r2, r0
 160 0008 0B46     		mov	r3, r1
 161 000a FA71     		strb	r2, [r7, #7]
 162 000c BB71     		strb	r3, [r7, #6]
  60:.\main.c      ****     switch(RGB){
 163              		.loc 1 60 0
 164 000e FB79     		ldrb	r3, [r7, #7]	@ zero_extendqisi2
 165 0010 012B     		cmp	r3, #1
 166 0012 02D0     		beq	.L3
 167 0014 032B     		cmp	r3, #3
 168 0016 03D0     		beq	.L4
ARM GAS  C:\Users\dskyNote\AppData\Local\Temp\ccT2SVus.s 			page 5


 169 0018 05E0     		b	.L2
 170              	.L3:
  61:.\main.c      ****         case 1:
  62:.\main.c      ****             R_LED_ON();
 171              		.loc 1 62 0
 172 001a FFF7FEFF 		bl	R_LED_ON
  63:.\main.c      ****         break;
 173              		.loc 1 63 0
 174 001e 02E0     		b	.L2
 175              	.L4:
  64:.\main.c      ****             
  65:.\main.c      ****         case 3:
  66:.\main.c      ****             B_LED_ON();
 176              		.loc 1 66 0
 177 0020 FFF7FEFF 		bl	B_LED_ON
  67:.\main.c      ****         break;
 178              		.loc 1 67 0
 179 0024 00BF     		nop
 180              	.L2:
  68:.\main.c      ****     }
  69:.\main.c      ****     CyDelay(time);
 181              		.loc 1 69 0
 182 0026 BB79     		ldrb	r3, [r7, #6]	@ zero_extendqisi2
 183 0028 1846     		mov	r0, r3
 184 002a FFF7FEFF 		bl	CyDelay
  70:.\main.c      ****     switch(RGB){
 185              		.loc 1 70 0
 186 002e FB79     		ldrb	r3, [r7, #7]	@ zero_extendqisi2
 187 0030 012B     		cmp	r3, #1
 188 0032 02D0     		beq	.L6
 189 0034 032B     		cmp	r3, #3
 190 0036 03D0     		beq	.L7
 191 0038 05E0     		b	.L1
 192              	.L6:
  71:.\main.c      ****         case 1:
  72:.\main.c      ****             R_LED_OFF();
 193              		.loc 1 72 0
 194 003a FFF7FEFF 		bl	R_LED_OFF
  73:.\main.c      ****         break;
 195              		.loc 1 73 0
 196 003e 02E0     		b	.L1
 197              	.L7:
  74:.\main.c      ****             
  75:.\main.c      ****         case 3:
  76:.\main.c      ****             B_LED_OFF();
 198              		.loc 1 76 0
 199 0040 FFF7FEFF 		bl	B_LED_OFF
  77:.\main.c      ****         break;
 200              		.loc 1 77 0
 201 0044 00BF     		nop
 202              	.L1:
  78:.\main.c      ****     }
  79:.\main.c      **** }
 203              		.loc 1 79 0
 204 0046 0837     		adds	r7, r7, #8
 205 0048 BD46     		mov	sp, r7
 206              		@ sp needed
ARM GAS  C:\Users\dskyNote\AppData\Local\Temp\ccT2SVus.s 			page 6


 207 004a 80BD     		pop	{r7, pc}
 208              		.cfi_endproc
 209              	.LFE56:
 210              		.size	LED, .-LED
 211              		.section	.text.mytimer1,"ax",%progbits
 212              		.align	2
 213              		.global	mytimer1
 214              		.thumb
 215              		.thumb_func
 216              		.type	mytimer1, %function
 217              	mytimer1:
 218              	.LFB57:
  80:.\main.c      **** CY_ISR(mytimer1){
 219              		.loc 1 80 0
 220              		.cfi_startproc
 221              		@ args = 0, pretend = 0, frame = 0
 222              		@ frame_needed = 1, uses_anonymous_args = 0
 223 0000 98B5     		push	{r3, r4, r7, lr}
 224              		.cfi_def_cfa_offset 16
 225              		.cfi_offset 3, -16
 226              		.cfi_offset 4, -12
 227              		.cfi_offset 7, -8
 228              		.cfi_offset 14, -4
 229 0002 00AF     		add	r7, sp, #0
 230              		.cfi_def_cfa_register 7
  81:.\main.c      ****         if(I2C_2_MasterSendStart(AddLineSensor,1)==I2C_2_MSTR_NO_ERROR ){R_LED_OFF();flgErr=0;}else
 231              		.loc 1 81 0
 232 0004 0420     		movs	r0, #4
 233 0006 0121     		movs	r1, #1
 234 0008 FFF7FEFF 		bl	I2C_2_MasterSendStart
 235 000c 0346     		mov	r3, r0
 236 000e 002B     		cmp	r3, #0
 237 0010 05D1     		bne	.L9
 238              		.loc 1 81 0 is_stmt 0 discriminator 1
 239 0012 FFF7FEFF 		bl	R_LED_OFF
 240 0016 454B     		ldr	r3, .L16
 241 0018 0022     		movs	r2, #0
 242 001a 1A70     		strb	r2, [r3]
 243 001c 04E0     		b	.L10
 244              	.L9:
 245              		.loc 1 81 0 discriminator 2
 246 001e FFF7FEFF 		bl	R_LED_ON
 247 0022 424B     		ldr	r3, .L16
 248 0024 0122     		movs	r2, #1
 249 0026 1A70     		strb	r2, [r3]
 250              	.L10:
  82:.\main.c      ****         LineSensor[LineFront]=I2C_2_MasterReadByte(1);
 251              		.loc 1 82 0 is_stmt 1
 252 0028 0120     		movs	r0, #1
 253 002a FFF7FEFF 		bl	I2C_2_MasterReadByte
 254 002e 0346     		mov	r3, r0
 255 0030 1A46     		mov	r2, r3
 256 0032 3F4B     		ldr	r3, .L16+4
 257 0034 1A70     		strb	r2, [r3]
  83:.\main.c      ****         LineSensor[LineRear]=I2C_2_MasterReadByte(1);
 258              		.loc 1 83 0
 259 0036 0120     		movs	r0, #1
ARM GAS  C:\Users\dskyNote\AppData\Local\Temp\ccT2SVus.s 			page 7


 260 0038 FFF7FEFF 		bl	I2C_2_MasterReadByte
 261 003c 0346     		mov	r3, r0
 262 003e 1A46     		mov	r2, r3
 263 0040 3B4B     		ldr	r3, .L16+4
 264 0042 5A70     		strb	r2, [r3, #1]
  84:.\main.c      ****         LineSensor[LineRight]=I2C_2_MasterReadByte(1);
 265              		.loc 1 84 0
 266 0044 0120     		movs	r0, #1
 267 0046 FFF7FEFF 		bl	I2C_2_MasterReadByte
 268 004a 0346     		mov	r3, r0
 269 004c 1A46     		mov	r2, r3
 270 004e 384B     		ldr	r3, .L16+4
 271 0050 9A70     		strb	r2, [r3, #2]
  85:.\main.c      ****         LineSensor[LineLeft]=I2C_2_MasterReadByte(0);
 272              		.loc 1 85 0
 273 0052 0020     		movs	r0, #0
 274 0054 FFF7FEFF 		bl	I2C_2_MasterReadByte
 275 0058 0346     		mov	r3, r0
 276 005a 1A46     		mov	r2, r3
 277 005c 344B     		ldr	r3, .L16+4
 278 005e DA70     		strb	r2, [r3, #3]
  86:.\main.c      ****         I2C_2_MasterSendStop();        
 279              		.loc 1 86 0
 280 0060 FFF7FEFF 		bl	I2C_2_MasterSendStop
  87:.\main.c      ****         if(flgErr==1){
 281              		.loc 1 87 0
 282 0064 314B     		ldr	r3, .L16
 283 0066 1B78     		ldrb	r3, [r3]	@ zero_extendqisi2
 284 0068 012B     		cmp	r3, #1
 285 006a 0BD1     		bne	.L11
  88:.\main.c      ****         LineSensor[LineFront]=21;
 286              		.loc 1 88 0
 287 006c 304B     		ldr	r3, .L16+4
 288 006e 1522     		movs	r2, #21
 289 0070 1A70     		strb	r2, [r3]
  89:.\main.c      ****         LineSensor[LineRear]=21;
 290              		.loc 1 89 0
 291 0072 2F4B     		ldr	r3, .L16+4
 292 0074 1522     		movs	r2, #21
 293 0076 5A70     		strb	r2, [r3, #1]
  90:.\main.c      ****         LineSensor[LineRight]=21;
 294              		.loc 1 90 0
 295 0078 2D4B     		ldr	r3, .L16+4
 296 007a 1522     		movs	r2, #21
 297 007c 9A70     		strb	r2, [r3, #2]
  91:.\main.c      ****         LineSensor[LineLeft]=21;
 298              		.loc 1 91 0
 299 007e 2C4B     		ldr	r3, .L16+4
 300 0080 1522     		movs	r2, #21
 301 0082 DA70     		strb	r2, [r3, #3]
 302              	.L11:
  92:.\main.c      ****         }
  93:.\main.c      ****         
  94:.\main.c      ****         /*RFID*/
  95:.\main.c      ****         I2C_2_MasterSendStart(AddSub1,1);
 303              		.loc 1 95 0
 304 0084 0B20     		movs	r0, #11
ARM GAS  C:\Users\dskyNote\AppData\Local\Temp\ccT2SVus.s 			page 8


 305 0086 0121     		movs	r1, #1
 306 0088 FFF7FEFF 		bl	I2C_2_MasterSendStart
  96:.\main.c      ****         for(i5=0;i5<8;i5++){RFID[i5]=I2C_2_MasterReadByte(1);}       
 307              		.loc 1 96 0
 308 008c 294B     		ldr	r3, .L16+8
 309 008e 0022     		movs	r2, #0
 310 0090 1A70     		strb	r2, [r3]
 311 0092 0FE0     		b	.L12
 312              	.L13:
 313              		.loc 1 96 0 is_stmt 0 discriminator 2
 314 0094 274B     		ldr	r3, .L16+8
 315 0096 1B78     		ldrb	r3, [r3]	@ zero_extendqisi2
 316 0098 1C46     		mov	r4, r3
 317 009a 0120     		movs	r0, #1
 318 009c FFF7FEFF 		bl	I2C_2_MasterReadByte
 319 00a0 0346     		mov	r3, r0
 320 00a2 1A46     		mov	r2, r3
 321 00a4 244B     		ldr	r3, .L16+12
 322 00a6 1A55     		strb	r2, [r3, r4]
 323 00a8 224B     		ldr	r3, .L16+8
 324 00aa 1B78     		ldrb	r3, [r3]	@ zero_extendqisi2
 325 00ac 0133     		adds	r3, r3, #1
 326 00ae DAB2     		uxtb	r2, r3
 327 00b0 204B     		ldr	r3, .L16+8
 328 00b2 1A70     		strb	r2, [r3]
 329              	.L12:
 330              		.loc 1 96 0 discriminator 1
 331 00b4 1F4B     		ldr	r3, .L16+8
 332 00b6 1B78     		ldrb	r3, [r3]	@ zero_extendqisi2
 333 00b8 072B     		cmp	r3, #7
 334 00ba EBD9     		bls	.L13
  97:.\main.c      ****         RFID[8]=I2C_2_MasterReadByte(0);
 335              		.loc 1 97 0 is_stmt 1
 336 00bc 0020     		movs	r0, #0
 337 00be FFF7FEFF 		bl	I2C_2_MasterReadByte
 338 00c2 0346     		mov	r3, r0
 339 00c4 1A46     		mov	r2, r3
 340 00c6 1C4B     		ldr	r3, .L16+12
 341 00c8 1A72     		strb	r2, [r3, #8]
  98:.\main.c      ****         I2C_2_MasterSendStop();
 342              		.loc 1 98 0
 343 00ca FFF7FEFF 		bl	I2C_2_MasterSendStop
  99:.\main.c      ****         
 100:.\main.c      ****         /*for processing*/
 101:.\main.c      ****         SendData[0]=RFID[0];
 344              		.loc 1 101 0
 345 00ce 1A4B     		ldr	r3, .L16+12
 346 00d0 1A78     		ldrb	r2, [r3]	@ zero_extendqisi2
 347 00d2 1A4B     		ldr	r3, .L16+16
 348 00d4 1A70     		strb	r2, [r3]
 102:.\main.c      ****         SendData[1]=RFID[1];
 349              		.loc 1 102 0
 350 00d6 184B     		ldr	r3, .L16+12
 351 00d8 5A78     		ldrb	r2, [r3, #1]	@ zero_extendqisi2
 352 00da 184B     		ldr	r3, .L16+16
 353 00dc 5A70     		strb	r2, [r3, #1]
 103:.\main.c      ****         SendData[2]=RFID[2];
ARM GAS  C:\Users\dskyNote\AppData\Local\Temp\ccT2SVus.s 			page 9


 354              		.loc 1 103 0
 355 00de 164B     		ldr	r3, .L16+12
 356 00e0 9A78     		ldrb	r2, [r3, #2]	@ zero_extendqisi2
 357 00e2 164B     		ldr	r3, .L16+16
 358 00e4 9A70     		strb	r2, [r3, #2]
 104:.\main.c      ****         SendData[3]=RFID[2];
 359              		.loc 1 104 0
 360 00e6 144B     		ldr	r3, .L16+12
 361 00e8 9A78     		ldrb	r2, [r3, #2]	@ zero_extendqisi2
 362 00ea 144B     		ldr	r3, .L16+16
 363 00ec DA70     		strb	r2, [r3, #3]
 105:.\main.c      **** 
 106:.\main.c      ****         I2C_2_MasterSendStart(AddLineSensor,0);
 364              		.loc 1 106 0
 365 00ee 0420     		movs	r0, #4
 366 00f0 0021     		movs	r1, #0
 367 00f2 FFF7FEFF 		bl	I2C_2_MasterSendStart
 107:.\main.c      ****         for(i3=0;i3<4;i3++){
 368              		.loc 1 107 0
 369 00f6 124B     		ldr	r3, .L16+20
 370 00f8 0022     		movs	r2, #0
 371 00fa 1A70     		strb	r2, [r3]
 372 00fc 0CE0     		b	.L14
 373              	.L15:
 108:.\main.c      ****             I2C_2_MasterWriteByte(SendData[i3]);
 374              		.loc 1 108 0 discriminator 2
 375 00fe 104B     		ldr	r3, .L16+20
 376 0100 1B78     		ldrb	r3, [r3]	@ zero_extendqisi2
 377 0102 0E4A     		ldr	r2, .L16+16
 378 0104 D35C     		ldrb	r3, [r2, r3]	@ zero_extendqisi2
 379 0106 1846     		mov	r0, r3
 380 0108 FFF7FEFF 		bl	I2C_2_MasterWriteByte
 107:.\main.c      ****         for(i3=0;i3<4;i3++){
 381              		.loc 1 107 0 discriminator 2
 382 010c 0C4B     		ldr	r3, .L16+20
 383 010e 1B78     		ldrb	r3, [r3]	@ zero_extendqisi2
 384 0110 0133     		adds	r3, r3, #1
 385 0112 DAB2     		uxtb	r2, r3
 386 0114 0A4B     		ldr	r3, .L16+20
 387 0116 1A70     		strb	r2, [r3]
 388              	.L14:
 107:.\main.c      ****         for(i3=0;i3<4;i3++){
 389              		.loc 1 107 0 is_stmt 0 discriminator 1
 390 0118 094B     		ldr	r3, .L16+20
 391 011a 1B78     		ldrb	r3, [r3]	@ zero_extendqisi2
 392 011c 032B     		cmp	r3, #3
 393 011e EED9     		bls	.L15
 109:.\main.c      ****         }
 110:.\main.c      ****         I2C_2_MasterSendStop();
 394              		.loc 1 110 0 is_stmt 1
 395 0120 FFF7FEFF 		bl	I2C_2_MasterSendStop
 111:.\main.c      ****         
 112:.\main.c      ****         Core();
 396              		.loc 1 112 0
 397 0124 FFF7FEFF 		bl	Core
 113:.\main.c      **** }
 398              		.loc 1 113 0
ARM GAS  C:\Users\dskyNote\AppData\Local\Temp\ccT2SVus.s 			page 10


 399 0128 98BD     		pop	{r3, r4, r7, pc}
 400              	.L17:
 401 012a 00BF     		.align	2
 402              	.L16:
 403 012c 00000000 		.word	flgErr
 404 0130 00000000 		.word	LineSensor
 405 0134 00000000 		.word	i5
 406 0138 00000000 		.word	RFID
 407 013c 00000000 		.word	SendData
 408 0140 00000000 		.word	i3
 409              		.cfi_endproc
 410              	.LFE57:
 411              		.size	mytimer1, .-mytimer1
 412              		.section	.text.myHandler2,"ax",%progbits
 413              		.align	2
 414              		.global	myHandler2
 415              		.thumb
 416              		.thumb_func
 417              		.type	myHandler2, %function
 418              	myHandler2:
 419              	.LFB58:
 114:.\main.c      **** CY_ISR(myHandler2){
 420              		.loc 1 114 0
 421              		.cfi_startproc
 422              		@ args = 0, pretend = 0, frame = 0
 423              		@ frame_needed = 1, uses_anonymous_args = 0
 424 0000 80B5     		push	{r7, lr}
 425              		.cfi_def_cfa_offset 8
 426              		.cfi_offset 7, -8
 427              		.cfi_offset 14, -4
 428 0002 00AF     		add	r7, sp, #0
 429              		.cfi_def_cfa_register 7
 115:.\main.c      ****     flgZigBeeReceived=1;
 430              		.loc 1 115 0
 431 0004 044B     		ldr	r3, .L19
 432 0006 0122     		movs	r2, #1
 433 0008 1A70     		strb	r2, [r3]
 116:.\main.c      ****     ZigBeeMsg = UART_2_ReadRxData();
 434              		.loc 1 116 0
 435 000a FFF7FEFF 		bl	UART_2_ReadRxData
 436 000e 0346     		mov	r3, r0
 437 0010 1A46     		mov	r2, r3
 438 0012 024B     		ldr	r3, .L19+4
 439 0014 1A70     		strb	r2, [r3]
 117:.\main.c      **** }
 440              		.loc 1 117 0
 441 0016 80BD     		pop	{r7, pc}
 442              	.L20:
 443              		.align	2
 444              	.L19:
 445 0018 00000000 		.word	flgZigBeeReceived
 446 001c 00000000 		.word	ZigBeeMsg
 447              		.cfi_endproc
 448              	.LFE58:
 449              		.size	myHandler2, .-myHandler2
 450              		.section	.text.myHandler,"ax",%progbits
 451              		.align	2
ARM GAS  C:\Users\dskyNote\AppData\Local\Temp\ccT2SVus.s 			page 11


 452              		.global	myHandler
 453              		.thumb
 454              		.thumb_func
 455              		.type	myHandler, %function
 456              	myHandler:
 457              	.LFB59:
 118:.\main.c      **** 
 119:.\main.c      **** CY_ISR(myHandler){
 458              		.loc 1 119 0
 459              		.cfi_startproc
 460              		@ args = 0, pretend = 0, frame = 0
 461              		@ frame_needed = 1, uses_anonymous_args = 0
 462 0000 80B5     		push	{r7, lr}
 463              		.cfi_def_cfa_offset 8
 464              		.cfi_offset 7, -8
 465              		.cfi_offset 14, -4
 466 0002 00AF     		add	r7, sp, #0
 467              		.cfi_def_cfa_register 7
 120:.\main.c      ****     timer1_Disable();
 468              		.loc 1 120 0
 469 0004 FFF7FEFF 		bl	timer1_Disable
 121:.\main.c      ****     uint8 status;
 122:.\main.c      ****     
 123:.\main.c      ****     isr_1_ClearPending();
 470              		.loc 1 123 0
 471 0008 FFF7FEFF 		bl	isr_1_ClearPending
 124:.\main.c      ****     num[8] = num[7];
 472              		.loc 1 124 0
 473 000c 3A4B     		ldr	r3, .L25
 474 000e DA79     		ldrb	r2, [r3, #7]	@ zero_extendqisi2
 475 0010 394B     		ldr	r3, .L25
 476 0012 1A72     		strb	r2, [r3, #8]
 125:.\main.c      ****     num[7] = num[6];
 477              		.loc 1 125 0
 478 0014 384B     		ldr	r3, .L25
 479 0016 9A79     		ldrb	r2, [r3, #6]	@ zero_extendqisi2
 480 0018 374B     		ldr	r3, .L25
 481 001a DA71     		strb	r2, [r3, #7]
 126:.\main.c      ****     num[6] = num[5];
 482              		.loc 1 126 0
 483 001c 364B     		ldr	r3, .L25
 484 001e 5A79     		ldrb	r2, [r3, #5]	@ zero_extendqisi2
 485 0020 354B     		ldr	r3, .L25
 486 0022 9A71     		strb	r2, [r3, #6]
 127:.\main.c      ****     num[5] = num[4];
 487              		.loc 1 127 0
 488 0024 344B     		ldr	r3, .L25
 489 0026 1A79     		ldrb	r2, [r3, #4]	@ zero_extendqisi2
 490 0028 334B     		ldr	r3, .L25
 491 002a 5A71     		strb	r2, [r3, #5]
 128:.\main.c      ****     num[4] = num[3];
 492              		.loc 1 128 0
 493 002c 324B     		ldr	r3, .L25
 494 002e DA78     		ldrb	r2, [r3, #3]	@ zero_extendqisi2
 495 0030 314B     		ldr	r3, .L25
 496 0032 1A71     		strb	r2, [r3, #4]
 129:.\main.c      ****     num[3] = num[2];
ARM GAS  C:\Users\dskyNote\AppData\Local\Temp\ccT2SVus.s 			page 12


 497              		.loc 1 129 0
 498 0034 304B     		ldr	r3, .L25
 499 0036 9A78     		ldrb	r2, [r3, #2]	@ zero_extendqisi2
 500 0038 2F4B     		ldr	r3, .L25
 501 003a DA70     		strb	r2, [r3, #3]
 130:.\main.c      ****     num[2] = num[1];
 502              		.loc 1 130 0
 503 003c 2E4B     		ldr	r3, .L25
 504 003e 5A78     		ldrb	r2, [r3, #1]	@ zero_extendqisi2
 505 0040 2D4B     		ldr	r3, .L25
 506 0042 9A70     		strb	r2, [r3, #2]
 131:.\main.c      ****     num[1] = UART_1_ReadRxData();
 507              		.loc 1 131 0
 508 0044 FFF7FEFF 		bl	UART_1_ReadRxData
 509 0048 0346     		mov	r3, r0
 510 004a 1A46     		mov	r2, r3
 511 004c 2A4B     		ldr	r3, .L25
 512 004e 5A70     		strb	r2, [r3, #1]
 132:.\main.c      ****     if(num[8]==0x80){
 513              		.loc 1 132 0
 514 0050 294B     		ldr	r3, .L25
 515 0052 1B7A     		ldrb	r3, [r3, #8]	@ zero_extendqisi2
 516 0054 802B     		cmp	r3, #128
 517 0056 4CD1     		bne	.L22
 133:.\main.c      ****         sum1 = num[2]+num[3]+num[4]+num[5]+num[6]+num[7];
 518              		.loc 1 133 0
 519 0058 274B     		ldr	r3, .L25
 520 005a 9A78     		ldrb	r2, [r3, #2]	@ zero_extendqisi2
 521 005c 264B     		ldr	r3, .L25
 522 005e DB78     		ldrb	r3, [r3, #3]	@ zero_extendqisi2
 523 0060 1344     		add	r3, r3, r2
 524 0062 DAB2     		uxtb	r2, r3
 525 0064 244B     		ldr	r3, .L25
 526 0066 1B79     		ldrb	r3, [r3, #4]	@ zero_extendqisi2
 527 0068 1344     		add	r3, r3, r2
 528 006a DAB2     		uxtb	r2, r3
 529 006c 224B     		ldr	r3, .L25
 530 006e 5B79     		ldrb	r3, [r3, #5]	@ zero_extendqisi2
 531 0070 1344     		add	r3, r3, r2
 532 0072 DAB2     		uxtb	r2, r3
 533 0074 204B     		ldr	r3, .L25
 534 0076 9B79     		ldrb	r3, [r3, #6]	@ zero_extendqisi2
 535 0078 1344     		add	r3, r3, r2
 536 007a DAB2     		uxtb	r2, r3
 537 007c 1E4B     		ldr	r3, .L25
 538 007e DB79     		ldrb	r3, [r3, #7]	@ zero_extendqisi2
 539 0080 1344     		add	r3, r3, r2
 540 0082 DAB2     		uxtb	r2, r3
 541 0084 1D4B     		ldr	r3, .L25+4
 542 0086 1A70     		strb	r2, [r3]
 134:.\main.c      ****         sum1 = sum1 & 0X7f;
 543              		.loc 1 134 0
 544 0088 1C4B     		ldr	r3, .L25+4
 545 008a 1B78     		ldrb	r3, [r3]	@ zero_extendqisi2
 546 008c 03F07F03 		and	r3, r3, #127
 547 0090 DAB2     		uxtb	r2, r3
 548 0092 1A4B     		ldr	r3, .L25+4
ARM GAS  C:\Users\dskyNote\AppData\Local\Temp\ccT2SVus.s 			page 13


 549 0094 1A70     		strb	r2, [r3]
 135:.\main.c      **** 		CheckSum = num[1];
 550              		.loc 1 135 0
 551 0096 184B     		ldr	r3, .L25
 552 0098 5A78     		ldrb	r2, [r3, #1]	@ zero_extendqisi2
 553 009a 194B     		ldr	r3, .L25+8
 554 009c 1A70     		strb	r2, [r3]
 136:.\main.c      **** 	//	if(){
 137:.\main.c      **** 		astic[3] = num[2];//Right UD
 555              		.loc 1 137 0
 556 009e 164B     		ldr	r3, .L25
 557 00a0 9A78     		ldrb	r2, [r3, #2]	@ zero_extendqisi2
 558 00a2 184B     		ldr	r3, .L25+12
 559 00a4 DA70     		strb	r2, [r3, #3]
 138:.\main.c      **** 		astic[2] = num[3];//Right RL
 560              		.loc 1 138 0
 561 00a6 144B     		ldr	r3, .L25
 562 00a8 DA78     		ldrb	r2, [r3, #3]	@ zero_extendqisi2
 563 00aa 164B     		ldr	r3, .L25+12
 564 00ac 9A70     		strb	r2, [r3, #2]
 139:.\main.c      **** 		astic[1] = num[4];//Left UD
 565              		.loc 1 139 0
 566 00ae 124B     		ldr	r3, .L25
 567 00b0 1A79     		ldrb	r2, [r3, #4]	@ zero_extendqisi2
 568 00b2 144B     		ldr	r3, .L25+12
 569 00b4 5A70     		strb	r2, [r3, #1]
 140:.\main.c      **** 		astic[0] = num[5];//Left RL
 570              		.loc 1 140 0
 571 00b6 104B     		ldr	r3, .L25
 572 00b8 5A79     		ldrb	r2, [r3, #5]	@ zero_extendqisi2
 573 00ba 124B     		ldr	r3, .L25+12
 574 00bc 1A70     		strb	r2, [r3]
 141:.\main.c      ****       //  }
 142:.\main.c      ****    	    if((num[7] & B_L1) != 0){//L1
 575              		.loc 1 142 0
 576 00be 0E4B     		ldr	r3, .L25
 577 00c0 DB79     		ldrb	r3, [r3, #7]	@ zero_extendqisi2
 578 00c2 03F00203 		and	r3, r3, #2
 579 00c6 002B     		cmp	r3, #0
 580 00c8 02D0     		beq	.L23
 143:.\main.c      ****             EnabelPS3 = 0;
 581              		.loc 1 143 0
 582 00ca 0F4B     		ldr	r3, .L25+16
 583 00cc 0022     		movs	r2, #0
 584 00ce 1A70     		strb	r2, [r3]
 585              	.L23:
 144:.\main.c      **** 		}
 145:.\main.c      ****    	    if((num[7] & B_R1) != 0){//R1
 586              		.loc 1 145 0
 587 00d0 094B     		ldr	r3, .L25
 588 00d2 DB79     		ldrb	r3, [r3, #7]	@ zero_extendqisi2
 589 00d4 03F00803 		and	r3, r3, #8
 590 00d8 002B     		cmp	r3, #0
 591 00da 02D0     		beq	.L24
 146:.\main.c      ****             EnabelPS3 = 1;
 592              		.loc 1 146 0
 593 00dc 0A4B     		ldr	r3, .L25+16
ARM GAS  C:\Users\dskyNote\AppData\Local\Temp\ccT2SVus.s 			page 14


 594 00de 0122     		movs	r2, #1
 595 00e0 1A70     		strb	r2, [r3]
 596              	.L24:
 147:.\main.c      ****         }
 148:.\main.c      ****         
 149:.\main.c      **** 		ButtonStatus1 = num[7];
 597              		.loc 1 149 0
 598 00e2 054B     		ldr	r3, .L25
 599 00e4 DA79     		ldrb	r2, [r3, #7]	@ zero_extendqisi2
 600 00e6 094B     		ldr	r3, .L25+20
 601 00e8 1A70     		strb	r2, [r3]
 150:.\main.c      **** 		ButtonStatus2 = num[6];
 602              		.loc 1 150 0
 603 00ea 034B     		ldr	r3, .L25
 604 00ec 9A79     		ldrb	r2, [r3, #6]	@ zero_extendqisi2
 605 00ee 084B     		ldr	r3, .L25+24
 606 00f0 1A70     		strb	r2, [r3]
 607              	.L22:
 151:.\main.c      ****     }    
 152:.\main.c      ****     
 153:.\main.c      ****   //      status=UART_1_ReadRxStatus();
 154:.\main.c      **** //    switch(status){
 155:.\main.c      **** //        case UART_1_RX_STS_FIFO_NOTEMPTY:
 156:.\main.c      **** //            PI();
 157:.\main.c      **** //            break;
 158:.\main.c      **** //        case UART_1_RX_STS_PAR_ERROR:
 159:.\main.c      **** //            PI();
 160:.\main.c      **** //            break;
 161:.\main.c      **** //        case UART_1_RX_STS_STOP_ERROR:
 162:.\main.c      **** //            PI();
 163:.\main.c      **** //            break;
 164:.\main.c      **** //        case UART_1_RX_STS_BREAK:
 165:.\main.c      **** //            PI();
 166:.\main.c      **** //            break;
 167:.\main.c      **** //        case UART_1_RX_STS_OVERRUN:
 168:.\main.c      **** //            PI();
 169:.\main.c      **** //            break;
 170:.\main.c      **** //        case UART_1_RX_STS_ADDR_MATCH:
 171:.\main.c      **** //            PI();
 172:.\main.c      **** //            break;
 173:.\main.c      **** //        case UART_1_RX_STS_MRKSPC:
 174:.\main.c      **** //            PI();
 175:.\main.c      **** //            break;
 176:.\main.c      **** //        case UART_1_RX_STS_SOFT_BUFF_OVER:
 177:.\main.c      **** //            PI();
 178:.\main.c      **** //            break;
 179:.\main.c      ****            
 180:.\main.c      ****  //   }
 181:.\main.c      ****     timer1_Enable();
 608              		.loc 1 181 0
 609 00f2 FFF7FEFF 		bl	timer1_Enable
 182:.\main.c      **** }
 610              		.loc 1 182 0
 611 00f6 80BD     		pop	{r7, pc}
 612              	.L26:
 613              		.align	2
 614              	.L25:
ARM GAS  C:\Users\dskyNote\AppData\Local\Temp\ccT2SVus.s 			page 15


 615 00f8 00000000 		.word	num
 616 00fc 00000000 		.word	sum1
 617 0100 00000000 		.word	CheckSum
 618 0104 00000000 		.word	astic
 619 0108 00000000 		.word	EnabelPS3
 620 010c 00000000 		.word	ButtonStatus1
 621 0110 00000000 		.word	ButtonStatus2
 622              		.cfi_endproc
 623              	.LFE59:
 624              		.size	myHandler, .-myHandler
 625              		.section	.text.CheckRFID,"ax",%progbits
 626              		.align	2
 627              		.global	CheckRFID
 628              		.thumb
 629              		.thumb_func
 630              		.type	CheckRFID, %function
 631              	CheckRFID:
 632              	.LFB60:
 183:.\main.c      **** /*
 184:.\main.c      **** 1:RightRear
 185:.\main.c      **** 2:RightFront
 186:.\main.c      **** 3:LeftFront
 187:.\main.c      **** 4:LeftRear
 188:.\main.c      **** */
 189:.\main.c      **** uint8 CheckRFID(void){//1:new id 
 633              		.loc 1 189 0
 634              		.cfi_startproc
 635              		@ args = 0, pretend = 0, frame = 0
 636              		@ frame_needed = 1, uses_anonymous_args = 0
 637 0000 80B5     		push	{r7, lr}
 638              		.cfi_def_cfa_offset 8
 639              		.cfi_offset 7, -8
 640              		.cfi_offset 14, -4
 641 0002 00AF     		add	r7, sp, #0
 642              		.cfi_def_cfa_register 7
 190:.\main.c      ****     for( i2=0;i2<8;i2++){
 643              		.loc 1 190 0
 644 0004 104B     		ldr	r3, .L32
 645 0006 0022     		movs	r2, #0
 646 0008 1A70     		strb	r2, [r3]
 647 000a 16E0     		b	.L28
 648              	.L31:
 191:.\main.c      ****         if(RFID[i2]!=OLD_RFID[i2]){
 649              		.loc 1 191 0
 650 000c 0E4B     		ldr	r3, .L32
 651 000e 1B78     		ldrb	r3, [r3]	@ zero_extendqisi2
 652 0010 0E4A     		ldr	r2, .L32+4
 653 0012 D25C     		ldrb	r2, [r2, r3]	@ zero_extendqisi2
 654 0014 0C4B     		ldr	r3, .L32
 655 0016 1B78     		ldrb	r3, [r3]	@ zero_extendqisi2
 656 0018 0D49     		ldr	r1, .L32+8
 657 001a CB5C     		ldrb	r3, [r1, r3]	@ zero_extendqisi2
 658 001c 9A42     		cmp	r2, r3
 659 001e 06D0     		beq	.L29
 192:.\main.c      ****             flgNewRFID=1;
 660              		.loc 1 192 0
 661 0020 0C4B     		ldr	r3, .L32+12
ARM GAS  C:\Users\dskyNote\AppData\Local\Temp\ccT2SVus.s 			page 16


 662 0022 0122     		movs	r2, #1
 663 0024 1A70     		strb	r2, [r3]
 193:.\main.c      ****             AssignmentRFID();
 664              		.loc 1 193 0
 665 0026 FFF7FEFF 		bl	AssignmentRFID
 194:.\main.c      ****                    
 195:.\main.c      ****             return 1;
 666              		.loc 1 195 0
 667 002a 0123     		movs	r3, #1
 668 002c 0AE0     		b	.L30
 669              	.L29:
 190:.\main.c      ****     for( i2=0;i2<8;i2++){
 670              		.loc 1 190 0
 671 002e 064B     		ldr	r3, .L32
 672 0030 1B78     		ldrb	r3, [r3]	@ zero_extendqisi2
 673 0032 0133     		adds	r3, r3, #1
 674 0034 DAB2     		uxtb	r2, r3
 675 0036 044B     		ldr	r3, .L32
 676 0038 1A70     		strb	r2, [r3]
 677              	.L28:
 190:.\main.c      ****     for( i2=0;i2<8;i2++){
 678              		.loc 1 190 0 is_stmt 0 discriminator 1
 679 003a 034B     		ldr	r3, .L32
 680 003c 1B78     		ldrb	r3, [r3]	@ zero_extendqisi2
 681 003e 072B     		cmp	r3, #7
 682 0040 E4D9     		bls	.L31
 196:.\main.c      ****         }        
 197:.\main.c      ****     }
 198:.\main.c      ****     return 0;
 683              		.loc 1 198 0 is_stmt 1
 684 0042 0023     		movs	r3, #0
 685              	.L30:
 199:.\main.c      **** }
 686              		.loc 1 199 0
 687 0044 1846     		mov	r0, r3
 688 0046 80BD     		pop	{r7, pc}
 689              	.L33:
 690              		.align	2
 691              	.L32:
 692 0048 00000000 		.word	i2
 693 004c 00000000 		.word	RFID
 694 0050 00000000 		.word	OLD_RFID
 695 0054 00000000 		.word	flgNewRFID
 696              		.cfi_endproc
 697              	.LFE60:
 698              		.size	CheckRFID, .-CheckRFID
 699              		.section	.text.AssignmentRFID,"ax",%progbits
 700              		.align	2
 701              		.global	AssignmentRFID
 702              		.thumb
 703              		.thumb_func
 704              		.type	AssignmentRFID, %function
 705              	AssignmentRFID:
 706              	.LFB61:
 200:.\main.c      **** void AssignmentRFID(void){
 707              		.loc 1 200 0
 708              		.cfi_startproc
ARM GAS  C:\Users\dskyNote\AppData\Local\Temp\ccT2SVus.s 			page 17


 709              		@ args = 0, pretend = 0, frame = 0
 710              		@ frame_needed = 1, uses_anonymous_args = 0
 711              		@ link register save eliminated.
 712 0000 80B4     		push	{r7}
 713              		.cfi_def_cfa_offset 4
 714              		.cfi_offset 7, -4
 715 0002 00AF     		add	r7, sp, #0
 716              		.cfi_def_cfa_register 7
 201:.\main.c      ****     for( i2=0;i2<8;i2++){
 717              		.loc 1 201 0
 718 0004 0C4B     		ldr	r3, .L37
 719 0006 0022     		movs	r2, #0
 720 0008 1A70     		strb	r2, [r3]
 721 000a 0DE0     		b	.L35
 722              	.L36:
 202:.\main.c      ****         OLD_RFID[i2]=RFID[i2];            
 723              		.loc 1 202 0 discriminator 2
 724 000c 0A4B     		ldr	r3, .L37
 725 000e 1B78     		ldrb	r3, [r3]	@ zero_extendqisi2
 726 0010 094A     		ldr	r2, .L37
 727 0012 1278     		ldrb	r2, [r2]	@ zero_extendqisi2
 728 0014 0949     		ldr	r1, .L37+4
 729 0016 895C     		ldrb	r1, [r1, r2]	@ zero_extendqisi2
 730 0018 094A     		ldr	r2, .L37+8
 731 001a D154     		strb	r1, [r2, r3]
 201:.\main.c      ****     for( i2=0;i2<8;i2++){
 732              		.loc 1 201 0 discriminator 2
 733 001c 064B     		ldr	r3, .L37
 734 001e 1B78     		ldrb	r3, [r3]	@ zero_extendqisi2
 735 0020 0133     		adds	r3, r3, #1
 736 0022 DAB2     		uxtb	r2, r3
 737 0024 044B     		ldr	r3, .L37
 738 0026 1A70     		strb	r2, [r3]
 739              	.L35:
 201:.\main.c      ****     for( i2=0;i2<8;i2++){
 740              		.loc 1 201 0 is_stmt 0 discriminator 1
 741 0028 034B     		ldr	r3, .L37
 742 002a 1B78     		ldrb	r3, [r3]	@ zero_extendqisi2
 743 002c 072B     		cmp	r3, #7
 744 002e EDD9     		bls	.L36
 203:.\main.c      ****     }
 204:.\main.c      **** }
 745              		.loc 1 204 0 is_stmt 1
 746 0030 BD46     		mov	sp, r7
 747              		@ sp needed
 748 0032 5DF8047B 		ldr	r7, [sp], #4
 749 0036 7047     		bx	lr
 750              	.L38:
 751              		.align	2
 752              	.L37:
 753 0038 00000000 		.word	i2
 754 003c 00000000 		.word	RFID
 755 0040 00000000 		.word	OLD_RFID
 756              		.cfi_endproc
 757              	.LFE61:
 758              		.size	AssignmentRFID, .-AssignmentRFID
 759              		.global	__aeabi_fadd
ARM GAS  C:\Users\dskyNote\AppData\Local\Temp\ccT2SVus.s 			page 18


 760              		.global	__aeabi_fsub
 761              		.global	__aeabi_f2iz
 762              		.section	.text.CalMotorSpeed,"ax",%progbits
 763              		.align	2
 764              		.global	CalMotorSpeed
 765              		.thumb
 766              		.thumb_func
 767              		.type	CalMotorSpeed, %function
 768              	CalMotorSpeed:
 769              	.LFB62:
 205:.\main.c      **** void CalMotorSpeed(){
 770              		.loc 1 205 0
 771              		.cfi_startproc
 772              		@ args = 0, pretend = 0, frame = 0
 773              		@ frame_needed = 1, uses_anonymous_args = 0
 774 0000 80B5     		push	{r7, lr}
 775              		.cfi_def_cfa_offset 8
 776              		.cfi_offset 7, -8
 777              		.cfi_offset 14, -4
 778 0002 00AF     		add	r7, sp, #0
 779              		.cfi_def_cfa_register 7
 206:.\main.c      ****     if(flgException!=1){
 780              		.loc 1 206 0
 781 0004 564B     		ldr	r3, .L42
 782 0006 1B78     		ldrb	r3, [r3]	@ zero_extendqisi2
 783 0008 012B     		cmp	r3, #1
 784 000a 13D0     		beq	.L40
 207:.\main.c      ****         if(LineSensor[LineFront]==21 || LineSensor[LineRear]==21){nRotate=0x40;nFR=0x40;nRL=0x40;}
 785              		.loc 1 207 0
 786 000c 554B     		ldr	r3, .L42+4
 787 000e 1B78     		ldrb	r3, [r3]	@ zero_extendqisi2
 788 0010 152B     		cmp	r3, #21
 789 0012 03D0     		beq	.L41
 790              		.loc 1 207 0 is_stmt 0 discriminator 2
 791 0014 534B     		ldr	r3, .L42+4
 792 0016 5B78     		ldrb	r3, [r3, #1]	@ zero_extendqisi2
 793 0018 152B     		cmp	r3, #21
 794 001a 0BD1     		bne	.L40
 795              	.L41:
 796              		.loc 1 207 0 discriminator 1
 797 001c 524B     		ldr	r3, .L42+8
 798 001e 4FF08542 		mov	r2, #1115684864
 799 0022 1A60     		str	r2, [r3]	@ float
 800 0024 514B     		ldr	r3, .L42+12
 801 0026 4FF08542 		mov	r2, #1115684864
 802 002a 1A60     		str	r2, [r3]	@ float
 803 002c 504B     		ldr	r3, .L42+16
 804 002e 4FF08542 		mov	r2, #1115684864
 805 0032 1A60     		str	r2, [r3]	@ float
 806              	.L40:
 208:.\main.c      ****     }
 209:.\main.c      ****     RightFrontMotor(-1*(nFR+nRL-0x80+nRotate-0x40));        
 807              		.loc 1 209 0 is_stmt 1
 808 0034 4D4B     		ldr	r3, .L42+12
 809 0036 1A68     		ldr	r2, [r3]	@ float
 810 0038 4D4B     		ldr	r3, .L42+16
 811 003a 1B68     		ldr	r3, [r3]	@ float
ARM GAS  C:\Users\dskyNote\AppData\Local\Temp\ccT2SVus.s 			page 19


 812 003c 1046     		mov	r0, r2
 813 003e 1946     		mov	r1, r3
 814 0040 FFF7FEFF 		bl	__aeabi_fadd
 815 0044 0346     		mov	r3, r0
 816 0046 1846     		mov	r0, r3
 817 0048 4FF08641 		mov	r1, #1124073472
 818 004c FFF7FEFF 		bl	__aeabi_fsub
 819 0050 0346     		mov	r3, r0
 820 0052 1A46     		mov	r2, r3
 821 0054 444B     		ldr	r3, .L42+8
 822 0056 1B68     		ldr	r3, [r3]	@ float
 823 0058 1046     		mov	r0, r2
 824 005a 1946     		mov	r1, r3
 825 005c FFF7FEFF 		bl	__aeabi_fadd
 826 0060 0346     		mov	r3, r0
 827 0062 1846     		mov	r0, r3
 828 0064 4FF08541 		mov	r1, #1115684864
 829 0068 FFF7FEFF 		bl	__aeabi_fsub
 830 006c 0346     		mov	r3, r0
 831 006e 83F00043 		eor	r3, r3, #-2147483648
 832 0072 1846     		mov	r0, r3
 833 0074 FFF7FEFF 		bl	__aeabi_f2iz
 834 0078 0346     		mov	r3, r0
 835 007a 9BB2     		uxth	r3, r3
 836 007c 1BB2     		sxth	r3, r3
 837 007e 1846     		mov	r0, r3
 838 0080 FFF7FEFF 		bl	RightFrontMotor
 210:.\main.c      ****     RightRearMotor(-1*(nFR-nRL+nRotate-0x40));
 839              		.loc 1 210 0
 840 0084 394B     		ldr	r3, .L42+12
 841 0086 1A68     		ldr	r2, [r3]	@ float
 842 0088 394B     		ldr	r3, .L42+16
 843 008a 1B68     		ldr	r3, [r3]	@ float
 844 008c 1046     		mov	r0, r2
 845 008e 1946     		mov	r1, r3
 846 0090 FFF7FEFF 		bl	__aeabi_fsub
 847 0094 0346     		mov	r3, r0
 848 0096 1A46     		mov	r2, r3
 849 0098 334B     		ldr	r3, .L42+8
 850 009a 1B68     		ldr	r3, [r3]	@ float
 851 009c 1046     		mov	r0, r2
 852 009e 1946     		mov	r1, r3
 853 00a0 FFF7FEFF 		bl	__aeabi_fadd
 854 00a4 0346     		mov	r3, r0
 855 00a6 1846     		mov	r0, r3
 856 00a8 4FF08541 		mov	r1, #1115684864
 857 00ac FFF7FEFF 		bl	__aeabi_fsub
 858 00b0 0346     		mov	r3, r0
 859 00b2 83F00043 		eor	r3, r3, #-2147483648
 860 00b6 1846     		mov	r0, r3
 861 00b8 FFF7FEFF 		bl	__aeabi_f2iz
 862 00bc 0346     		mov	r3, r0
 863 00be 9BB2     		uxth	r3, r3
 864 00c0 1BB2     		sxth	r3, r3
 865 00c2 1846     		mov	r0, r3
 866 00c4 FFF7FEFF 		bl	RightRearMotor
 211:.\main.c      ****     LeftFrontMotor(-1*(nFR-nRL-nRotate+0x40));        
ARM GAS  C:\Users\dskyNote\AppData\Local\Temp\ccT2SVus.s 			page 20


 867              		.loc 1 211 0
 868 00c8 284B     		ldr	r3, .L42+12
 869 00ca 1A68     		ldr	r2, [r3]	@ float
 870 00cc 284B     		ldr	r3, .L42+16
 871 00ce 1B68     		ldr	r3, [r3]	@ float
 872 00d0 1046     		mov	r0, r2
 873 00d2 1946     		mov	r1, r3
 874 00d4 FFF7FEFF 		bl	__aeabi_fsub
 875 00d8 0346     		mov	r3, r0
 876 00da 1A46     		mov	r2, r3
 877 00dc 224B     		ldr	r3, .L42+8
 878 00de 1B68     		ldr	r3, [r3]	@ float
 879 00e0 1046     		mov	r0, r2
 880 00e2 1946     		mov	r1, r3
 881 00e4 FFF7FEFF 		bl	__aeabi_fsub
 882 00e8 0346     		mov	r3, r0
 883 00ea 1846     		mov	r0, r3
 884 00ec 4FF08541 		mov	r1, #1115684864
 885 00f0 FFF7FEFF 		bl	__aeabi_fadd
 886 00f4 0346     		mov	r3, r0
 887 00f6 83F00043 		eor	r3, r3, #-2147483648
 888 00fa 1846     		mov	r0, r3
 889 00fc FFF7FEFF 		bl	__aeabi_f2iz
 890 0100 0346     		mov	r3, r0
 891 0102 9BB2     		uxth	r3, r3
 892 0104 1BB2     		sxth	r3, r3
 893 0106 1846     		mov	r0, r3
 894 0108 FFF7FEFF 		bl	LeftFrontMotor
 212:.\main.c      ****     LeftRearMotor(-1*(nFR+nRL-0x80-nRotate+0x40));
 895              		.loc 1 212 0
 896 010c 174B     		ldr	r3, .L42+12
 897 010e 1A68     		ldr	r2, [r3]	@ float
 898 0110 174B     		ldr	r3, .L42+16
 899 0112 1B68     		ldr	r3, [r3]	@ float
 900 0114 1046     		mov	r0, r2
 901 0116 1946     		mov	r1, r3
 902 0118 FFF7FEFF 		bl	__aeabi_fadd
 903 011c 0346     		mov	r3, r0
 904 011e 1846     		mov	r0, r3
 905 0120 4FF08641 		mov	r1, #1124073472
 906 0124 FFF7FEFF 		bl	__aeabi_fsub
 907 0128 0346     		mov	r3, r0
 908 012a 1A46     		mov	r2, r3
 909 012c 0E4B     		ldr	r3, .L42+8
 910 012e 1B68     		ldr	r3, [r3]	@ float
 911 0130 1046     		mov	r0, r2
 912 0132 1946     		mov	r1, r3
 913 0134 FFF7FEFF 		bl	__aeabi_fsub
 914 0138 0346     		mov	r3, r0
 915 013a 1846     		mov	r0, r3
 916 013c 4FF08541 		mov	r1, #1115684864
 917 0140 FFF7FEFF 		bl	__aeabi_fadd
 918 0144 0346     		mov	r3, r0
 919 0146 83F00043 		eor	r3, r3, #-2147483648
 920 014a 1846     		mov	r0, r3
 921 014c FFF7FEFF 		bl	__aeabi_f2iz
 922 0150 0346     		mov	r3, r0
ARM GAS  C:\Users\dskyNote\AppData\Local\Temp\ccT2SVus.s 			page 21


 923 0152 9BB2     		uxth	r3, r3
 924 0154 1BB2     		sxth	r3, r3
 925 0156 1846     		mov	r0, r3
 926 0158 FFF7FEFF 		bl	LeftRearMotor
 213:.\main.c      **** }
 927              		.loc 1 213 0
 928 015c 80BD     		pop	{r7, pc}
 929              	.L43:
 930 015e 00BF     		.align	2
 931              	.L42:
 932 0160 00000000 		.word	flgException
 933 0164 00000000 		.word	LineSensor
 934 0168 00000000 		.word	nRotate
 935 016c 00000000 		.word	nFR
 936 0170 00000000 		.word	nRL
 937              		.cfi_endproc
 938              	.LFE62:
 939              		.size	CalMotorSpeed, .-CalMotorSpeed
 940              		.section	.text.RightFrontMotor,"ax",%progbits
 941              		.align	2
 942              		.global	RightFrontMotor
 943              		.thumb
 944              		.thumb_func
 945              		.type	RightFrontMotor, %function
 946              	RightFrontMotor:
 947              	.LFB63:
 214:.\main.c      **** 
 215:.\main.c      **** void RightFrontMotor(int16 nRotate){
 948              		.loc 1 215 0
 949              		.cfi_startproc
 950              		@ args = 0, pretend = 0, frame = 16
 951              		@ frame_needed = 1, uses_anonymous_args = 0
 952 0000 80B5     		push	{r7, lr}
 953              		.cfi_def_cfa_offset 8
 954              		.cfi_offset 7, -8
 955              		.cfi_offset 14, -4
 956 0002 84B0     		sub	sp, sp, #16
 957              		.cfi_def_cfa_offset 24
 958 0004 00AF     		add	r7, sp, #0
 959              		.cfi_def_cfa_register 7
 960 0006 0346     		mov	r3, r0
 961 0008 FB80     		strh	r3, [r7, #6]	@ movhi
 216:.\main.c      ****     int16 nPwm;
 217:.\main.c      ****     if(nRotate==0){
 962              		.loc 1 217 0
 963 000a B7F90630 		ldrsh	r3, [r7, #6]
 964 000e 002B     		cmp	r3, #0
 965 0010 02D1     		bne	.L45
 218:.\main.c      ****         nPwm = 0;
 966              		.loc 1 218 0
 967 0012 0023     		movs	r3, #0
 968 0014 FB81     		strh	r3, [r7, #14]	@ movhi
 969 0016 1EE0     		b	.L46
 970              	.L45:
 219:.\main.c      ****     }else{
 220:.\main.c      ****         if(nRotate<-255){nRotate=-255;}
 971              		.loc 1 220 0
ARM GAS  C:\Users\dskyNote\AppData\Local\Temp\ccT2SVus.s 			page 22


 972 0018 B7F90630 		ldrsh	r3, [r7, #6]
 973 001c 13F1FF0F 		cmn	r3, #255
 974 0020 02DA     		bge	.L47
 975              		.loc 1 220 0 is_stmt 0 discriminator 1
 976 0022 4FF60173 		movw	r3, #65281
 977 0026 FB80     		strh	r3, [r7, #6]	@ movhi
 978              	.L47:
 221:.\main.c      ****         if(nRotate>255){nRotate=255;}
 979              		.loc 1 221 0 is_stmt 1
 980 0028 B7F90630 		ldrsh	r3, [r7, #6]
 981 002c FF2B     		cmp	r3, #255
 982 002e 01DD     		ble	.L48
 983              		.loc 1 221 0 is_stmt 0 discriminator 1
 984 0030 FF23     		movs	r3, #255
 985 0032 FB80     		strh	r3, [r7, #6]	@ movhi
 986              	.L48:
 222:.\main.c      ****         if(nRotate<0){
 987              		.loc 1 222 0 is_stmt 1
 988 0034 B7F90630 		ldrsh	r3, [r7, #6]
 989 0038 002B     		cmp	r3, #0
 990 003a 07DA     		bge	.L49
 223:.\main.c      ****             CW_CCW_2_Write(1);           
 991              		.loc 1 223 0
 992 003c 0120     		movs	r0, #1
 993 003e FFF7FEFF 		bl	CW_CCW_2_Write
 224:.\main.c      ****             nPwm = -nRotate;
 994              		.loc 1 224 0
 995 0042 FB88     		ldrh	r3, [r7, #6]
 996 0044 5B42     		negs	r3, r3
 997 0046 9BB2     		uxth	r3, r3
 998 0048 FB81     		strh	r3, [r7, #14]	@ movhi
 999 004a 04E0     		b	.L46
 1000              	.L49:
 225:.\main.c      ****         }else{
 226:.\main.c      ****             CW_CCW_2_Write(0);           
 1001              		.loc 1 226 0
 1002 004c 0020     		movs	r0, #0
 1003 004e FFF7FEFF 		bl	CW_CCW_2_Write
 227:.\main.c      ****             nPwm = nRotate;
 1004              		.loc 1 227 0
 1005 0052 FB88     		ldrh	r3, [r7, #6]	@ movhi
 1006 0054 FB81     		strh	r3, [r7, #14]	@ movhi
 1007              	.L46:
 228:.\main.c      ****         }    
 229:.\main.c      ****     }
 230:.\main.c      ****     VDAC8_2_SetValue(nPwm);
 1008              		.loc 1 230 0
 1009 0056 FB89     		ldrh	r3, [r7, #14]	@ movhi
 1010 0058 DBB2     		uxtb	r3, r3
 1011 005a 1846     		mov	r0, r3
 1012 005c FFF7FEFF 		bl	VDAC8_2_SetValue
 231:.\main.c      **** }
 1013              		.loc 1 231 0
 1014 0060 1037     		adds	r7, r7, #16
 1015 0062 BD46     		mov	sp, r7
 1016              		@ sp needed
 1017 0064 80BD     		pop	{r7, pc}
ARM GAS  C:\Users\dskyNote\AppData\Local\Temp\ccT2SVus.s 			page 23


 1018              		.cfi_endproc
 1019              	.LFE63:
 1020              		.size	RightFrontMotor, .-RightFrontMotor
 1021 0066 00BF     		.section	.text.RightRearMotor,"ax",%progbits
 1022              		.align	2
 1023              		.global	RightRearMotor
 1024              		.thumb
 1025              		.thumb_func
 1026              		.type	RightRearMotor, %function
 1027              	RightRearMotor:
 1028              	.LFB64:
 232:.\main.c      **** void RightRearMotor(int16 nRotate){
 1029              		.loc 1 232 0
 1030              		.cfi_startproc
 1031              		@ args = 0, pretend = 0, frame = 16
 1032              		@ frame_needed = 1, uses_anonymous_args = 0
 1033 0000 80B5     		push	{r7, lr}
 1034              		.cfi_def_cfa_offset 8
 1035              		.cfi_offset 7, -8
 1036              		.cfi_offset 14, -4
 1037 0002 84B0     		sub	sp, sp, #16
 1038              		.cfi_def_cfa_offset 24
 1039 0004 00AF     		add	r7, sp, #0
 1040              		.cfi_def_cfa_register 7
 1041 0006 0346     		mov	r3, r0
 1042 0008 FB80     		strh	r3, [r7, #6]	@ movhi
 233:.\main.c      ****     int16 nPwm;
 234:.\main.c      ****     if(nRotate==0){
 1043              		.loc 1 234 0
 1044 000a B7F90630 		ldrsh	r3, [r7, #6]
 1045 000e 002B     		cmp	r3, #0
 1046 0010 02D1     		bne	.L51
 235:.\main.c      ****         nPwm = 0;
 1047              		.loc 1 235 0
 1048 0012 0023     		movs	r3, #0
 1049 0014 FB81     		strh	r3, [r7, #14]	@ movhi
 1050 0016 1EE0     		b	.L52
 1051              	.L51:
 236:.\main.c      ****     }else{
 237:.\main.c      ****         if(nRotate<-255){nRotate=-255;}
 1052              		.loc 1 237 0
 1053 0018 B7F90630 		ldrsh	r3, [r7, #6]
 1054 001c 13F1FF0F 		cmn	r3, #255
 1055 0020 02DA     		bge	.L53
 1056              		.loc 1 237 0 is_stmt 0 discriminator 1
 1057 0022 4FF60173 		movw	r3, #65281
 1058 0026 FB80     		strh	r3, [r7, #6]	@ movhi
 1059              	.L53:
 238:.\main.c      ****         if(nRotate>255){nRotate=255;}
 1060              		.loc 1 238 0 is_stmt 1
 1061 0028 B7F90630 		ldrsh	r3, [r7, #6]
 1062 002c FF2B     		cmp	r3, #255
 1063 002e 01DD     		ble	.L54
 1064              		.loc 1 238 0 is_stmt 0 discriminator 1
 1065 0030 FF23     		movs	r3, #255
 1066 0032 FB80     		strh	r3, [r7, #6]	@ movhi
 1067              	.L54:
ARM GAS  C:\Users\dskyNote\AppData\Local\Temp\ccT2SVus.s 			page 24


 239:.\main.c      ****         if(nRotate<0){
 1068              		.loc 1 239 0 is_stmt 1
 1069 0034 B7F90630 		ldrsh	r3, [r7, #6]
 1070 0038 002B     		cmp	r3, #0
 1071 003a 07DA     		bge	.L55
 240:.\main.c      ****             CW_CCW_1_Write(1);           
 1072              		.loc 1 240 0
 1073 003c 0120     		movs	r0, #1
 1074 003e FFF7FEFF 		bl	CW_CCW_1_Write
 241:.\main.c      ****             nPwm = -nRotate;
 1075              		.loc 1 241 0
 1076 0042 FB88     		ldrh	r3, [r7, #6]
 1077 0044 5B42     		negs	r3, r3
 1078 0046 9BB2     		uxth	r3, r3
 1079 0048 FB81     		strh	r3, [r7, #14]	@ movhi
 1080 004a 04E0     		b	.L52
 1081              	.L55:
 242:.\main.c      ****         }else{
 243:.\main.c      ****             CW_CCW_1_Write(0);           
 1082              		.loc 1 243 0
 1083 004c 0020     		movs	r0, #0
 1084 004e FFF7FEFF 		bl	CW_CCW_1_Write
 244:.\main.c      ****             nPwm = nRotate;
 1085              		.loc 1 244 0
 1086 0052 FB88     		ldrh	r3, [r7, #6]	@ movhi
 1087 0054 FB81     		strh	r3, [r7, #14]	@ movhi
 1088              	.L52:
 245:.\main.c      ****         }    
 246:.\main.c      ****     }
 247:.\main.c      ****     VDAC8_1_SetValue(nPwm);
 1089              		.loc 1 247 0
 1090 0056 FB89     		ldrh	r3, [r7, #14]	@ movhi
 1091 0058 DBB2     		uxtb	r3, r3
 1092 005a 1846     		mov	r0, r3
 1093 005c FFF7FEFF 		bl	VDAC8_1_SetValue
 248:.\main.c      **** }
 1094              		.loc 1 248 0
 1095 0060 1037     		adds	r7, r7, #16
 1096 0062 BD46     		mov	sp, r7
 1097              		@ sp needed
 1098 0064 80BD     		pop	{r7, pc}
 1099              		.cfi_endproc
 1100              	.LFE64:
 1101              		.size	RightRearMotor, .-RightRearMotor
 1102 0066 00BF     		.section	.text.LeftFrontMotor,"ax",%progbits
 1103              		.align	2
 1104              		.global	LeftFrontMotor
 1105              		.thumb
 1106              		.thumb_func
 1107              		.type	LeftFrontMotor, %function
 1108              	LeftFrontMotor:
 1109              	.LFB65:
 249:.\main.c      **** void LeftFrontMotor(int16 nRotate){
 1110              		.loc 1 249 0
 1111              		.cfi_startproc
 1112              		@ args = 0, pretend = 0, frame = 16
 1113              		@ frame_needed = 1, uses_anonymous_args = 0
ARM GAS  C:\Users\dskyNote\AppData\Local\Temp\ccT2SVus.s 			page 25


 1114 0000 80B5     		push	{r7, lr}
 1115              		.cfi_def_cfa_offset 8
 1116              		.cfi_offset 7, -8
 1117              		.cfi_offset 14, -4
 1118 0002 84B0     		sub	sp, sp, #16
 1119              		.cfi_def_cfa_offset 24
 1120 0004 00AF     		add	r7, sp, #0
 1121              		.cfi_def_cfa_register 7
 1122 0006 0346     		mov	r3, r0
 1123 0008 FB80     		strh	r3, [r7, #6]	@ movhi
 250:.\main.c      ****     int16 nPwm;
 251:.\main.c      ****     if(nRotate==0){
 1124              		.loc 1 251 0
 1125 000a B7F90630 		ldrsh	r3, [r7, #6]
 1126 000e 002B     		cmp	r3, #0
 1127 0010 02D1     		bne	.L57
 252:.\main.c      ****         nPwm = 0;
 1128              		.loc 1 252 0
 1129 0012 0023     		movs	r3, #0
 1130 0014 FB81     		strh	r3, [r7, #14]	@ movhi
 1131 0016 1EE0     		b	.L58
 1132              	.L57:
 253:.\main.c      ****     }else{
 254:.\main.c      ****         if(nRotate<-255){nRotate=-255;}
 1133              		.loc 1 254 0
 1134 0018 B7F90630 		ldrsh	r3, [r7, #6]
 1135 001c 13F1FF0F 		cmn	r3, #255
 1136 0020 02DA     		bge	.L59
 1137              		.loc 1 254 0 is_stmt 0 discriminator 1
 1138 0022 4FF60173 		movw	r3, #65281
 1139 0026 FB80     		strh	r3, [r7, #6]	@ movhi
 1140              	.L59:
 255:.\main.c      ****         if(nRotate>255){nRotate=255;}
 1141              		.loc 1 255 0 is_stmt 1
 1142 0028 B7F90630 		ldrsh	r3, [r7, #6]
 1143 002c FF2B     		cmp	r3, #255
 1144 002e 01DD     		ble	.L60
 1145              		.loc 1 255 0 is_stmt 0 discriminator 1
 1146 0030 FF23     		movs	r3, #255
 1147 0032 FB80     		strh	r3, [r7, #6]	@ movhi
 1148              	.L60:
 256:.\main.c      ****         if(nRotate<0){
 1149              		.loc 1 256 0 is_stmt 1
 1150 0034 B7F90630 		ldrsh	r3, [r7, #6]
 1151 0038 002B     		cmp	r3, #0
 1152 003a 07DA     		bge	.L61
 257:.\main.c      ****             CW_CCW_3_Write(0);           
 1153              		.loc 1 257 0
 1154 003c 0020     		movs	r0, #0
 1155 003e FFF7FEFF 		bl	CW_CCW_3_Write
 258:.\main.c      ****             nPwm = -nRotate;
 1156              		.loc 1 258 0
 1157 0042 FB88     		ldrh	r3, [r7, #6]
 1158 0044 5B42     		negs	r3, r3
 1159 0046 9BB2     		uxth	r3, r3
 1160 0048 FB81     		strh	r3, [r7, #14]	@ movhi
 1161 004a 04E0     		b	.L58
ARM GAS  C:\Users\dskyNote\AppData\Local\Temp\ccT2SVus.s 			page 26


 1162              	.L61:
 259:.\main.c      ****         }else{
 260:.\main.c      ****             CW_CCW_3_Write(1);           
 1163              		.loc 1 260 0
 1164 004c 0120     		movs	r0, #1
 1165 004e FFF7FEFF 		bl	CW_CCW_3_Write
 261:.\main.c      ****             nPwm = nRotate;
 1166              		.loc 1 261 0
 1167 0052 FB88     		ldrh	r3, [r7, #6]	@ movhi
 1168 0054 FB81     		strh	r3, [r7, #14]	@ movhi
 1169              	.L58:
 262:.\main.c      ****         }    
 263:.\main.c      ****     }
 264:.\main.c      ****     VDAC8_3_SetValue(nPwm);
 1170              		.loc 1 264 0
 1171 0056 FB89     		ldrh	r3, [r7, #14]	@ movhi
 1172 0058 DBB2     		uxtb	r3, r3
 1173 005a 1846     		mov	r0, r3
 1174 005c FFF7FEFF 		bl	VDAC8_3_SetValue
 265:.\main.c      **** }
 1175              		.loc 1 265 0
 1176 0060 1037     		adds	r7, r7, #16
 1177 0062 BD46     		mov	sp, r7
 1178              		@ sp needed
 1179 0064 80BD     		pop	{r7, pc}
 1180              		.cfi_endproc
 1181              	.LFE65:
 1182              		.size	LeftFrontMotor, .-LeftFrontMotor
 1183 0066 00BF     		.section	.text.LeftRearMotor,"ax",%progbits
 1184              		.align	2
 1185              		.global	LeftRearMotor
 1186              		.thumb
 1187              		.thumb_func
 1188              		.type	LeftRearMotor, %function
 1189              	LeftRearMotor:
 1190              	.LFB66:
 266:.\main.c      **** void LeftRearMotor(int16 nRotate){
 1191              		.loc 1 266 0
 1192              		.cfi_startproc
 1193              		@ args = 0, pretend = 0, frame = 16
 1194              		@ frame_needed = 1, uses_anonymous_args = 0
 1195 0000 80B5     		push	{r7, lr}
 1196              		.cfi_def_cfa_offset 8
 1197              		.cfi_offset 7, -8
 1198              		.cfi_offset 14, -4
 1199 0002 84B0     		sub	sp, sp, #16
 1200              		.cfi_def_cfa_offset 24
 1201 0004 00AF     		add	r7, sp, #0
 1202              		.cfi_def_cfa_register 7
 1203 0006 0346     		mov	r3, r0
 1204 0008 FB80     		strh	r3, [r7, #6]	@ movhi
 267:.\main.c      ****     int16 nPwm;
 268:.\main.c      ****     if(nRotate==0){
 1205              		.loc 1 268 0
 1206 000a B7F90630 		ldrsh	r3, [r7, #6]
 1207 000e 002B     		cmp	r3, #0
 1208 0010 02D1     		bne	.L63
ARM GAS  C:\Users\dskyNote\AppData\Local\Temp\ccT2SVus.s 			page 27


 269:.\main.c      ****         nPwm = 0;
 1209              		.loc 1 269 0
 1210 0012 0023     		movs	r3, #0
 1211 0014 FB81     		strh	r3, [r7, #14]	@ movhi
 1212 0016 1EE0     		b	.L64
 1213              	.L63:
 270:.\main.c      ****     }else{
 271:.\main.c      ****         if(nRotate<-255){nRotate=-255;}
 1214              		.loc 1 271 0
 1215 0018 B7F90630 		ldrsh	r3, [r7, #6]
 1216 001c 13F1FF0F 		cmn	r3, #255
 1217 0020 02DA     		bge	.L65
 1218              		.loc 1 271 0 is_stmt 0 discriminator 1
 1219 0022 4FF60173 		movw	r3, #65281
 1220 0026 FB80     		strh	r3, [r7, #6]	@ movhi
 1221              	.L65:
 272:.\main.c      ****         if(nRotate>255){nRotate=255;}
 1222              		.loc 1 272 0 is_stmt 1
 1223 0028 B7F90630 		ldrsh	r3, [r7, #6]
 1224 002c FF2B     		cmp	r3, #255
 1225 002e 01DD     		ble	.L66
 1226              		.loc 1 272 0 is_stmt 0 discriminator 1
 1227 0030 FF23     		movs	r3, #255
 1228 0032 FB80     		strh	r3, [r7, #6]	@ movhi
 1229              	.L66:
 273:.\main.c      ****         if(nRotate<0){
 1230              		.loc 1 273 0 is_stmt 1
 1231 0034 B7F90630 		ldrsh	r3, [r7, #6]
 1232 0038 002B     		cmp	r3, #0
 1233 003a 07DA     		bge	.L67
 274:.\main.c      ****             CW_CCW_4_Write(0);           
 1234              		.loc 1 274 0
 1235 003c 0020     		movs	r0, #0
 1236 003e FFF7FEFF 		bl	CW_CCW_4_Write
 275:.\main.c      ****             nPwm = -nRotate;
 1237              		.loc 1 275 0
 1238 0042 FB88     		ldrh	r3, [r7, #6]
 1239 0044 5B42     		negs	r3, r3
 1240 0046 9BB2     		uxth	r3, r3
 1241 0048 FB81     		strh	r3, [r7, #14]	@ movhi
 1242 004a 04E0     		b	.L64
 1243              	.L67:
 276:.\main.c      ****         }else{
 277:.\main.c      ****             CW_CCW_4_Write(1);           
 1244              		.loc 1 277 0
 1245 004c 0120     		movs	r0, #1
 1246 004e FFF7FEFF 		bl	CW_CCW_4_Write
 278:.\main.c      ****             nPwm = nRotate;
 1247              		.loc 1 278 0
 1248 0052 FB88     		ldrh	r3, [r7, #6]	@ movhi
 1249 0054 FB81     		strh	r3, [r7, #14]	@ movhi
 1250              	.L64:
 279:.\main.c      ****         }    
 280:.\main.c      ****     }
 281:.\main.c      ****     VDAC8_4_SetValue(nPwm);
 1251              		.loc 1 281 0
 1252 0056 FB89     		ldrh	r3, [r7, #14]	@ movhi
ARM GAS  C:\Users\dskyNote\AppData\Local\Temp\ccT2SVus.s 			page 28


 1253 0058 DBB2     		uxtb	r3, r3
 1254 005a 1846     		mov	r0, r3
 1255 005c FFF7FEFF 		bl	VDAC8_4_SetValue
 282:.\main.c      **** }
 1256              		.loc 1 282 0
 1257 0060 1037     		adds	r7, r7, #16
 1258 0062 BD46     		mov	sp, r7
 1259              		@ sp needed
 1260 0064 80BD     		pop	{r7, pc}
 1261              		.cfi_endproc
 1262              	.LFE66:
 1263              		.size	LeftRearMotor, .-LeftRearMotor
 1264              		.global	__aeabi_ui2f
 1265 0066 00BF     		.section	.text.configPSoC,"ax",%progbits
 1266              		.align	2
 1267              		.global	configPSoC
 1268              		.thumb
 1269              		.thumb_func
 1270              		.type	configPSoC, %function
 1271              	configPSoC:
 1272              	.LFB67:
 283:.\main.c      **** 
 284:.\main.c      **** void configPSoC(){
 1273              		.loc 1 284 0
 1274              		.cfi_startproc
 1275              		@ args = 0, pretend = 0, frame = 0
 1276              		@ frame_needed = 1, uses_anonymous_args = 0
 1277 0000 80B5     		push	{r7, lr}
 1278              		.cfi_def_cfa_offset 8
 1279              		.cfi_offset 7, -8
 1280              		.cfi_offset 14, -4
 1281 0002 00AF     		add	r7, sp, #0
 1282              		.cfi_def_cfa_register 7
 285:.\main.c      ****     PI();  
 1283              		.loc 1 285 0
 1284 0004 FFF7FEFF 		bl	PI
 286:.\main.c      ****     CyDelay(3000);
 1285              		.loc 1 286 0
 1286 0008 40F6B830 		movw	r0, #3000
 1287 000c FFF7FEFF 		bl	CyDelay
 287:.\main.c      ****     
 288:.\main.c      ****     /*I2C*/
 289:.\main.c      ****     I2C_2_Start();
 1288              		.loc 1 289 0
 1289 0010 FFF7FEFF 		bl	I2C_2_Start
 290:.\main.c      ****     I2C_1_Start();
 1290              		.loc 1 290 0
 1291 0014 FFF7FEFF 		bl	I2C_1_Start
 291:.\main.c      ****     I2C_1_Enable();
 1292              		.loc 1 291 0
 1293 0018 FFF7FEFF 		bl	I2C_1_Enable
 292:.\main.c      ****     Enable2_Write(1);
 1294              		.loc 1 292 0
 1295 001c 0120     		movs	r0, #1
 1296 001e FFF7FEFF 		bl	Enable2_Write
 293:.\main.c      ****     PI();  
 1297              		.loc 1 293 0
ARM GAS  C:\Users\dskyNote\AppData\Local\Temp\ccT2SVus.s 			page 29


 1298 0022 FFF7FEFF 		bl	PI
 294:.\main.c      ****     CyDelay(300);
 1299              		.loc 1 294 0
 1300 0026 4FF49670 		mov	r0, #300
 1301 002a FFF7FEFF 		bl	CyDelay
 295:.\main.c      **** 
 296:.\main.c      **** 
 297:.\main.c      ****     /*interrupt*/
 298:.\main.c      ****     isr_1_StartEx((cyisraddress)myHandler);
 1302              		.loc 1 298 0
 1303 002e 3648     		ldr	r0, .L75
 1304 0030 FFF7FEFF 		bl	isr_1_StartEx
 299:.\main.c      ****     isr_1_Enable();    
 1305              		.loc 1 299 0
 1306 0034 FFF7FEFF 		bl	isr_1_Enable
 300:.\main.c      ****     
 301:.\main.c      ****     isr_2_StartEx((cyisraddress)myHandler2);
 1307              		.loc 1 301 0
 1308 0038 3448     		ldr	r0, .L75+4
 1309 003a FFF7FEFF 		bl	isr_2_StartEx
 302:.\main.c      ****     isr_2_Enable();
 1310              		.loc 1 302 0
 1311 003e FFF7FEFF 		bl	isr_2_Enable
 303:.\main.c      ****     
 304:.\main.c      ****     timer1_StartEx((cyisraddress)mytimer1);
 1312              		.loc 1 304 0
 1313 0042 3348     		ldr	r0, .L75+8
 1314 0044 FFF7FEFF 		bl	timer1_StartEx
 305:.\main.c      ****     timer1_Enable();
 1315              		.loc 1 305 0
 1316 0048 FFF7FEFF 		bl	timer1_Enable
 306:.\main.c      ****     PI();  
 1317              		.loc 1 306 0
 1318 004c FFF7FEFF 		bl	PI
 307:.\main.c      ****     CYGlobalIntEnable;
 1319              		.loc 1 307 0
 1320              	@ 307 ".\main.c" 1
 1321 0050 62B6     		CPSIE   i
 1322              	@ 0 "" 2
 308:.\main.c      ****         
 309:.\main.c      ****             /*uart*/
 310:.\main.c      ****     UART_1_Start();
 1323              		.loc 1 310 0
 1324              		.thumb
 1325 0052 FFF7FEFF 		bl	UART_1_Start
 311:.\main.c      ****     UART_1_EnableRxInt();
 1326              		.loc 1 311 0
 1327 0056 FFF7FEFF 		bl	UART_1_EnableRxInt
 312:.\main.c      ****     
 313:.\main.c      ****     UART_2_Start();
 1328              		.loc 1 313 0
 1329 005a FFF7FEFF 		bl	UART_2_Start
 314:.\main.c      ****     //UART_2_EnableRxInt();
 315:.\main.c      **** 
 316:.\main.c      ****     VDAC8_1_Start();
 1330              		.loc 1 316 0
 1331 005e FFF7FEFF 		bl	VDAC8_1_Start
ARM GAS  C:\Users\dskyNote\AppData\Local\Temp\ccT2SVus.s 			page 30


 317:.\main.c      ****     VDAC8_1_SetValue(0u);
 1332              		.loc 1 317 0
 1333 0062 0020     		movs	r0, #0
 1334 0064 FFF7FEFF 		bl	VDAC8_1_SetValue
 318:.\main.c      ****     VDAC8_2_Start();
 1335              		.loc 1 318 0
 1336 0068 FFF7FEFF 		bl	VDAC8_2_Start
 319:.\main.c      ****     VDAC8_2_SetValue(0u);
 1337              		.loc 1 319 0
 1338 006c 0020     		movs	r0, #0
 1339 006e FFF7FEFF 		bl	VDAC8_2_SetValue
 320:.\main.c      ****     VDAC8_3_Start();
 1340              		.loc 1 320 0
 1341 0072 FFF7FEFF 		bl	VDAC8_3_Start
 321:.\main.c      ****     VDAC8_3_SetValue(0u);
 1342              		.loc 1 321 0
 1343 0076 0020     		movs	r0, #0
 1344 0078 FFF7FEFF 		bl	VDAC8_3_SetValue
 322:.\main.c      ****     VDAC8_4_Start();
 1345              		.loc 1 322 0
 1346 007c FFF7FEFF 		bl	VDAC8_4_Start
 323:.\main.c      ****     VDAC8_4_SetValue(0u);
 1347              		.loc 1 323 0
 1348 0080 0020     		movs	r0, #0
 1349 0082 FFF7FEFF 		bl	VDAC8_4_SetValue
 324:.\main.c      **** 
 325:.\main.c      ****     RUN_BRAKE_1_Write(1);
 1350              		.loc 1 325 0
 1351 0086 0120     		movs	r0, #1
 1352 0088 FFF7FEFF 		bl	RUN_BRAKE_1_Write
 326:.\main.c      ****     RUN_BRAKE_2_Write(1);
 1353              		.loc 1 326 0
 1354 008c 0120     		movs	r0, #1
 1355 008e FFF7FEFF 		bl	RUN_BRAKE_2_Write
 327:.\main.c      ****     RUN_BRAKE_3_Write(1);
 1356              		.loc 1 327 0
 1357 0092 0120     		movs	r0, #1
 1358 0094 FFF7FEFF 		bl	RUN_BRAKE_3_Write
 328:.\main.c      ****     RUN_BRAKE_4_Write(1);
 1359              		.loc 1 328 0
 1360 0098 0120     		movs	r0, #1
 1361 009a FFF7FEFF 		bl	RUN_BRAKE_4_Write
 329:.\main.c      ****         
 330:.\main.c      ****      
 331:.\main.c      ****     if(astic[1]==0){astic[1] = 0x40;}else{
 1362              		.loc 1 331 0
 1363 009e 1D4B     		ldr	r3, .L75+12
 1364 00a0 5B78     		ldrb	r3, [r3, #1]	@ zero_extendqisi2
 1365 00a2 002B     		cmp	r3, #0
 1366 00a4 03D1     		bne	.L69
 1367              		.loc 1 331 0 is_stmt 0 discriminator 1
 1368 00a6 1B4B     		ldr	r3, .L75+12
 1369 00a8 4022     		movs	r2, #64
 1370 00aa 5A70     		strb	r2, [r3, #1]
 1371 00ac 07E0     		b	.L70
 1372              	.L69:
 332:.\main.c      ****         nFR = astic[1];
ARM GAS  C:\Users\dskyNote\AppData\Local\Temp\ccT2SVus.s 			page 31


 1373              		.loc 1 332 0 is_stmt 1
 1374 00ae 194B     		ldr	r3, .L75+12
 1375 00b0 5B78     		ldrb	r3, [r3, #1]	@ zero_extendqisi2
 1376 00b2 1846     		mov	r0, r3
 1377 00b4 FFF7FEFF 		bl	__aeabi_ui2f
 1378 00b8 0246     		mov	r2, r0
 1379 00ba 174B     		ldr	r3, .L75+16
 1380 00bc 1A60     		str	r2, [r3]	@ float
 1381              	.L70:
 333:.\main.c      ****     }
 334:.\main.c      ****     if(astic[0]==0){astic[0] = 0x40;}else{
 1382              		.loc 1 334 0
 1383 00be 154B     		ldr	r3, .L75+12
 1384 00c0 1B78     		ldrb	r3, [r3]	@ zero_extendqisi2
 1385 00c2 002B     		cmp	r3, #0
 1386 00c4 03D1     		bne	.L71
 1387              		.loc 1 334 0 is_stmt 0 discriminator 1
 1388 00c6 134B     		ldr	r3, .L75+12
 1389 00c8 4022     		movs	r2, #64
 1390 00ca 1A70     		strb	r2, [r3]
 1391 00cc 07E0     		b	.L72
 1392              	.L71:
 335:.\main.c      ****         nRL = astic[0];
 1393              		.loc 1 335 0 is_stmt 1
 1394 00ce 114B     		ldr	r3, .L75+12
 1395 00d0 1B78     		ldrb	r3, [r3]	@ zero_extendqisi2
 1396 00d2 1846     		mov	r0, r3
 1397 00d4 FFF7FEFF 		bl	__aeabi_ui2f
 1398 00d8 0246     		mov	r2, r0
 1399 00da 104B     		ldr	r3, .L75+20
 1400 00dc 1A60     		str	r2, [r3]	@ float
 1401              	.L72:
 336:.\main.c      ****     }
 337:.\main.c      ****     if(astic[2]==0){astic[2] = 0x40;}else{
 1402              		.loc 1 337 0
 1403 00de 0D4B     		ldr	r3, .L75+12
 1404 00e0 9B78     		ldrb	r3, [r3, #2]	@ zero_extendqisi2
 1405 00e2 002B     		cmp	r3, #0
 1406 00e4 03D1     		bne	.L73
 1407              		.loc 1 337 0 is_stmt 0 discriminator 1
 1408 00e6 0B4B     		ldr	r3, .L75+12
 1409 00e8 4022     		movs	r2, #64
 1410 00ea 9A70     		strb	r2, [r3, #2]
 1411 00ec 07E0     		b	.L74
 1412              	.L73:
 338:.\main.c      ****         nRotate = astic[2];
 1413              		.loc 1 338 0 is_stmt 1
 1414 00ee 094B     		ldr	r3, .L75+12
 1415 00f0 9B78     		ldrb	r3, [r3, #2]	@ zero_extendqisi2
 1416 00f2 1846     		mov	r0, r3
 1417 00f4 FFF7FEFF 		bl	__aeabi_ui2f
 1418 00f8 0246     		mov	r2, r0
 1419 00fa 094B     		ldr	r3, .L75+24
 1420 00fc 1A60     		str	r2, [r3]	@ float
 1421              	.L74:
 339:.\main.c      ****     }
 340:.\main.c      ****     nFR=0x40;
ARM GAS  C:\Users\dskyNote\AppData\Local\Temp\ccT2SVus.s 			page 32


 1422              		.loc 1 340 0
 1423 00fe 064B     		ldr	r3, .L75+16
 1424 0100 4FF08542 		mov	r2, #1115684864
 1425 0104 1A60     		str	r2, [r3]	@ float
 341:.\main.c      **** }
 1426              		.loc 1 341 0
 1427 0106 80BD     		pop	{r7, pc}
 1428              	.L76:
 1429              		.align	2
 1430              	.L75:
 1431 0108 00000000 		.word	myHandler
 1432 010c 00000000 		.word	myHandler2
 1433 0110 00000000 		.word	mytimer1
 1434 0114 00000000 		.word	astic
 1435 0118 00000000 		.word	nFR
 1436 011c 00000000 		.word	nRL
 1437 0120 00000000 		.word	nRotate
 1438              		.cfi_endproc
 1439              	.LFE67:
 1440              		.size	configPSoC, .-configPSoC
 1441              		.global	__aeabi_f2d
 1442              		.global	__aeabi_dmul
 1443              		.global	__aeabi_i2d
 1444              		.global	__aeabi_dadd
 1445              		.global	__aeabi_dsub
 1446              		.global	__aeabi_d2f
 1447              		.section	.text.CalcRLRotate,"ax",%progbits
 1448              		.align	2
 1449              		.global	CalcRLRotate
 1450              		.thumb
 1451              		.thumb_func
 1452              		.type	CalcRLRotate, %function
 1453              	CalcRLRotate:
 1454              	.LFB68:
 342:.\main.c      **** void CalcRLRotate(){
 1455              		.loc 1 342 0
 1456              		.cfi_startproc
 1457              		@ args = 0, pretend = 0, frame = 0
 1458              		@ frame_needed = 1, uses_anonymous_args = 0
 1459 0000 B0B5     		push	{r4, r5, r7, lr}
 1460              		.cfi_def_cfa_offset 16
 1461              		.cfi_offset 4, -16
 1462              		.cfi_offset 5, -12
 1463              		.cfi_offset 7, -8
 1464              		.cfi_offset 14, -4
 1465 0002 00AF     		add	r7, sp, #0
 1466              		.cfi_def_cfa_register 7
 343:.\main.c      ****     dx[1]=dx[0];
 1467              		.loc 1 343 0
 1468 0004 4E4B     		ldr	r3, .L78+16
 1469 0006 1A88     		ldrh	r2, [r3]
 1470 0008 4D4B     		ldr	r3, .L78+16
 1471 000a 5A80     		strh	r2, [r3, #2]	@ movhi
 344:.\main.c      ****     dx[0]=( LineSensor[LineFront]-LineSensor[LineRear]);
 1472              		.loc 1 344 0
 1473 000c 4D4B     		ldr	r3, .L78+20
 1474 000e 1B78     		ldrb	r3, [r3]	@ zero_extendqisi2
ARM GAS  C:\Users\dskyNote\AppData\Local\Temp\ccT2SVus.s 			page 33


 1475 0010 1A46     		mov	r2, r3
 1476 0012 4C4B     		ldr	r3, .L78+20
 1477 0014 5B78     		ldrb	r3, [r3, #1]	@ zero_extendqisi2
 1478 0016 D31A     		subs	r3, r2, r3
 1479 0018 9BB2     		uxth	r3, r3
 1480 001a 9AB2     		uxth	r2, r3
 1481 001c 484B     		ldr	r3, .L78+16
 1482 001e 1A80     		strh	r2, [r3]	@ movhi
 345:.\main.c      ****     dvx=dx[0]-dx[1];
 1483              		.loc 1 345 0
 1484 0020 474B     		ldr	r3, .L78+16
 1485 0022 1B88     		ldrh	r3, [r3]
 1486 0024 9AB2     		uxth	r2, r3
 1487 0026 464B     		ldr	r3, .L78+16
 1488 0028 5B88     		ldrh	r3, [r3, #2]
 1489 002a 9BB2     		uxth	r3, r3
 1490 002c D31A     		subs	r3, r2, r3
 1491 002e 9BB2     		uxth	r3, r3
 1492 0030 9AB2     		uxth	r2, r3
 1493 0032 454B     		ldr	r3, .L78+24
 1494 0034 1A80     		strh	r2, [r3]	@ movhi
 346:.\main.c      ****     nRL = 0x40 + Kp*0.9*dx[0] -OffSetRL;//- 1.8*kd*dvx;   
 1495              		.loc 1 346 0
 1496 0036 454B     		ldr	r3, .L78+28
 1497 0038 1B68     		ldr	r3, [r3]	@ float
 1498 003a 1846     		mov	r0, r3
 1499 003c FFF7FEFF 		bl	__aeabi_f2d
 1500 0040 0246     		mov	r2, r0
 1501 0042 0B46     		mov	r3, r1
 1502 0044 1046     		mov	r0, r2
 1503 0046 1946     		mov	r1, r3
 1504 0048 39A3     		adr	r3, .L78
 1505 004a D3E90023 		ldrd	r2, [r3]
 1506 004e FFF7FEFF 		bl	__aeabi_dmul
 1507 0052 0246     		mov	r2, r0
 1508 0054 0B46     		mov	r3, r1
 1509 0056 1446     		mov	r4, r2
 1510 0058 1D46     		mov	r5, r3
 1511 005a 394B     		ldr	r3, .L78+16
 1512 005c 1B88     		ldrh	r3, [r3]
 1513 005e 1BB2     		sxth	r3, r3
 1514 0060 1846     		mov	r0, r3
 1515 0062 FFF7FEFF 		bl	__aeabi_i2d
 1516 0066 0246     		mov	r2, r0
 1517 0068 0B46     		mov	r3, r1
 1518 006a 2046     		mov	r0, r4
 1519 006c 2946     		mov	r1, r5
 1520 006e FFF7FEFF 		bl	__aeabi_dmul
 1521 0072 0246     		mov	r2, r0
 1522 0074 0B46     		mov	r3, r1
 1523 0076 1046     		mov	r0, r2
 1524 0078 1946     		mov	r1, r3
 1525 007a 4FF00002 		mov	r2, #0
 1526 007e 344B     		ldr	r3, .L78+32
 1527 0080 FFF7FEFF 		bl	__aeabi_dadd
 1528 0084 0246     		mov	r2, r0
 1529 0086 0B46     		mov	r3, r1
ARM GAS  C:\Users\dskyNote\AppData\Local\Temp\ccT2SVus.s 			page 34


 1530 0088 1446     		mov	r4, r2
 1531 008a 1D46     		mov	r5, r3
 1532 008c 314B     		ldr	r3, .L78+36
 1533 008e 1B78     		ldrb	r3, [r3]	@ zero_extendqisi2
 1534 0090 5BB2     		sxtb	r3, r3
 1535 0092 1846     		mov	r0, r3
 1536 0094 FFF7FEFF 		bl	__aeabi_i2d
 1537 0098 0246     		mov	r2, r0
 1538 009a 0B46     		mov	r3, r1
 1539 009c 2046     		mov	r0, r4
 1540 009e 2946     		mov	r1, r5
 1541 00a0 FFF7FEFF 		bl	__aeabi_dsub
 1542 00a4 0246     		mov	r2, r0
 1543 00a6 0B46     		mov	r3, r1
 1544 00a8 1046     		mov	r0, r2
 1545 00aa 1946     		mov	r1, r3
 1546 00ac FFF7FEFF 		bl	__aeabi_d2f
 1547 00b0 0246     		mov	r2, r0
 1548 00b2 294B     		ldr	r3, .L78+40
 1549 00b4 1A60     		str	r2, [r3]	@ float
 347:.\main.c      ****     nRotate = 0x40 + Kp*0.8*( LineSensor[LineFront]+LineSensor[LineRear]-126-OffSetRotate );
 1550              		.loc 1 347 0
 1551 00b6 254B     		ldr	r3, .L78+28
 1552 00b8 1B68     		ldr	r3, [r3]	@ float
 1553 00ba 1846     		mov	r0, r3
 1554 00bc FFF7FEFF 		bl	__aeabi_f2d
 1555 00c0 0246     		mov	r2, r0
 1556 00c2 0B46     		mov	r3, r1
 1557 00c4 1046     		mov	r0, r2
 1558 00c6 1946     		mov	r1, r3
 1559 00c8 1BA3     		adr	r3, .L78+8
 1560 00ca D3E90023 		ldrd	r2, [r3]
 1561 00ce FFF7FEFF 		bl	__aeabi_dmul
 1562 00d2 0246     		mov	r2, r0
 1563 00d4 0B46     		mov	r3, r1
 1564 00d6 1446     		mov	r4, r2
 1565 00d8 1D46     		mov	r5, r3
 1566 00da 1A4B     		ldr	r3, .L78+20
 1567 00dc 1B78     		ldrb	r3, [r3]	@ zero_extendqisi2
 1568 00de 1A46     		mov	r2, r3
 1569 00e0 184B     		ldr	r3, .L78+20
 1570 00e2 5B78     		ldrb	r3, [r3, #1]	@ zero_extendqisi2
 1571 00e4 1344     		add	r3, r3, r2
 1572 00e6 A3F17E02 		sub	r2, r3, #126
 1573 00ea 1C4B     		ldr	r3, .L78+44
 1574 00ec 1B78     		ldrb	r3, [r3]	@ zero_extendqisi2
 1575 00ee 5BB2     		sxtb	r3, r3
 1576 00f0 D31A     		subs	r3, r2, r3
 1577 00f2 1846     		mov	r0, r3
 1578 00f4 FFF7FEFF 		bl	__aeabi_i2d
 1579 00f8 0246     		mov	r2, r0
 1580 00fa 0B46     		mov	r3, r1
 1581 00fc 2046     		mov	r0, r4
 1582 00fe 2946     		mov	r1, r5
 1583 0100 FFF7FEFF 		bl	__aeabi_dmul
 1584 0104 0246     		mov	r2, r0
 1585 0106 0B46     		mov	r3, r1
ARM GAS  C:\Users\dskyNote\AppData\Local\Temp\ccT2SVus.s 			page 35


 1586 0108 1046     		mov	r0, r2
 1587 010a 1946     		mov	r1, r3
 1588 010c 4FF00002 		mov	r2, #0
 1589 0110 0F4B     		ldr	r3, .L78+32
 1590 0112 FFF7FEFF 		bl	__aeabi_dadd
 1591 0116 0246     		mov	r2, r0
 1592 0118 0B46     		mov	r3, r1
 1593 011a 1046     		mov	r0, r2
 1594 011c 1946     		mov	r1, r3
 1595 011e FFF7FEFF 		bl	__aeabi_d2f
 1596 0122 0246     		mov	r2, r0
 1597 0124 0E4B     		ldr	r3, .L78+48
 1598 0126 1A60     		str	r2, [r3]	@ float
 348:.\main.c      **** }
 1599              		.loc 1 348 0
 1600 0128 B0BD     		pop	{r4, r5, r7, pc}
 1601              	.L79:
 1602 012a 00BFAFF3 		.align	3
 1602      0080
 1603              	.L78:
 1604 0130 CDCCCCCC 		.word	-858993459
 1605 0134 CCCCEC3F 		.word	1072483532
 1606 0138 9A999999 		.word	-1717986918
 1607 013c 9999E93F 		.word	1072273817
 1608 0140 00000000 		.word	dx
 1609 0144 00000000 		.word	LineSensor
 1610 0148 00000000 		.word	dvx
 1611 014c 00000000 		.word	Kp
 1612 0150 00005040 		.word	1078984704
 1613 0154 00000000 		.word	OffSetRL
 1614 0158 00000000 		.word	nRL
 1615 015c 00000000 		.word	OffSetRotate
 1616 0160 00000000 		.word	nRotate
 1617              		.cfi_endproc
 1618              	.LFE68:
 1619              		.size	CalcRLRotate, .-CalcRLRotate
 1620              		.global	__aeabi_i2f
 1621              		.global	__aeabi_fmul
 1622 0164 AFF30080 		.section	.text.AcceleratingFR,"ax",%progbits
 1623              		.align	2
 1624              		.global	AcceleratingFR
 1625              		.thumb
 1626              		.thumb_func
 1627              		.type	AcceleratingFR, %function
 1628              	AcceleratingFR:
 1629              	.LFB69:
 349:.\main.c      **** void AcceleratingFR(int16 maxSpeed,float pitch){//pitch:0-1
 1630              		.loc 1 349 0
 1631              		.cfi_startproc
 1632              		@ args = 0, pretend = 0, frame = 8
 1633              		@ frame_needed = 1, uses_anonymous_args = 0
 1634 0000 80B5     		push	{r7, lr}
 1635              		.cfi_def_cfa_offset 8
 1636              		.cfi_offset 7, -8
 1637              		.cfi_offset 14, -4
 1638 0002 82B0     		sub	sp, sp, #8
 1639              		.cfi_def_cfa_offset 16
ARM GAS  C:\Users\dskyNote\AppData\Local\Temp\ccT2SVus.s 			page 36


 1640 0004 00AF     		add	r7, sp, #0
 1641              		.cfi_def_cfa_register 7
 1642 0006 0346     		mov	r3, r0
 1643 0008 3960     		str	r1, [r7]	@ float
 1644 000a FB80     		strh	r3, [r7, #6]	@ movhi
 350:.\main.c      ****     nFR=(maxSpeed-nFR)*pitch+nFR;
 1645              		.loc 1 350 0
 1646 000c B7F90630 		ldrsh	r3, [r7, #6]
 1647 0010 1846     		mov	r0, r3
 1648 0012 FFF7FEFF 		bl	__aeabi_i2f
 1649 0016 0246     		mov	r2, r0
 1650 0018 0C4B     		ldr	r3, .L81
 1651 001a 1B68     		ldr	r3, [r3]	@ float
 1652 001c 1046     		mov	r0, r2
 1653 001e 1946     		mov	r1, r3
 1654 0020 FFF7FEFF 		bl	__aeabi_fsub
 1655 0024 0346     		mov	r3, r0
 1656 0026 1846     		mov	r0, r3
 1657 0028 3968     		ldr	r1, [r7]	@ float
 1658 002a FFF7FEFF 		bl	__aeabi_fmul
 1659 002e 0346     		mov	r3, r0
 1660 0030 1A46     		mov	r2, r3
 1661 0032 064B     		ldr	r3, .L81
 1662 0034 1B68     		ldr	r3, [r3]	@ float
 1663 0036 1046     		mov	r0, r2
 1664 0038 1946     		mov	r1, r3
 1665 003a FFF7FEFF 		bl	__aeabi_fadd
 1666 003e 0346     		mov	r3, r0
 1667 0040 1A46     		mov	r2, r3
 1668 0042 024B     		ldr	r3, .L81
 1669 0044 1A60     		str	r2, [r3]	@ float
 351:.\main.c      **** }
 1670              		.loc 1 351 0
 1671 0046 0837     		adds	r7, r7, #8
 1672 0048 BD46     		mov	sp, r7
 1673              		@ sp needed
 1674 004a 80BD     		pop	{r7, pc}
 1675              	.L82:
 1676              		.align	2
 1677              	.L81:
 1678 004c 00000000 		.word	nFR
 1679              		.cfi_endproc
 1680              	.LFE69:
 1681              		.size	AcceleratingFR, .-AcceleratingFR
 1682              		.section	.text.AcceleratingRL,"ax",%progbits
 1683              		.align	2
 1684              		.global	AcceleratingRL
 1685              		.thumb
 1686              		.thumb_func
 1687              		.type	AcceleratingRL, %function
 1688              	AcceleratingRL:
 1689              	.LFB70:
 352:.\main.c      **** void AcceleratingRL(int16 maxSpeed,float pitch){//pitch:0-1
 1690              		.loc 1 352 0
 1691              		.cfi_startproc
 1692              		@ args = 0, pretend = 0, frame = 8
 1693              		@ frame_needed = 1, uses_anonymous_args = 0
ARM GAS  C:\Users\dskyNote\AppData\Local\Temp\ccT2SVus.s 			page 37


 1694 0000 80B5     		push	{r7, lr}
 1695              		.cfi_def_cfa_offset 8
 1696              		.cfi_offset 7, -8
 1697              		.cfi_offset 14, -4
 1698 0002 82B0     		sub	sp, sp, #8
 1699              		.cfi_def_cfa_offset 16
 1700 0004 00AF     		add	r7, sp, #0
 1701              		.cfi_def_cfa_register 7
 1702 0006 0346     		mov	r3, r0
 1703 0008 3960     		str	r1, [r7]	@ float
 1704 000a FB80     		strh	r3, [r7, #6]	@ movhi
 353:.\main.c      ****     nRL=(maxSpeed-nRL)*pitch+nRL;
 1705              		.loc 1 353 0
 1706 000c B7F90630 		ldrsh	r3, [r7, #6]
 1707 0010 1846     		mov	r0, r3
 1708 0012 FFF7FEFF 		bl	__aeabi_i2f
 1709 0016 0246     		mov	r2, r0
 1710 0018 0C4B     		ldr	r3, .L84
 1711 001a 1B68     		ldr	r3, [r3]	@ float
 1712 001c 1046     		mov	r0, r2
 1713 001e 1946     		mov	r1, r3
 1714 0020 FFF7FEFF 		bl	__aeabi_fsub
 1715 0024 0346     		mov	r3, r0
 1716 0026 1846     		mov	r0, r3
 1717 0028 3968     		ldr	r1, [r7]	@ float
 1718 002a FFF7FEFF 		bl	__aeabi_fmul
 1719 002e 0346     		mov	r3, r0
 1720 0030 1A46     		mov	r2, r3
 1721 0032 064B     		ldr	r3, .L84
 1722 0034 1B68     		ldr	r3, [r3]	@ float
 1723 0036 1046     		mov	r0, r2
 1724 0038 1946     		mov	r1, r3
 1725 003a FFF7FEFF 		bl	__aeabi_fadd
 1726 003e 0346     		mov	r3, r0
 1727 0040 1A46     		mov	r2, r3
 1728 0042 024B     		ldr	r3, .L84
 1729 0044 1A60     		str	r2, [r3]	@ float
 354:.\main.c      ****     //nRL=0x50;
 355:.\main.c      **** }
 1730              		.loc 1 355 0
 1731 0046 0837     		adds	r7, r7, #8
 1732 0048 BD46     		mov	sp, r7
 1733              		@ sp needed
 1734 004a 80BD     		pop	{r7, pc}
 1735              	.L85:
 1736              		.align	2
 1737              	.L84:
 1738 004c 00000000 		.word	nRL
 1739              		.cfi_endproc
 1740              	.LFE70:
 1741              		.size	AcceleratingRL, .-AcceleratingRL
 1742              		.global	__aeabi_fcmpeq
 1743              		.section	.text.Core,"ax",%progbits
 1744              		.align	2
 1745              		.global	Core
 1746              		.thumb
 1747              		.thumb_func
ARM GAS  C:\Users\dskyNote\AppData\Local\Temp\ccT2SVus.s 			page 38


 1748              		.type	Core, %function
 1749              	Core:
 1750              	.LFB71:
 356:.\main.c      **** 
 357:.\main.c      **** 
 358:.\main.c      **** void Core(void){
 1751              		.loc 1 358 0
 1752              		.cfi_startproc
 1753              		@ args = 0, pretend = 0, frame = 0
 1754              		@ frame_needed = 1, uses_anonymous_args = 0
 1755 0000 80B5     		push	{r7, lr}
 1756              		.cfi_def_cfa_offset 8
 1757              		.cfi_offset 7, -8
 1758              		.cfi_offset 14, -4
 1759 0002 00AF     		add	r7, sp, #0
 1760              		.cfi_def_cfa_register 7
 359:.\main.c      ****     if(EnabelPS3==1){/*BluetoothMode*/
 1761              		.loc 1 359 0
 1762 0004 A54B     		ldr	r3, .L130
 1763 0006 1B78     		ldrb	r3, [r3]	@ zero_extendqisi2
 1764 0008 5BB2     		sxtb	r3, r3
 1765 000a 012B     		cmp	r3, #1
 1766 000c 1FD1     		bne	.L87
 360:.\main.c      **** //    if(1){/*BluetoothMode*/
 361:.\main.c      ****     flgException=1;
 1767              		.loc 1 361 0
 1768 000e A44B     		ldr	r3, .L130+4
 1769 0010 0122     		movs	r2, #1
 1770 0012 1A70     		strb	r2, [r3]
 362:.\main.c      ****         B_LED_ON();     
 1771              		.loc 1 362 0
 1772 0014 FFF7FEFF 		bl	B_LED_ON
 363:.\main.c      ****         nRL = astic[0];   
 1773              		.loc 1 363 0
 1774 0018 A24B     		ldr	r3, .L130+8
 1775 001a 1B78     		ldrb	r3, [r3]	@ zero_extendqisi2
 1776 001c 1846     		mov	r0, r3
 1777 001e FFF7FEFF 		bl	__aeabi_ui2f
 1778 0022 0246     		mov	r2, r0
 1779 0024 A04B     		ldr	r3, .L130+12
 1780 0026 1A60     		str	r2, [r3]	@ float
 364:.\main.c      ****         nFR = astic[1];
 1781              		.loc 1 364 0
 1782 0028 9E4B     		ldr	r3, .L130+8
 1783 002a 5B78     		ldrb	r3, [r3, #1]	@ zero_extendqisi2
 1784 002c 1846     		mov	r0, r3
 1785 002e FFF7FEFF 		bl	__aeabi_ui2f
 1786 0032 0246     		mov	r2, r0
 1787 0034 9D4B     		ldr	r3, .L130+16
 1788 0036 1A60     		str	r2, [r3]	@ float
 365:.\main.c      ****         nRotate = astic[2];
 1789              		.loc 1 365 0
 1790 0038 9A4B     		ldr	r3, .L130+8
 1791 003a 9B78     		ldrb	r3, [r3, #2]	@ zero_extendqisi2
 1792 003c 1846     		mov	r0, r3
 1793 003e FFF7FEFF 		bl	__aeabi_ui2f
 1794 0042 0246     		mov	r2, r0
ARM GAS  C:\Users\dskyNote\AppData\Local\Temp\ccT2SVus.s 			page 39


 1795 0044 9A4B     		ldr	r3, .L130+20
 1796 0046 1A60     		str	r2, [r3]	@ float
 366:.\main.c      ****         CalMotorSpeed();
 1797              		.loc 1 366 0
 1798 0048 FFF7FEFF 		bl	CalMotorSpeed
 1799 004c 0CE2     		b	.L86
 1800              	.L87:
 367:.\main.c      ****     }else{
 368:.\main.c      ****   //      flgException=0;
 369:.\main.c      ****         B_LED_OFF();
 1801              		.loc 1 369 0
 1802 004e FFF7FEFF 		bl	B_LED_OFF
 370:.\main.c      **** 
 371:.\main.c      ****         if(flgZigBeeMode==1){//ZigBeeMode
 1803              		.loc 1 371 0
 1804 0052 984B     		ldr	r3, .L130+24
 1805 0054 1B78     		ldrb	r3, [r3]	@ zero_extendqisi2
 1806 0056 012B     		cmp	r3, #1
 1807 0058 40F04681 		bne	.L89
 372:.\main.c      ****             switch(ZigBeeModeStage){
 1808              		.loc 1 372 0
 1809 005c 964B     		ldr	r3, .L130+28
 1810 005e 1B78     		ldrb	r3, [r3]	@ zero_extendqisi2
 1811 0060 052B     		cmp	r3, #5
 1812 0062 00F20182 		bhi	.L86
 1813 0066 01A2     		adr	r2, .L92
 1814 0068 52F823F0 		ldr	pc, [r2, r3, lsl #2]
 1815              		.p2align 2
 1816              	.L92:
 1817 006c 85000000 		.word	.L91+1
 1818 0070 E3000000 		.word	.L93+1
 1819 0074 11010000 		.word	.L94+1
 1820 0078 73010000 		.word	.L95+1
 1821 007c C1010000 		.word	.L96+1
 1822 0080 4F020000 		.word	.L97+1
 1823              		.p2align 1
 1824              	.L91:
 373:.\main.c      ****                 case 0:
 374:.\main.c      ****                     if(RFID[8]==0){
 1825              		.loc 1 374 0
 1826 0084 8D4B     		ldr	r3, .L130+32
 1827 0086 1B7A     		ldrb	r3, [r3, #8]	@ zero_extendqisi2
 1828 0088 002B     		cmp	r3, #0
 1829 008a 10D1     		bne	.L98
 375:.\main.c      ****                         CalcRLRotate();
 1830              		.loc 1 375 0
 1831 008c FFF7FEFF 		bl	CalcRLRotate
 376:.\main.c      ****                         AcceleratingFR(0x40+DirectionFR,0.1);
 1832              		.loc 1 376 0
 1833 0090 8B4B     		ldr	r3, .L130+36
 1834 0092 1B78     		ldrb	r3, [r3]	@ zero_extendqisi2
 1835 0094 5BB2     		sxtb	r3, r3
 1836 0096 9BB2     		uxth	r3, r3
 1837 0098 4033     		adds	r3, r3, #64
 1838 009a 9BB2     		uxth	r3, r3
 1839 009c 9BB2     		uxth	r3, r3
 1840 009e 1BB2     		sxth	r3, r3
ARM GAS  C:\Users\dskyNote\AppData\Local\Temp\ccT2SVus.s 			page 40


 1841 00a0 1846     		mov	r0, r3
 1842 00a2 8849     		ldr	r1, .L130+40
 1843 00a4 FFF7FEFF 		bl	AcceleratingFR
 377:.\main.c      ****                         CalMotorSpeed();                
 1844              		.loc 1 377 0
 1845 00a8 FFF7FEFF 		bl	CalMotorSpeed
 1846 00ac 18E0     		b	.L99
 1847              	.L98:
 378:.\main.c      ****                     }else{
 379:.\main.c      ****                         if(CheckRFID()){//caught & stop
 1848              		.loc 1 379 0
 1849 00ae FFF7FEFF 		bl	CheckRFID
 1850 00b2 0346     		mov	r3, r0
 1851 00b4 002B     		cmp	r3, #0
 1852 00b6 13D0     		beq	.L99
 380:.\main.c      ****                             //DirectionFR=0;
 381:.\main.c      ****                             R_LED_ON();
 1853              		.loc 1 381 0
 1854 00b8 FFF7FEFF 		bl	R_LED_ON
 382:.\main.c      ****                             flgCaught=1;
 1855              		.loc 1 382 0
 1856 00bc 824B     		ldr	r3, .L130+44
 1857 00be 0122     		movs	r2, #1
 1858 00c0 1A70     		strb	r2, [r3]
 383:.\main.c      ****                             CalcRLRotate();
 1859              		.loc 1 383 0
 1860 00c2 FFF7FEFF 		bl	CalcRLRotate
 384:.\main.c      ****                             nFR=0x40;
 1861              		.loc 1 384 0
 1862 00c6 794B     		ldr	r3, .L130+16
 1863 00c8 4FF08542 		mov	r2, #1115684864
 1864 00cc 1A60     		str	r2, [r3]	@ float
 385:.\main.c      ****                             //AcceleratingFR(0x40,1);
 386:.\main.c      ****                             CalMotorSpeed();
 1865              		.loc 1 386 0
 1866 00ce FFF7FEFF 		bl	CalMotorSpeed
 387:.\main.c      ****                             ZigBeeModeStage++;
 1867              		.loc 1 387 0
 1868 00d2 794B     		ldr	r3, .L130+28
 1869 00d4 1B78     		ldrb	r3, [r3]	@ zero_extendqisi2
 1870 00d6 0133     		adds	r3, r3, #1
 1871 00d8 DAB2     		uxtb	r2, r3
 1872 00da 774B     		ldr	r3, .L130+28
 1873 00dc 1A70     		strb	r2, [r3]
 388:.\main.c      ****                             
 389:.\main.c      ****                         }
 390:.\main.c      ****                     }
 391:.\main.c      ****                     break;
 1874              		.loc 1 391 0
 1875 00de DCE0     		b	.L90
 1876              	.L99:
 1877 00e0 DBE0     		b	.L90
 1878              	.L93:
 392:.\main.c      ****                     
 393:.\main.c      ****                 case 1:  //ZigBeeControl
 394:.\main.c      ****                     if(flgZigBeeReceived==1){
 1879              		.loc 1 394 0
ARM GAS  C:\Users\dskyNote\AppData\Local\Temp\ccT2SVus.s 			page 41


 1880 00e2 7A4B     		ldr	r3, .L130+48
 1881 00e4 1B78     		ldrb	r3, [r3]	@ zero_extendqisi2
 1882 00e6 012B     		cmp	r3, #1
 1883 00e8 11D1     		bne	.L100
 395:.\main.c      ****                         ZigBeeModeStage++;flgPIPI=1;
 1884              		.loc 1 395 0
 1885 00ea 734B     		ldr	r3, .L130+28
 1886 00ec 1B78     		ldrb	r3, [r3]	@ zero_extendqisi2
 1887 00ee 0133     		adds	r3, r3, #1
 1888 00f0 DAB2     		uxtb	r2, r3
 1889 00f2 714B     		ldr	r3, .L130+28
 1890 00f4 1A70     		strb	r2, [r3]
 1891 00f6 764B     		ldr	r3, .L130+52
 1892 00f8 0122     		movs	r2, #1
 1893 00fa 1A70     		strb	r2, [r3]
 396:.\main.c      ****                         flgZigBeeReceived=0;
 1894              		.loc 1 396 0
 1895 00fc 734B     		ldr	r3, .L130+48
 1896 00fe 0022     		movs	r2, #0
 1897 0100 1A70     		strb	r2, [r3]
 397:.\main.c      ****                         CatchRFID(ZigBeeMsg);
 1898              		.loc 1 397 0
 1899 0102 744B     		ldr	r3, .L130+56
 1900 0104 1B78     		ldrb	r3, [r3]	@ zero_extendqisi2
 1901 0106 1846     		mov	r0, r3
 1902 0108 FFF7FEFF 		bl	CatchRFID
 398:.\main.c      ****                     }
 399:.\main.c      ****                     break;
 1903              		.loc 1 399 0
 1904 010c C5E0     		b	.L90
 1905              	.L100:
 1906 010e C4E0     		b	.L90
 1907              	.L94:
 400:.\main.c      ****                     
 401:.\main.c      ****                 case 2://go straight
 402:.\main.c      ****                     if(DirectionFR!=0){
 1908              		.loc 1 402 0
 1909 0110 6B4B     		ldr	r3, .L130+36
 1910 0112 1B78     		ldrb	r3, [r3]	@ zero_extendqisi2
 1911 0114 002B     		cmp	r3, #0
 1912 0116 24D0     		beq	.L101
 403:.\main.c      ****                         //CatchRFID(ZigBeeMsg);
 404:.\main.c      ****                         CalcRLRotate();nFR=0x40+DirectionFR;CalMotorSpeed();
 1913              		.loc 1 404 0
 1914 0118 FFF7FEFF 		bl	CalcRLRotate
 1915 011c 684B     		ldr	r3, .L130+36
 1916 011e 1B78     		ldrb	r3, [r3]	@ zero_extendqisi2
 1917 0120 5BB2     		sxtb	r3, r3
 1918 0122 4033     		adds	r3, r3, #64
 1919 0124 1846     		mov	r0, r3
 1920 0126 FFF7FEFF 		bl	__aeabi_i2f
 1921 012a 0246     		mov	r2, r0
 1922 012c 5F4B     		ldr	r3, .L130+16
 1923 012e 1A60     		str	r2, [r3]	@ float
 1924 0130 FFF7FEFF 		bl	CalMotorSpeed
 405:.\main.c      ****                         
 406:.\main.c      ****                         if(CheckRFID()){//catch
ARM GAS  C:\Users\dskyNote\AppData\Local\Temp\ccT2SVus.s 			page 42


 1925              		.loc 1 406 0
 1926 0134 FFF7FEFF 		bl	CheckRFID
 1927 0138 0346     		mov	r3, r0
 1928 013a 002B     		cmp	r3, #0
 1929 013c 18D0     		beq	.L103
 407:.\main.c      ****                             CalcRLRotate();nFR=0x40;CalMotorSpeed();flgCaught=1;ZigBeeModeStage--; 
 1930              		.loc 1 407 0
 1931 013e FFF7FEFF 		bl	CalcRLRotate
 1932 0142 5A4B     		ldr	r3, .L130+16
 1933 0144 4FF08542 		mov	r2, #1115684864
 1934 0148 1A60     		str	r2, [r3]	@ float
 1935 014a FFF7FEFF 		bl	CalMotorSpeed
 1936 014e 5E4B     		ldr	r3, .L130+44
 1937 0150 0122     		movs	r2, #1
 1938 0152 1A70     		strb	r2, [r3]
 1939 0154 584B     		ldr	r3, .L130+28
 1940 0156 1B78     		ldrb	r3, [r3]	@ zero_extendqisi2
 1941 0158 013B     		subs	r3, r3, #1
 1942 015a DAB2     		uxtb	r2, r3
 1943 015c 564B     		ldr	r3, .L130+28
 1944 015e 1A70     		strb	r2, [r3]
 408:.\main.c      ****                         }
 409:.\main.c      ****                         
 410:.\main.c      ****                     }else{
 411:.\main.c      ****                         //R_LED_ON();
 412:.\main.c      ****                         ZigBeeModeStage++;
 413:.\main.c      ****                     }
 414:.\main.c      ****                     break;
 1945              		.loc 1 414 0
 1946 0160 9BE0     		b	.L90
 1947              	.L101:
 412:.\main.c      ****                         ZigBeeModeStage++;
 1948              		.loc 1 412 0
 1949 0162 554B     		ldr	r3, .L130+28
 1950 0164 1B78     		ldrb	r3, [r3]	@ zero_extendqisi2
 1951 0166 0133     		adds	r3, r3, #1
 1952 0168 DAB2     		uxtb	r2, r3
 1953 016a 534B     		ldr	r3, .L130+28
 1954 016c 1A70     		strb	r2, [r3]
 1955              		.loc 1 414 0
 1956 016e 94E0     		b	.L90
 1957              	.L103:
 1958 0170 93E0     		b	.L90
 1959              	.L95:
 415:.\main.c      ****                     
 416:.\main.c      ****                 case 3://Slide jump
 417:.\main.c      ****                     if(LineSensor[LineFront]!=21 && LineSensor[LineRear]!=21){
 1960              		.loc 1 417 0
 1961 0172 594B     		ldr	r3, .L130+60
 1962 0174 1B78     		ldrb	r3, [r3]	@ zero_extendqisi2
 1963 0176 152B     		cmp	r3, #21
 1964 0178 1BD0     		beq	.L104
 1965              		.loc 1 417 0 is_stmt 0 discriminator 1
 1966 017a 574B     		ldr	r3, .L130+60
 1967 017c 5B78     		ldrb	r3, [r3, #1]	@ zero_extendqisi2
 1968 017e 152B     		cmp	r3, #21
 1969 0180 17D0     		beq	.L104
ARM GAS  C:\Users\dskyNote\AppData\Local\Temp\ccT2SVus.s 			page 43


 418:.\main.c      ****  //                           AcceleratingRL(0x40+(float)DirectionRL,0.1);
 419:.\main.c      ****                         flgException=1;nRL=0x40+DirectionRL;
 1970              		.loc 1 419 0 is_stmt 1
 1971 0182 474B     		ldr	r3, .L130+4
 1972 0184 0122     		movs	r2, #1
 1973 0186 1A70     		strb	r2, [r3]
 1974 0188 544B     		ldr	r3, .L130+64
 1975 018a 1B78     		ldrb	r3, [r3]	@ zero_extendqisi2
 1976 018c 5BB2     		sxtb	r3, r3
 1977 018e 4033     		adds	r3, r3, #64
 1978 0190 1846     		mov	r0, r3
 1979 0192 FFF7FEFF 		bl	__aeabi_i2f
 1980 0196 0246     		mov	r2, r0
 1981 0198 434B     		ldr	r3, .L130+12
 1982 019a 1A60     		str	r2, [r3]	@ float
 420:.\main.c      ****                             nFR=0x40;nRotate=0x40;CalMotorSpeed();
 1983              		.loc 1 420 0
 1984 019c 434B     		ldr	r3, .L130+16
 1985 019e 4FF08542 		mov	r2, #1115684864
 1986 01a2 1A60     		str	r2, [r3]	@ float
 1987 01a4 424B     		ldr	r3, .L130+20
 1988 01a6 4FF08542 		mov	r2, #1115684864
 1989 01aa 1A60     		str	r2, [r3]	@ float
 1990 01ac FFF7FEFF 		bl	CalMotorSpeed
 421:.\main.c      ****                         }else{//disengage
 422:.\main.c      ****                             ZigBeeModeStage ++;
 423:.\main.c      ****                         }
 424:.\main.c      ****                     
 425:.\main.c      ****                     break;
 1991              		.loc 1 425 0
 1992 01b0 73E0     		b	.L90
 1993              	.L104:
 422:.\main.c      ****                             ZigBeeModeStage ++;
 1994              		.loc 1 422 0
 1995 01b2 414B     		ldr	r3, .L130+28
 1996 01b4 1B78     		ldrb	r3, [r3]	@ zero_extendqisi2
 1997 01b6 0133     		adds	r3, r3, #1
 1998 01b8 DAB2     		uxtb	r2, r3
 1999 01ba 3F4B     		ldr	r3, .L130+28
 2000 01bc 1A70     		strb	r2, [r3]
 2001              		.loc 1 425 0
 2002 01be 6CE0     		b	.L90
 2003              	.L96:
 426:.\main.c      ****                 case 4:
 427:.\main.c      ****                     if(LineSensor[LineFront]!=21 && LineSensor[LineRear]!=21){//catch
 2004              		.loc 1 427 0
 2005 01c0 454B     		ldr	r3, .L130+60
 2006 01c2 1B78     		ldrb	r3, [r3]	@ zero_extendqisi2
 2007 01c4 152B     		cmp	r3, #21
 2008 01c6 1FD0     		beq	.L106
 2009              		.loc 1 427 0 is_stmt 0 discriminator 1
 2010 01c8 434B     		ldr	r3, .L130+60
 2011 01ca 5B78     		ldrb	r3, [r3, #1]	@ zero_extendqisi2
 2012 01cc 152B     		cmp	r3, #21
 2013 01ce 1BD0     		beq	.L106
 428:.\main.c      ****                         CalcRLRotate();
 2014              		.loc 1 428 0 is_stmt 1
ARM GAS  C:\Users\dskyNote\AppData\Local\Temp\ccT2SVus.s 			page 44


 2015 01d0 FFF7FEFF 		bl	CalcRLRotate
 429:.\main.c      ****                         nFR=0x40;CalMotorSpeed();
 2016              		.loc 1 429 0
 2017 01d4 354B     		ldr	r3, .L130+16
 2018 01d6 4FF08542 		mov	r2, #1115684864
 2019 01da 1A60     		str	r2, [r3]	@ float
 2020 01dc FFF7FEFF 		bl	CalMotorSpeed
 430:.\main.c      ****                         i4++;
 2021              		.loc 1 430 0
 2022 01e0 3F4B     		ldr	r3, .L130+68
 2023 01e2 1B78     		ldrb	r3, [r3]	@ zero_extendqisi2
 2024 01e4 0133     		adds	r3, r3, #1
 2025 01e6 DAB2     		uxtb	r2, r3
 2026 01e8 3D4B     		ldr	r3, .L130+68
 2027 01ea 1A70     		strb	r2, [r3]
 431:.\main.c      ****                         if(i4==10){i4=0;ZigBeeModeStage=5;}
 2028              		.loc 1 431 0
 2029 01ec 3C4B     		ldr	r3, .L130+68
 2030 01ee 1B78     		ldrb	r3, [r3]	@ zero_extendqisi2
 2031 01f0 0A2B     		cmp	r3, #10
 2032 01f2 05D1     		bne	.L107
 2033              		.loc 1 431 0 is_stmt 0 discriminator 1
 2034 01f4 3A4B     		ldr	r3, .L130+68
 2035 01f6 0022     		movs	r2, #0
 2036 01f8 1A70     		strb	r2, [r3]
 2037 01fa 2F4B     		ldr	r3, .L130+28
 2038 01fc 0522     		movs	r2, #5
 2039 01fe 1A70     		strb	r2, [r3]
 2040              	.L107:
 432:.\main.c      ****                         flgException=0;
 2041              		.loc 1 432 0 is_stmt 1
 2042 0200 274B     		ldr	r3, .L130+4
 2043 0202 0022     		movs	r2, #0
 2044 0204 1A70     		strb	r2, [r3]
 433:.\main.c      ****                     }else{//slide
 434:.\main.c      ****                         
 435:.\main.c      ****                         AcceleratingRL(0x40+(float)DirectionRL,1);
 436:.\main.c      ****                         nFR=0x40;nRotate=0x40;CalMotorSpeed();
 437:.\main.c      ****                     }
 438:.\main.c      ****                         
 439:.\main.c      ****                      break;
 2045              		.loc 1 439 0
 2046 0206 48E0     		b	.L90
 2047              	.L106:
 435:.\main.c      ****                         AcceleratingRL(0x40+(float)DirectionRL,1);
 2048              		.loc 1 435 0
 2049 0208 344B     		ldr	r3, .L130+64
 2050 020a 1B78     		ldrb	r3, [r3]	@ zero_extendqisi2
 2051 020c 5BB2     		sxtb	r3, r3
 2052 020e 1846     		mov	r0, r3
 2053 0210 FFF7FEFF 		bl	__aeabi_i2f
 2054 0214 0346     		mov	r3, r0
 2055 0216 1846     		mov	r0, r3
 2056 0218 4FF08541 		mov	r1, #1115684864
 2057 021c FFF7FEFF 		bl	__aeabi_fadd
 2058 0220 0346     		mov	r3, r0
 2059 0222 1846     		mov	r0, r3
ARM GAS  C:\Users\dskyNote\AppData\Local\Temp\ccT2SVus.s 			page 45


 2060 0224 FFF7FEFF 		bl	__aeabi_f2iz
 2061 0228 0346     		mov	r3, r0
 2062 022a 9BB2     		uxth	r3, r3
 2063 022c 1BB2     		sxth	r3, r3
 2064 022e 1846     		mov	r0, r3
 2065 0230 4FF07E51 		mov	r1, #1065353216
 2066 0234 FFF7FEFF 		bl	AcceleratingRL
 436:.\main.c      ****                         nFR=0x40;nRotate=0x40;CalMotorSpeed();
 2067              		.loc 1 436 0
 2068 0238 1C4B     		ldr	r3, .L130+16
 2069 023a 4FF08542 		mov	r2, #1115684864
 2070 023e 1A60     		str	r2, [r3]	@ float
 2071 0240 1B4B     		ldr	r3, .L130+20
 2072 0242 4FF08542 		mov	r2, #1115684864
 2073 0246 1A60     		str	r2, [r3]	@ float
 2074 0248 FFF7FEFF 		bl	CalMotorSpeed
 2075              		.loc 1 439 0
 2076 024c 25E0     		b	.L90
 2077              	.L97:
 440:.\main.c      ****                     
 441:.\main.c      ****                 case 5:
 442:.\main.c      ****                         CalcRLRotate();nFR=0x40+DirectionNextFR;CalMotorSpeed();
 2078              		.loc 1 442 0
 2079 024e FFF7FEFF 		bl	CalcRLRotate
 2080 0252 244B     		ldr	r3, .L130+72
 2081 0254 1B78     		ldrb	r3, [r3]	@ zero_extendqisi2
 2082 0256 5BB2     		sxtb	r3, r3
 2083 0258 4033     		adds	r3, r3, #64
 2084 025a 1846     		mov	r0, r3
 2085 025c FFF7FEFF 		bl	__aeabi_i2f
 2086 0260 0246     		mov	r2, r0
 2087 0262 124B     		ldr	r3, .L130+16
 2088 0264 1A60     		str	r2, [r3]	@ float
 2089 0266 FFF7FEFF 		bl	CalMotorSpeed
 443:.\main.c      ****                         
 444:.\main.c      ****                         if(CheckRFID()){//catch
 2090              		.loc 1 444 0
 2091 026a FFF7FEFF 		bl	CheckRFID
 2092 026e 0346     		mov	r3, r0
 2093 0270 002B     		cmp	r3, #0
 2094 0272 11D0     		beq	.L109
 445:.\main.c      ****                             CalcRLRotate();nFR=0x40;CalMotorSpeed();flgCaught=1;ZigBeeModeStage=Zig
 2095              		.loc 1 445 0
 2096 0274 FFF7FEFF 		bl	CalcRLRotate
 2097 0278 0C4B     		ldr	r3, .L130+16
 2098 027a 4FF08542 		mov	r2, #1115684864
 2099 027e 1A60     		str	r2, [r3]	@ float
 2100 0280 FFF7FEFF 		bl	CalMotorSpeed
 2101 0284 104B     		ldr	r3, .L130+44
 2102 0286 0122     		movs	r2, #1
 2103 0288 1A70     		strb	r2, [r3]
 2104 028a 0B4B     		ldr	r3, .L130+28
 2105 028c 1B78     		ldrb	r3, [r3]	@ zero_extendqisi2
 2106 028e 043B     		subs	r3, r3, #4
 2107 0290 DAB2     		uxtb	r2, r3
 2108 0292 094B     		ldr	r3, .L130+28
 2109 0294 1A70     		strb	r2, [r3]
ARM GAS  C:\Users\dskyNote\AppData\Local\Temp\ccT2SVus.s 			page 46


 446:.\main.c      ****                         }
 447:.\main.c      ****                     
 448:.\main.c      ****                     break;
 2110              		.loc 1 448 0
 2111 0296 FFE7     		b	.L128
 2112              	.L109:
 2113              	.L128:
 2114 0298 00BF     		nop
 2115              	.L90:
 2116 029a E5E0     		b	.L86
 2117              	.L131:
 2118              		.align	2
 2119              	.L130:
 2120 029c 00000000 		.word	EnabelPS3
 2121 02a0 00000000 		.word	flgException
 2122 02a4 00000000 		.word	astic
 2123 02a8 00000000 		.word	nRL
 2124 02ac 00000000 		.word	nFR
 2125 02b0 00000000 		.word	nRotate
 2126 02b4 00000000 		.word	flgZigBeeMode
 2127 02b8 00000000 		.word	ZigBeeModeStage
 2128 02bc 00000000 		.word	RFID
 2129 02c0 00000000 		.word	DirectionFR
 2130 02c4 CDCCCC3D 		.word	1036831949
 2131 02c8 00000000 		.word	flgCaught
 2132 02cc 00000000 		.word	flgZigBeeReceived
 2133 02d0 00000000 		.word	flgPIPI
 2134 02d4 00000000 		.word	ZigBeeMsg
 2135 02d8 00000000 		.word	LineSensor
 2136 02dc 00000000 		.word	DirectionRL
 2137 02e0 00000000 		.word	i4
 2138 02e4 00000000 		.word	DirectionNextFR
 2139              	.L89:
 449:.\main.c      ****                         
 450:.\main.c      ****                     
 451:.\main.c      ****             }            
 452:.\main.c      ****             
 453:.\main.c      ****         }else{//AutoMode
 454:.\main.c      ****       
 455:.\main.c      ****             switch (AutoModeStage){
 2140              		.loc 1 455 0
 2141 02e8 604B     		ldr	r3, .L132
 2142 02ea 1B78     		ldrb	r3, [r3]	@ zero_extendqisi2
 2143 02ec 032B     		cmp	r3, #3
 2144 02ee 00F2BA80 		bhi	.L129
 2145 02f2 01A2     		adr	r2, .L112
 2146 02f4 52F823F0 		ldr	pc, [r2, r3, lsl #2]
 2147              		.p2align 2
 2148              	.L112:
 2149 02f8 09030000 		.word	.L111+1
 2150 02fc 49030000 		.word	.L113+1
 2151 0300 87030000 		.word	.L114+1
 2152 0304 DB030000 		.word	.L115+1
 2153              		.p2align 1
 2154              	.L111:
 456:.\main.c      ****                 case 0:
 457:.\main.c      ****                     if(oldRFID==RFID[0]){
ARM GAS  C:\Users\dskyNote\AppData\Local\Temp\ccT2SVus.s 			page 47


 2155              		.loc 1 457 0
 2156 0308 594B     		ldr	r3, .L132+4
 2157 030a 1A78     		ldrb	r2, [r3]	@ zero_extendqisi2
 2158 030c 594B     		ldr	r3, .L132+8
 2159 030e 1B78     		ldrb	r3, [r3]	@ zero_extendqisi2
 2160 0310 9A42     		cmp	r2, r3
 2161 0312 0ED1     		bne	.L116
 458:.\main.c      ****                         CalcRLRotate();nFR=0x40+DirectionNextFR;
 2162              		.loc 1 458 0
 2163 0314 FFF7FEFF 		bl	CalcRLRotate
 2164 0318 574B     		ldr	r3, .L132+12
 2165 031a 1B78     		ldrb	r3, [r3]	@ zero_extendqisi2
 2166 031c 5BB2     		sxtb	r3, r3
 2167 031e 4033     		adds	r3, r3, #64
 2168 0320 1846     		mov	r0, r3
 2169 0322 FFF7FEFF 		bl	__aeabi_i2f
 2170 0326 0246     		mov	r2, r0
 2171 0328 544B     		ldr	r3, .L132+16
 2172 032a 1A60     		str	r2, [r3]	@ float
 459:.\main.c      **** //                        AcceleratingFR(0x40+DirectionNextFR,0.1);
 460:.\main.c      ****                         CalMotorSpeed();
 2173              		.loc 1 460 0
 2174 032c FFF7FEFF 		bl	CalMotorSpeed
 461:.\main.c      ****                     }else{
 462:.\main.c      ****                         AutoModeStage++;   
 463:.\main.c      ****                         oldRFID=RFID[0];
 464:.\main.c      ****                     }
 465:.\main.c      **** 
 466:.\main.c      ****                     break;
 2175              		.loc 1 466 0
 2176 0330 9AE0     		b	.L86
 2177              	.L116:
 462:.\main.c      ****                         AutoModeStage++;   
 2178              		.loc 1 462 0
 2179 0332 4E4B     		ldr	r3, .L132
 2180 0334 1B78     		ldrb	r3, [r3]	@ zero_extendqisi2
 2181 0336 0133     		adds	r3, r3, #1
 2182 0338 DAB2     		uxtb	r2, r3
 2183 033a 4C4B     		ldr	r3, .L132
 2184 033c 1A70     		strb	r2, [r3]
 463:.\main.c      ****                         oldRFID=RFID[0];
 2185              		.loc 1 463 0
 2186 033e 4C4B     		ldr	r3, .L132+4
 2187 0340 1A78     		ldrb	r2, [r3]	@ zero_extendqisi2
 2188 0342 4C4B     		ldr	r3, .L132+8
 2189 0344 1A70     		strb	r2, [r3]
 2190              		.loc 1 466 0
 2191 0346 8FE0     		b	.L86
 2192              	.L113:
 467:.\main.c      ****                 
 468:.\main.c      ****                 case 1:
 469:.\main.c      ****                     if(DirectionFR!=0){
 2193              		.loc 1 469 0
 2194 0348 4D4B     		ldr	r3, .L132+20
 2195 034a 1B78     		ldrb	r3, [r3]	@ zero_extendqisi2
 2196 034c 002B     		cmp	r3, #0
 2197 034e 07D0     		beq	.L118
ARM GAS  C:\Users\dskyNote\AppData\Local\Temp\ccT2SVus.s 			page 48


 470:.\main.c      ****                         DirectionNextFR=DirectionFR;AutoModeStage=0;
 2198              		.loc 1 470 0
 2199 0350 4B4B     		ldr	r3, .L132+20
 2200 0352 1A78     		ldrb	r2, [r3]	@ zero_extendqisi2
 2201 0354 484B     		ldr	r3, .L132+12
 2202 0356 1A70     		strb	r2, [r3]
 2203 0358 444B     		ldr	r3, .L132
 2204 035a 0022     		movs	r2, #0
 2205 035c 1A70     		strb	r2, [r3]
 471:.\main.c      ****                     }else{
 472:.\main.c      **** //                        AcceleratingFR(0x40,0.5);
 473:.\main.c      ****                             nFR=0x40;
 474:.\main.c      ****                         if(nFR==0x40){AutoModeStage=2;}               
 475:.\main.c      ****                         }
 476:.\main.c      ****                     break;
 2206              		.loc 1 476 0
 2207 035e 83E0     		b	.L86
 2208              	.L118:
 473:.\main.c      ****                             nFR=0x40;
 2209              		.loc 1 473 0
 2210 0360 464B     		ldr	r3, .L132+16
 2211 0362 4FF08542 		mov	r2, #1115684864
 2212 0366 1A60     		str	r2, [r3]	@ float
 474:.\main.c      ****                         if(nFR==0x40){AutoModeStage=2;}               
 2213              		.loc 1 474 0
 2214 0368 444B     		ldr	r3, .L132+16
 2215 036a 1B68     		ldr	r3, [r3]	@ float
 2216 036c 1846     		mov	r0, r3
 2217 036e 4FF08541 		mov	r1, #1115684864
 2218 0372 FFF7FEFF 		bl	__aeabi_fcmpeq
 2219 0376 0346     		mov	r3, r0
 2220 0378 002B     		cmp	r3, #0
 2221 037a 00D1     		bne	.L127
 2222              		.loc 1 476 0
 2223 037c 74E0     		b	.L86
 2224              	.L127:
 474:.\main.c      ****                         if(nFR==0x40){AutoModeStage=2;}               
 2225              		.loc 1 474 0 discriminator 1
 2226 037e 3B4B     		ldr	r3, .L132
 2227 0380 0222     		movs	r2, #2
 2228 0382 1A70     		strb	r2, [r3]
 2229              		.loc 1 476 0 discriminator 1
 2230 0384 70E0     		b	.L86
 2231              	.L114:
 477:.\main.c      ****                 
 478:.\main.c      ****                 case 2://jump
 479:.\main.c      ****                     if(LineSensor[LineFront]!=21 || LineSensor[LineRear]!=21){
 2232              		.loc 1 479 0
 2233 0386 3F4B     		ldr	r3, .L132+24
 2234 0388 1B78     		ldrb	r3, [r3]	@ zero_extendqisi2
 2235 038a 152B     		cmp	r3, #21
 2236 038c 03D1     		bne	.L121
 2237              		.loc 1 479 0 is_stmt 0 discriminator 1
 2238 038e 3D4B     		ldr	r3, .L132+24
 2239 0390 5B78     		ldrb	r3, [r3, #1]	@ zero_extendqisi2
 2240 0392 152B     		cmp	r3, #21
 2241 0394 1AD0     		beq	.L122
ARM GAS  C:\Users\dskyNote\AppData\Local\Temp\ccT2SVus.s 			page 49


 2242              	.L121:
 480:.\main.c      ****  //                           AcceleratingRL(0x40+(float)DirectionRL,0.1);
 481:.\main.c      ****                         nRL=0x40+(float)DirectionRL;
 2243              		.loc 1 481 0 is_stmt 1
 2244 0396 3C4B     		ldr	r3, .L132+28
 2245 0398 1B78     		ldrb	r3, [r3]	@ zero_extendqisi2
 2246 039a 5BB2     		sxtb	r3, r3
 2247 039c 1846     		mov	r0, r3
 2248 039e FFF7FEFF 		bl	__aeabi_i2f
 2249 03a2 0346     		mov	r3, r0
 2250 03a4 1846     		mov	r0, r3
 2251 03a6 4FF08541 		mov	r1, #1115684864
 2252 03aa FFF7FEFF 		bl	__aeabi_fadd
 2253 03ae 0346     		mov	r3, r0
 2254 03b0 1A46     		mov	r2, r3
 2255 03b2 364B     		ldr	r3, .L132+32
 2256 03b4 1A60     		str	r2, [r3]	@ float
 482:.\main.c      ****                             nFR=0x40;nRotate=0x40;CalMotorSpeed();
 2257              		.loc 1 482 0
 2258 03b6 314B     		ldr	r3, .L132+16
 2259 03b8 4FF08542 		mov	r2, #1115684864
 2260 03bc 1A60     		str	r2, [r3]	@ float
 2261 03be 344B     		ldr	r3, .L132+36
 2262 03c0 4FF08542 		mov	r2, #1115684864
 2263 03c4 1A60     		str	r2, [r3]	@ float
 2264 03c6 FFF7FEFF 		bl	CalMotorSpeed
 483:.\main.c      ****                         }else{//disengage
 484:.\main.c      ****                             AutoModeStage ++;
 485:.\main.c      ****                         }
 486:.\main.c      ****                     break;
 2265              		.loc 1 486 0
 2266 03ca 4DE0     		b	.L86
 2267              	.L122:
 484:.\main.c      ****                             AutoModeStage ++;
 2268              		.loc 1 484 0
 2269 03cc 274B     		ldr	r3, .L132
 2270 03ce 1B78     		ldrb	r3, [r3]	@ zero_extendqisi2
 2271 03d0 0133     		adds	r3, r3, #1
 2272 03d2 DAB2     		uxtb	r2, r3
 2273 03d4 254B     		ldr	r3, .L132
 2274 03d6 1A70     		strb	r2, [r3]
 2275              		.loc 1 486 0
 2276 03d8 46E0     		b	.L86
 2277              	.L115:
 487:.\main.c      **** 
 488:.\main.c      ****                 case 3:
 489:.\main.c      ****                     if(LineSensor[LineFront]!=21 && LineSensor[LineRear]!=21){//catch
 2278              		.loc 1 489 0
 2279 03da 2A4B     		ldr	r3, .L132+24
 2280 03dc 1B78     		ldrb	r3, [r3]	@ zero_extendqisi2
 2281 03de 152B     		cmp	r3, #21
 2282 03e0 1DD0     		beq	.L124
 2283              		.loc 1 489 0 is_stmt 0 discriminator 1
 2284 03e2 284B     		ldr	r3, .L132+24
 2285 03e4 5B78     		ldrb	r3, [r3, #1]	@ zero_extendqisi2
 2286 03e6 152B     		cmp	r3, #21
 2287 03e8 19D0     		beq	.L124
ARM GAS  C:\Users\dskyNote\AppData\Local\Temp\ccT2SVus.s 			page 50


 490:.\main.c      ****                         CalcRLRotate();
 2288              		.loc 1 490 0 is_stmt 1
 2289 03ea FFF7FEFF 		bl	CalcRLRotate
 491:.\main.c      ****                         nFR=0x40;CalMotorSpeed();
 2290              		.loc 1 491 0
 2291 03ee 234B     		ldr	r3, .L132+16
 2292 03f0 4FF08542 		mov	r2, #1115684864
 2293 03f4 1A60     		str	r2, [r3]	@ float
 2294 03f6 FFF7FEFF 		bl	CalMotorSpeed
 492:.\main.c      ****                         i4++;
 2295              		.loc 1 492 0
 2296 03fa 264B     		ldr	r3, .L132+40
 2297 03fc 1B78     		ldrb	r3, [r3]	@ zero_extendqisi2
 2298 03fe 0133     		adds	r3, r3, #1
 2299 0400 DAB2     		uxtb	r2, r3
 2300 0402 244B     		ldr	r3, .L132+40
 2301 0404 1A70     		strb	r2, [r3]
 493:.\main.c      ****                         if(i4==10){i4=0;AutoModeStage=0;}
 2302              		.loc 1 493 0
 2303 0406 234B     		ldr	r3, .L132+40
 2304 0408 1B78     		ldrb	r3, [r3]	@ zero_extendqisi2
 2305 040a 0A2B     		cmp	r3, #10
 2306 040c 06D1     		bne	.L125
 2307              		.loc 1 493 0 is_stmt 0 discriminator 1
 2308 040e 214B     		ldr	r3, .L132+40
 2309 0410 0022     		movs	r2, #0
 2310 0412 1A70     		strb	r2, [r3]
 2311 0414 154B     		ldr	r3, .L132
 2312 0416 0022     		movs	r2, #0
 2313 0418 1A70     		strb	r2, [r3]
 2314 041a 23E0     		b	.L126
 2315              	.L125:
 2316              		.loc 1 493 0 discriminator 2
 2317 041c 22E0     		b	.L126
 2318              	.L124:
 494:.\main.c      ****                     }else{//slide
 495:.\main.c      ****                         
 496:.\main.c      ****                         AcceleratingRL(0x40+(float)DirectionRL,1);
 2319              		.loc 1 496 0 is_stmt 1
 2320 041e 1A4B     		ldr	r3, .L132+28
 2321 0420 1B78     		ldrb	r3, [r3]	@ zero_extendqisi2
 2322 0422 5BB2     		sxtb	r3, r3
 2323 0424 1846     		mov	r0, r3
 2324 0426 FFF7FEFF 		bl	__aeabi_i2f
 2325 042a 0346     		mov	r3, r0
 2326 042c 1846     		mov	r0, r3
 2327 042e 4FF08541 		mov	r1, #1115684864
 2328 0432 FFF7FEFF 		bl	__aeabi_fadd
 2329 0436 0346     		mov	r3, r0
 2330 0438 1846     		mov	r0, r3
 2331 043a FFF7FEFF 		bl	__aeabi_f2iz
 2332 043e 0346     		mov	r3, r0
 2333 0440 9BB2     		uxth	r3, r3
 2334 0442 1BB2     		sxth	r3, r3
 2335 0444 1846     		mov	r0, r3
 2336 0446 4FF07E51 		mov	r1, #1065353216
 2337 044a FFF7FEFF 		bl	AcceleratingRL
ARM GAS  C:\Users\dskyNote\AppData\Local\Temp\ccT2SVus.s 			page 51


 497:.\main.c      ****                         nFR=0x40;nRotate=0x40;CalMotorSpeed();
 2338              		.loc 1 497 0
 2339 044e 0B4B     		ldr	r3, .L132+16
 2340 0450 4FF08542 		mov	r2, #1115684864
 2341 0454 1A60     		str	r2, [r3]	@ float
 2342 0456 0E4B     		ldr	r3, .L132+36
 2343 0458 4FF08542 		mov	r2, #1115684864
 2344 045c 1A60     		str	r2, [r3]	@ float
 2345 045e FFF7FEFF 		bl	CalMotorSpeed
 498:.\main.c      ****                     }
 499:.\main.c      ****                     break;
 2346              		.loc 1 499 0
 2347 0462 01E0     		b	.L86
 2348              	.L126:
 2349 0464 00E0     		b	.L86
 2350              	.L129:
 500:.\main.c      ****                     
 501:.\main.c      ****                 default:
 502:.\main.c      ****                     break;
 2351              		.loc 1 502 0
 2352 0466 00BF     		nop
 2353              	.L86:
 503:.\main.c      ****             }
 504:.\main.c      ****         }               
 505:.\main.c      ****     }    
 506:.\main.c      **** }
 2354              		.loc 1 506 0
 2355 0468 80BD     		pop	{r7, pc}
 2356              	.L133:
 2357 046a 00BF     		.align	2
 2358              	.L132:
 2359 046c 00000000 		.word	AutoModeStage
 2360 0470 00000000 		.word	RFID
 2361 0474 00000000 		.word	oldRFID
 2362 0478 00000000 		.word	DirectionNextFR
 2363 047c 00000000 		.word	nFR
 2364 0480 00000000 		.word	DirectionFR
 2365 0484 00000000 		.word	LineSensor
 2366 0488 00000000 		.word	DirectionRL
 2367 048c 00000000 		.word	nRL
 2368 0490 00000000 		.word	nRotate
 2369 0494 00000000 		.word	i4
 2370              		.cfi_endproc
 2371              	.LFE71:
 2372              		.size	Core, .-Core
 2373              		.section	.text.CatchRFID,"ax",%progbits
 2374              		.align	2
 2375              		.global	CatchRFID
 2376              		.thumb
 2377              		.thumb_func
 2378              		.type	CatchRFID, %function
 2379              	CatchRFID:
 2380              	.LFB72:
 507:.\main.c      **** void CatchRFID(uint8 direction){
 2381              		.loc 1 507 0
 2382              		.cfi_startproc
 2383              		@ args = 0, pretend = 0, frame = 8
ARM GAS  C:\Users\dskyNote\AppData\Local\Temp\ccT2SVus.s 			page 52


 2384              		@ frame_needed = 1, uses_anonymous_args = 0
 2385              		@ link register save eliminated.
 2386 0000 80B4     		push	{r7}
 2387              		.cfi_def_cfa_offset 4
 2388              		.cfi_offset 7, -4
 2389 0002 83B0     		sub	sp, sp, #12
 2390              		.cfi_def_cfa_offset 16
 2391 0004 00AF     		add	r7, sp, #0
 2392              		.cfi_def_cfa_register 7
 2393 0006 0346     		mov	r3, r0
 2394 0008 FB71     		strb	r3, [r7, #7]
 508:.\main.c      ****     switch(direction){
 2395              		.loc 1 508 0
 2396 000a FB79     		ldrb	r3, [r7, #7]	@ zero_extendqisi2
 2397 000c 013B     		subs	r3, r3, #1
 2398 000e 062B     		cmp	r3, #6
 2399 0010 50D8     		bhi	.L134
 2400 0012 01A2     		adr	r2, .L137
 2401 0014 52F823F0 		ldr	pc, [r2, r3, lsl #2]
 2402              		.p2align 2
 2403              	.L137:
 2404 0018 35000000 		.word	.L136+1
 2405 001c 45000000 		.word	.L138+1
 2406 0020 55000000 		.word	.L139+1
 2407 0024 6D000000 		.word	.L140+1
 2408 0028 85000000 		.word	.L141+1
 2409 002c 9D000000 		.word	.L142+1
 2410 0030 B5000000 		.word	.L134+1
 2411              		.p2align 1
 2412              	.L136:
 509:.\main.c      ****         case 1:
 510:.\main.c      ****             DirectionFR = Sforward;DirectionRL = 0;
 2413              		.loc 1 510 0
 2414 0034 224B     		ldr	r3, .L144
 2415 0036 1A78     		ldrb	r2, [r3]	@ zero_extendqisi2
 2416 0038 224B     		ldr	r3, .L144+4
 2417 003a 1A70     		strb	r2, [r3]
 2418 003c 224B     		ldr	r3, .L144+8
 2419 003e 0022     		movs	r2, #0
 2420 0040 1A70     		strb	r2, [r3]
 511:.\main.c      ****             break;
 2421              		.loc 1 511 0
 2422 0042 37E0     		b	.L134
 2423              	.L138:
 512:.\main.c      ****         case 2:
 513:.\main.c      ****             DirectionFR = Sback;DirectionRL = 0;
 2424              		.loc 1 513 0
 2425 0044 214B     		ldr	r3, .L144+12
 2426 0046 1A78     		ldrb	r2, [r3]	@ zero_extendqisi2
 2427 0048 1E4B     		ldr	r3, .L144+4
 2428 004a 1A70     		strb	r2, [r3]
 2429 004c 1E4B     		ldr	r3, .L144+8
 2430 004e 0022     		movs	r2, #0
 2431 0050 1A70     		strb	r2, [r3]
 514:.\main.c      ****             break;
 2432              		.loc 1 514 0
 2433 0052 2FE0     		b	.L134
ARM GAS  C:\Users\dskyNote\AppData\Local\Temp\ccT2SVus.s 			page 53


 2434              	.L139:
 515:.\main.c      ****         case 3:
 516:.\main.c      ****             DirectionFR = 0;DirectionRL = Sleft;DirectionNextFR=Sforward;
 2435              		.loc 1 516 0
 2436 0054 1B4B     		ldr	r3, .L144+4
 2437 0056 0022     		movs	r2, #0
 2438 0058 1A70     		strb	r2, [r3]
 2439 005a 1D4B     		ldr	r3, .L144+16
 2440 005c 1A78     		ldrb	r2, [r3]	@ zero_extendqisi2
 2441 005e 1A4B     		ldr	r3, .L144+8
 2442 0060 1A70     		strb	r2, [r3]
 2443 0062 174B     		ldr	r3, .L144
 2444 0064 1A78     		ldrb	r2, [r3]	@ zero_extendqisi2
 2445 0066 1B4B     		ldr	r3, .L144+20
 2446 0068 1A70     		strb	r2, [r3]
 517:.\main.c      ****             break;
 2447              		.loc 1 517 0
 2448 006a 23E0     		b	.L134
 2449              	.L140:
 518:.\main.c      ****         case 4:
 519:.\main.c      ****             DirectionFR = 0;DirectionRL = Sleft;DirectionNextFR=Sback;
 2450              		.loc 1 519 0
 2451 006c 154B     		ldr	r3, .L144+4
 2452 006e 0022     		movs	r2, #0
 2453 0070 1A70     		strb	r2, [r3]
 2454 0072 174B     		ldr	r3, .L144+16
 2455 0074 1A78     		ldrb	r2, [r3]	@ zero_extendqisi2
 2456 0076 144B     		ldr	r3, .L144+8
 2457 0078 1A70     		strb	r2, [r3]
 2458 007a 144B     		ldr	r3, .L144+12
 2459 007c 1A78     		ldrb	r2, [r3]	@ zero_extendqisi2
 2460 007e 154B     		ldr	r3, .L144+20
 2461 0080 1A70     		strb	r2, [r3]
 520:.\main.c      ****             break;
 2462              		.loc 1 520 0
 2463 0082 17E0     		b	.L134
 2464              	.L141:
 521:.\main.c      ****         case 5:
 522:.\main.c      ****             DirectionFR = 0;DirectionRL = Sright;DirectionNextFR=Sforward;
 2465              		.loc 1 522 0
 2466 0084 0F4B     		ldr	r3, .L144+4
 2467 0086 0022     		movs	r2, #0
 2468 0088 1A70     		strb	r2, [r3]
 2469 008a 134B     		ldr	r3, .L144+24
 2470 008c 1A78     		ldrb	r2, [r3]	@ zero_extendqisi2
 2471 008e 0E4B     		ldr	r3, .L144+8
 2472 0090 1A70     		strb	r2, [r3]
 2473 0092 0B4B     		ldr	r3, .L144
 2474 0094 1A78     		ldrb	r2, [r3]	@ zero_extendqisi2
 2475 0096 0F4B     		ldr	r3, .L144+20
 2476 0098 1A70     		strb	r2, [r3]
 523:.\main.c      ****             break;
 2477              		.loc 1 523 0
 2478 009a 0BE0     		b	.L134
 2479              	.L142:
 524:.\main.c      ****         case 6:
 525:.\main.c      ****             DirectionFR = 0;DirectionRL = Sright;DirectionNextFR=Sback;
ARM GAS  C:\Users\dskyNote\AppData\Local\Temp\ccT2SVus.s 			page 54


 2480              		.loc 1 525 0
 2481 009c 094B     		ldr	r3, .L144+4
 2482 009e 0022     		movs	r2, #0
 2483 00a0 1A70     		strb	r2, [r3]
 2484 00a2 0D4B     		ldr	r3, .L144+24
 2485 00a4 1A78     		ldrb	r2, [r3]	@ zero_extendqisi2
 2486 00a6 084B     		ldr	r3, .L144+8
 2487 00a8 1A70     		strb	r2, [r3]
 2488 00aa 084B     		ldr	r3, .L144+12
 2489 00ac 1A78     		ldrb	r2, [r3]	@ zero_extendqisi2
 2490 00ae 094B     		ldr	r3, .L144+20
 2491 00b0 1A70     		strb	r2, [r3]
 526:.\main.c      ****             break;
 2492              		.loc 1 526 0
 2493 00b2 00BF     		nop
 2494              	.L134:
 527:.\main.c      ****         case 7:
 528:.\main.c      ****             break;
 529:.\main.c      ****         
 530:.\main.c      ****     }
 531:.\main.c      **** 
 532:.\main.c      **** }
 2495              		.loc 1 532 0
 2496 00b4 0C37     		adds	r7, r7, #12
 2497 00b6 BD46     		mov	sp, r7
 2498              		@ sp needed
 2499 00b8 5DF8047B 		ldr	r7, [sp], #4
 2500 00bc 7047     		bx	lr
 2501              	.L145:
 2502 00be 00BF     		.align	2
 2503              	.L144:
 2504 00c0 00000000 		.word	Sforward
 2505 00c4 00000000 		.word	DirectionFR
 2506 00c8 00000000 		.word	DirectionRL
 2507 00cc 00000000 		.word	Sback
 2508 00d0 00000000 		.word	Sleft
 2509 00d4 00000000 		.word	DirectionNextFR
 2510 00d8 00000000 		.word	Sright
 2511              		.cfi_endproc
 2512              	.LFE72:
 2513              		.size	CatchRFID, .-CatchRFID
 2514              		.section	.rodata
 2515              		.align	2
 2516              	.LC0:
 2517 0000 7300     		.ascii	"s\000"
 2518 0002 0000     		.section	.text.main,"ax",%progbits
 2519              		.align	2
 2520              		.global	main
 2521              		.thumb
 2522              		.thumb_func
 2523              		.type	main, %function
 2524              	main:
 2525              	.LFB73:
 533:.\main.c      **** int main()
 534:.\main.c      **** {
 2526              		.loc 1 534 0
 2527              		.cfi_startproc
ARM GAS  C:\Users\dskyNote\AppData\Local\Temp\ccT2SVus.s 			page 55


 2528              		@ args = 0, pretend = 0, frame = 0
 2529              		@ frame_needed = 1, uses_anonymous_args = 0
 2530 0000 80B5     		push	{r7, lr}
 2531              		.cfi_def_cfa_offset 8
 2532              		.cfi_offset 7, -8
 2533              		.cfi_offset 14, -4
 2534 0002 00AF     		add	r7, sp, #0
 2535              		.cfi_def_cfa_register 7
 535:.\main.c      ****     configPSoC();
 2536              		.loc 1 535 0
 2537 0004 FFF7FEFF 		bl	configPSoC
 536:.\main.c      ****     flgZigBeeMode=1;
 2538              		.loc 1 536 0
 2539 0008 2B4B     		ldr	r3, .L156
 2540 000a 0122     		movs	r2, #1
 2541 000c 1A70     		strb	r2, [r3]
 537:.\main.c      **** 
 538:.\main.c      ****     
 539:.\main.c      ****     if(flgZigBeeMode==1){//ZigBee Mode
 2542              		.loc 1 539 0
 2543 000e 2A4B     		ldr	r3, .L156
 2544 0010 1B78     		ldrb	r3, [r3]	@ zero_extendqisi2
 2545 0012 012B     		cmp	r3, #1
 2546 0014 1FD1     		bne	.L147
 540:.\main.c      ****         oldRFID=1;
 2547              		.loc 1 540 0
 2548 0016 294B     		ldr	r3, .L156+4
 2549 0018 0122     		movs	r2, #1
 2550 001a 1A70     		strb	r2, [r3]
 541:.\main.c      ****         DirectionFR=Sforward;
 2551              		.loc 1 541 0
 2552 001c 284B     		ldr	r3, .L156+8
 2553 001e 1A78     		ldrb	r2, [r3]	@ zero_extendqisi2
 2554 0020 284B     		ldr	r3, .L156+12
 2555 0022 1A70     		strb	r2, [r3]
 2556              	.L150:
 542:.\main.c      **** 
 543:.\main.c      ****                 
 544:.\main.c      ****         while(1){
 545:.\main.c      ****             if(flgNewRFID==1){
 2557              		.loc 1 545 0
 2558 0024 284B     		ldr	r3, .L156+16
 2559 0026 1B78     		ldrb	r3, [r3]	@ zero_extendqisi2
 2560 0028 012B     		cmp	r3, #1
 2561 002a 0BD1     		bne	.L148
 546:.\main.c      ****                 UART_2_PutString("s");
 2562              		.loc 1 546 0
 2563 002c 2748     		ldr	r0, .L156+20
 2564 002e FFF7FEFF 		bl	UART_2_PutString
 547:.\main.c      ****                 UART_2_PutArray(RFID,8);
 2565              		.loc 1 547 0
 2566 0032 2748     		ldr	r0, .L156+24
 2567 0034 0821     		movs	r1, #8
 2568 0036 FFF7FEFF 		bl	UART_2_PutArray
 548:.\main.c      ****                 flgNewRFID=0;
 2569              		.loc 1 548 0
 2570 003a 234B     		ldr	r3, .L156+16
ARM GAS  C:\Users\dskyNote\AppData\Local\Temp\ccT2SVus.s 			page 56


 2571 003c 0022     		movs	r2, #0
 2572 003e 1A70     		strb	r2, [r3]
 549:.\main.c      ****                 PIII();
 2573              		.loc 1 549 0
 2574 0040 FFF7FEFF 		bl	PIII
 2575              	.L148:
 550:.\main.c      ****             }
 551:.\main.c      ****             if(flgCaught==1){
 2576              		.loc 1 551 0
 2577 0044 234B     		ldr	r3, .L156+28
 2578 0046 1B78     		ldrb	r3, [r3]	@ zero_extendqisi2
 2579 0048 012B     		cmp	r3, #1
 2580 004a 03D1     		bne	.L149
 552:.\main.c      ****                 flgCaught=0;
 2581              		.loc 1 552 0
 2582 004c 214B     		ldr	r3, .L156+28
 2583 004e 0022     		movs	r2, #0
 2584 0050 1A70     		strb	r2, [r3]
 553:.\main.c      ****                // PIPI();
 554:.\main.c      ****             }
 555:.\main.c      ****         }
 2585              		.loc 1 555 0
 2586 0052 E7E7     		b	.L150
 2587              	.L149:
 2588 0054 E6E7     		b	.L150
 2589              	.L147:
 556:.\main.c      ****         
 557:.\main.c      ****         
 558:.\main.c      ****         
 559:.\main.c      ****         while(flgCaught!=1){}//wait for caught
 560:.\main.c      ****         flgCaught=0;
 561:.\main.c      ****         PIII();
 562:.\main.c      ****         while(1){
 563:.\main.c      ****             CyDelay(1000);
 564:.\main.c      ****             UART_2_PutString("s");
 565:.\main.c      ****         }
 566:.\main.c      ****         while(1){
 567:.\main.c      **** 
 568:.\main.c      ****         }
 569:.\main.c      ****         
 570:.\main.c      ****         
 571:.\main.c      ****         while(1){
 572:.\main.c      **** //            while(flgPIPI!=1){}//wait for ZigBeeMSG
 573:.\main.c      **** //            flgPIPI=0;PIPI();
 574:.\main.c      ****        //     UART_2_PutString("s");
 575:.\main.c      ****          //   UART_2_PutArray(RFID,8);
 576:.\main.c      ****          //   UART_2_PutString("en");
 577:.\main.c      ****       //      while(flgCaught!=1){}//wait for caught
 578:.\main.c      ****         //    PI();flgCaught=0;            
 579:.\main.c      ****         }
 580:.\main.c      ****     
 581:.\main.c      ****     }else{//Auto Mode
 582:.\main.c      ****         oldRFID=0;
 2590              		.loc 1 582 0
 2591 0056 194B     		ldr	r3, .L156+4
 2592 0058 0022     		movs	r2, #0
 2593 005a 1A70     		strb	r2, [r3]
ARM GAS  C:\Users\dskyNote\AppData\Local\Temp\ccT2SVus.s 			page 57


 583:.\main.c      ****         DirectionNextFR=Sforward;
 2594              		.loc 1 583 0
 2595 005c 184B     		ldr	r3, .L156+8
 2596 005e 1A78     		ldrb	r2, [r3]	@ zero_extendqisi2
 2597 0060 1D4B     		ldr	r3, .L156+32
 2598 0062 1A70     		strb	r2, [r3]
 2599              	.L155:
 584:.\main.c      ****         while(1){
 585:.\main.c      **** 
 586:.\main.c      ****             switch(RFID[0]){
 2600              		.loc 1 586 0
 2601 0064 1A4B     		ldr	r3, .L156+24
 2602 0066 1B78     		ldrb	r3, [r3]	@ zero_extendqisi2
 2603 0068 022B     		cmp	r3, #2
 2604 006a 0CD0     		beq	.L152
 2605 006c 032B     		cmp	r3, #3
 2606 006e 16D0     		beq	.L153
 2607 0070 012B     		cmp	r3, #1
 2608 0072 00D0     		beq	.L154
 587:.\main.c      ****             case 1:
 588:.\main.c      ****                 DirectionFR = Sforward;DirectionRL = 0;       
 589:.\main.c      ****                 break;
 590:.\main.c      ****             case 2:
 591:.\main.c      ****                 DirectionFR = 0;DirectionRL = Sright; DirectionNextFR=Sback;
 592:.\main.c      ****                 break;
 593:.\main.c      ****             case 3:
 594:.\main.c      ****                 DirectionFR = 0;DirectionRL = Sleft;DirectionNextFR=Sforward;
 595:.\main.c      ****                 break;
 596:.\main.c      ****             }
 597:.\main.c      ****         }
 2609              		.loc 1 597 0
 2610 0074 F6E7     		b	.L155
 2611              	.L154:
 588:.\main.c      ****                 DirectionFR = Sforward;DirectionRL = 0;       
 2612              		.loc 1 588 0
 2613 0076 124B     		ldr	r3, .L156+8
 2614 0078 1A78     		ldrb	r2, [r3]	@ zero_extendqisi2
 2615 007a 124B     		ldr	r3, .L156+12
 2616 007c 1A70     		strb	r2, [r3]
 2617 007e 174B     		ldr	r3, .L156+36
 2618 0080 0022     		movs	r2, #0
 2619 0082 1A70     		strb	r2, [r3]
 589:.\main.c      ****                 break;
 2620              		.loc 1 589 0
 2621 0084 17E0     		b	.L151
 2622              	.L152:
 591:.\main.c      ****                 DirectionFR = 0;DirectionRL = Sright; DirectionNextFR=Sback;
 2623              		.loc 1 591 0
 2624 0086 0F4B     		ldr	r3, .L156+12
 2625 0088 0022     		movs	r2, #0
 2626 008a 1A70     		strb	r2, [r3]
 2627 008c 144B     		ldr	r3, .L156+40
 2628 008e 1A78     		ldrb	r2, [r3]	@ zero_extendqisi2
 2629 0090 124B     		ldr	r3, .L156+36
 2630 0092 1A70     		strb	r2, [r3]
 2631 0094 134B     		ldr	r3, .L156+44
 2632 0096 1A78     		ldrb	r2, [r3]	@ zero_extendqisi2
ARM GAS  C:\Users\dskyNote\AppData\Local\Temp\ccT2SVus.s 			page 58


 2633 0098 0F4B     		ldr	r3, .L156+32
 2634 009a 1A70     		strb	r2, [r3]
 592:.\main.c      ****                 break;
 2635              		.loc 1 592 0
 2636 009c 0BE0     		b	.L151
 2637              	.L153:
 594:.\main.c      ****                 DirectionFR = 0;DirectionRL = Sleft;DirectionNextFR=Sforward;
 2638              		.loc 1 594 0
 2639 009e 094B     		ldr	r3, .L156+12
 2640 00a0 0022     		movs	r2, #0
 2641 00a2 1A70     		strb	r2, [r3]
 2642 00a4 104B     		ldr	r3, .L156+48
 2643 00a6 1A78     		ldrb	r2, [r3]	@ zero_extendqisi2
 2644 00a8 0C4B     		ldr	r3, .L156+36
 2645 00aa 1A70     		strb	r2, [r3]
 2646 00ac 044B     		ldr	r3, .L156+8
 2647 00ae 1A78     		ldrb	r2, [r3]	@ zero_extendqisi2
 2648 00b0 094B     		ldr	r3, .L156+32
 2649 00b2 1A70     		strb	r2, [r3]
 595:.\main.c      ****                 break;
 2650              		.loc 1 595 0
 2651 00b4 00BF     		nop
 2652              	.L151:
 2653              		.loc 1 597 0
 2654 00b6 D5E7     		b	.L155
 2655              	.L157:
 2656              		.align	2
 2657              	.L156:
 2658 00b8 00000000 		.word	flgZigBeeMode
 2659 00bc 00000000 		.word	oldRFID
 2660 00c0 00000000 		.word	Sforward
 2661 00c4 00000000 		.word	DirectionFR
 2662 00c8 00000000 		.word	flgNewRFID
 2663 00cc 00000000 		.word	.LC0
 2664 00d0 00000000 		.word	RFID
 2665 00d4 00000000 		.word	flgCaught
 2666 00d8 00000000 		.word	DirectionNextFR
 2667 00dc 00000000 		.word	DirectionRL
 2668 00e0 00000000 		.word	Sright
 2669 00e4 00000000 		.word	Sback
 2670 00e8 00000000 		.word	Sleft
 2671              		.cfi_endproc
 2672              	.LFE73:
 2673              		.size	main, .-main
 2674              		.section	.text.PI,"ax",%progbits
 2675              		.align	2
 2676              		.global	PI
 2677              		.thumb
 2678              		.thumb_func
 2679              		.type	PI, %function
 2680              	PI:
 2681              	.LFB74:
 598:.\main.c      ****     }
 599:.\main.c      **** }
 600:.\main.c      **** 
 601:.\main.c      **** void PI(void){
 2682              		.loc 1 601 0
ARM GAS  C:\Users\dskyNote\AppData\Local\Temp\ccT2SVus.s 			page 59


 2683              		.cfi_startproc
 2684              		@ args = 0, pretend = 0, frame = 0
 2685              		@ frame_needed = 1, uses_anonymous_args = 0
 2686 0000 80B5     		push	{r7, lr}
 2687              		.cfi_def_cfa_offset 8
 2688              		.cfi_offset 7, -8
 2689              		.cfi_offset 14, -4
 2690 0002 00AF     		add	r7, sp, #0
 2691              		.cfi_def_cfa_register 7
 602:.\main.c      ****     PWM_1_Start();
 2692              		.loc 1 602 0
 2693 0004 FFF7FEFF 		bl	PWM_1_Start
 603:.\main.c      ****     PWM_1_WriteCompare(127);
 2694              		.loc 1 603 0
 2695 0008 7F20     		movs	r0, #127
 2696 000a FFF7FEFF 		bl	PWM_1_WriteCompare
 604:.\main.c      ****     CyDelay(200);
 2697              		.loc 1 604 0
 2698 000e C820     		movs	r0, #200
 2699 0010 FFF7FEFF 		bl	CyDelay
 605:.\main.c      ****     PWM_1_WriteCompare(0);
 2700              		.loc 1 605 0
 2701 0014 0020     		movs	r0, #0
 2702 0016 FFF7FEFF 		bl	PWM_1_WriteCompare
 606:.\main.c      ****     PWM_1_Stop();    
 2703              		.loc 1 606 0
 2704 001a FFF7FEFF 		bl	PWM_1_Stop
 607:.\main.c      **** }
 2705              		.loc 1 607 0
 2706 001e 80BD     		pop	{r7, pc}
 2707              		.cfi_endproc
 2708              	.LFE74:
 2709              		.size	PI, .-PI
 2710              		.section	.text.PIPI,"ax",%progbits
 2711              		.align	2
 2712              		.global	PIPI
 2713              		.thumb
 2714              		.thumb_func
 2715              		.type	PIPI, %function
 2716              	PIPI:
 2717              	.LFB75:
 608:.\main.c      **** void PIPI(void){
 2718              		.loc 1 608 0
 2719              		.cfi_startproc
 2720              		@ args = 0, pretend = 0, frame = 0
 2721              		@ frame_needed = 1, uses_anonymous_args = 0
 2722 0000 80B5     		push	{r7, lr}
 2723              		.cfi_def_cfa_offset 8
 2724              		.cfi_offset 7, -8
 2725              		.cfi_offset 14, -4
 2726 0002 00AF     		add	r7, sp, #0
 2727              		.cfi_def_cfa_register 7
 609:.\main.c      ****     PWM_1_Start();
 2728              		.loc 1 609 0
 2729 0004 FFF7FEFF 		bl	PWM_1_Start
 610:.\main.c      ****     PWM_1_WriteCompare(127);
 2730              		.loc 1 610 0
ARM GAS  C:\Users\dskyNote\AppData\Local\Temp\ccT2SVus.s 			page 60


 2731 0008 7F20     		movs	r0, #127
 2732 000a FFF7FEFF 		bl	PWM_1_WriteCompare
 611:.\main.c      ****     CyDelay(200);
 2733              		.loc 1 611 0
 2734 000e C820     		movs	r0, #200
 2735 0010 FFF7FEFF 		bl	CyDelay
 612:.\main.c      ****     PWM_1_WriteCompare(0);
 2736              		.loc 1 612 0
 2737 0014 0020     		movs	r0, #0
 2738 0016 FFF7FEFF 		bl	PWM_1_WriteCompare
 613:.\main.c      ****     CyDelay(200);
 2739              		.loc 1 613 0
 2740 001a C820     		movs	r0, #200
 2741 001c FFF7FEFF 		bl	CyDelay
 614:.\main.c      ****     PWM_1_WriteCompare(127);
 2742              		.loc 1 614 0
 2743 0020 7F20     		movs	r0, #127
 2744 0022 FFF7FEFF 		bl	PWM_1_WriteCompare
 615:.\main.c      ****     CyDelay(200);
 2745              		.loc 1 615 0
 2746 0026 C820     		movs	r0, #200
 2747 0028 FFF7FEFF 		bl	CyDelay
 616:.\main.c      ****     PWM_1_WriteCompare(0);
 2748              		.loc 1 616 0
 2749 002c 0020     		movs	r0, #0
 2750 002e FFF7FEFF 		bl	PWM_1_WriteCompare
 617:.\main.c      ****     PWM_1_Stop();    
 2751              		.loc 1 617 0
 2752 0032 FFF7FEFF 		bl	PWM_1_Stop
 618:.\main.c      **** }
 2753              		.loc 1 618 0
 2754 0036 80BD     		pop	{r7, pc}
 2755              		.cfi_endproc
 2756              	.LFE75:
 2757              		.size	PIPI, .-PIPI
 2758              		.section	.text.PIII,"ax",%progbits
 2759              		.align	2
 2760              		.global	PIII
 2761              		.thumb
 2762              		.thumb_func
 2763              		.type	PIII, %function
 2764              	PIII:
 2765              	.LFB76:
 619:.\main.c      **** void PIII(void){
 2766              		.loc 1 619 0
 2767              		.cfi_startproc
 2768              		@ args = 0, pretend = 0, frame = 0
 2769              		@ frame_needed = 1, uses_anonymous_args = 0
 2770 0000 80B5     		push	{r7, lr}
 2771              		.cfi_def_cfa_offset 8
 2772              		.cfi_offset 7, -8
 2773              		.cfi_offset 14, -4
 2774 0002 00AF     		add	r7, sp, #0
 2775              		.cfi_def_cfa_register 7
 620:.\main.c      ****     PWM_1_Start();
 2776              		.loc 1 620 0
 2777 0004 FFF7FEFF 		bl	PWM_1_Start
ARM GAS  C:\Users\dskyNote\AppData\Local\Temp\ccT2SVus.s 			page 61


 621:.\main.c      ****     PWM_1_WriteCompare(127);
 2778              		.loc 1 621 0
 2779 0008 7F20     		movs	r0, #127
 2780 000a FFF7FEFF 		bl	PWM_1_WriteCompare
 622:.\main.c      ****     CyDelay(400);
 2781              		.loc 1 622 0
 2782 000e 4FF4C870 		mov	r0, #400
 2783 0012 FFF7FEFF 		bl	CyDelay
 623:.\main.c      ****     PWM_1_WriteCompare(0);
 2784              		.loc 1 623 0
 2785 0016 0020     		movs	r0, #0
 2786 0018 FFF7FEFF 		bl	PWM_1_WriteCompare
 624:.\main.c      ****     PWM_1_Stop();    
 2787              		.loc 1 624 0
 2788 001c FFF7FEFF 		bl	PWM_1_Stop
 625:.\main.c      **** }
 2789              		.loc 1 625 0
 2790 0020 80BD     		pop	{r7, pc}
 2791              		.cfi_endproc
 2792              	.LFE76:
 2793              		.size	PIII, .-PIII
 2794 0022 00BF     		.section	.text.R_LED_ON,"ax",%progbits
 2795              		.align	2
 2796              		.global	R_LED_ON
 2797              		.thumb
 2798              		.thumb_func
 2799              		.type	R_LED_ON, %function
 2800              	R_LED_ON:
 2801              	.LFB77:
 626:.\main.c      **** void R_LED_ON(void){
 2802              		.loc 1 626 0
 2803              		.cfi_startproc
 2804              		@ args = 0, pretend = 0, frame = 0
 2805              		@ frame_needed = 1, uses_anonymous_args = 0
 2806 0000 80B5     		push	{r7, lr}
 2807              		.cfi_def_cfa_offset 8
 2808              		.cfi_offset 7, -8
 2809              		.cfi_offset 14, -4
 2810 0002 00AF     		add	r7, sp, #0
 2811              		.cfi_def_cfa_register 7
 627:.\main.c      ****     R_LED_Write(1);
 2812              		.loc 1 627 0
 2813 0004 0120     		movs	r0, #1
 2814 0006 FFF7FEFF 		bl	R_LED_Write
 628:.\main.c      **** }
 2815              		.loc 1 628 0
 2816 000a 80BD     		pop	{r7, pc}
 2817              		.cfi_endproc
 2818              	.LFE77:
 2819              		.size	R_LED_ON, .-R_LED_ON
 2820              		.section	.text.R_LED_OFF,"ax",%progbits
 2821              		.align	2
 2822              		.global	R_LED_OFF
 2823              		.thumb
 2824              		.thumb_func
 2825              		.type	R_LED_OFF, %function
 2826              	R_LED_OFF:
ARM GAS  C:\Users\dskyNote\AppData\Local\Temp\ccT2SVus.s 			page 62


 2827              	.LFB78:
 629:.\main.c      **** void R_LED_OFF(void){
 2828              		.loc 1 629 0
 2829              		.cfi_startproc
 2830              		@ args = 0, pretend = 0, frame = 0
 2831              		@ frame_needed = 1, uses_anonymous_args = 0
 2832 0000 80B5     		push	{r7, lr}
 2833              		.cfi_def_cfa_offset 8
 2834              		.cfi_offset 7, -8
 2835              		.cfi_offset 14, -4
 2836 0002 00AF     		add	r7, sp, #0
 2837              		.cfi_def_cfa_register 7
 630:.\main.c      ****         R_LED_Write(0);
 2838              		.loc 1 630 0
 2839 0004 0020     		movs	r0, #0
 2840 0006 FFF7FEFF 		bl	R_LED_Write
 631:.\main.c      **** }
 2841              		.loc 1 631 0
 2842 000a 80BD     		pop	{r7, pc}
 2843              		.cfi_endproc
 2844              	.LFE78:
 2845              		.size	R_LED_OFF, .-R_LED_OFF
 2846              		.section	.text.B_LED_ON,"ax",%progbits
 2847              		.align	2
 2848              		.global	B_LED_ON
 2849              		.thumb
 2850              		.thumb_func
 2851              		.type	B_LED_ON, %function
 2852              	B_LED_ON:
 2853              	.LFB79:
 632:.\main.c      **** void B_LED_ON(void){
 2854              		.loc 1 632 0
 2855              		.cfi_startproc
 2856              		@ args = 0, pretend = 0, frame = 0
 2857              		@ frame_needed = 1, uses_anonymous_args = 0
 2858 0000 80B5     		push	{r7, lr}
 2859              		.cfi_def_cfa_offset 8
 2860              		.cfi_offset 7, -8
 2861              		.cfi_offset 14, -4
 2862 0002 00AF     		add	r7, sp, #0
 2863              		.cfi_def_cfa_register 7
 633:.\main.c      ****     B_LED_Write(1);
 2864              		.loc 1 633 0
 2865 0004 0120     		movs	r0, #1
 2866 0006 FFF7FEFF 		bl	B_LED_Write
 634:.\main.c      **** }
 2867              		.loc 1 634 0
 2868 000a 80BD     		pop	{r7, pc}
 2869              		.cfi_endproc
 2870              	.LFE79:
 2871              		.size	B_LED_ON, .-B_LED_ON
 2872              		.section	.text.B_LED_OFF,"ax",%progbits
 2873              		.align	2
 2874              		.global	B_LED_OFF
 2875              		.thumb
 2876              		.thumb_func
 2877              		.type	B_LED_OFF, %function
ARM GAS  C:\Users\dskyNote\AppData\Local\Temp\ccT2SVus.s 			page 63


 2878              	B_LED_OFF:
 2879              	.LFB80:
 635:.\main.c      **** void B_LED_OFF(void){
 2880              		.loc 1 635 0
 2881              		.cfi_startproc
 2882              		@ args = 0, pretend = 0, frame = 0
 2883              		@ frame_needed = 1, uses_anonymous_args = 0
 2884 0000 80B5     		push	{r7, lr}
 2885              		.cfi_def_cfa_offset 8
 2886              		.cfi_offset 7, -8
 2887              		.cfi_offset 14, -4
 2888 0002 00AF     		add	r7, sp, #0
 2889              		.cfi_def_cfa_register 7
 636:.\main.c      ****     B_LED_Write(0);
 2890              		.loc 1 636 0
 2891 0004 0020     		movs	r0, #0
 2892 0006 FFF7FEFF 		bl	B_LED_Write
 637:.\main.c      **** }
 2893              		.loc 1 637 0
 2894 000a 80BD     		pop	{r7, pc}
 2895              		.cfi_endproc
 2896              	.LFE80:
 2897              		.size	B_LED_OFF, .-B_LED_OFF
 2898              		.text
 2899              	.Letext0:
 2900              		.file 2 "c:\\program files (x86)\\cypress\\psoc creator\\3.2\\psoc creator\\import\\gnu\\arm\\4.8.
 2901              		.file 3 "c:\\program files (x86)\\cypress\\psoc creator\\3.2\\psoc creator\\import\\gnu\\arm\\4.8.
 2902              		.file 4 "Generated_Source\\PSoC5/cytypes.h"
 2903              		.file 5 "Generated_Source\\PSoC5/core_cm3.h"
 2904              		.section	.debug_info,"",%progbits
 2905              	.Ldebug_info0:
 2906 0000 C8070000 		.4byte	0x7c8
 2907 0004 0400     		.2byte	0x4
 2908 0006 00000000 		.4byte	.Ldebug_abbrev0
 2909 000a 04       		.byte	0x4
 2910 000b 01       		.uleb128 0x1
 2911 000c B0000000 		.4byte	.LASF87
 2912 0010 01       		.byte	0x1
 2913 0011 94030000 		.4byte	.LASF88
 2914 0015 6E000000 		.4byte	.LASF89
 2915 0019 00000000 		.4byte	.Ldebug_ranges0+0
 2916 001d 00000000 		.4byte	0
 2917 0021 00000000 		.4byte	.Ldebug_line0
 2918 0025 02       		.uleb128 0x2
 2919 0026 01       		.byte	0x1
 2920 0027 06       		.byte	0x6
 2921 0028 58010000 		.4byte	.LASF0
 2922 002c 02       		.uleb128 0x2
 2923 002d 01       		.byte	0x1
 2924 002e 08       		.byte	0x8
 2925 002f D7010000 		.4byte	.LASF1
 2926 0033 02       		.uleb128 0x2
 2927 0034 02       		.byte	0x2
 2928 0035 05       		.byte	0x5
 2929 0036 4F000000 		.4byte	.LASF2
 2930 003a 02       		.uleb128 0x2
 2931 003b 02       		.byte	0x2
ARM GAS  C:\Users\dskyNote\AppData\Local\Temp\ccT2SVus.s 			page 64


 2932 003c 07       		.byte	0x7
 2933 003d AD030000 		.4byte	.LASF3
 2934 0041 03       		.uleb128 0x3
 2935 0042 9D030000 		.4byte	.LASF9
 2936 0046 02       		.byte	0x2
 2937 0047 37       		.byte	0x37
 2938 0048 4C000000 		.4byte	0x4c
 2939 004c 02       		.uleb128 0x2
 2940 004d 04       		.byte	0x4
 2941 004e 05       		.byte	0x5
 2942 004f 93010000 		.4byte	.LASF4
 2943 0053 02       		.uleb128 0x2
 2944 0054 04       		.byte	0x4
 2945 0055 07       		.byte	0x7
 2946 0056 25030000 		.4byte	.LASF5
 2947 005a 02       		.uleb128 0x2
 2948 005b 08       		.byte	0x8
 2949 005c 05       		.byte	0x5
 2950 005d 80010000 		.4byte	.LASF6
 2951 0061 02       		.uleb128 0x2
 2952 0062 08       		.byte	0x8
 2953 0063 07       		.byte	0x7
 2954 0064 22020000 		.4byte	.LASF7
 2955 0068 04       		.uleb128 0x4
 2956 0069 04       		.byte	0x4
 2957 006a 05       		.byte	0x5
 2958 006b 696E7400 		.ascii	"int\000"
 2959 006f 02       		.uleb128 0x2
 2960 0070 04       		.byte	0x4
 2961 0071 07       		.byte	0x7
 2962 0072 39020000 		.4byte	.LASF8
 2963 0076 03       		.uleb128 0x3
 2964 0077 BA020000 		.4byte	.LASF10
 2965 007b 03       		.byte	0x3
 2966 007c 41       		.byte	0x41
 2967 007d 41000000 		.4byte	0x41
 2968 0081 03       		.uleb128 0x3
 2969 0082 48010000 		.4byte	.LASF11
 2970 0086 04       		.byte	0x4
 2971 0087 5B       		.byte	0x5b
 2972 0088 2C000000 		.4byte	0x2c
 2973 008c 03       		.uleb128 0x3
 2974 008d 2C010000 		.4byte	.LASF12
 2975 0091 04       		.byte	0x4
 2976 0092 5C       		.byte	0x5c
 2977 0093 3A000000 		.4byte	0x3a
 2978 0097 03       		.uleb128 0x3
 2979 0098 8E010000 		.4byte	.LASF13
 2980 009c 04       		.byte	0x4
 2981 009d 5E       		.byte	0x5e
 2982 009e 25000000 		.4byte	0x25
 2983 00a2 03       		.uleb128 0x3
 2984 00a3 42010000 		.4byte	.LASF14
 2985 00a7 04       		.byte	0x4
 2986 00a8 5F       		.byte	0x5f
 2987 00a9 33000000 		.4byte	0x33
 2988 00ad 02       		.uleb128 0x2
ARM GAS  C:\Users\dskyNote\AppData\Local\Temp\ccT2SVus.s 			page 65


 2989 00ae 04       		.byte	0x4
 2990 00af 04       		.byte	0x4
 2991 00b0 71010000 		.4byte	.LASF15
 2992 00b4 02       		.uleb128 0x2
 2993 00b5 08       		.byte	0x8
 2994 00b6 04       		.byte	0x4
 2995 00b7 3F030000 		.4byte	.LASF16
 2996 00bb 02       		.uleb128 0x2
 2997 00bc 01       		.byte	0x1
 2998 00bd 08       		.byte	0x8
 2999 00be 40000000 		.4byte	.LASF17
 3000 00c2 05       		.uleb128 0x5
 3001 00c3 F7010000 		.4byte	.LASF18
 3002 00c7 04       		.byte	0x4
 3003 00c8 0201     		.2byte	0x102
 3004 00ca CE000000 		.4byte	0xce
 3005 00ce 06       		.uleb128 0x6
 3006 00cf 04       		.byte	0x4
 3007 00d0 D4000000 		.4byte	0xd4
 3008 00d4 07       		.uleb128 0x7
 3009 00d5 02       		.uleb128 0x2
 3010 00d6 04       		.byte	0x4
 3011 00d7 07       		.byte	0x7
 3012 00d8 C6030000 		.4byte	.LASF19
 3013 00dc 08       		.uleb128 0x8
 3014 00dd 81000000 		.4byte	0x81
 3015 00e1 EC000000 		.4byte	0xec
 3016 00e5 09       		.uleb128 0x9
 3017 00e6 D5000000 		.4byte	0xd5
 3018 00ea 03       		.byte	0x3
 3019 00eb 00       		.byte	0
 3020 00ec 0A       		.uleb128 0xa
 3021 00ed 4C454400 		.ascii	"LED\000"
 3022 00f1 01       		.byte	0x1
 3023 00f2 3B       		.byte	0x3b
 3024 00f3 00000000 		.4byte	.LFB56
 3025 00f7 4C000000 		.4byte	.LFE56-.LFB56
 3026 00fb 01       		.uleb128 0x1
 3027 00fc 9C       		.byte	0x9c
 3028 00fd 1E010000 		.4byte	0x11e
 3029 0101 0B       		.uleb128 0xb
 3030 0102 52474200 		.ascii	"RGB\000"
 3031 0106 01       		.byte	0x1
 3032 0107 3B       		.byte	0x3b
 3033 0108 81000000 		.4byte	0x81
 3034 010c 02       		.uleb128 0x2
 3035 010d 91       		.byte	0x91
 3036 010e 77       		.sleb128 -9
 3037 010f 0C       		.uleb128 0xc
 3038 0110 64020000 		.4byte	.LASF20
 3039 0114 01       		.byte	0x1
 3040 0115 3B       		.byte	0x3b
 3041 0116 81000000 		.4byte	0x81
 3042 011a 02       		.uleb128 0x2
 3043 011b 91       		.byte	0x91
 3044 011c 76       		.sleb128 -10
 3045 011d 00       		.byte	0
ARM GAS  C:\Users\dskyNote\AppData\Local\Temp\ccT2SVus.s 			page 66


 3046 011e 0D       		.uleb128 0xd
 3047 011f 34040000 		.4byte	.LASF21
 3048 0123 01       		.byte	0x1
 3049 0124 50       		.byte	0x50
 3050 0125 00000000 		.4byte	.LFB57
 3051 0129 44010000 		.4byte	.LFE57-.LFB57
 3052 012d 01       		.uleb128 0x1
 3053 012e 9C       		.byte	0x9c
 3054 012f 0D       		.uleb128 0xd
 3055 0130 EC010000 		.4byte	.LASF22
 3056 0134 01       		.byte	0x1
 3057 0135 72       		.byte	0x72
 3058 0136 00000000 		.4byte	.LFB58
 3059 013a 20000000 		.4byte	.LFE58-.LFB58
 3060 013e 01       		.uleb128 0x1
 3061 013f 9C       		.byte	0x9c
 3062 0140 0E       		.uleb128 0xe
 3063 0141 04040000 		.4byte	.LASF23
 3064 0145 01       		.byte	0x1
 3065 0146 77       		.byte	0x77
 3066 0147 00000000 		.4byte	.LFB59
 3067 014b 14010000 		.4byte	.LFE59-.LFB59
 3068 014f 01       		.uleb128 0x1
 3069 0150 9C       		.byte	0x9c
 3070 0151 61010000 		.4byte	0x161
 3071 0155 0F       		.uleb128 0xf
 3072 0156 8E020000 		.4byte	.LASF90
 3073 015a 01       		.byte	0x1
 3074 015b 79       		.byte	0x79
 3075 015c 81000000 		.4byte	0x81
 3076 0160 00       		.byte	0
 3077 0161 10       		.uleb128 0x10
 3078 0162 CF030000 		.4byte	.LASF91
 3079 0166 01       		.byte	0x1
 3080 0167 BD       		.byte	0xbd
 3081 0168 81000000 		.4byte	0x81
 3082 016c 00000000 		.4byte	.LFB60
 3083 0170 58000000 		.4byte	.LFE60-.LFB60
 3084 0174 01       		.uleb128 0x1
 3085 0175 9C       		.byte	0x9c
 3086 0176 11       		.uleb128 0x11
 3087 0177 00000000 		.4byte	.LASF24
 3088 017b 01       		.byte	0x1
 3089 017c C8       		.byte	0xc8
 3090 017d 00000000 		.4byte	.LFB61
 3091 0181 44000000 		.4byte	.LFE61-.LFB61
 3092 0185 01       		.uleb128 0x1
 3093 0186 9C       		.byte	0x9c
 3094 0187 0D       		.uleb128 0xd
 3095 0188 0E040000 		.4byte	.LASF25
 3096 018c 01       		.byte	0x1
 3097 018d CD       		.byte	0xcd
 3098 018e 00000000 		.4byte	.LFB62
 3099 0192 74010000 		.4byte	.LFE62-.LFB62
 3100 0196 01       		.uleb128 0x1
 3101 0197 9C       		.byte	0x9c
 3102 0198 0E       		.uleb128 0xe
ARM GAS  C:\Users\dskyNote\AppData\Local\Temp\ccT2SVus.s 			page 67


 3103 0199 D9030000 		.4byte	.LASF26
 3104 019d 01       		.byte	0x1
 3105 019e D7       		.byte	0xd7
 3106 019f 00000000 		.4byte	.LFB63
 3107 01a3 66000000 		.4byte	.LFE63-.LFB63
 3108 01a7 01       		.uleb128 0x1
 3109 01a8 9C       		.byte	0x9c
 3110 01a9 CA010000 		.4byte	0x1ca
 3111 01ad 0C       		.uleb128 0xc
 3112 01ae 37030000 		.4byte	.LASF27
 3113 01b2 01       		.byte	0x1
 3114 01b3 D7       		.byte	0xd7
 3115 01b4 A2000000 		.4byte	0xa2
 3116 01b8 02       		.uleb128 0x2
 3117 01b9 91       		.byte	0x91
 3118 01ba 6E       		.sleb128 -18
 3119 01bb 12       		.uleb128 0x12
 3120 01bc 51030000 		.4byte	.LASF29
 3121 01c0 01       		.byte	0x1
 3122 01c1 D8       		.byte	0xd8
 3123 01c2 A2000000 		.4byte	0xa2
 3124 01c6 02       		.uleb128 0x2
 3125 01c7 91       		.byte	0x91
 3126 01c8 76       		.sleb128 -10
 3127 01c9 00       		.byte	0
 3128 01ca 0E       		.uleb128 0xe
 3129 01cb D3020000 		.4byte	.LASF28
 3130 01cf 01       		.byte	0x1
 3131 01d0 E8       		.byte	0xe8
 3132 01d1 00000000 		.4byte	.LFB64
 3133 01d5 66000000 		.4byte	.LFE64-.LFB64
 3134 01d9 01       		.uleb128 0x1
 3135 01da 9C       		.byte	0x9c
 3136 01db FC010000 		.4byte	0x1fc
 3137 01df 0C       		.uleb128 0xc
 3138 01e0 37030000 		.4byte	.LASF27
 3139 01e4 01       		.byte	0x1
 3140 01e5 E8       		.byte	0xe8
 3141 01e6 A2000000 		.4byte	0xa2
 3142 01ea 02       		.uleb128 0x2
 3143 01eb 91       		.byte	0x91
 3144 01ec 6E       		.sleb128 -18
 3145 01ed 12       		.uleb128 0x12
 3146 01ee 51030000 		.4byte	.LASF29
 3147 01f2 01       		.byte	0x1
 3148 01f3 E9       		.byte	0xe9
 3149 01f4 A2000000 		.4byte	0xa2
 3150 01f8 02       		.uleb128 0x2
 3151 01f9 91       		.byte	0x91
 3152 01fa 76       		.sleb128 -10
 3153 01fb 00       		.byte	0
 3154 01fc 0E       		.uleb128 0xe
 3155 01fd BF010000 		.4byte	.LASF30
 3156 0201 01       		.byte	0x1
 3157 0202 F9       		.byte	0xf9
 3158 0203 00000000 		.4byte	.LFB65
 3159 0207 66000000 		.4byte	.LFE65-.LFB65
ARM GAS  C:\Users\dskyNote\AppData\Local\Temp\ccT2SVus.s 			page 68


 3160 020b 01       		.uleb128 0x1
 3161 020c 9C       		.byte	0x9c
 3162 020d 2E020000 		.4byte	0x22e
 3163 0211 0C       		.uleb128 0xc
 3164 0212 37030000 		.4byte	.LASF27
 3165 0216 01       		.byte	0x1
 3166 0217 F9       		.byte	0xf9
 3167 0218 A2000000 		.4byte	0xa2
 3168 021c 02       		.uleb128 0x2
 3169 021d 91       		.byte	0x91
 3170 021e 6E       		.sleb128 -18
 3171 021f 12       		.uleb128 0x12
 3172 0220 51030000 		.4byte	.LASF29
 3173 0224 01       		.byte	0x1
 3174 0225 FA       		.byte	0xfa
 3175 0226 A2000000 		.4byte	0xa2
 3176 022a 02       		.uleb128 0x2
 3177 022b 91       		.byte	0x91
 3178 022c 76       		.sleb128 -10
 3179 022d 00       		.byte	0
 3180 022e 13       		.uleb128 0x13
 3181 022f 29000000 		.4byte	.LASF31
 3182 0233 01       		.byte	0x1
 3183 0234 0A01     		.2byte	0x10a
 3184 0236 00000000 		.4byte	.LFB66
 3185 023a 66000000 		.4byte	.LFE66-.LFB66
 3186 023e 01       		.uleb128 0x1
 3187 023f 9C       		.byte	0x9c
 3188 0240 63020000 		.4byte	0x263
 3189 0244 14       		.uleb128 0x14
 3190 0245 37030000 		.4byte	.LASF27
 3191 0249 01       		.byte	0x1
 3192 024a 0A01     		.2byte	0x10a
 3193 024c A2000000 		.4byte	0xa2
 3194 0250 02       		.uleb128 0x2
 3195 0251 91       		.byte	0x91
 3196 0252 6E       		.sleb128 -18
 3197 0253 15       		.uleb128 0x15
 3198 0254 51030000 		.4byte	.LASF29
 3199 0258 01       		.byte	0x1
 3200 0259 0B01     		.2byte	0x10b
 3201 025b A2000000 		.4byte	0xa2
 3202 025f 02       		.uleb128 0x2
 3203 0260 91       		.byte	0x91
 3204 0261 76       		.sleb128 -10
 3205 0262 00       		.byte	0
 3206 0263 16       		.uleb128 0x16
 3207 0264 46020000 		.4byte	.LASF92
 3208 0268 01       		.byte	0x1
 3209 0269 1C01     		.2byte	0x11c
 3210 026b 00000000 		.4byte	.LFB67
 3211 026f 24010000 		.4byte	.LFE67-.LFB67
 3212 0273 01       		.uleb128 0x1
 3213 0274 9C       		.byte	0x9c
 3214 0275 17       		.uleb128 0x17
 3215 0276 95020000 		.4byte	.LASF32
 3216 027a 01       		.byte	0x1
ARM GAS  C:\Users\dskyNote\AppData\Local\Temp\ccT2SVus.s 			page 69


 3217 027b 5601     		.2byte	0x156
 3218 027d 00000000 		.4byte	.LFB68
 3219 0281 64010000 		.4byte	.LFE68-.LFB68
 3220 0285 01       		.uleb128 0x1
 3221 0286 9C       		.byte	0x9c
 3222 0287 13       		.uleb128 0x13
 3223 0288 33010000 		.4byte	.LASF33
 3224 028c 01       		.byte	0x1
 3225 028d 5D01     		.2byte	0x15d
 3226 028f 00000000 		.4byte	.LFB69
 3227 0293 50000000 		.4byte	.LFE69-.LFB69
 3228 0297 01       		.uleb128 0x1
 3229 0298 9C       		.byte	0x9c
 3230 0299 BC020000 		.4byte	0x2bc
 3231 029d 14       		.uleb128 0x14
 3232 029e 1C030000 		.4byte	.LASF34
 3233 02a2 01       		.byte	0x1
 3234 02a3 5D01     		.2byte	0x15d
 3235 02a5 A2000000 		.4byte	0xa2
 3236 02a9 02       		.uleb128 0x2
 3237 02aa 91       		.byte	0x91
 3238 02ab 76       		.sleb128 -10
 3239 02ac 14       		.uleb128 0x14
 3240 02ad 1C040000 		.4byte	.LASF35
 3241 02b1 01       		.byte	0x1
 3242 02b2 5D01     		.2byte	0x15d
 3243 02b4 AD000000 		.4byte	0xad
 3244 02b8 02       		.uleb128 0x2
 3245 02b9 91       		.byte	0x91
 3246 02ba 70       		.sleb128 -16
 3247 02bb 00       		.byte	0
 3248 02bc 13       		.uleb128 0x13
 3249 02bd 60030000 		.4byte	.LASF36
 3250 02c1 01       		.byte	0x1
 3251 02c2 6001     		.2byte	0x160
 3252 02c4 00000000 		.4byte	.LFB70
 3253 02c8 50000000 		.4byte	.LFE70-.LFB70
 3254 02cc 01       		.uleb128 0x1
 3255 02cd 9C       		.byte	0x9c
 3256 02ce F1020000 		.4byte	0x2f1
 3257 02d2 14       		.uleb128 0x14
 3258 02d3 1C030000 		.4byte	.LASF34
 3259 02d7 01       		.byte	0x1
 3260 02d8 6001     		.2byte	0x160
 3261 02da A2000000 		.4byte	0xa2
 3262 02de 02       		.uleb128 0x2
 3263 02df 91       		.byte	0x91
 3264 02e0 76       		.sleb128 -10
 3265 02e1 14       		.uleb128 0x14
 3266 02e2 1C040000 		.4byte	.LASF35
 3267 02e6 01       		.byte	0x1
 3268 02e7 6001     		.2byte	0x160
 3269 02e9 AD000000 		.4byte	0xad
 3270 02ed 02       		.uleb128 0x2
 3271 02ee 91       		.byte	0x91
 3272 02ef 70       		.sleb128 -16
 3273 02f0 00       		.byte	0
ARM GAS  C:\Users\dskyNote\AppData\Local\Temp\ccT2SVus.s 			page 70


 3274 02f1 17       		.uleb128 0x17
 3275 02f2 24000000 		.4byte	.LASF37
 3276 02f6 01       		.byte	0x1
 3277 02f7 6601     		.2byte	0x166
 3278 02f9 00000000 		.4byte	.LFB71
 3279 02fd 98040000 		.4byte	.LFE71-.LFB71
 3280 0301 01       		.uleb128 0x1
 3281 0302 9C       		.byte	0x9c
 3282 0303 18       		.uleb128 0x18
 3283 0304 9C010000 		.4byte	.LASF38
 3284 0308 01       		.byte	0x1
 3285 0309 FB01     		.2byte	0x1fb
 3286 030b 00000000 		.4byte	.LFB72
 3287 030f DC000000 		.4byte	.LFE72-.LFB72
 3288 0313 01       		.uleb128 0x1
 3289 0314 9C       		.byte	0x9c
 3290 0315 29030000 		.4byte	0x329
 3291 0319 14       		.uleb128 0x14
 3292 031a 5F000000 		.4byte	.LASF39
 3293 031e 01       		.byte	0x1
 3294 031f FB01     		.2byte	0x1fb
 3295 0321 81000000 		.4byte	0x81
 3296 0325 02       		.uleb128 0x2
 3297 0326 91       		.byte	0x91
 3298 0327 77       		.sleb128 -9
 3299 0328 00       		.byte	0
 3300 0329 19       		.uleb128 0x19
 3301 032a 69000000 		.4byte	.LASF40
 3302 032e 01       		.byte	0x1
 3303 032f 1502     		.2byte	0x215
 3304 0331 68000000 		.4byte	0x68
 3305 0335 00000000 		.4byte	.LFB73
 3306 0339 EC000000 		.4byte	.LFE73-.LFB73
 3307 033d 01       		.uleb128 0x1
 3308 033e 9C       		.byte	0x9c
 3309 033f 1A       		.uleb128 0x1a
 3310 0340 504900   		.ascii	"PI\000"
 3311 0343 01       		.byte	0x1
 3312 0344 5902     		.2byte	0x259
 3313 0346 00000000 		.4byte	.LFB74
 3314 034a 20000000 		.4byte	.LFE74-.LFB74
 3315 034e 01       		.uleb128 0x1
 3316 034f 9C       		.byte	0x9c
 3317 0350 17       		.uleb128 0x17
 3318 0351 F2030000 		.4byte	.LASF41
 3319 0355 01       		.byte	0x1
 3320 0356 6002     		.2byte	0x260
 3321 0358 00000000 		.4byte	.LFB75
 3322 035c 38000000 		.4byte	.LFE75-.LFB75
 3323 0360 01       		.uleb128 0x1
 3324 0361 9C       		.byte	0x9c
 3325 0362 17       		.uleb128 0x17
 3326 0363 07030000 		.4byte	.LASF42
 3327 0367 01       		.byte	0x1
 3328 0368 6B02     		.2byte	0x26b
 3329 036a 00000000 		.4byte	.LFB76
 3330 036e 22000000 		.4byte	.LFE76-.LFB76
ARM GAS  C:\Users\dskyNote\AppData\Local\Temp\ccT2SVus.s 			page 71


 3331 0372 01       		.uleb128 0x1
 3332 0373 9C       		.byte	0x9c
 3333 0374 17       		.uleb128 0x17
 3334 0375 85020000 		.4byte	.LASF43
 3335 0379 01       		.byte	0x1
 3336 037a 7202     		.2byte	0x272
 3337 037c 00000000 		.4byte	.LFB77
 3338 0380 0C000000 		.4byte	.LFE77-.LFB77
 3339 0384 01       		.uleb128 0x1
 3340 0385 9C       		.byte	0x9c
 3341 0386 17       		.uleb128 0x17
 3342 0387 4E010000 		.4byte	.LASF44
 3343 038b 01       		.byte	0x1
 3344 038c 7502     		.2byte	0x275
 3345 038e 00000000 		.4byte	.LFB78
 3346 0392 0C000000 		.4byte	.LFE78-.LFB78
 3347 0396 01       		.uleb128 0x1
 3348 0397 9C       		.byte	0x9c
 3349 0398 17       		.uleb128 0x17
 3350 0399 E9030000 		.4byte	.LASF45
 3351 039d 01       		.byte	0x1
 3352 039e 7802     		.2byte	0x278
 3353 03a0 00000000 		.4byte	.LFB79
 3354 03a4 0C000000 		.4byte	.LFE79-.LFB79
 3355 03a8 01       		.uleb128 0x1
 3356 03a9 9C       		.byte	0x9c
 3357 03aa 17       		.uleb128 0x17
 3358 03ab 45000000 		.4byte	.LASF46
 3359 03af 01       		.byte	0x1
 3360 03b0 7B02     		.2byte	0x27b
 3361 03b2 00000000 		.4byte	.LFB80
 3362 03b6 0C000000 		.4byte	.LFE80-.LFB80
 3363 03ba 01       		.uleb128 0x1
 3364 03bb 9C       		.byte	0x9c
 3365 03bc 1B       		.uleb128 0x1b
 3366 03bd F7030000 		.4byte	.LASF47
 3367 03c1 05       		.byte	0x5
 3368 03c2 1606     		.2byte	0x616
 3369 03c4 C8030000 		.4byte	0x3c8
 3370 03c8 1C       		.uleb128 0x1c
 3371 03c9 76000000 		.4byte	0x76
 3372 03cd 1D       		.uleb128 0x1d
 3373 03ce A7000000 		.4byte	.LASF48
 3374 03d2 01       		.byte	0x1
 3375 03d3 0B       		.byte	0xb
 3376 03d4 97000000 		.4byte	0x97
 3377 03d8 05       		.uleb128 0x5
 3378 03d9 03       		.byte	0x3
 3379 03da 00000000 		.4byte	Sforward
 3380 03de 1D       		.uleb128 0x1d
 3381 03df 9A000000 		.4byte	.LASF49
 3382 03e3 01       		.byte	0x1
 3383 03e4 0B       		.byte	0xb
 3384 03e5 97000000 		.4byte	0x97
 3385 03e9 05       		.uleb128 0x5
 3386 03ea 03       		.byte	0x3
 3387 03eb 00000000 		.4byte	Sback
ARM GAS  C:\Users\dskyNote\AppData\Local\Temp\ccT2SVus.s 			page 72


 3388 03ef 1D       		.uleb128 0x1d
 3389 03f0 59000000 		.4byte	.LASF50
 3390 03f4 01       		.byte	0x1
 3391 03f5 0B       		.byte	0xb
 3392 03f6 97000000 		.4byte	0x97
 3393 03fa 05       		.uleb128 0x5
 3394 03fb 03       		.byte	0x3
 3395 03fc 00000000 		.4byte	Sleft
 3396 0400 1D       		.uleb128 0x1d
 3397 0401 51020000 		.4byte	.LASF51
 3398 0405 01       		.byte	0x1
 3399 0406 0B       		.byte	0xb
 3400 0407 97000000 		.4byte	0x97
 3401 040b 05       		.uleb128 0x5
 3402 040c 03       		.byte	0x3
 3403 040d 00000000 		.4byte	Sright
 3404 0411 1D       		.uleb128 0x1d
 3405 0412 16020000 		.4byte	.LASF52
 3406 0416 01       		.byte	0x1
 3407 0417 0B       		.byte	0xb
 3408 0418 97000000 		.4byte	0x97
 3409 041c 05       		.uleb128 0x5
 3410 041d 03       		.byte	0x3
 3411 041e 00000000 		.4byte	DirectionFR
 3412 0422 1D       		.uleb128 0x1d
 3413 0423 18000000 		.4byte	.LASF53
 3414 0427 01       		.byte	0x1
 3415 0428 0B       		.byte	0xb
 3416 0429 97000000 		.4byte	0x97
 3417 042d 05       		.uleb128 0x5
 3418 042e 03       		.byte	0x3
 3419 042f 00000000 		.4byte	DirectionRL
 3420 0433 1D       		.uleb128 0x1d
 3421 0434 A6010000 		.4byte	.LASF54
 3422 0438 01       		.byte	0x1
 3423 0439 0B       		.byte	0xb
 3424 043a 97000000 		.4byte	0x97
 3425 043e 05       		.uleb128 0x5
 3426 043f 03       		.byte	0x3
 3427 0440 00000000 		.4byte	DirectionNextFR
 3428 0444 1D       		.uleb128 0x1d
 3429 0445 A7030000 		.4byte	.LASF55
 3430 0449 01       		.byte	0x1
 3431 044a 0C       		.byte	0xc
 3432 044b 81000000 		.4byte	0x81
 3433 044f 05       		.uleb128 0x5
 3434 0450 03       		.byte	0x3
 3435 0451 00000000 		.4byte	Speed
 3436 0455 1D       		.uleb128 0x1d
 3437 0456 84030000 		.4byte	.LASF56
 3438 045a 01       		.byte	0x1
 3439 045b 0C       		.byte	0xc
 3440 045c 81000000 		.4byte	0x81
 3441 0460 05       		.uleb128 0x5
 3442 0461 03       		.byte	0x3
 3443 0462 00000000 		.4byte	ZigBeeModeStage
 3444 0466 1D       		.uleb128 0x1d
ARM GAS  C:\Users\dskyNote\AppData\Local\Temp\ccT2SVus.s 			page 73


 3445 0467 E2020000 		.4byte	.LASF57
 3446 046b 01       		.byte	0x1
 3447 046c 0C       		.byte	0xc
 3448 046d 81000000 		.4byte	0x81
 3449 0471 05       		.uleb128 0x5
 3450 0472 03       		.byte	0x3
 3451 0473 00000000 		.4byte	AutoModeStage
 3452 0477 1D       		.uleb128 0x1d
 3453 0478 2C040000 		.4byte	.LASF58
 3454 047c 01       		.byte	0x1
 3455 047d 1C       		.byte	0x1c
 3456 047e 81000000 		.4byte	0x81
 3457 0482 05       		.uleb128 0x5
 3458 0483 03       		.byte	0x3
 3459 0484 00000000 		.4byte	oldRFID
 3460 0488 08       		.uleb128 0x8
 3461 0489 A2000000 		.4byte	0xa2
 3462 048d 98040000 		.4byte	0x498
 3463 0491 09       		.uleb128 0x9
 3464 0492 D5000000 		.4byte	0xd5
 3465 0496 01       		.byte	0x1
 3466 0497 00       		.byte	0
 3467 0498 1E       		.uleb128 0x1e
 3468 0499 647800   		.ascii	"dx\000"
 3469 049c 01       		.byte	0x1
 3470 049d 0D       		.byte	0xd
 3471 049e 88040000 		.4byte	0x488
 3472 04a2 05       		.uleb128 0x5
 3473 04a3 03       		.byte	0x3
 3474 04a4 00000000 		.4byte	dx
 3475 04a8 1E       		.uleb128 0x1e
 3476 04a9 647900   		.ascii	"dy\000"
 3477 04ac 01       		.byte	0x1
 3478 04ad 0D       		.byte	0xd
 3479 04ae 88040000 		.4byte	0x488
 3480 04b2 05       		.uleb128 0x5
 3481 04b3 03       		.byte	0x3
 3482 04b4 00000000 		.4byte	dy
 3483 04b8 1D       		.uleb128 0x1d
 3484 04b9 E5010000 		.4byte	.LASF59
 3485 04bd 01       		.byte	0x1
 3486 04be 0D       		.byte	0xd
 3487 04bf 88040000 		.4byte	0x488
 3488 04c3 05       		.uleb128 0x5
 3489 04c4 03       		.byte	0x3
 3490 04c5 00000000 		.4byte	dangle
 3491 04c9 1E       		.uleb128 0x1e
 3492 04ca 64767800 		.ascii	"dvx\000"
 3493 04ce 01       		.byte	0x1
 3494 04cf 0D       		.byte	0xd
 3495 04d0 A2000000 		.4byte	0xa2
 3496 04d4 05       		.uleb128 0x5
 3497 04d5 03       		.byte	0x3
 3498 04d6 00000000 		.4byte	dvx
 3499 04da 1E       		.uleb128 0x1e
 3500 04db 64767900 		.ascii	"dvy\000"
 3501 04df 01       		.byte	0x1
ARM GAS  C:\Users\dskyNote\AppData\Local\Temp\ccT2SVus.s 			page 74


 3502 04e0 0D       		.byte	0xd
 3503 04e1 A2000000 		.4byte	0xa2
 3504 04e5 05       		.uleb128 0x5
 3505 04e6 03       		.byte	0x3
 3506 04e7 00000000 		.4byte	dvy
 3507 04eb 1D       		.uleb128 0x1d
 3508 04ec 6F030000 		.4byte	.LASF60
 3509 04f0 01       		.byte	0x1
 3510 04f1 0D       		.byte	0xd
 3511 04f2 A2000000 		.4byte	0xa2
 3512 04f6 05       		.uleb128 0x5
 3513 04f7 03       		.byte	0x3
 3514 04f8 00000000 		.4byte	dvangle
 3515 04fc 1E       		.uleb128 0x1e
 3516 04fd 783100   		.ascii	"x1\000"
 3517 0500 01       		.byte	0x1
 3518 0501 0E       		.byte	0xe
 3519 0502 97000000 		.4byte	0x97
 3520 0506 05       		.uleb128 0x5
 3521 0507 03       		.byte	0x3
 3522 0508 00000000 		.4byte	x1
 3523 050c 1D       		.uleb128 0x1d
 3524 050d A0000000 		.4byte	.LASF61
 3525 0511 01       		.byte	0x1
 3526 0512 0F       		.byte	0xf
 3527 0513 A2000000 		.4byte	0xa2
 3528 0517 05       		.uleb128 0x5
 3529 0518 03       		.byte	0x3
 3530 0519 00000000 		.4byte	goalFR
 3531 051d 1D       		.uleb128 0x1d
 3532 051e 1C030000 		.4byte	.LASF34
 3533 0522 01       		.byte	0x1
 3534 0523 10       		.byte	0x10
 3535 0524 97000000 		.4byte	0x97
 3536 0528 05       		.uleb128 0x5
 3537 0529 03       		.byte	0x3
 3538 052a 00000000 		.4byte	maxSpeed
 3539 052e 1D       		.uleb128 0x1d
 3540 052f F0020000 		.4byte	.LASF62
 3541 0533 01       		.byte	0x1
 3542 0534 11       		.byte	0x11
 3543 0535 8C000000 		.4byte	0x8c
 3544 0539 05       		.uleb128 0x5
 3545 053a 03       		.byte	0x3
 3546 053b 00000000 		.4byte	delaytime
 3547 053f 1E       		.uleb128 0x1e
 3548 0540 6E465200 		.ascii	"nFR\000"
 3549 0544 01       		.byte	0x1
 3550 0545 12       		.byte	0x12
 3551 0546 AD000000 		.4byte	0xad
 3552 054a 05       		.uleb128 0x5
 3553 054b 03       		.byte	0x3
 3554 054c 00000000 		.4byte	nFR
 3555 0550 1E       		.uleb128 0x1e
 3556 0551 6E524C00 		.ascii	"nRL\000"
 3557 0555 01       		.byte	0x1
 3558 0556 12       		.byte	0x12
ARM GAS  C:\Users\dskyNote\AppData\Local\Temp\ccT2SVus.s 			page 75


 3559 0557 AD000000 		.4byte	0xad
 3560 055b 05       		.uleb128 0x5
 3561 055c 03       		.byte	0x3
 3562 055d 00000000 		.4byte	nRL
 3563 0561 1D       		.uleb128 0x1d
 3564 0562 37030000 		.4byte	.LASF27
 3565 0566 01       		.byte	0x1
 3566 0567 12       		.byte	0x12
 3567 0568 AD000000 		.4byte	0xad
 3568 056c 05       		.uleb128 0x5
 3569 056d 03       		.byte	0x3
 3570 056e 00000000 		.4byte	nRotate
 3571 0572 1D       		.uleb128 0x1d
 3572 0573 77030000 		.4byte	.LASF63
 3573 0577 01       		.byte	0x1
 3574 0578 13       		.byte	0x13
 3575 0579 97000000 		.4byte	0x97
 3576 057d 05       		.uleb128 0x5
 3577 057e 03       		.byte	0x3
 3578 057f 00000000 		.4byte	OffSetRotate
 3579 0583 1D       		.uleb128 0x1d
 3580 0584 0F000000 		.4byte	.LASF64
 3581 0588 01       		.byte	0x1
 3582 0589 13       		.byte	0x13
 3583 058a 97000000 		.4byte	0x97
 3584 058e 05       		.uleb128 0x5
 3585 058f 03       		.byte	0x3
 3586 0590 00000000 		.4byte	OffSetRL
 3587 0594 1D       		.uleb128 0x1d
 3588 0595 56030000 		.4byte	.LASF65
 3589 0599 01       		.byte	0x1
 3590 059a 14       		.byte	0x14
 3591 059b 97000000 		.4byte	0x97
 3592 059f 05       		.uleb128 0x5
 3593 05a0 03       		.byte	0x3
 3594 05a1 00000000 		.4byte	EnabelPS3
 3595 05a5 1E       		.uleb128 0x1e
 3596 05a6 693100   		.ascii	"i1\000"
 3597 05a9 01       		.byte	0x1
 3598 05aa 1A       		.byte	0x1a
 3599 05ab 81000000 		.4byte	0x81
 3600 05af 05       		.uleb128 0x5
 3601 05b0 03       		.byte	0x3
 3602 05b1 00000000 		.4byte	i1
 3603 05b5 1E       		.uleb128 0x1e
 3604 05b6 693200   		.ascii	"i2\000"
 3605 05b9 01       		.byte	0x1
 3606 05ba 1A       		.byte	0x1a
 3607 05bb 81000000 		.4byte	0x81
 3608 05bf 05       		.uleb128 0x5
 3609 05c0 03       		.byte	0x3
 3610 05c1 00000000 		.4byte	i2
 3611 05c5 1E       		.uleb128 0x1e
 3612 05c6 693300   		.ascii	"i3\000"
 3613 05c9 01       		.byte	0x1
 3614 05ca 1A       		.byte	0x1a
 3615 05cb 81000000 		.4byte	0x81
ARM GAS  C:\Users\dskyNote\AppData\Local\Temp\ccT2SVus.s 			page 76


 3616 05cf 05       		.uleb128 0x5
 3617 05d0 03       		.byte	0x3
 3618 05d1 00000000 		.4byte	i3
 3619 05d5 1E       		.uleb128 0x1e
 3620 05d6 693400   		.ascii	"i4\000"
 3621 05d9 01       		.byte	0x1
 3622 05da 1A       		.byte	0x1a
 3623 05db 81000000 		.4byte	0x81
 3624 05df 05       		.uleb128 0x5
 3625 05e0 03       		.byte	0x3
 3626 05e1 00000000 		.4byte	i4
 3627 05e5 1E       		.uleb128 0x1e
 3628 05e6 693500   		.ascii	"i5\000"
 3629 05e9 01       		.byte	0x1
 3630 05ea 1A       		.byte	0x1a
 3631 05eb 81000000 		.4byte	0x81
 3632 05ef 05       		.uleb128 0x5
 3633 05f0 03       		.byte	0x3
 3634 05f1 00000000 		.4byte	i5
 3635 05f5 1D       		.uleb128 0x1d
 3636 05f6 46030000 		.4byte	.LASF66
 3637 05fa 01       		.byte	0x1
 3638 05fb 1B       		.byte	0x1b
 3639 05fc DC000000 		.4byte	0xdc
 3640 0600 05       		.uleb128 0x5
 3641 0601 03       		.byte	0x3
 3642 0602 00000000 		.4byte	LineSensor
 3643 0606 1D       		.uleb128 0x1d
 3644 0607 37000000 		.4byte	.LASF67
 3645 060b 01       		.byte	0x1
 3646 060c 1B       		.byte	0x1b
 3647 060d DC000000 		.4byte	0xdc
 3648 0611 05       		.uleb128 0x5
 3649 0612 03       		.byte	0x3
 3650 0613 00000000 		.4byte	SendData
 3651 0617 08       		.uleb128 0x8
 3652 0618 81000000 		.4byte	0x81
 3653 061c 27060000 		.4byte	0x627
 3654 0620 09       		.uleb128 0x9
 3655 0621 D5000000 		.4byte	0xd5
 3656 0625 08       		.byte	0x8
 3657 0626 00       		.byte	0
 3658 0627 1D       		.uleb128 0x1d
 3659 0628 58020000 		.4byte	.LASF68
 3660 062c 01       		.byte	0x1
 3661 062d 1B       		.byte	0x1b
 3662 062e 17060000 		.4byte	0x617
 3663 0632 05       		.uleb128 0x5
 3664 0633 03       		.byte	0x3
 3665 0634 00000000 		.4byte	RFID
 3666 0638 08       		.uleb128 0x8
 3667 0639 81000000 		.4byte	0x81
 3668 063d 48060000 		.4byte	0x648
 3669 0641 09       		.uleb128 0x9
 3670 0642 D5000000 		.4byte	0xd5
 3671 0646 07       		.byte	0x7
 3672 0647 00       		.byte	0
ARM GAS  C:\Users\dskyNote\AppData\Local\Temp\ccT2SVus.s 			page 77


 3673 0648 1D       		.uleb128 0x1d
 3674 0649 77010000 		.4byte	.LASF69
 3675 064d 01       		.byte	0x1
 3676 064e 1C       		.byte	0x1c
 3677 064f 38060000 		.4byte	0x638
 3678 0653 05       		.uleb128 0x5
 3679 0654 03       		.byte	0x3
 3680 0655 00000000 		.4byte	OLD_RFID
 3681 0659 1D       		.uleb128 0x1d
 3682 065a 64010000 		.4byte	.LASF70
 3683 065e 01       		.byte	0x1
 3684 065f 1C       		.byte	0x1c
 3685 0660 81000000 		.4byte	0x81
 3686 0664 05       		.uleb128 0x5
 3687 0665 03       		.byte	0x3
 3688 0666 00000000 		.4byte	CheckSumRFID
 3689 066a 1D       		.uleb128 0x1d
 3690 066b FA020000 		.4byte	.LASF71
 3691 066f 01       		.byte	0x1
 3692 0670 1D       		.byte	0x1d
 3693 0671 81000000 		.4byte	0x81
 3694 0675 05       		.uleb128 0x5
 3695 0676 03       		.byte	0x3
 3696 0677 00000000 		.4byte	flgException
 3697 067b 1D       		.uleb128 0x1d
 3698 067c C2020000 		.4byte	.LASF72
 3699 0680 01       		.byte	0x1
 3700 0681 1D       		.byte	0x1d
 3701 0682 81000000 		.4byte	0x81
 3702 0686 05       		.uleb128 0x5
 3703 0687 03       		.byte	0x3
 3704 0688 00000000 		.4byte	flgPIPI
 3705 068c 1D       		.uleb128 0x1d
 3706 068d CA020000 		.4byte	.LASF73
 3707 0691 01       		.byte	0x1
 3708 0692 1D       		.byte	0x1d
 3709 0693 81000000 		.4byte	0x81
 3710 0697 05       		.uleb128 0x5
 3711 0698 03       		.byte	0x3
 3712 0699 00000000 		.4byte	flgSlide
 3713 069d 1D       		.uleb128 0x1d
 3714 069e B6010000 		.4byte	.LASF74
 3715 06a2 01       		.byte	0x1
 3716 06a3 1D       		.byte	0x1d
 3717 06a4 81000000 		.4byte	0x81
 3718 06a8 05       		.uleb128 0x5
 3719 06a9 03       		.byte	0x3
 3720 06aa 00000000 		.4byte	flgCompA
 3721 06ae 1D       		.uleb128 0x1d
 3722 06af 04020000 		.4byte	.LASF75
 3723 06b3 01       		.byte	0x1
 3724 06b4 1D       		.byte	0x1d
 3725 06b5 81000000 		.4byte	0x81
 3726 06b9 05       		.uleb128 0x5
 3727 06ba 03       		.byte	0x3
 3728 06bb 00000000 		.4byte	flgZigBeeReceived
 3729 06bf 1D       		.uleb128 0x1d
ARM GAS  C:\Users\dskyNote\AppData\Local\Temp\ccT2SVus.s 			page 78


 3730 06c0 22040000 		.4byte	.LASF76
 3731 06c4 01       		.byte	0x1
 3732 06c5 1D       		.byte	0x1d
 3733 06c6 81000000 		.4byte	0x81
 3734 06ca 05       		.uleb128 0x5
 3735 06cb 03       		.byte	0x3
 3736 06cc 00000000 		.4byte	flgCaught
 3737 06d0 1D       		.uleb128 0x1d
 3738 06d1 A2020000 		.4byte	.LASF77
 3739 06d5 01       		.byte	0x1
 3740 06d6 1D       		.byte	0x1d
 3741 06d7 81000000 		.4byte	0x81
 3742 06db 05       		.uleb128 0x5
 3743 06dc 03       		.byte	0x3
 3744 06dd 00000000 		.4byte	flgZigBeeMode
 3745 06e1 1D       		.uleb128 0x1d
 3746 06e2 5D020000 		.4byte	.LASF78
 3747 06e6 01       		.byte	0x1
 3748 06e7 1D       		.byte	0x1d
 3749 06e8 81000000 		.4byte	0x81
 3750 06ec 05       		.uleb128 0x5
 3751 06ed 03       		.byte	0x3
 3752 06ee 00000000 		.4byte	flgErr
 3753 06f2 08       		.uleb128 0x8
 3754 06f3 81000000 		.4byte	0x81
 3755 06f7 02070000 		.4byte	0x702
 3756 06fb 09       		.uleb128 0x9
 3757 06fc D5000000 		.4byte	0xd5
 3758 0700 10       		.byte	0x10
 3759 0701 00       		.byte	0
 3760 0702 1E       		.uleb128 0x1e
 3761 0703 6E756D00 		.ascii	"num\000"
 3762 0707 01       		.byte	0x1
 3763 0708 20       		.byte	0x20
 3764 0709 F2060000 		.4byte	0x6f2
 3765 070d 05       		.uleb128 0x5
 3766 070e 03       		.byte	0x3
 3767 070f 00000000 		.4byte	num
 3768 0713 1D       		.uleb128 0x1d
 3769 0714 C0030000 		.4byte	.LASF79
 3770 0718 01       		.byte	0x1
 3771 0719 20       		.byte	0x20
 3772 071a DC000000 		.4byte	0xdc
 3773 071e 05       		.uleb128 0x5
 3774 071f 03       		.byte	0x3
 3775 0720 00000000 		.4byte	astic
 3776 0724 1D       		.uleb128 0x1d
 3777 0725 0C030000 		.4byte	.LASF80
 3778 0729 01       		.byte	0x1
 3779 072a 21       		.byte	0x21
 3780 072b 81000000 		.4byte	0x81
 3781 072f 05       		.uleb128 0x5
 3782 0730 03       		.byte	0x3
 3783 0731 00000000 		.4byte	sum1
 3784 0735 1D       		.uleb128 0x1d
 3785 0736 95000000 		.4byte	.LASF81
 3786 073a 01       		.byte	0x1
ARM GAS  C:\Users\dskyNote\AppData\Local\Temp\ccT2SVus.s 			page 79


 3787 073b 21       		.byte	0x21
 3788 073c 81000000 		.4byte	0x81
 3789 0740 05       		.uleb128 0x5
 3790 0741 03       		.byte	0x3
 3791 0742 00000000 		.4byte	mode
 3792 0746 1D       		.uleb128 0x1d
 3793 0747 69020000 		.4byte	.LASF82
 3794 074b 01       		.byte	0x1
 3795 074c 22       		.byte	0x22
 3796 074d 81000000 		.4byte	0x81
 3797 0751 05       		.uleb128 0x5
 3798 0752 03       		.byte	0x3
 3799 0753 00000000 		.4byte	ButtonStatus1
 3800 0757 1D       		.uleb128 0x1d
 3801 0758 77020000 		.4byte	.LASF83
 3802 075c 01       		.byte	0x1
 3803 075d 22       		.byte	0x22
 3804 075e 81000000 		.4byte	0x81
 3805 0762 05       		.uleb128 0x5
 3806 0763 03       		.byte	0x3
 3807 0764 00000000 		.4byte	ButtonStatus2
 3808 0768 1D       		.uleb128 0x1d
 3809 0769 CE010000 		.4byte	.LASF84
 3810 076d 01       		.byte	0x1
 3811 076e 22       		.byte	0x22
 3812 076f 81000000 		.4byte	0x81
 3813 0773 05       		.uleb128 0x5
 3814 0774 03       		.byte	0x3
 3815 0775 00000000 		.4byte	CheckSum
 3816 0779 1E       		.uleb128 0x1e
 3817 077a 4B7000   		.ascii	"Kp\000"
 3818 077d 01       		.byte	0x1
 3819 077e 23       		.byte	0x23
 3820 077f AD000000 		.4byte	0xad
 3821 0783 05       		.uleb128 0x5
 3822 0784 03       		.byte	0x3
 3823 0785 00000000 		.4byte	Kp
 3824 0789 1E       		.uleb128 0x1e
 3825 078a 6B6900   		.ascii	"ki\000"
 3826 078d 01       		.byte	0x1
 3827 078e 23       		.byte	0x23
 3828 078f AD000000 		.4byte	0xad
 3829 0793 05       		.uleb128 0x5
 3830 0794 03       		.byte	0x3
 3831 0795 00000000 		.4byte	ki
 3832 0799 1E       		.uleb128 0x1e
 3833 079a 6B6400   		.ascii	"kd\000"
 3834 079d 01       		.byte	0x1
 3835 079e 23       		.byte	0x23
 3836 079f AD000000 		.4byte	0xad
 3837 07a3 05       		.uleb128 0x5
 3838 07a4 03       		.byte	0x3
 3839 07a5 00000000 		.4byte	kd
 3840 07a9 1D       		.uleb128 0x1d
 3841 07aa B0020000 		.4byte	.LASF85
 3842 07ae 01       		.byte	0x1
 3843 07af 24       		.byte	0x24
ARM GAS  C:\Users\dskyNote\AppData\Local\Temp\ccT2SVus.s 			page 80


 3844 07b0 81000000 		.4byte	0x81
 3845 07b4 05       		.uleb128 0x5
 3846 07b5 03       		.byte	0x3
 3847 07b6 00000000 		.4byte	ZigBeeMsg
 3848 07ba 1D       		.uleb128 0x1d
 3849 07bb 11030000 		.4byte	.LASF86
 3850 07bf 01       		.byte	0x1
 3851 07c0 26       		.byte	0x26
 3852 07c1 81000000 		.4byte	0x81
 3853 07c5 05       		.uleb128 0x5
 3854 07c6 03       		.byte	0x3
 3855 07c7 00000000 		.4byte	flgNewRFID
 3856 07cb 00       		.byte	0
 3857              		.section	.debug_abbrev,"",%progbits
 3858              	.Ldebug_abbrev0:
 3859 0000 01       		.uleb128 0x1
 3860 0001 11       		.uleb128 0x11
 3861 0002 01       		.byte	0x1
 3862 0003 25       		.uleb128 0x25
 3863 0004 0E       		.uleb128 0xe
 3864 0005 13       		.uleb128 0x13
 3865 0006 0B       		.uleb128 0xb
 3866 0007 03       		.uleb128 0x3
 3867 0008 0E       		.uleb128 0xe
 3868 0009 1B       		.uleb128 0x1b
 3869 000a 0E       		.uleb128 0xe
 3870 000b 55       		.uleb128 0x55
 3871 000c 17       		.uleb128 0x17
 3872 000d 11       		.uleb128 0x11
 3873 000e 01       		.uleb128 0x1
 3874 000f 10       		.uleb128 0x10
 3875 0010 17       		.uleb128 0x17
 3876 0011 00       		.byte	0
 3877 0012 00       		.byte	0
 3878 0013 02       		.uleb128 0x2
 3879 0014 24       		.uleb128 0x24
 3880 0015 00       		.byte	0
 3881 0016 0B       		.uleb128 0xb
 3882 0017 0B       		.uleb128 0xb
 3883 0018 3E       		.uleb128 0x3e
 3884 0019 0B       		.uleb128 0xb
 3885 001a 03       		.uleb128 0x3
 3886 001b 0E       		.uleb128 0xe
 3887 001c 00       		.byte	0
 3888 001d 00       		.byte	0
 3889 001e 03       		.uleb128 0x3
 3890 001f 16       		.uleb128 0x16
 3891 0020 00       		.byte	0
 3892 0021 03       		.uleb128 0x3
 3893 0022 0E       		.uleb128 0xe
 3894 0023 3A       		.uleb128 0x3a
 3895 0024 0B       		.uleb128 0xb
 3896 0025 3B       		.uleb128 0x3b
 3897 0026 0B       		.uleb128 0xb
 3898 0027 49       		.uleb128 0x49
 3899 0028 13       		.uleb128 0x13
 3900 0029 00       		.byte	0
ARM GAS  C:\Users\dskyNote\AppData\Local\Temp\ccT2SVus.s 			page 81


 3901 002a 00       		.byte	0
 3902 002b 04       		.uleb128 0x4
 3903 002c 24       		.uleb128 0x24
 3904 002d 00       		.byte	0
 3905 002e 0B       		.uleb128 0xb
 3906 002f 0B       		.uleb128 0xb
 3907 0030 3E       		.uleb128 0x3e
 3908 0031 0B       		.uleb128 0xb
 3909 0032 03       		.uleb128 0x3
 3910 0033 08       		.uleb128 0x8
 3911 0034 00       		.byte	0
 3912 0035 00       		.byte	0
 3913 0036 05       		.uleb128 0x5
 3914 0037 16       		.uleb128 0x16
 3915 0038 00       		.byte	0
 3916 0039 03       		.uleb128 0x3
 3917 003a 0E       		.uleb128 0xe
 3918 003b 3A       		.uleb128 0x3a
 3919 003c 0B       		.uleb128 0xb
 3920 003d 3B       		.uleb128 0x3b
 3921 003e 05       		.uleb128 0x5
 3922 003f 49       		.uleb128 0x49
 3923 0040 13       		.uleb128 0x13
 3924 0041 00       		.byte	0
 3925 0042 00       		.byte	0
 3926 0043 06       		.uleb128 0x6
 3927 0044 0F       		.uleb128 0xf
 3928 0045 00       		.byte	0
 3929 0046 0B       		.uleb128 0xb
 3930 0047 0B       		.uleb128 0xb
 3931 0048 49       		.uleb128 0x49
 3932 0049 13       		.uleb128 0x13
 3933 004a 00       		.byte	0
 3934 004b 00       		.byte	0
 3935 004c 07       		.uleb128 0x7
 3936 004d 15       		.uleb128 0x15
 3937 004e 00       		.byte	0
 3938 004f 27       		.uleb128 0x27
 3939 0050 19       		.uleb128 0x19
 3940 0051 00       		.byte	0
 3941 0052 00       		.byte	0
 3942 0053 08       		.uleb128 0x8
 3943 0054 01       		.uleb128 0x1
 3944 0055 01       		.byte	0x1
 3945 0056 49       		.uleb128 0x49
 3946 0057 13       		.uleb128 0x13
 3947 0058 01       		.uleb128 0x1
 3948 0059 13       		.uleb128 0x13
 3949 005a 00       		.byte	0
 3950 005b 00       		.byte	0
 3951 005c 09       		.uleb128 0x9
 3952 005d 21       		.uleb128 0x21
 3953 005e 00       		.byte	0
 3954 005f 49       		.uleb128 0x49
 3955 0060 13       		.uleb128 0x13
 3956 0061 2F       		.uleb128 0x2f
 3957 0062 0B       		.uleb128 0xb
ARM GAS  C:\Users\dskyNote\AppData\Local\Temp\ccT2SVus.s 			page 82


 3958 0063 00       		.byte	0
 3959 0064 00       		.byte	0
 3960 0065 0A       		.uleb128 0xa
 3961 0066 2E       		.uleb128 0x2e
 3962 0067 01       		.byte	0x1
 3963 0068 3F       		.uleb128 0x3f
 3964 0069 19       		.uleb128 0x19
 3965 006a 03       		.uleb128 0x3
 3966 006b 08       		.uleb128 0x8
 3967 006c 3A       		.uleb128 0x3a
 3968 006d 0B       		.uleb128 0xb
 3969 006e 3B       		.uleb128 0x3b
 3970 006f 0B       		.uleb128 0xb
 3971 0070 27       		.uleb128 0x27
 3972 0071 19       		.uleb128 0x19
 3973 0072 11       		.uleb128 0x11
 3974 0073 01       		.uleb128 0x1
 3975 0074 12       		.uleb128 0x12
 3976 0075 06       		.uleb128 0x6
 3977 0076 40       		.uleb128 0x40
 3978 0077 18       		.uleb128 0x18
 3979 0078 9642     		.uleb128 0x2116
 3980 007a 19       		.uleb128 0x19
 3981 007b 01       		.uleb128 0x1
 3982 007c 13       		.uleb128 0x13
 3983 007d 00       		.byte	0
 3984 007e 00       		.byte	0
 3985 007f 0B       		.uleb128 0xb
 3986 0080 05       		.uleb128 0x5
 3987 0081 00       		.byte	0
 3988 0082 03       		.uleb128 0x3
 3989 0083 08       		.uleb128 0x8
 3990 0084 3A       		.uleb128 0x3a
 3991 0085 0B       		.uleb128 0xb
 3992 0086 3B       		.uleb128 0x3b
 3993 0087 0B       		.uleb128 0xb
 3994 0088 49       		.uleb128 0x49
 3995 0089 13       		.uleb128 0x13
 3996 008a 02       		.uleb128 0x2
 3997 008b 18       		.uleb128 0x18
 3998 008c 00       		.byte	0
 3999 008d 00       		.byte	0
 4000 008e 0C       		.uleb128 0xc
 4001 008f 05       		.uleb128 0x5
 4002 0090 00       		.byte	0
 4003 0091 03       		.uleb128 0x3
 4004 0092 0E       		.uleb128 0xe
 4005 0093 3A       		.uleb128 0x3a
 4006 0094 0B       		.uleb128 0xb
 4007 0095 3B       		.uleb128 0x3b
 4008 0096 0B       		.uleb128 0xb
 4009 0097 49       		.uleb128 0x49
 4010 0098 13       		.uleb128 0x13
 4011 0099 02       		.uleb128 0x2
 4012 009a 18       		.uleb128 0x18
 4013 009b 00       		.byte	0
 4014 009c 00       		.byte	0
ARM GAS  C:\Users\dskyNote\AppData\Local\Temp\ccT2SVus.s 			page 83


 4015 009d 0D       		.uleb128 0xd
 4016 009e 2E       		.uleb128 0x2e
 4017 009f 00       		.byte	0
 4018 00a0 3F       		.uleb128 0x3f
 4019 00a1 19       		.uleb128 0x19
 4020 00a2 03       		.uleb128 0x3
 4021 00a3 0E       		.uleb128 0xe
 4022 00a4 3A       		.uleb128 0x3a
 4023 00a5 0B       		.uleb128 0xb
 4024 00a6 3B       		.uleb128 0x3b
 4025 00a7 0B       		.uleb128 0xb
 4026 00a8 27       		.uleb128 0x27
 4027 00a9 19       		.uleb128 0x19
 4028 00aa 11       		.uleb128 0x11
 4029 00ab 01       		.uleb128 0x1
 4030 00ac 12       		.uleb128 0x12
 4031 00ad 06       		.uleb128 0x6
 4032 00ae 40       		.uleb128 0x40
 4033 00af 18       		.uleb128 0x18
 4034 00b0 9642     		.uleb128 0x2116
 4035 00b2 19       		.uleb128 0x19
 4036 00b3 00       		.byte	0
 4037 00b4 00       		.byte	0
 4038 00b5 0E       		.uleb128 0xe
 4039 00b6 2E       		.uleb128 0x2e
 4040 00b7 01       		.byte	0x1
 4041 00b8 3F       		.uleb128 0x3f
 4042 00b9 19       		.uleb128 0x19
 4043 00ba 03       		.uleb128 0x3
 4044 00bb 0E       		.uleb128 0xe
 4045 00bc 3A       		.uleb128 0x3a
 4046 00bd 0B       		.uleb128 0xb
 4047 00be 3B       		.uleb128 0x3b
 4048 00bf 0B       		.uleb128 0xb
 4049 00c0 27       		.uleb128 0x27
 4050 00c1 19       		.uleb128 0x19
 4051 00c2 11       		.uleb128 0x11
 4052 00c3 01       		.uleb128 0x1
 4053 00c4 12       		.uleb128 0x12
 4054 00c5 06       		.uleb128 0x6
 4055 00c6 40       		.uleb128 0x40
 4056 00c7 18       		.uleb128 0x18
 4057 00c8 9642     		.uleb128 0x2116
 4058 00ca 19       		.uleb128 0x19
 4059 00cb 01       		.uleb128 0x1
 4060 00cc 13       		.uleb128 0x13
 4061 00cd 00       		.byte	0
 4062 00ce 00       		.byte	0
 4063 00cf 0F       		.uleb128 0xf
 4064 00d0 34       		.uleb128 0x34
 4065 00d1 00       		.byte	0
 4066 00d2 03       		.uleb128 0x3
 4067 00d3 0E       		.uleb128 0xe
 4068 00d4 3A       		.uleb128 0x3a
 4069 00d5 0B       		.uleb128 0xb
 4070 00d6 3B       		.uleb128 0x3b
 4071 00d7 0B       		.uleb128 0xb
ARM GAS  C:\Users\dskyNote\AppData\Local\Temp\ccT2SVus.s 			page 84


 4072 00d8 49       		.uleb128 0x49
 4073 00d9 13       		.uleb128 0x13
 4074 00da 00       		.byte	0
 4075 00db 00       		.byte	0
 4076 00dc 10       		.uleb128 0x10
 4077 00dd 2E       		.uleb128 0x2e
 4078 00de 00       		.byte	0
 4079 00df 3F       		.uleb128 0x3f
 4080 00e0 19       		.uleb128 0x19
 4081 00e1 03       		.uleb128 0x3
 4082 00e2 0E       		.uleb128 0xe
 4083 00e3 3A       		.uleb128 0x3a
 4084 00e4 0B       		.uleb128 0xb
 4085 00e5 3B       		.uleb128 0x3b
 4086 00e6 0B       		.uleb128 0xb
 4087 00e7 27       		.uleb128 0x27
 4088 00e8 19       		.uleb128 0x19
 4089 00e9 49       		.uleb128 0x49
 4090 00ea 13       		.uleb128 0x13
 4091 00eb 11       		.uleb128 0x11
 4092 00ec 01       		.uleb128 0x1
 4093 00ed 12       		.uleb128 0x12
 4094 00ee 06       		.uleb128 0x6
 4095 00ef 40       		.uleb128 0x40
 4096 00f0 18       		.uleb128 0x18
 4097 00f1 9642     		.uleb128 0x2116
 4098 00f3 19       		.uleb128 0x19
 4099 00f4 00       		.byte	0
 4100 00f5 00       		.byte	0
 4101 00f6 11       		.uleb128 0x11
 4102 00f7 2E       		.uleb128 0x2e
 4103 00f8 00       		.byte	0
 4104 00f9 3F       		.uleb128 0x3f
 4105 00fa 19       		.uleb128 0x19
 4106 00fb 03       		.uleb128 0x3
 4107 00fc 0E       		.uleb128 0xe
 4108 00fd 3A       		.uleb128 0x3a
 4109 00fe 0B       		.uleb128 0xb
 4110 00ff 3B       		.uleb128 0x3b
 4111 0100 0B       		.uleb128 0xb
 4112 0101 27       		.uleb128 0x27
 4113 0102 19       		.uleb128 0x19
 4114 0103 11       		.uleb128 0x11
 4115 0104 01       		.uleb128 0x1
 4116 0105 12       		.uleb128 0x12
 4117 0106 06       		.uleb128 0x6
 4118 0107 40       		.uleb128 0x40
 4119 0108 18       		.uleb128 0x18
 4120 0109 9742     		.uleb128 0x2117
 4121 010b 19       		.uleb128 0x19
 4122 010c 00       		.byte	0
 4123 010d 00       		.byte	0
 4124 010e 12       		.uleb128 0x12
 4125 010f 34       		.uleb128 0x34
 4126 0110 00       		.byte	0
 4127 0111 03       		.uleb128 0x3
 4128 0112 0E       		.uleb128 0xe
ARM GAS  C:\Users\dskyNote\AppData\Local\Temp\ccT2SVus.s 			page 85


 4129 0113 3A       		.uleb128 0x3a
 4130 0114 0B       		.uleb128 0xb
 4131 0115 3B       		.uleb128 0x3b
 4132 0116 0B       		.uleb128 0xb
 4133 0117 49       		.uleb128 0x49
 4134 0118 13       		.uleb128 0x13
 4135 0119 02       		.uleb128 0x2
 4136 011a 18       		.uleb128 0x18
 4137 011b 00       		.byte	0
 4138 011c 00       		.byte	0
 4139 011d 13       		.uleb128 0x13
 4140 011e 2E       		.uleb128 0x2e
 4141 011f 01       		.byte	0x1
 4142 0120 3F       		.uleb128 0x3f
 4143 0121 19       		.uleb128 0x19
 4144 0122 03       		.uleb128 0x3
 4145 0123 0E       		.uleb128 0xe
 4146 0124 3A       		.uleb128 0x3a
 4147 0125 0B       		.uleb128 0xb
 4148 0126 3B       		.uleb128 0x3b
 4149 0127 05       		.uleb128 0x5
 4150 0128 27       		.uleb128 0x27
 4151 0129 19       		.uleb128 0x19
 4152 012a 11       		.uleb128 0x11
 4153 012b 01       		.uleb128 0x1
 4154 012c 12       		.uleb128 0x12
 4155 012d 06       		.uleb128 0x6
 4156 012e 40       		.uleb128 0x40
 4157 012f 18       		.uleb128 0x18
 4158 0130 9642     		.uleb128 0x2116
 4159 0132 19       		.uleb128 0x19
 4160 0133 01       		.uleb128 0x1
 4161 0134 13       		.uleb128 0x13
 4162 0135 00       		.byte	0
 4163 0136 00       		.byte	0
 4164 0137 14       		.uleb128 0x14
 4165 0138 05       		.uleb128 0x5
 4166 0139 00       		.byte	0
 4167 013a 03       		.uleb128 0x3
 4168 013b 0E       		.uleb128 0xe
 4169 013c 3A       		.uleb128 0x3a
 4170 013d 0B       		.uleb128 0xb
 4171 013e 3B       		.uleb128 0x3b
 4172 013f 05       		.uleb128 0x5
 4173 0140 49       		.uleb128 0x49
 4174 0141 13       		.uleb128 0x13
 4175 0142 02       		.uleb128 0x2
 4176 0143 18       		.uleb128 0x18
 4177 0144 00       		.byte	0
 4178 0145 00       		.byte	0
 4179 0146 15       		.uleb128 0x15
 4180 0147 34       		.uleb128 0x34
 4181 0148 00       		.byte	0
 4182 0149 03       		.uleb128 0x3
 4183 014a 0E       		.uleb128 0xe
 4184 014b 3A       		.uleb128 0x3a
 4185 014c 0B       		.uleb128 0xb
ARM GAS  C:\Users\dskyNote\AppData\Local\Temp\ccT2SVus.s 			page 86


 4186 014d 3B       		.uleb128 0x3b
 4187 014e 05       		.uleb128 0x5
 4188 014f 49       		.uleb128 0x49
 4189 0150 13       		.uleb128 0x13
 4190 0151 02       		.uleb128 0x2
 4191 0152 18       		.uleb128 0x18
 4192 0153 00       		.byte	0
 4193 0154 00       		.byte	0
 4194 0155 16       		.uleb128 0x16
 4195 0156 2E       		.uleb128 0x2e
 4196 0157 00       		.byte	0
 4197 0158 3F       		.uleb128 0x3f
 4198 0159 19       		.uleb128 0x19
 4199 015a 03       		.uleb128 0x3
 4200 015b 0E       		.uleb128 0xe
 4201 015c 3A       		.uleb128 0x3a
 4202 015d 0B       		.uleb128 0xb
 4203 015e 3B       		.uleb128 0x3b
 4204 015f 05       		.uleb128 0x5
 4205 0160 11       		.uleb128 0x11
 4206 0161 01       		.uleb128 0x1
 4207 0162 12       		.uleb128 0x12
 4208 0163 06       		.uleb128 0x6
 4209 0164 40       		.uleb128 0x40
 4210 0165 18       		.uleb128 0x18
 4211 0166 9642     		.uleb128 0x2116
 4212 0168 19       		.uleb128 0x19
 4213 0169 00       		.byte	0
 4214 016a 00       		.byte	0
 4215 016b 17       		.uleb128 0x17
 4216 016c 2E       		.uleb128 0x2e
 4217 016d 00       		.byte	0
 4218 016e 3F       		.uleb128 0x3f
 4219 016f 19       		.uleb128 0x19
 4220 0170 03       		.uleb128 0x3
 4221 0171 0E       		.uleb128 0xe
 4222 0172 3A       		.uleb128 0x3a
 4223 0173 0B       		.uleb128 0xb
 4224 0174 3B       		.uleb128 0x3b
 4225 0175 05       		.uleb128 0x5
 4226 0176 27       		.uleb128 0x27
 4227 0177 19       		.uleb128 0x19
 4228 0178 11       		.uleb128 0x11
 4229 0179 01       		.uleb128 0x1
 4230 017a 12       		.uleb128 0x12
 4231 017b 06       		.uleb128 0x6
 4232 017c 40       		.uleb128 0x40
 4233 017d 18       		.uleb128 0x18
 4234 017e 9642     		.uleb128 0x2116
 4235 0180 19       		.uleb128 0x19
 4236 0181 00       		.byte	0
 4237 0182 00       		.byte	0
 4238 0183 18       		.uleb128 0x18
 4239 0184 2E       		.uleb128 0x2e
 4240 0185 01       		.byte	0x1
 4241 0186 3F       		.uleb128 0x3f
 4242 0187 19       		.uleb128 0x19
ARM GAS  C:\Users\dskyNote\AppData\Local\Temp\ccT2SVus.s 			page 87


 4243 0188 03       		.uleb128 0x3
 4244 0189 0E       		.uleb128 0xe
 4245 018a 3A       		.uleb128 0x3a
 4246 018b 0B       		.uleb128 0xb
 4247 018c 3B       		.uleb128 0x3b
 4248 018d 05       		.uleb128 0x5
 4249 018e 27       		.uleb128 0x27
 4250 018f 19       		.uleb128 0x19
 4251 0190 11       		.uleb128 0x11
 4252 0191 01       		.uleb128 0x1
 4253 0192 12       		.uleb128 0x12
 4254 0193 06       		.uleb128 0x6
 4255 0194 40       		.uleb128 0x40
 4256 0195 18       		.uleb128 0x18
 4257 0196 9742     		.uleb128 0x2117
 4258 0198 19       		.uleb128 0x19
 4259 0199 01       		.uleb128 0x1
 4260 019a 13       		.uleb128 0x13
 4261 019b 00       		.byte	0
 4262 019c 00       		.byte	0
 4263 019d 19       		.uleb128 0x19
 4264 019e 2E       		.uleb128 0x2e
 4265 019f 00       		.byte	0
 4266 01a0 3F       		.uleb128 0x3f
 4267 01a1 19       		.uleb128 0x19
 4268 01a2 03       		.uleb128 0x3
 4269 01a3 0E       		.uleb128 0xe
 4270 01a4 3A       		.uleb128 0x3a
 4271 01a5 0B       		.uleb128 0xb
 4272 01a6 3B       		.uleb128 0x3b
 4273 01a7 05       		.uleb128 0x5
 4274 01a8 49       		.uleb128 0x49
 4275 01a9 13       		.uleb128 0x13
 4276 01aa 11       		.uleb128 0x11
 4277 01ab 01       		.uleb128 0x1
 4278 01ac 12       		.uleb128 0x12
 4279 01ad 06       		.uleb128 0x6
 4280 01ae 40       		.uleb128 0x40
 4281 01af 18       		.uleb128 0x18
 4282 01b0 9642     		.uleb128 0x2116
 4283 01b2 19       		.uleb128 0x19
 4284 01b3 00       		.byte	0
 4285 01b4 00       		.byte	0
 4286 01b5 1A       		.uleb128 0x1a
 4287 01b6 2E       		.uleb128 0x2e
 4288 01b7 00       		.byte	0
 4289 01b8 3F       		.uleb128 0x3f
 4290 01b9 19       		.uleb128 0x19
 4291 01ba 03       		.uleb128 0x3
 4292 01bb 08       		.uleb128 0x8
 4293 01bc 3A       		.uleb128 0x3a
 4294 01bd 0B       		.uleb128 0xb
 4295 01be 3B       		.uleb128 0x3b
 4296 01bf 05       		.uleb128 0x5
 4297 01c0 27       		.uleb128 0x27
 4298 01c1 19       		.uleb128 0x19
 4299 01c2 11       		.uleb128 0x11
ARM GAS  C:\Users\dskyNote\AppData\Local\Temp\ccT2SVus.s 			page 88


 4300 01c3 01       		.uleb128 0x1
 4301 01c4 12       		.uleb128 0x12
 4302 01c5 06       		.uleb128 0x6
 4303 01c6 40       		.uleb128 0x40
 4304 01c7 18       		.uleb128 0x18
 4305 01c8 9642     		.uleb128 0x2116
 4306 01ca 19       		.uleb128 0x19
 4307 01cb 00       		.byte	0
 4308 01cc 00       		.byte	0
 4309 01cd 1B       		.uleb128 0x1b
 4310 01ce 34       		.uleb128 0x34
 4311 01cf 00       		.byte	0
 4312 01d0 03       		.uleb128 0x3
 4313 01d1 0E       		.uleb128 0xe
 4314 01d2 3A       		.uleb128 0x3a
 4315 01d3 0B       		.uleb128 0xb
 4316 01d4 3B       		.uleb128 0x3b
 4317 01d5 05       		.uleb128 0x5
 4318 01d6 49       		.uleb128 0x49
 4319 01d7 13       		.uleb128 0x13
 4320 01d8 3F       		.uleb128 0x3f
 4321 01d9 19       		.uleb128 0x19
 4322 01da 3C       		.uleb128 0x3c
 4323 01db 19       		.uleb128 0x19
 4324 01dc 00       		.byte	0
 4325 01dd 00       		.byte	0
 4326 01de 1C       		.uleb128 0x1c
 4327 01df 35       		.uleb128 0x35
 4328 01e0 00       		.byte	0
 4329 01e1 49       		.uleb128 0x49
 4330 01e2 13       		.uleb128 0x13
 4331 01e3 00       		.byte	0
 4332 01e4 00       		.byte	0
 4333 01e5 1D       		.uleb128 0x1d
 4334 01e6 34       		.uleb128 0x34
 4335 01e7 00       		.byte	0
 4336 01e8 03       		.uleb128 0x3
 4337 01e9 0E       		.uleb128 0xe
 4338 01ea 3A       		.uleb128 0x3a
 4339 01eb 0B       		.uleb128 0xb
 4340 01ec 3B       		.uleb128 0x3b
 4341 01ed 0B       		.uleb128 0xb
 4342 01ee 49       		.uleb128 0x49
 4343 01ef 13       		.uleb128 0x13
 4344 01f0 3F       		.uleb128 0x3f
 4345 01f1 19       		.uleb128 0x19
 4346 01f2 02       		.uleb128 0x2
 4347 01f3 18       		.uleb128 0x18
 4348 01f4 00       		.byte	0
 4349 01f5 00       		.byte	0
 4350 01f6 1E       		.uleb128 0x1e
 4351 01f7 34       		.uleb128 0x34
 4352 01f8 00       		.byte	0
 4353 01f9 03       		.uleb128 0x3
 4354 01fa 08       		.uleb128 0x8
 4355 01fb 3A       		.uleb128 0x3a
 4356 01fc 0B       		.uleb128 0xb
ARM GAS  C:\Users\dskyNote\AppData\Local\Temp\ccT2SVus.s 			page 89


 4357 01fd 3B       		.uleb128 0x3b
 4358 01fe 0B       		.uleb128 0xb
 4359 01ff 49       		.uleb128 0x49
 4360 0200 13       		.uleb128 0x13
 4361 0201 3F       		.uleb128 0x3f
 4362 0202 19       		.uleb128 0x19
 4363 0203 02       		.uleb128 0x2
 4364 0204 18       		.uleb128 0x18
 4365 0205 00       		.byte	0
 4366 0206 00       		.byte	0
 4367 0207 00       		.byte	0
 4368              		.section	.debug_aranges,"",%progbits
 4369 0000 DC000000 		.4byte	0xdc
 4370 0004 0200     		.2byte	0x2
 4371 0006 00000000 		.4byte	.Ldebug_info0
 4372 000a 04       		.byte	0x4
 4373 000b 00       		.byte	0
 4374 000c 0000     		.2byte	0
 4375 000e 0000     		.2byte	0
 4376 0010 00000000 		.4byte	.LFB56
 4377 0014 4C000000 		.4byte	.LFE56-.LFB56
 4378 0018 00000000 		.4byte	.LFB57
 4379 001c 44010000 		.4byte	.LFE57-.LFB57
 4380 0020 00000000 		.4byte	.LFB58
 4381 0024 20000000 		.4byte	.LFE58-.LFB58
 4382 0028 00000000 		.4byte	.LFB59
 4383 002c 14010000 		.4byte	.LFE59-.LFB59
 4384 0030 00000000 		.4byte	.LFB60
 4385 0034 58000000 		.4byte	.LFE60-.LFB60
 4386 0038 00000000 		.4byte	.LFB61
 4387 003c 44000000 		.4byte	.LFE61-.LFB61
 4388 0040 00000000 		.4byte	.LFB62
 4389 0044 74010000 		.4byte	.LFE62-.LFB62
 4390 0048 00000000 		.4byte	.LFB63
 4391 004c 66000000 		.4byte	.LFE63-.LFB63
 4392 0050 00000000 		.4byte	.LFB64
 4393 0054 66000000 		.4byte	.LFE64-.LFB64
 4394 0058 00000000 		.4byte	.LFB65
 4395 005c 66000000 		.4byte	.LFE65-.LFB65
 4396 0060 00000000 		.4byte	.LFB66
 4397 0064 66000000 		.4byte	.LFE66-.LFB66
 4398 0068 00000000 		.4byte	.LFB67
 4399 006c 24010000 		.4byte	.LFE67-.LFB67
 4400 0070 00000000 		.4byte	.LFB68
 4401 0074 64010000 		.4byte	.LFE68-.LFB68
 4402 0078 00000000 		.4byte	.LFB69
 4403 007c 50000000 		.4byte	.LFE69-.LFB69
 4404 0080 00000000 		.4byte	.LFB70
 4405 0084 50000000 		.4byte	.LFE70-.LFB70
 4406 0088 00000000 		.4byte	.LFB71
 4407 008c 98040000 		.4byte	.LFE71-.LFB71
 4408 0090 00000000 		.4byte	.LFB72
 4409 0094 DC000000 		.4byte	.LFE72-.LFB72
 4410 0098 00000000 		.4byte	.LFB73
 4411 009c EC000000 		.4byte	.LFE73-.LFB73
 4412 00a0 00000000 		.4byte	.LFB74
 4413 00a4 20000000 		.4byte	.LFE74-.LFB74
ARM GAS  C:\Users\dskyNote\AppData\Local\Temp\ccT2SVus.s 			page 90


 4414 00a8 00000000 		.4byte	.LFB75
 4415 00ac 38000000 		.4byte	.LFE75-.LFB75
 4416 00b0 00000000 		.4byte	.LFB76
 4417 00b4 22000000 		.4byte	.LFE76-.LFB76
 4418 00b8 00000000 		.4byte	.LFB77
 4419 00bc 0C000000 		.4byte	.LFE77-.LFB77
 4420 00c0 00000000 		.4byte	.LFB78
 4421 00c4 0C000000 		.4byte	.LFE78-.LFB78
 4422 00c8 00000000 		.4byte	.LFB79
 4423 00cc 0C000000 		.4byte	.LFE79-.LFB79
 4424 00d0 00000000 		.4byte	.LFB80
 4425 00d4 0C000000 		.4byte	.LFE80-.LFB80
 4426 00d8 00000000 		.4byte	0
 4427 00dc 00000000 		.4byte	0
 4428              		.section	.debug_ranges,"",%progbits
 4429              	.Ldebug_ranges0:
 4430 0000 00000000 		.4byte	.LFB56
 4431 0004 4C000000 		.4byte	.LFE56
 4432 0008 00000000 		.4byte	.LFB57
 4433 000c 44010000 		.4byte	.LFE57
 4434 0010 00000000 		.4byte	.LFB58
 4435 0014 20000000 		.4byte	.LFE58
 4436 0018 00000000 		.4byte	.LFB59
 4437 001c 14010000 		.4byte	.LFE59
 4438 0020 00000000 		.4byte	.LFB60
 4439 0024 58000000 		.4byte	.LFE60
 4440 0028 00000000 		.4byte	.LFB61
 4441 002c 44000000 		.4byte	.LFE61
 4442 0030 00000000 		.4byte	.LFB62
 4443 0034 74010000 		.4byte	.LFE62
 4444 0038 00000000 		.4byte	.LFB63
 4445 003c 66000000 		.4byte	.LFE63
 4446 0040 00000000 		.4byte	.LFB64
 4447 0044 66000000 		.4byte	.LFE64
 4448 0048 00000000 		.4byte	.LFB65
 4449 004c 66000000 		.4byte	.LFE65
 4450 0050 00000000 		.4byte	.LFB66
 4451 0054 66000000 		.4byte	.LFE66
 4452 0058 00000000 		.4byte	.LFB67
 4453 005c 24010000 		.4byte	.LFE67
 4454 0060 00000000 		.4byte	.LFB68
 4455 0064 64010000 		.4byte	.LFE68
 4456 0068 00000000 		.4byte	.LFB69
 4457 006c 50000000 		.4byte	.LFE69
 4458 0070 00000000 		.4byte	.LFB70
 4459 0074 50000000 		.4byte	.LFE70
 4460 0078 00000000 		.4byte	.LFB71
 4461 007c 98040000 		.4byte	.LFE71
 4462 0080 00000000 		.4byte	.LFB72
 4463 0084 DC000000 		.4byte	.LFE72
 4464 0088 00000000 		.4byte	.LFB73
 4465 008c EC000000 		.4byte	.LFE73
 4466 0090 00000000 		.4byte	.LFB74
 4467 0094 20000000 		.4byte	.LFE74
 4468 0098 00000000 		.4byte	.LFB75
 4469 009c 38000000 		.4byte	.LFE75
 4470 00a0 00000000 		.4byte	.LFB76
ARM GAS  C:\Users\dskyNote\AppData\Local\Temp\ccT2SVus.s 			page 91


 4471 00a4 22000000 		.4byte	.LFE76
 4472 00a8 00000000 		.4byte	.LFB77
 4473 00ac 0C000000 		.4byte	.LFE77
 4474 00b0 00000000 		.4byte	.LFB78
 4475 00b4 0C000000 		.4byte	.LFE78
 4476 00b8 00000000 		.4byte	.LFB79
 4477 00bc 0C000000 		.4byte	.LFE79
 4478 00c0 00000000 		.4byte	.LFB80
 4479 00c4 0C000000 		.4byte	.LFE80
 4480 00c8 00000000 		.4byte	0
 4481 00cc 00000000 		.4byte	0
 4482              		.section	.debug_line,"",%progbits
 4483              	.Ldebug_line0:
 4484 0000 17050000 		.section	.debug_str,"MS",%progbits,1
 4484      02004901 
 4484      00000201 
 4484      FB0E0D00 
 4484      01010101 
 4485              	.LASF24:
 4486 0000 41737369 		.ascii	"AssignmentRFID\000"
 4486      676E6D65 
 4486      6E745246 
 4486      494400
 4487              	.LASF64:
 4488 000f 4F666653 		.ascii	"OffSetRL\000"
 4488      6574524C 
 4488      00
 4489              	.LASF53:
 4490 0018 44697265 		.ascii	"DirectionRL\000"
 4490      6374696F 
 4490      6E524C00 
 4491              	.LASF37:
 4492 0024 436F7265 		.ascii	"Core\000"
 4492      00
 4493              	.LASF31:
 4494 0029 4C656674 		.ascii	"LeftRearMotor\000"
 4494      52656172 
 4494      4D6F746F 
 4494      7200
 4495              	.LASF67:
 4496 0037 53656E64 		.ascii	"SendData\000"
 4496      44617461 
 4496      00
 4497              	.LASF17:
 4498 0040 63686172 		.ascii	"char\000"
 4498      00
 4499              	.LASF46:
 4500 0045 425F4C45 		.ascii	"B_LED_OFF\000"
 4500      445F4F46 
 4500      4600
 4501              	.LASF2:
 4502 004f 73686F72 		.ascii	"short int\000"
 4502      7420696E 
 4502      7400
 4503              	.LASF50:
 4504 0059 536C6566 		.ascii	"Sleft\000"
 4504      7400
ARM GAS  C:\Users\dskyNote\AppData\Local\Temp\ccT2SVus.s 			page 92


 4505              	.LASF39:
 4506 005f 64697265 		.ascii	"direction\000"
 4506      6374696F 
 4506      6E00
 4507              	.LASF40:
 4508 0069 6D61696E 		.ascii	"main\000"
 4508      00
 4509              	.LASF89:
 4510 006e 433A5C67 		.ascii	"C:\\gitData\\PSoC\\SFT1.0v\\Design01.cydsn\000"
 4510      69744461 
 4510      74615C50 
 4510      536F435C 
 4510      53465431 
 4511              	.LASF81:
 4512 0095 6D6F6465 		.ascii	"mode\000"
 4512      00
 4513              	.LASF49:
 4514 009a 53626163 		.ascii	"Sback\000"
 4514      6B00
 4515              	.LASF61:
 4516 00a0 676F616C 		.ascii	"goalFR\000"
 4516      465200
 4517              	.LASF48:
 4518 00a7 53666F72 		.ascii	"Sforward\000"
 4518      77617264 
 4518      00
 4519              	.LASF87:
 4520 00b0 474E5520 		.ascii	"GNU C 4.8.4 20140526 (release) [ARM/embedded-4_8-br"
 4520      4320342E 
 4520      382E3420 
 4520      32303134 
 4520      30353236 
 4521 00e3 616E6368 		.ascii	"anch revision 211358] -mcpu=cortex-m3 -mthumb -g -O"
 4521      20726576 
 4521      6973696F 
 4521      6E203231 
 4521      31333538 
 4522 0116 30202D66 		.ascii	"0 -ffunction-sections\000"
 4522      66756E63 
 4522      74696F6E 
 4522      2D736563 
 4522      74696F6E 
 4523              	.LASF12:
 4524 012c 75696E74 		.ascii	"uint16\000"
 4524      313600
 4525              	.LASF33:
 4526 0133 41636365 		.ascii	"AcceleratingFR\000"
 4526      6C657261 
 4526      74696E67 
 4526      465200
 4527              	.LASF14:
 4528 0142 696E7431 		.ascii	"int16\000"
 4528      3600
 4529              	.LASF11:
 4530 0148 75696E74 		.ascii	"uint8\000"
 4530      3800
 4531              	.LASF44:
ARM GAS  C:\Users\dskyNote\AppData\Local\Temp\ccT2SVus.s 			page 93


 4532 014e 525F4C45 		.ascii	"R_LED_OFF\000"
 4532      445F4F46 
 4532      4600
 4533              	.LASF0:
 4534 0158 7369676E 		.ascii	"signed char\000"
 4534      65642063 
 4534      68617200 
 4535              	.LASF70:
 4536 0164 43686563 		.ascii	"CheckSumRFID\000"
 4536      6B53756D 
 4536      52464944 
 4536      00
 4537              	.LASF15:
 4538 0171 666C6F61 		.ascii	"float\000"
 4538      7400
 4539              	.LASF69:
 4540 0177 4F4C445F 		.ascii	"OLD_RFID\000"
 4540      52464944 
 4540      00
 4541              	.LASF6:
 4542 0180 6C6F6E67 		.ascii	"long long int\000"
 4542      206C6F6E 
 4542      6720696E 
 4542      7400
 4543              	.LASF13:
 4544 018e 696E7438 		.ascii	"int8\000"
 4544      00
 4545              	.LASF4:
 4546 0193 6C6F6E67 		.ascii	"long int\000"
 4546      20696E74 
 4546      00
 4547              	.LASF38:
 4548 019c 43617463 		.ascii	"CatchRFID\000"
 4548      68524649 
 4548      4400
 4549              	.LASF54:
 4550 01a6 44697265 		.ascii	"DirectionNextFR\000"
 4550      6374696F 
 4550      6E4E6578 
 4550      74465200 
 4551              	.LASF74:
 4552 01b6 666C6743 		.ascii	"flgCompA\000"
 4552      6F6D7041 
 4552      00
 4553              	.LASF30:
 4554 01bf 4C656674 		.ascii	"LeftFrontMotor\000"
 4554      46726F6E 
 4554      744D6F74 
 4554      6F7200
 4555              	.LASF84:
 4556 01ce 43686563 		.ascii	"CheckSum\000"
 4556      6B53756D 
 4556      00
 4557              	.LASF1:
 4558 01d7 756E7369 		.ascii	"unsigned char\000"
 4558      676E6564 
 4558      20636861 
ARM GAS  C:\Users\dskyNote\AppData\Local\Temp\ccT2SVus.s 			page 94


 4558      7200
 4559              	.LASF59:
 4560 01e5 64616E67 		.ascii	"dangle\000"
 4560      6C6500
 4561              	.LASF22:
 4562 01ec 6D794861 		.ascii	"myHandler2\000"
 4562      6E646C65 
 4562      723200
 4563              	.LASF18:
 4564 01f7 63796973 		.ascii	"cyisraddress\000"
 4564      72616464 
 4564      72657373 
 4564      00
 4565              	.LASF75:
 4566 0204 666C675A 		.ascii	"flgZigBeeReceived\000"
 4566      69674265 
 4566      65526563 
 4566      65697665 
 4566      6400
 4567              	.LASF52:
 4568 0216 44697265 		.ascii	"DirectionFR\000"
 4568      6374696F 
 4568      6E465200 
 4569              	.LASF7:
 4570 0222 6C6F6E67 		.ascii	"long long unsigned int\000"
 4570      206C6F6E 
 4570      6720756E 
 4570      7369676E 
 4570      65642069 
 4571              	.LASF8:
 4572 0239 756E7369 		.ascii	"unsigned int\000"
 4572      676E6564 
 4572      20696E74 
 4572      00
 4573              	.LASF92:
 4574 0246 636F6E66 		.ascii	"configPSoC\000"
 4574      69675053 
 4574      6F4300
 4575              	.LASF51:
 4576 0251 53726967 		.ascii	"Sright\000"
 4576      687400
 4577              	.LASF68:
 4578 0258 52464944 		.ascii	"RFID\000"
 4578      00
 4579              	.LASF78:
 4580 025d 666C6745 		.ascii	"flgErr\000"
 4580      727200
 4581              	.LASF20:
 4582 0264 74696D65 		.ascii	"time\000"
 4582      00
 4583              	.LASF82:
 4584 0269 42757474 		.ascii	"ButtonStatus1\000"
 4584      6F6E5374 
 4584      61747573 
 4584      3100
 4585              	.LASF83:
 4586 0277 42757474 		.ascii	"ButtonStatus2\000"
ARM GAS  C:\Users\dskyNote\AppData\Local\Temp\ccT2SVus.s 			page 95


 4586      6F6E5374 
 4586      61747573 
 4586      3200
 4587              	.LASF43:
 4588 0285 525F4C45 		.ascii	"R_LED_ON\000"
 4588      445F4F4E 
 4588      00
 4589              	.LASF90:
 4590 028e 73746174 		.ascii	"status\000"
 4590      757300
 4591              	.LASF32:
 4592 0295 43616C63 		.ascii	"CalcRLRotate\000"
 4592      524C526F 
 4592      74617465 
 4592      00
 4593              	.LASF77:
 4594 02a2 666C675A 		.ascii	"flgZigBeeMode\000"
 4594      69674265 
 4594      654D6F64 
 4594      6500
 4595              	.LASF85:
 4596 02b0 5A696742 		.ascii	"ZigBeeMsg\000"
 4596      65654D73 
 4596      6700
 4597              	.LASF10:
 4598 02ba 696E7433 		.ascii	"int32_t\000"
 4598      325F7400 
 4599              	.LASF72:
 4600 02c2 666C6750 		.ascii	"flgPIPI\000"
 4600      49504900 
 4601              	.LASF73:
 4602 02ca 666C6753 		.ascii	"flgSlide\000"
 4602      6C696465 
 4602      00
 4603              	.LASF28:
 4604 02d3 52696768 		.ascii	"RightRearMotor\000"
 4604      74526561 
 4604      724D6F74 
 4604      6F7200
 4605              	.LASF57:
 4606 02e2 4175746F 		.ascii	"AutoModeStage\000"
 4606      4D6F6465 
 4606      53746167 
 4606      6500
 4607              	.LASF62:
 4608 02f0 64656C61 		.ascii	"delaytime\000"
 4608      7974696D 
 4608      6500
 4609              	.LASF71:
 4610 02fa 666C6745 		.ascii	"flgException\000"
 4610      78636570 
 4610      74696F6E 
 4610      00
 4611              	.LASF42:
 4612 0307 50494949 		.ascii	"PIII\000"
 4612      00
 4613              	.LASF80:
ARM GAS  C:\Users\dskyNote\AppData\Local\Temp\ccT2SVus.s 			page 96


 4614 030c 73756D31 		.ascii	"sum1\000"
 4614      00
 4615              	.LASF86:
 4616 0311 666C674E 		.ascii	"flgNewRFID\000"
 4616      65775246 
 4616      494400
 4617              	.LASF34:
 4618 031c 6D617853 		.ascii	"maxSpeed\000"
 4618      70656564 
 4618      00
 4619              	.LASF5:
 4620 0325 6C6F6E67 		.ascii	"long unsigned int\000"
 4620      20756E73 
 4620      69676E65 
 4620      6420696E 
 4620      7400
 4621              	.LASF27:
 4622 0337 6E526F74 		.ascii	"nRotate\000"
 4622      61746500 
 4623              	.LASF16:
 4624 033f 646F7562 		.ascii	"double\000"
 4624      6C6500
 4625              	.LASF66:
 4626 0346 4C696E65 		.ascii	"LineSensor\000"
 4626      53656E73 
 4626      6F7200
 4627              	.LASF29:
 4628 0351 6E50776D 		.ascii	"nPwm\000"
 4628      00
 4629              	.LASF65:
 4630 0356 456E6162 		.ascii	"EnabelPS3\000"
 4630      656C5053 
 4630      3300
 4631              	.LASF36:
 4632 0360 41636365 		.ascii	"AcceleratingRL\000"
 4632      6C657261 
 4632      74696E67 
 4632      524C00
 4633              	.LASF60:
 4634 036f 6476616E 		.ascii	"dvangle\000"
 4634      676C6500 
 4635              	.LASF63:
 4636 0377 4F666653 		.ascii	"OffSetRotate\000"
 4636      6574526F 
 4636      74617465 
 4636      00
 4637              	.LASF56:
 4638 0384 5A696742 		.ascii	"ZigBeeModeStage\000"
 4638      65654D6F 
 4638      64655374 
 4638      61676500 
 4639              	.LASF88:
 4640 0394 2E5C6D61 		.ascii	".\\main.c\000"
 4640      696E2E63 
 4640      00
 4641              	.LASF9:
 4642 039d 5F5F696E 		.ascii	"__int32_t\000"
ARM GAS  C:\Users\dskyNote\AppData\Local\Temp\ccT2SVus.s 			page 97


 4642      7433325F 
 4642      7400
 4643              	.LASF55:
 4644 03a7 53706565 		.ascii	"Speed\000"
 4644      6400
 4645              	.LASF3:
 4646 03ad 73686F72 		.ascii	"short unsigned int\000"
 4646      7420756E 
 4646      7369676E 
 4646      65642069 
 4646      6E7400
 4647              	.LASF79:
 4648 03c0 61737469 		.ascii	"astic\000"
 4648      6300
 4649              	.LASF19:
 4650 03c6 73697A65 		.ascii	"sizetype\000"
 4650      74797065 
 4650      00
 4651              	.LASF91:
 4652 03cf 43686563 		.ascii	"CheckRFID\000"
 4652      6B524649 
 4652      4400
 4653              	.LASF26:
 4654 03d9 52696768 		.ascii	"RightFrontMotor\000"
 4654      7446726F 
 4654      6E744D6F 
 4654      746F7200 
 4655              	.LASF45:
 4656 03e9 425F4C45 		.ascii	"B_LED_ON\000"
 4656      445F4F4E 
 4656      00
 4657              	.LASF41:
 4658 03f2 50495049 		.ascii	"PIPI\000"
 4658      00
 4659              	.LASF47:
 4660 03f7 49544D5F 		.ascii	"ITM_RxBuffer\000"
 4660      52784275 
 4660      66666572 
 4660      00
 4661              	.LASF23:
 4662 0404 6D794861 		.ascii	"myHandler\000"
 4662      6E646C65 
 4662      7200
 4663              	.LASF25:
 4664 040e 43616C4D 		.ascii	"CalMotorSpeed\000"
 4664      6F746F72 
 4664      53706565 
 4664      6400
 4665              	.LASF35:
 4666 041c 70697463 		.ascii	"pitch\000"
 4666      6800
 4667              	.LASF76:
 4668 0422 666C6743 		.ascii	"flgCaught\000"
 4668      61756768 
 4668      7400
 4669              	.LASF58:
 4670 042c 6F6C6452 		.ascii	"oldRFID\000"
ARM GAS  C:\Users\dskyNote\AppData\Local\Temp\ccT2SVus.s 			page 98


 4670      46494400 
 4671              	.LASF21:
 4672 0434 6D797469 		.ascii	"mytimer1\000"
 4672      6D657231 
 4672      00
 4673              		.ident	"GCC: (GNU Tools for ARM Embedded Processors) 4.8.4 20140526 (release) [ARM/embedded-4_8-br
