ARM GAS  C:\Users\dskyNote\AppData\Local\Temp\ccdlHD52.s 			page 1


   1              		.syntax unified
   2              		.cpu cortex-m3
   3              		.fpu softvfp
   4              		.eabi_attribute 20, 1
   5              		.eabi_attribute 21, 1
   6              		.eabi_attribute 23, 3
   7              		.eabi_attribute 24, 1
   8              		.eabi_attribute 25, 1
   9              		.eabi_attribute 26, 1
  10              		.eabi_attribute 30, 6
  11              		.eabi_attribute 34, 1
  12              		.eabi_attribute 18, 4
  13              		.thumb
  14              		.file	"PWM_1_PM.c"
  15              		.text
  16              	.Ltext0:
  17              		.cfi_sections	.debug_frame
  18              		.bss
  19              		.align	2
  20              	PWM_1_backup:
  21 0000 00       		.space	1
  22 0001 000000   		.section	.text.PWM_1_SaveConfig,"ax",%progbits
  23              		.align	2
  24              		.global	PWM_1_SaveConfig
  25              		.thumb
  26              		.thumb_func
  27              		.type	PWM_1_SaveConfig, %function
  28              	PWM_1_SaveConfig:
  29              	.LFB0:
  30              		.file 1 ".\\Generated_Source\\PSoC5\\PWM_1_PM.c"
   1:.\Generated_Source\PSoC5/PWM_1_PM.c **** /*******************************************************************************
   2:.\Generated_Source\PSoC5/PWM_1_PM.c **** * File Name: PWM_1_PM.c
   3:.\Generated_Source\PSoC5/PWM_1_PM.c **** * Version 3.0
   4:.\Generated_Source\PSoC5/PWM_1_PM.c **** *
   5:.\Generated_Source\PSoC5/PWM_1_PM.c **** * Description:
   6:.\Generated_Source\PSoC5/PWM_1_PM.c **** *  This file provides the power management source code to API for the
   7:.\Generated_Source\PSoC5/PWM_1_PM.c **** *  PWM.
   8:.\Generated_Source\PSoC5/PWM_1_PM.c **** *
   9:.\Generated_Source\PSoC5/PWM_1_PM.c **** * Note:
  10:.\Generated_Source\PSoC5/PWM_1_PM.c **** *
  11:.\Generated_Source\PSoC5/PWM_1_PM.c **** ********************************************************************************
  12:.\Generated_Source\PSoC5/PWM_1_PM.c **** * Copyright 2008-2012, Cypress Semiconductor Corporation.  All rights reserved.
  13:.\Generated_Source\PSoC5/PWM_1_PM.c **** * You may use this file only in accordance with the license, terms, conditions,
  14:.\Generated_Source\PSoC5/PWM_1_PM.c **** * disclaimers, and limitations in the end user license agreement accompanying
  15:.\Generated_Source\PSoC5/PWM_1_PM.c **** * the software package with which this file was provided.
  16:.\Generated_Source\PSoC5/PWM_1_PM.c **** *******************************************************************************/
  17:.\Generated_Source\PSoC5/PWM_1_PM.c **** #include "cytypes.h"
  18:.\Generated_Source\PSoC5/PWM_1_PM.c **** #include "PWM_1.h"
  19:.\Generated_Source\PSoC5/PWM_1_PM.c **** 
  20:.\Generated_Source\PSoC5/PWM_1_PM.c **** static PWM_1_backupStruct PWM_1_backup;
  21:.\Generated_Source\PSoC5/PWM_1_PM.c **** 
  22:.\Generated_Source\PSoC5/PWM_1_PM.c **** 
  23:.\Generated_Source\PSoC5/PWM_1_PM.c **** /*******************************************************************************
  24:.\Generated_Source\PSoC5/PWM_1_PM.c **** * Function Name: PWM_1_SaveConfig
  25:.\Generated_Source\PSoC5/PWM_1_PM.c **** ********************************************************************************
  26:.\Generated_Source\PSoC5/PWM_1_PM.c **** *
  27:.\Generated_Source\PSoC5/PWM_1_PM.c **** * Summary:
ARM GAS  C:\Users\dskyNote\AppData\Local\Temp\ccdlHD52.s 			page 2


  28:.\Generated_Source\PSoC5/PWM_1_PM.c **** *  Saves the current user configuration of the component.
  29:.\Generated_Source\PSoC5/PWM_1_PM.c **** *  
  30:.\Generated_Source\PSoC5/PWM_1_PM.c **** * Parameters:  
  31:.\Generated_Source\PSoC5/PWM_1_PM.c **** *  None
  32:.\Generated_Source\PSoC5/PWM_1_PM.c **** *
  33:.\Generated_Source\PSoC5/PWM_1_PM.c **** * Return: 
  34:.\Generated_Source\PSoC5/PWM_1_PM.c **** *  None
  35:.\Generated_Source\PSoC5/PWM_1_PM.c **** *
  36:.\Generated_Source\PSoC5/PWM_1_PM.c **** * Global variables:
  37:.\Generated_Source\PSoC5/PWM_1_PM.c **** *  PWM_1_backup:  Variables of this global structure are modified to 
  38:.\Generated_Source\PSoC5/PWM_1_PM.c **** *  store the values of non retention configuration registers when Sleep() API is 
  39:.\Generated_Source\PSoC5/PWM_1_PM.c **** *  called.
  40:.\Generated_Source\PSoC5/PWM_1_PM.c **** *
  41:.\Generated_Source\PSoC5/PWM_1_PM.c **** *******************************************************************************/
  42:.\Generated_Source\PSoC5/PWM_1_PM.c **** void PWM_1_SaveConfig(void) 
  43:.\Generated_Source\PSoC5/PWM_1_PM.c **** {
  31              		.loc 1 43 0
  32              		.cfi_startproc
  33              		@ args = 0, pretend = 0, frame = 0
  34              		@ frame_needed = 1, uses_anonymous_args = 0
  35              		@ link register save eliminated.
  36 0000 80B4     		push	{r7}
  37              		.cfi_def_cfa_offset 4
  38              		.cfi_offset 7, -4
  39 0002 00AF     		add	r7, sp, #0
  40              		.cfi_def_cfa_register 7
  44:.\Generated_Source\PSoC5/PWM_1_PM.c ****     
  45:.\Generated_Source\PSoC5/PWM_1_PM.c ****     #if(!PWM_1_UsingFixedFunction)
  46:.\Generated_Source\PSoC5/PWM_1_PM.c ****         #if(!PWM_1_PWMModeIsCenterAligned)
  47:.\Generated_Source\PSoC5/PWM_1_PM.c ****             PWM_1_backup.PWMPeriod = PWM_1_ReadPeriod();
  48:.\Generated_Source\PSoC5/PWM_1_PM.c ****         #endif /* (!PWM_1_PWMModeIsCenterAligned) */
  49:.\Generated_Source\PSoC5/PWM_1_PM.c ****         PWM_1_backup.PWMUdb = PWM_1_ReadCounter();
  50:.\Generated_Source\PSoC5/PWM_1_PM.c ****         #if (PWM_1_UseStatus)
  51:.\Generated_Source\PSoC5/PWM_1_PM.c ****             PWM_1_backup.InterruptMaskValue = PWM_1_STATUS_MASK;
  52:.\Generated_Source\PSoC5/PWM_1_PM.c ****         #endif /* (PWM_1_UseStatus) */
  53:.\Generated_Source\PSoC5/PWM_1_PM.c ****         
  54:.\Generated_Source\PSoC5/PWM_1_PM.c ****         #if(PWM_1_DeadBandMode == PWM_1__B_PWM__DBM_256_CLOCKS || \
  55:.\Generated_Source\PSoC5/PWM_1_PM.c ****             PWM_1_DeadBandMode == PWM_1__B_PWM__DBM_2_4_CLOCKS)
  56:.\Generated_Source\PSoC5/PWM_1_PM.c ****             PWM_1_backup.PWMdeadBandValue = PWM_1_ReadDeadTime();
  57:.\Generated_Source\PSoC5/PWM_1_PM.c ****         #endif /*  deadband count is either 2-4 clocks or 256 clocks */
  58:.\Generated_Source\PSoC5/PWM_1_PM.c ****         
  59:.\Generated_Source\PSoC5/PWM_1_PM.c ****         #if(PWM_1_KillModeMinTime)
  60:.\Generated_Source\PSoC5/PWM_1_PM.c ****              PWM_1_backup.PWMKillCounterPeriod = PWM_1_ReadKillTime();
  61:.\Generated_Source\PSoC5/PWM_1_PM.c ****         #endif /* (PWM_1_KillModeMinTime) */
  62:.\Generated_Source\PSoC5/PWM_1_PM.c ****         
  63:.\Generated_Source\PSoC5/PWM_1_PM.c ****         #if(PWM_1_UseControl)
  64:.\Generated_Source\PSoC5/PWM_1_PM.c ****             PWM_1_backup.PWMControlRegister = PWM_1_ReadControlRegister();
  65:.\Generated_Source\PSoC5/PWM_1_PM.c ****         #endif /* (PWM_1_UseControl) */
  66:.\Generated_Source\PSoC5/PWM_1_PM.c ****     #endif  /* (!PWM_1_UsingFixedFunction) */
  67:.\Generated_Source\PSoC5/PWM_1_PM.c **** }
  41              		.loc 1 67 0
  42 0004 BD46     		mov	sp, r7
  43              		@ sp needed
  44 0006 5DF8047B 		ldr	r7, [sp], #4
  45 000a 7047     		bx	lr
  46              		.cfi_endproc
  47              	.LFE0:
ARM GAS  C:\Users\dskyNote\AppData\Local\Temp\ccdlHD52.s 			page 3


  48              		.size	PWM_1_SaveConfig, .-PWM_1_SaveConfig
  49              		.section	.text.PWM_1_RestoreConfig,"ax",%progbits
  50              		.align	2
  51              		.global	PWM_1_RestoreConfig
  52              		.thumb
  53              		.thumb_func
  54              		.type	PWM_1_RestoreConfig, %function
  55              	PWM_1_RestoreConfig:
  56              	.LFB1:
  68:.\Generated_Source\PSoC5/PWM_1_PM.c **** 
  69:.\Generated_Source\PSoC5/PWM_1_PM.c **** 
  70:.\Generated_Source\PSoC5/PWM_1_PM.c **** /*******************************************************************************
  71:.\Generated_Source\PSoC5/PWM_1_PM.c **** * Function Name: PWM_1_RestoreConfig
  72:.\Generated_Source\PSoC5/PWM_1_PM.c **** ********************************************************************************
  73:.\Generated_Source\PSoC5/PWM_1_PM.c **** * 
  74:.\Generated_Source\PSoC5/PWM_1_PM.c **** * Summary:
  75:.\Generated_Source\PSoC5/PWM_1_PM.c **** *  Restores the current user configuration of the component.
  76:.\Generated_Source\PSoC5/PWM_1_PM.c **** *
  77:.\Generated_Source\PSoC5/PWM_1_PM.c **** * Parameters:  
  78:.\Generated_Source\PSoC5/PWM_1_PM.c **** *  None
  79:.\Generated_Source\PSoC5/PWM_1_PM.c **** *
  80:.\Generated_Source\PSoC5/PWM_1_PM.c **** * Return: 
  81:.\Generated_Source\PSoC5/PWM_1_PM.c **** *  None
  82:.\Generated_Source\PSoC5/PWM_1_PM.c **** *
  83:.\Generated_Source\PSoC5/PWM_1_PM.c **** * Global variables:
  84:.\Generated_Source\PSoC5/PWM_1_PM.c **** *  PWM_1_backup:  Variables of this global structure are used to  
  85:.\Generated_Source\PSoC5/PWM_1_PM.c **** *  restore the values of non retention registers on wakeup from sleep mode.
  86:.\Generated_Source\PSoC5/PWM_1_PM.c **** *
  87:.\Generated_Source\PSoC5/PWM_1_PM.c **** *******************************************************************************/
  88:.\Generated_Source\PSoC5/PWM_1_PM.c **** void PWM_1_RestoreConfig(void) 
  89:.\Generated_Source\PSoC5/PWM_1_PM.c **** {
  57              		.loc 1 89 0
  58              		.cfi_startproc
  59              		@ args = 0, pretend = 0, frame = 0
  60              		@ frame_needed = 1, uses_anonymous_args = 0
  61              		@ link register save eliminated.
  62 0000 80B4     		push	{r7}
  63              		.cfi_def_cfa_offset 4
  64              		.cfi_offset 7, -4
  65 0002 00AF     		add	r7, sp, #0
  66              		.cfi_def_cfa_register 7
  90:.\Generated_Source\PSoC5/PWM_1_PM.c ****         #if(!PWM_1_UsingFixedFunction)
  91:.\Generated_Source\PSoC5/PWM_1_PM.c ****             #if(!PWM_1_PWMModeIsCenterAligned)
  92:.\Generated_Source\PSoC5/PWM_1_PM.c ****                 PWM_1_WritePeriod(PWM_1_backup.PWMPeriod);
  93:.\Generated_Source\PSoC5/PWM_1_PM.c ****             #endif /* (!PWM_1_PWMModeIsCenterAligned) */
  94:.\Generated_Source\PSoC5/PWM_1_PM.c ****             PWM_1_WriteCounter(PWM_1_backup.PWMUdb);
  95:.\Generated_Source\PSoC5/PWM_1_PM.c ****             #if (PWM_1_UseStatus)
  96:.\Generated_Source\PSoC5/PWM_1_PM.c ****                 PWM_1_STATUS_MASK = PWM_1_backup.InterruptMaskValue;
  97:.\Generated_Source\PSoC5/PWM_1_PM.c ****             #endif /* (PWM_1_UseStatus) */
  98:.\Generated_Source\PSoC5/PWM_1_PM.c ****             
  99:.\Generated_Source\PSoC5/PWM_1_PM.c ****             #if(PWM_1_DeadBandMode == PWM_1__B_PWM__DBM_256_CLOCKS || \
 100:.\Generated_Source\PSoC5/PWM_1_PM.c ****                 PWM_1_DeadBandMode == PWM_1__B_PWM__DBM_2_4_CLOCKS)
 101:.\Generated_Source\PSoC5/PWM_1_PM.c ****                 PWM_1_WriteDeadTime(PWM_1_backup.PWMdeadBandValue);
 102:.\Generated_Source\PSoC5/PWM_1_PM.c ****             #endif /* deadband count is either 2-4 clocks or 256 clocks */
 103:.\Generated_Source\PSoC5/PWM_1_PM.c ****             
 104:.\Generated_Source\PSoC5/PWM_1_PM.c ****             #if(PWM_1_KillModeMinTime)
 105:.\Generated_Source\PSoC5/PWM_1_PM.c ****                 PWM_1_WriteKillTime(PWM_1_backup.PWMKillCounterPeriod);
ARM GAS  C:\Users\dskyNote\AppData\Local\Temp\ccdlHD52.s 			page 4


 106:.\Generated_Source\PSoC5/PWM_1_PM.c ****             #endif /* (PWM_1_KillModeMinTime) */
 107:.\Generated_Source\PSoC5/PWM_1_PM.c ****             
 108:.\Generated_Source\PSoC5/PWM_1_PM.c ****             #if(PWM_1_UseControl)
 109:.\Generated_Source\PSoC5/PWM_1_PM.c ****                 PWM_1_WriteControlRegister(PWM_1_backup.PWMControlRegister); 
 110:.\Generated_Source\PSoC5/PWM_1_PM.c ****             #endif /* (PWM_1_UseControl) */
 111:.\Generated_Source\PSoC5/PWM_1_PM.c ****         #endif  /* (!PWM_1_UsingFixedFunction) */
 112:.\Generated_Source\PSoC5/PWM_1_PM.c ****     }
  67              		.loc 1 112 0
  68 0004 BD46     		mov	sp, r7
  69              		@ sp needed
  70 0006 5DF8047B 		ldr	r7, [sp], #4
  71 000a 7047     		bx	lr
  72              		.cfi_endproc
  73              	.LFE1:
  74              		.size	PWM_1_RestoreConfig, .-PWM_1_RestoreConfig
  75              		.section	.text.PWM_1_Sleep,"ax",%progbits
  76              		.align	2
  77              		.global	PWM_1_Sleep
  78              		.thumb
  79              		.thumb_func
  80              		.type	PWM_1_Sleep, %function
  81              	PWM_1_Sleep:
  82              	.LFB2:
 113:.\Generated_Source\PSoC5/PWM_1_PM.c **** 
 114:.\Generated_Source\PSoC5/PWM_1_PM.c **** 
 115:.\Generated_Source\PSoC5/PWM_1_PM.c **** /*******************************************************************************
 116:.\Generated_Source\PSoC5/PWM_1_PM.c **** * Function Name: PWM_1_Sleep
 117:.\Generated_Source\PSoC5/PWM_1_PM.c **** ********************************************************************************
 118:.\Generated_Source\PSoC5/PWM_1_PM.c **** * 
 119:.\Generated_Source\PSoC5/PWM_1_PM.c **** * Summary:
 120:.\Generated_Source\PSoC5/PWM_1_PM.c **** *  Disables block's operation and saves the user configuration. Should be called 
 121:.\Generated_Source\PSoC5/PWM_1_PM.c **** *  just prior to entering sleep.
 122:.\Generated_Source\PSoC5/PWM_1_PM.c **** *  
 123:.\Generated_Source\PSoC5/PWM_1_PM.c **** * Parameters:  
 124:.\Generated_Source\PSoC5/PWM_1_PM.c **** *  None
 125:.\Generated_Source\PSoC5/PWM_1_PM.c **** *
 126:.\Generated_Source\PSoC5/PWM_1_PM.c **** * Return: 
 127:.\Generated_Source\PSoC5/PWM_1_PM.c **** *  None
 128:.\Generated_Source\PSoC5/PWM_1_PM.c **** *
 129:.\Generated_Source\PSoC5/PWM_1_PM.c **** * Global variables:
 130:.\Generated_Source\PSoC5/PWM_1_PM.c **** *  PWM_1_backup.PWMEnableState:  Is modified depending on the enable 
 131:.\Generated_Source\PSoC5/PWM_1_PM.c **** *  state of the block before entering sleep mode.
 132:.\Generated_Source\PSoC5/PWM_1_PM.c **** *
 133:.\Generated_Source\PSoC5/PWM_1_PM.c **** *******************************************************************************/
 134:.\Generated_Source\PSoC5/PWM_1_PM.c **** void PWM_1_Sleep(void) 
 135:.\Generated_Source\PSoC5/PWM_1_PM.c **** {
  83              		.loc 1 135 0
  84              		.cfi_startproc
  85              		@ args = 0, pretend = 0, frame = 0
  86              		@ frame_needed = 1, uses_anonymous_args = 0
  87 0000 80B5     		push	{r7, lr}
  88              		.cfi_def_cfa_offset 8
  89              		.cfi_offset 7, -8
  90              		.cfi_offset 14, -4
  91 0002 00AF     		add	r7, sp, #0
  92              		.cfi_def_cfa_register 7
 136:.\Generated_Source\PSoC5/PWM_1_PM.c ****     #if(PWM_1_UseControl)
ARM GAS  C:\Users\dskyNote\AppData\Local\Temp\ccdlHD52.s 			page 5


 137:.\Generated_Source\PSoC5/PWM_1_PM.c ****         if(PWM_1_CTRL_ENABLE == (PWM_1_CONTROL & PWM_1_CTRL_ENABLE))
  93              		.loc 1 137 0
  94 0004 094B     		ldr	r3, .L6
  95 0006 1B78     		ldrb	r3, [r3]
  96 0008 DBB2     		uxtb	r3, r3
  97 000a 03F00103 		and	r3, r3, #1
  98 000e 002B     		cmp	r3, #0
  99 0010 03D0     		beq	.L4
 138:.\Generated_Source\PSoC5/PWM_1_PM.c ****         {
 139:.\Generated_Source\PSoC5/PWM_1_PM.c ****             /*Component is enabled */
 140:.\Generated_Source\PSoC5/PWM_1_PM.c ****             PWM_1_backup.PWMEnableState = 1u;
 100              		.loc 1 140 0
 101 0012 074B     		ldr	r3, .L6+4
 102 0014 0122     		movs	r2, #1
 103 0016 1A70     		strb	r2, [r3]
 104 0018 02E0     		b	.L5
 105              	.L4:
 141:.\Generated_Source\PSoC5/PWM_1_PM.c ****         }
 142:.\Generated_Source\PSoC5/PWM_1_PM.c ****         else
 143:.\Generated_Source\PSoC5/PWM_1_PM.c ****         {
 144:.\Generated_Source\PSoC5/PWM_1_PM.c ****             /* Component is disabled */
 145:.\Generated_Source\PSoC5/PWM_1_PM.c ****             PWM_1_backup.PWMEnableState = 0u;
 106              		.loc 1 145 0
 107 001a 054B     		ldr	r3, .L6+4
 108 001c 0022     		movs	r2, #0
 109 001e 1A70     		strb	r2, [r3]
 110              	.L5:
 146:.\Generated_Source\PSoC5/PWM_1_PM.c ****         }
 147:.\Generated_Source\PSoC5/PWM_1_PM.c ****     #endif /* (PWM_1_UseControl) */
 148:.\Generated_Source\PSoC5/PWM_1_PM.c **** 
 149:.\Generated_Source\PSoC5/PWM_1_PM.c ****     /* Stop component */
 150:.\Generated_Source\PSoC5/PWM_1_PM.c ****     PWM_1_Stop();
 111              		.loc 1 150 0
 112 0020 FFF7FEFF 		bl	PWM_1_Stop
 151:.\Generated_Source\PSoC5/PWM_1_PM.c ****     
 152:.\Generated_Source\PSoC5/PWM_1_PM.c ****     /* Save registers configuration */
 153:.\Generated_Source\PSoC5/PWM_1_PM.c ****     PWM_1_SaveConfig();
 113              		.loc 1 153 0
 114 0024 FFF7FEFF 		bl	PWM_1_SaveConfig
 154:.\Generated_Source\PSoC5/PWM_1_PM.c **** }
 115              		.loc 1 154 0
 116 0028 80BD     		pop	{r7, pc}
 117              	.L7:
 118 002a 00BF     		.align	2
 119              	.L6:
 120 002c 004F0040 		.word	1073762048
 121 0030 00000000 		.word	PWM_1_backup
 122              		.cfi_endproc
 123              	.LFE2:
 124              		.size	PWM_1_Sleep, .-PWM_1_Sleep
 125              		.section	.text.PWM_1_Wakeup,"ax",%progbits
 126              		.align	2
 127              		.global	PWM_1_Wakeup
 128              		.thumb
 129              		.thumb_func
 130              		.type	PWM_1_Wakeup, %function
 131              	PWM_1_Wakeup:
ARM GAS  C:\Users\dskyNote\AppData\Local\Temp\ccdlHD52.s 			page 6


 132              	.LFB3:
 155:.\Generated_Source\PSoC5/PWM_1_PM.c **** 
 156:.\Generated_Source\PSoC5/PWM_1_PM.c **** 
 157:.\Generated_Source\PSoC5/PWM_1_PM.c **** /*******************************************************************************
 158:.\Generated_Source\PSoC5/PWM_1_PM.c **** * Function Name: PWM_1_Wakeup
 159:.\Generated_Source\PSoC5/PWM_1_PM.c **** ********************************************************************************
 160:.\Generated_Source\PSoC5/PWM_1_PM.c **** * 
 161:.\Generated_Source\PSoC5/PWM_1_PM.c **** * Summary:
 162:.\Generated_Source\PSoC5/PWM_1_PM.c **** *  Restores and enables the user configuration. Should be called just after 
 163:.\Generated_Source\PSoC5/PWM_1_PM.c **** *  awaking from sleep.
 164:.\Generated_Source\PSoC5/PWM_1_PM.c **** *  
 165:.\Generated_Source\PSoC5/PWM_1_PM.c **** * Parameters:  
 166:.\Generated_Source\PSoC5/PWM_1_PM.c **** *  None
 167:.\Generated_Source\PSoC5/PWM_1_PM.c **** *
 168:.\Generated_Source\PSoC5/PWM_1_PM.c **** * Return: 
 169:.\Generated_Source\PSoC5/PWM_1_PM.c **** *  None
 170:.\Generated_Source\PSoC5/PWM_1_PM.c **** *
 171:.\Generated_Source\PSoC5/PWM_1_PM.c **** * Global variables:
 172:.\Generated_Source\PSoC5/PWM_1_PM.c **** *  PWM_1_backup.pwmEnable:  Is used to restore the enable state of 
 173:.\Generated_Source\PSoC5/PWM_1_PM.c **** *  block on wakeup from sleep mode.
 174:.\Generated_Source\PSoC5/PWM_1_PM.c **** *
 175:.\Generated_Source\PSoC5/PWM_1_PM.c **** *******************************************************************************/
 176:.\Generated_Source\PSoC5/PWM_1_PM.c **** void PWM_1_Wakeup(void) 
 177:.\Generated_Source\PSoC5/PWM_1_PM.c **** {
 133              		.loc 1 177 0
 134              		.cfi_startproc
 135              		@ args = 0, pretend = 0, frame = 0
 136              		@ frame_needed = 1, uses_anonymous_args = 0
 137 0000 80B5     		push	{r7, lr}
 138              		.cfi_def_cfa_offset 8
 139              		.cfi_offset 7, -8
 140              		.cfi_offset 14, -4
 141 0002 00AF     		add	r7, sp, #0
 142              		.cfi_def_cfa_register 7
 178:.\Generated_Source\PSoC5/PWM_1_PM.c ****      /* Restore registers values */
 179:.\Generated_Source\PSoC5/PWM_1_PM.c ****     PWM_1_RestoreConfig();
 143              		.loc 1 179 0
 144 0004 FFF7FEFF 		bl	PWM_1_RestoreConfig
 180:.\Generated_Source\PSoC5/PWM_1_PM.c ****     
 181:.\Generated_Source\PSoC5/PWM_1_PM.c ****     if(PWM_1_backup.PWMEnableState != 0u)
 145              		.loc 1 181 0
 146 0008 034B     		ldr	r3, .L10
 147 000a 1B78     		ldrb	r3, [r3]	@ zero_extendqisi2
 148 000c 002B     		cmp	r3, #0
 149 000e 01D0     		beq	.L8
 182:.\Generated_Source\PSoC5/PWM_1_PM.c ****     {
 183:.\Generated_Source\PSoC5/PWM_1_PM.c ****         /* Enable component's operation */
 184:.\Generated_Source\PSoC5/PWM_1_PM.c ****         PWM_1_Enable();
 150              		.loc 1 184 0
 151 0010 FFF7FEFF 		bl	PWM_1_Enable
 152              	.L8:
 185:.\Generated_Source\PSoC5/PWM_1_PM.c ****     } /* Do nothing if component's block was disabled before */
 186:.\Generated_Source\PSoC5/PWM_1_PM.c ****     
 187:.\Generated_Source\PSoC5/PWM_1_PM.c **** }
 153              		.loc 1 187 0
 154 0014 80BD     		pop	{r7, pc}
 155              	.L11:
ARM GAS  C:\Users\dskyNote\AppData\Local\Temp\ccdlHD52.s 			page 7


 156 0016 00BF     		.align	2
 157              	.L10:
 158 0018 00000000 		.word	PWM_1_backup
 159              		.cfi_endproc
 160              	.LFE3:
 161              		.size	PWM_1_Wakeup, .-PWM_1_Wakeup
 162              		.text
 163              	.Letext0:
 164              		.file 2 ".\\Generated_Source\\PSoC5\\cytypes.h"
 165              		.file 3 ".\\Generated_Source\\PSoC5\\PWM_1.h"