ARM GAS  C:\Users\dskyNote\AppData\Local\Temp\ccZwia2j.s 			page 1


   1              		.syntax unified
   2              		.cpu cortex-m3
   3              		.fpu softvfp
   4              		.eabi_attribute 20, 1
   5              		.eabi_attribute 21, 1
   6              		.eabi_attribute 23, 3
   7              		.eabi_attribute 24, 1
   8              		.eabi_attribute 25, 1
   9              		.eabi_attribute 26, 1
  10              		.eabi_attribute 30, 6
  11              		.eabi_attribute 34, 1
  12              		.eabi_attribute 18, 4
  13              		.thumb
  14              		.file	"UART_1.c"
  15              		.text
  16              	.Ltext0:
  17              		.cfi_sections	.debug_frame
  18              		.global	UART_1_initVar
  19              		.bss
  20              		.type	UART_1_initVar, %object
  21              		.size	UART_1_initVar, 1
  22              	UART_1_initVar:
  23 0000 00       		.space	1
  24              		.comm	UART_1_txBuffer,128,4
  25              		.global	UART_1_txBufferRead
  26              		.type	UART_1_txBufferRead, %object
  27              		.size	UART_1_txBufferRead, 1
  28              	UART_1_txBufferRead:
  29 0001 00       		.space	1
  30              		.global	UART_1_txBufferWrite
  31              		.type	UART_1_txBufferWrite, %object
  32              		.size	UART_1_txBufferWrite, 1
  33              	UART_1_txBufferWrite:
  34 0002 00       		.space	1
  35              		.comm	UART_1_rxBuffer,128,4
  36              		.global	UART_1_rxBufferRead
  37              		.type	UART_1_rxBufferRead, %object
  38              		.size	UART_1_rxBufferRead, 1
  39              	UART_1_rxBufferRead:
  40 0003 00       		.space	1
  41              		.global	UART_1_rxBufferWrite
  42              		.type	UART_1_rxBufferWrite, %object
  43              		.size	UART_1_rxBufferWrite, 1
  44              	UART_1_rxBufferWrite:
  45 0004 00       		.space	1
  46              		.global	UART_1_rxBufferLoopDetect
  47              		.type	UART_1_rxBufferLoopDetect, %object
  48              		.size	UART_1_rxBufferLoopDetect, 1
  49              	UART_1_rxBufferLoopDetect:
  50 0005 00       		.space	1
  51              		.global	UART_1_rxBufferOverflow
  52              		.type	UART_1_rxBufferOverflow, %object
  53              		.size	UART_1_rxBufferOverflow, 1
  54              	UART_1_rxBufferOverflow:
  55 0006 00       		.space	1
  56              		.section	.text.UART_1_Start,"ax",%progbits
  57              		.align	2
ARM GAS  C:\Users\dskyNote\AppData\Local\Temp\ccZwia2j.s 			page 2


  58              		.global	UART_1_Start
  59              		.thumb
  60              		.thumb_func
  61              		.type	UART_1_Start, %function
  62              	UART_1_Start:
  63              	.LFB0:
  64              		.file 1 ".\\Generated_Source\\PSoC5\\UART_1.c"
   1:.\Generated_Source\PSoC5/UART_1.c **** /*******************************************************************************
   2:.\Generated_Source\PSoC5/UART_1.c **** * File Name: UART_1.c
   3:.\Generated_Source\PSoC5/UART_1.c **** * Version 2.30
   4:.\Generated_Source\PSoC5/UART_1.c **** *
   5:.\Generated_Source\PSoC5/UART_1.c **** * Description:
   6:.\Generated_Source\PSoC5/UART_1.c **** *  This file provides all API functionality of the UART component
   7:.\Generated_Source\PSoC5/UART_1.c **** *
   8:.\Generated_Source\PSoC5/UART_1.c **** * Note:
   9:.\Generated_Source\PSoC5/UART_1.c **** *
  10:.\Generated_Source\PSoC5/UART_1.c **** ********************************************************************************
  11:.\Generated_Source\PSoC5/UART_1.c **** * Copyright 2008-2012, Cypress Semiconductor Corporation.  All rights reserved.
  12:.\Generated_Source\PSoC5/UART_1.c **** * You may use this file only in accordance with the license, terms, conditions,
  13:.\Generated_Source\PSoC5/UART_1.c **** * disclaimers, and limitations in the end user license agreement accompanying
  14:.\Generated_Source\PSoC5/UART_1.c **** * the software package with which this file was provided.
  15:.\Generated_Source\PSoC5/UART_1.c **** *******************************************************************************/
  16:.\Generated_Source\PSoC5/UART_1.c **** 
  17:.\Generated_Source\PSoC5/UART_1.c **** #include "UART_1.h"
  18:.\Generated_Source\PSoC5/UART_1.c **** #include "CyLib.h"
  19:.\Generated_Source\PSoC5/UART_1.c **** #if(UART_1_INTERNAL_CLOCK_USED)
  20:.\Generated_Source\PSoC5/UART_1.c ****     #include "UART_1_IntClock.h"
  21:.\Generated_Source\PSoC5/UART_1.c **** #endif /* End UART_1_INTERNAL_CLOCK_USED */
  22:.\Generated_Source\PSoC5/UART_1.c **** 
  23:.\Generated_Source\PSoC5/UART_1.c **** 
  24:.\Generated_Source\PSoC5/UART_1.c **** /***************************************
  25:.\Generated_Source\PSoC5/UART_1.c **** * Global data allocation
  26:.\Generated_Source\PSoC5/UART_1.c **** ***************************************/
  27:.\Generated_Source\PSoC5/UART_1.c **** 
  28:.\Generated_Source\PSoC5/UART_1.c **** uint8 UART_1_initVar = 0u;
  29:.\Generated_Source\PSoC5/UART_1.c **** #if( UART_1_TX_ENABLED && (UART_1_TXBUFFERSIZE > UART_1_FIFO_LENGTH))
  30:.\Generated_Source\PSoC5/UART_1.c ****     volatile uint8 UART_1_txBuffer[UART_1_TXBUFFERSIZE];
  31:.\Generated_Source\PSoC5/UART_1.c ****     volatile uint8 UART_1_txBufferRead = 0u;
  32:.\Generated_Source\PSoC5/UART_1.c ****     uint8 UART_1_txBufferWrite = 0u;
  33:.\Generated_Source\PSoC5/UART_1.c **** #endif /* End UART_1_TX_ENABLED */
  34:.\Generated_Source\PSoC5/UART_1.c **** #if( ( UART_1_RX_ENABLED || UART_1_HD_ENABLED ) && \
  35:.\Generated_Source\PSoC5/UART_1.c ****      (UART_1_RXBUFFERSIZE > UART_1_FIFO_LENGTH) )
  36:.\Generated_Source\PSoC5/UART_1.c ****     volatile uint8 UART_1_rxBuffer[UART_1_RXBUFFERSIZE];
  37:.\Generated_Source\PSoC5/UART_1.c ****     volatile uint8 UART_1_rxBufferRead = 0u;
  38:.\Generated_Source\PSoC5/UART_1.c ****     volatile uint8 UART_1_rxBufferWrite = 0u;
  39:.\Generated_Source\PSoC5/UART_1.c ****     volatile uint8 UART_1_rxBufferLoopDetect = 0u;
  40:.\Generated_Source\PSoC5/UART_1.c ****     volatile uint8 UART_1_rxBufferOverflow = 0u;
  41:.\Generated_Source\PSoC5/UART_1.c ****     #if (UART_1_RXHW_ADDRESS_ENABLED)
  42:.\Generated_Source\PSoC5/UART_1.c ****         volatile uint8 UART_1_rxAddressMode = UART_1_RXADDRESSMODE;
  43:.\Generated_Source\PSoC5/UART_1.c ****         volatile uint8 UART_1_rxAddressDetected = 0u;
  44:.\Generated_Source\PSoC5/UART_1.c ****     #endif /* End EnableHWAddress */
  45:.\Generated_Source\PSoC5/UART_1.c **** #endif /* End UART_1_RX_ENABLED */
  46:.\Generated_Source\PSoC5/UART_1.c **** 
  47:.\Generated_Source\PSoC5/UART_1.c **** 
  48:.\Generated_Source\PSoC5/UART_1.c **** /*******************************************************************************
  49:.\Generated_Source\PSoC5/UART_1.c **** * Function Name: UART_1_Start
  50:.\Generated_Source\PSoC5/UART_1.c **** ********************************************************************************
ARM GAS  C:\Users\dskyNote\AppData\Local\Temp\ccZwia2j.s 			page 3


  51:.\Generated_Source\PSoC5/UART_1.c **** *
  52:.\Generated_Source\PSoC5/UART_1.c **** * Summary:
  53:.\Generated_Source\PSoC5/UART_1.c **** *  Initialize and Enable the UART component.
  54:.\Generated_Source\PSoC5/UART_1.c **** *  Enable the clock input to enable operation.
  55:.\Generated_Source\PSoC5/UART_1.c **** *
  56:.\Generated_Source\PSoC5/UART_1.c **** * Parameters:
  57:.\Generated_Source\PSoC5/UART_1.c **** *  None.
  58:.\Generated_Source\PSoC5/UART_1.c **** *
  59:.\Generated_Source\PSoC5/UART_1.c **** * Return:
  60:.\Generated_Source\PSoC5/UART_1.c **** *  None.
  61:.\Generated_Source\PSoC5/UART_1.c **** *
  62:.\Generated_Source\PSoC5/UART_1.c **** * Global variables:
  63:.\Generated_Source\PSoC5/UART_1.c **** *  The UART_1_intiVar variable is used to indicate initial
  64:.\Generated_Source\PSoC5/UART_1.c **** *  configuration of this component. The variable is initialized to zero (0u)
  65:.\Generated_Source\PSoC5/UART_1.c **** *  and set to one (1u) the first time UART_Start() is called. This allows for
  66:.\Generated_Source\PSoC5/UART_1.c **** *  component initialization without re-initialization in all subsequent calls
  67:.\Generated_Source\PSoC5/UART_1.c **** *  to the UART_1_Start() routine.
  68:.\Generated_Source\PSoC5/UART_1.c **** *
  69:.\Generated_Source\PSoC5/UART_1.c **** * Reentrant:
  70:.\Generated_Source\PSoC5/UART_1.c **** *  No.
  71:.\Generated_Source\PSoC5/UART_1.c **** *
  72:.\Generated_Source\PSoC5/UART_1.c **** *******************************************************************************/
  73:.\Generated_Source\PSoC5/UART_1.c **** void UART_1_Start(void) 
  74:.\Generated_Source\PSoC5/UART_1.c **** {
  65              		.loc 1 74 0
  66              		.cfi_startproc
  67              		@ args = 0, pretend = 0, frame = 0
  68              		@ frame_needed = 1, uses_anonymous_args = 0
  69 0000 80B5     		push	{r7, lr}
  70              		.cfi_def_cfa_offset 8
  71              		.cfi_offset 7, -8
  72              		.cfi_offset 14, -4
  73 0002 00AF     		add	r7, sp, #0
  74              		.cfi_def_cfa_register 7
  75:.\Generated_Source\PSoC5/UART_1.c ****     /* If not Initialized then initialize all required hardware and software */
  76:.\Generated_Source\PSoC5/UART_1.c ****     if(UART_1_initVar == 0u)
  75              		.loc 1 76 0
  76 0004 054B     		ldr	r3, .L3
  77 0006 1B78     		ldrb	r3, [r3]	@ zero_extendqisi2
  78 0008 002B     		cmp	r3, #0
  79 000a 04D1     		bne	.L2
  77:.\Generated_Source\PSoC5/UART_1.c ****     {
  78:.\Generated_Source\PSoC5/UART_1.c ****         UART_1_Init();
  80              		.loc 1 78 0
  81 000c FFF7FEFF 		bl	UART_1_Init
  79:.\Generated_Source\PSoC5/UART_1.c ****         UART_1_initVar = 1u;
  82              		.loc 1 79 0
  83 0010 024B     		ldr	r3, .L3
  84 0012 0122     		movs	r2, #1
  85 0014 1A70     		strb	r2, [r3]
  86              	.L2:
  80:.\Generated_Source\PSoC5/UART_1.c ****     }
  81:.\Generated_Source\PSoC5/UART_1.c ****     UART_1_Enable();
  87              		.loc 1 81 0
  88 0016 FFF7FEFF 		bl	UART_1_Enable
  82:.\Generated_Source\PSoC5/UART_1.c **** }
  89              		.loc 1 82 0
ARM GAS  C:\Users\dskyNote\AppData\Local\Temp\ccZwia2j.s 			page 4


  90 001a 80BD     		pop	{r7, pc}
  91              	.L4:
  92              		.align	2
  93              	.L3:
  94 001c 00000000 		.word	UART_1_initVar
  95              		.cfi_endproc
  96              	.LFE0:
  97              		.size	UART_1_Start, .-UART_1_Start
  98              		.section	.text.UART_1_Init,"ax",%progbits
  99              		.align	2
 100              		.global	UART_1_Init
 101              		.thumb
 102              		.thumb_func
 103              		.type	UART_1_Init, %function
 104              	UART_1_Init:
 105              	.LFB1:
  83:.\Generated_Source\PSoC5/UART_1.c **** 
  84:.\Generated_Source\PSoC5/UART_1.c **** 
  85:.\Generated_Source\PSoC5/UART_1.c **** /*******************************************************************************
  86:.\Generated_Source\PSoC5/UART_1.c **** * Function Name: UART_1_Init
  87:.\Generated_Source\PSoC5/UART_1.c **** ********************************************************************************
  88:.\Generated_Source\PSoC5/UART_1.c **** *
  89:.\Generated_Source\PSoC5/UART_1.c **** * Summary:
  90:.\Generated_Source\PSoC5/UART_1.c **** *  Initialize component's parameters to the parameters set by user in the
  91:.\Generated_Source\PSoC5/UART_1.c **** *  customizer of the component placed onto schematic. Usually called in
  92:.\Generated_Source\PSoC5/UART_1.c **** *  UART_1_Start().
  93:.\Generated_Source\PSoC5/UART_1.c **** *
  94:.\Generated_Source\PSoC5/UART_1.c **** * Parameters:
  95:.\Generated_Source\PSoC5/UART_1.c **** *  None.
  96:.\Generated_Source\PSoC5/UART_1.c **** *
  97:.\Generated_Source\PSoC5/UART_1.c **** * Return:
  98:.\Generated_Source\PSoC5/UART_1.c **** *  None.
  99:.\Generated_Source\PSoC5/UART_1.c **** *
 100:.\Generated_Source\PSoC5/UART_1.c **** *******************************************************************************/
 101:.\Generated_Source\PSoC5/UART_1.c **** void UART_1_Init(void) 
 102:.\Generated_Source\PSoC5/UART_1.c **** {
 106              		.loc 1 102 0
 107              		.cfi_startproc
 108              		@ args = 0, pretend = 0, frame = 0
 109              		@ frame_needed = 1, uses_anonymous_args = 0
 110 0000 80B5     		push	{r7, lr}
 111              		.cfi_def_cfa_offset 8
 112              		.cfi_offset 7, -8
 113              		.cfi_offset 14, -4
 114 0002 00AF     		add	r7, sp, #0
 115              		.cfi_def_cfa_register 7
 103:.\Generated_Source\PSoC5/UART_1.c ****     #if(UART_1_RX_ENABLED || UART_1_HD_ENABLED)
 104:.\Generated_Source\PSoC5/UART_1.c **** 
 105:.\Generated_Source\PSoC5/UART_1.c ****         #if(UART_1_RX_INTERRUPT_ENABLED && (UART_1_RXBUFFERSIZE > UART_1_FIFO_LENGTH))
 106:.\Generated_Source\PSoC5/UART_1.c ****             /* Set the RX Interrupt. */
 107:.\Generated_Source\PSoC5/UART_1.c ****             (void)CyIntSetVector(UART_1_RX_VECT_NUM, &UART_1_RXISR);
 116              		.loc 1 107 0
 117 0004 0220     		movs	r0, #2
 118 0006 0F49     		ldr	r1, .L6
 119 0008 FFF7FEFF 		bl	CyIntSetVector
 108:.\Generated_Source\PSoC5/UART_1.c ****             CyIntSetPriority(UART_1_RX_VECT_NUM, UART_1_RX_PRIOR_NUM);
 120              		.loc 1 108 0
ARM GAS  C:\Users\dskyNote\AppData\Local\Temp\ccZwia2j.s 			page 5


 121 000c 0220     		movs	r0, #2
 122 000e 0121     		movs	r1, #1
 123 0010 FFF7FEFF 		bl	CyIntSetPriority
 109:.\Generated_Source\PSoC5/UART_1.c ****         #endif /* End UART_1_RX_INTERRUPT_ENABLED */
 110:.\Generated_Source\PSoC5/UART_1.c **** 
 111:.\Generated_Source\PSoC5/UART_1.c ****         #if (UART_1_RXHW_ADDRESS_ENABLED)
 112:.\Generated_Source\PSoC5/UART_1.c ****             UART_1_SetRxAddressMode(UART_1_RXAddressMode);
 113:.\Generated_Source\PSoC5/UART_1.c ****             UART_1_SetRxAddress1(UART_1_RXHWADDRESS1);
 114:.\Generated_Source\PSoC5/UART_1.c ****             UART_1_SetRxAddress2(UART_1_RXHWADDRESS2);
 115:.\Generated_Source\PSoC5/UART_1.c ****         #endif /* End UART_1_RXHW_ADDRESS_ENABLED */
 116:.\Generated_Source\PSoC5/UART_1.c **** 
 117:.\Generated_Source\PSoC5/UART_1.c ****         /* Init Count7 period */
 118:.\Generated_Source\PSoC5/UART_1.c ****         UART_1_RXBITCTR_PERIOD_REG = UART_1_RXBITCTR_INIT;
 124              		.loc 1 118 0
 125 0014 0C4B     		ldr	r3, .L6+4
 126 0016 7222     		movs	r2, #114
 127 0018 1A70     		strb	r2, [r3]
 119:.\Generated_Source\PSoC5/UART_1.c ****         /* Configure the Initial RX interrupt mask */
 120:.\Generated_Source\PSoC5/UART_1.c ****         UART_1_RXSTATUS_MASK_REG  = UART_1_INIT_RX_INTERRUPTS_MASK;
 128              		.loc 1 120 0
 129 001a 0C4B     		ldr	r3, .L6+8
 130 001c 2022     		movs	r2, #32
 131 001e 1A70     		strb	r2, [r3]
 121:.\Generated_Source\PSoC5/UART_1.c ****     #endif /* End UART_1_RX_ENABLED || UART_1_HD_ENABLED*/
 122:.\Generated_Source\PSoC5/UART_1.c **** 
 123:.\Generated_Source\PSoC5/UART_1.c ****     #if(UART_1_TX_ENABLED)
 124:.\Generated_Source\PSoC5/UART_1.c ****         #if(UART_1_TX_INTERRUPT_ENABLED && (UART_1_TXBUFFERSIZE > UART_1_FIFO_LENGTH))
 125:.\Generated_Source\PSoC5/UART_1.c ****             /* Set the TX Interrupt. */
 126:.\Generated_Source\PSoC5/UART_1.c ****             (void)CyIntSetVector(UART_1_TX_VECT_NUM, &UART_1_TXISR);
 132              		.loc 1 126 0
 133 0020 0320     		movs	r0, #3
 134 0022 0B49     		ldr	r1, .L6+12
 135 0024 FFF7FEFF 		bl	CyIntSetVector
 127:.\Generated_Source\PSoC5/UART_1.c ****             CyIntSetPriority(UART_1_TX_VECT_NUM, UART_1_TX_PRIOR_NUM);
 136              		.loc 1 127 0
 137 0028 0320     		movs	r0, #3
 138 002a 0721     		movs	r1, #7
 139 002c FFF7FEFF 		bl	CyIntSetPriority
 128:.\Generated_Source\PSoC5/UART_1.c ****         #endif /* End UART_1_TX_INTERRUPT_ENABLED */
 129:.\Generated_Source\PSoC5/UART_1.c **** 
 130:.\Generated_Source\PSoC5/UART_1.c ****         /* Write Counter Value for TX Bit Clk Generator*/
 131:.\Generated_Source\PSoC5/UART_1.c ****         #if(UART_1_TXCLKGEN_DP)
 132:.\Generated_Source\PSoC5/UART_1.c ****             UART_1_TXBITCLKGEN_CTR_REG = UART_1_BIT_CENTER;
 140              		.loc 1 132 0
 141 0030 084B     		ldr	r3, .L6+16
 142 0032 0722     		movs	r2, #7
 143 0034 1A70     		strb	r2, [r3]
 133:.\Generated_Source\PSoC5/UART_1.c ****             UART_1_TXBITCLKTX_COMPLETE_REG = (UART_1_NUMBER_OF_DATA_BITS +
 144              		.loc 1 133 0
 145 0036 084B     		ldr	r3, .L6+20
 146 0038 4822     		movs	r2, #72
 147 003a 1A70     		strb	r2, [r3]
 134:.\Generated_Source\PSoC5/UART_1.c ****                         UART_1_NUMBER_OF_START_BIT) * UART_1_OVER_SAMPLE_COUNT;
 135:.\Generated_Source\PSoC5/UART_1.c ****         #else
 136:.\Generated_Source\PSoC5/UART_1.c ****             UART_1_TXBITCTR_PERIOD_REG = ((UART_1_NUMBER_OF_DATA_BITS +
 137:.\Generated_Source\PSoC5/UART_1.c ****                         UART_1_NUMBER_OF_START_BIT) * UART_1_OVER_SAMPLE_8) - 1u;
 138:.\Generated_Source\PSoC5/UART_1.c ****         #endif /* End UART_1_TXCLKGEN_DP */
ARM GAS  C:\Users\dskyNote\AppData\Local\Temp\ccZwia2j.s 			page 6


 139:.\Generated_Source\PSoC5/UART_1.c **** 
 140:.\Generated_Source\PSoC5/UART_1.c ****         /* Configure the Initial TX interrupt mask */
 141:.\Generated_Source\PSoC5/UART_1.c ****         #if(UART_1_TX_INTERRUPT_ENABLED && (UART_1_TXBUFFERSIZE > UART_1_FIFO_LENGTH))
 142:.\Generated_Source\PSoC5/UART_1.c ****             UART_1_TXSTATUS_MASK_REG = UART_1_TX_STS_FIFO_EMPTY;
 148              		.loc 1 142 0
 149 003c 074B     		ldr	r3, .L6+24
 150 003e 0222     		movs	r2, #2
 151 0040 1A70     		strb	r2, [r3]
 143:.\Generated_Source\PSoC5/UART_1.c ****         #else
 144:.\Generated_Source\PSoC5/UART_1.c ****             UART_1_TXSTATUS_MASK_REG = UART_1_INIT_TX_INTERRUPTS_MASK;
 145:.\Generated_Source\PSoC5/UART_1.c ****         #endif /*End UART_1_TX_INTERRUPT_ENABLED*/
 146:.\Generated_Source\PSoC5/UART_1.c **** 
 147:.\Generated_Source\PSoC5/UART_1.c ****     #endif /* End UART_1_TX_ENABLED */
 148:.\Generated_Source\PSoC5/UART_1.c **** 
 149:.\Generated_Source\PSoC5/UART_1.c ****     #if(UART_1_PARITY_TYPE_SW)  /* Write Parity to Control Register */
 150:.\Generated_Source\PSoC5/UART_1.c ****         UART_1_WriteControlRegister( \
 151:.\Generated_Source\PSoC5/UART_1.c ****             (UART_1_ReadControlRegister() & (uint8)~UART_1_CTRL_PARITY_TYPE_MASK) | \
 152:.\Generated_Source\PSoC5/UART_1.c ****             (uint8)(UART_1_PARITY_TYPE << UART_1_CTRL_PARITY_TYPE0_SHIFT) );
 153:.\Generated_Source\PSoC5/UART_1.c ****     #endif /* End UART_1_PARITY_TYPE_SW */
 154:.\Generated_Source\PSoC5/UART_1.c **** }
 152              		.loc 1 154 0
 153 0042 80BD     		pop	{r7, pc}
 154              	.L7:
 155              		.align	2
 156              	.L6:
 157 0044 00000000 		.word	UART_1_RXISR
 158 0048 8C640040 		.word	1073767564
 159 004c 80640040 		.word	1073767552
 160 0050 00000000 		.word	UART_1_TXISR
 161 0054 20640040 		.word	1073767456
 162 0058 30640040 		.word	1073767472
 163 005c 81640040 		.word	1073767553
 164              		.cfi_endproc
 165              	.LFE1:
 166              		.size	UART_1_Init, .-UART_1_Init
 167              		.section	.text.UART_1_Enable,"ax",%progbits
 168              		.align	2
 169              		.global	UART_1_Enable
 170              		.thumb
 171              		.thumb_func
 172              		.type	UART_1_Enable, %function
 173              	UART_1_Enable:
 174              	.LFB2:
 155:.\Generated_Source\PSoC5/UART_1.c **** 
 156:.\Generated_Source\PSoC5/UART_1.c **** 
 157:.\Generated_Source\PSoC5/UART_1.c **** /*******************************************************************************
 158:.\Generated_Source\PSoC5/UART_1.c **** * Function Name: UART_1_Enable
 159:.\Generated_Source\PSoC5/UART_1.c **** ********************************************************************************
 160:.\Generated_Source\PSoC5/UART_1.c **** *
 161:.\Generated_Source\PSoC5/UART_1.c **** * Summary:
 162:.\Generated_Source\PSoC5/UART_1.c **** *  Enables the UART block operation
 163:.\Generated_Source\PSoC5/UART_1.c **** *
 164:.\Generated_Source\PSoC5/UART_1.c **** * Parameters:
 165:.\Generated_Source\PSoC5/UART_1.c **** *  None.
 166:.\Generated_Source\PSoC5/UART_1.c **** *
 167:.\Generated_Source\PSoC5/UART_1.c **** * Return:
 168:.\Generated_Source\PSoC5/UART_1.c **** *  None.
ARM GAS  C:\Users\dskyNote\AppData\Local\Temp\ccZwia2j.s 			page 7


 169:.\Generated_Source\PSoC5/UART_1.c **** *
 170:.\Generated_Source\PSoC5/UART_1.c **** * Global Variables:
 171:.\Generated_Source\PSoC5/UART_1.c **** *  UART_1_rxAddressDetected - set to initial state (0).
 172:.\Generated_Source\PSoC5/UART_1.c **** *
 173:.\Generated_Source\PSoC5/UART_1.c **** *******************************************************************************/
 174:.\Generated_Source\PSoC5/UART_1.c **** void UART_1_Enable(void) 
 175:.\Generated_Source\PSoC5/UART_1.c **** {
 175              		.loc 1 175 0
 176              		.cfi_startproc
 177              		@ args = 0, pretend = 0, frame = 8
 178              		@ frame_needed = 1, uses_anonymous_args = 0
 179 0000 80B5     		push	{r7, lr}
 180              		.cfi_def_cfa_offset 8
 181              		.cfi_offset 7, -8
 182              		.cfi_offset 14, -4
 183 0002 82B0     		sub	sp, sp, #8
 184              		.cfi_def_cfa_offset 16
 185 0004 00AF     		add	r7, sp, #0
 186              		.cfi_def_cfa_register 7
 176:.\Generated_Source\PSoC5/UART_1.c ****     uint8 enableInterrupts;
 177:.\Generated_Source\PSoC5/UART_1.c ****     enableInterrupts = CyEnterCriticalSection();
 187              		.loc 1 177 0
 188 0006 FFF7FEFF 		bl	CyEnterCriticalSection
 189 000a 0346     		mov	r3, r0
 190 000c FB71     		strb	r3, [r7, #7]
 178:.\Generated_Source\PSoC5/UART_1.c **** 
 179:.\Generated_Source\PSoC5/UART_1.c ****     #if(UART_1_RX_ENABLED || UART_1_HD_ENABLED)
 180:.\Generated_Source\PSoC5/UART_1.c ****         /*RX Counter (Count7) Enable */
 181:.\Generated_Source\PSoC5/UART_1.c ****         UART_1_RXBITCTR_CONTROL_REG |= UART_1_CNTR_ENABLE;
 191              		.loc 1 181 0
 192 000e 134B     		ldr	r3, .L9
 193 0010 124A     		ldr	r2, .L9
 194 0012 1278     		ldrb	r2, [r2]
 195 0014 D2B2     		uxtb	r2, r2
 196 0016 42F02002 		orr	r2, r2, #32
 197 001a D2B2     		uxtb	r2, r2
 198 001c 1A70     		strb	r2, [r3]
 182:.\Generated_Source\PSoC5/UART_1.c ****         /* Enable the RX Interrupt. */
 183:.\Generated_Source\PSoC5/UART_1.c ****         UART_1_RXSTATUS_ACTL_REG  |= UART_1_INT_ENABLE;
 199              		.loc 1 183 0
 200 001e 104B     		ldr	r3, .L9+4
 201 0020 0F4A     		ldr	r2, .L9+4
 202 0022 1278     		ldrb	r2, [r2]
 203 0024 D2B2     		uxtb	r2, r2
 204 0026 42F01002 		orr	r2, r2, #16
 205 002a D2B2     		uxtb	r2, r2
 206 002c 1A70     		strb	r2, [r3]
 184:.\Generated_Source\PSoC5/UART_1.c ****         #if(UART_1_RX_INTERRUPT_ENABLED && (UART_1_RXBUFFERSIZE > UART_1_FIFO_LENGTH))
 185:.\Generated_Source\PSoC5/UART_1.c ****             CyIntEnable(UART_1_RX_VECT_NUM);
 207              		.loc 1 185 0
 208 002e 0D4B     		ldr	r3, .L9+8
 209 0030 0422     		movs	r2, #4
 210 0032 1A60     		str	r2, [r3]
 186:.\Generated_Source\PSoC5/UART_1.c ****             #if (UART_1_RXHW_ADDRESS_ENABLED)
 187:.\Generated_Source\PSoC5/UART_1.c ****                 UART_1_rxAddressDetected = 0u;
 188:.\Generated_Source\PSoC5/UART_1.c ****             #endif /* End UART_1_RXHW_ADDRESS_ENABLED */
 189:.\Generated_Source\PSoC5/UART_1.c ****         #endif /* End UART_1_RX_INTERRUPT_ENABLED */
ARM GAS  C:\Users\dskyNote\AppData\Local\Temp\ccZwia2j.s 			page 8


 190:.\Generated_Source\PSoC5/UART_1.c ****     #endif /* End UART_1_RX_ENABLED || UART_1_HD_ENABLED*/
 191:.\Generated_Source\PSoC5/UART_1.c **** 
 192:.\Generated_Source\PSoC5/UART_1.c ****     #if(UART_1_TX_ENABLED)
 193:.\Generated_Source\PSoC5/UART_1.c ****         /*TX Counter (DP/Count7) Enable */
 194:.\Generated_Source\PSoC5/UART_1.c ****         #if(!UART_1_TXCLKGEN_DP)
 195:.\Generated_Source\PSoC5/UART_1.c ****             UART_1_TXBITCTR_CONTROL_REG |= UART_1_CNTR_ENABLE;
 196:.\Generated_Source\PSoC5/UART_1.c ****         #endif /* End UART_1_TXCLKGEN_DP */
 197:.\Generated_Source\PSoC5/UART_1.c ****         /* Enable the TX Interrupt. */
 198:.\Generated_Source\PSoC5/UART_1.c ****         UART_1_TXSTATUS_ACTL_REG |= UART_1_INT_ENABLE;
 211              		.loc 1 198 0
 212 0034 0C4B     		ldr	r3, .L9+12
 213 0036 0C4A     		ldr	r2, .L9+12
 214 0038 1278     		ldrb	r2, [r2]
 215 003a D2B2     		uxtb	r2, r2
 216 003c 42F01002 		orr	r2, r2, #16
 217 0040 D2B2     		uxtb	r2, r2
 218 0042 1A70     		strb	r2, [r3]
 199:.\Generated_Source\PSoC5/UART_1.c ****         #if(UART_1_TX_INTERRUPT_ENABLED && (UART_1_TXBUFFERSIZE > UART_1_FIFO_LENGTH))
 200:.\Generated_Source\PSoC5/UART_1.c ****             CyIntEnable(UART_1_TX_VECT_NUM);
 219              		.loc 1 200 0
 220 0044 074B     		ldr	r3, .L9+8
 221 0046 0822     		movs	r2, #8
 222 0048 1A60     		str	r2, [r3]
 201:.\Generated_Source\PSoC5/UART_1.c ****         #endif /* End UART_1_TX_INTERRUPT_ENABLED*/
 202:.\Generated_Source\PSoC5/UART_1.c ****      #endif /* End UART_1_TX_ENABLED */
 203:.\Generated_Source\PSoC5/UART_1.c **** 
 204:.\Generated_Source\PSoC5/UART_1.c ****     #if(UART_1_INTERNAL_CLOCK_USED)
 205:.\Generated_Source\PSoC5/UART_1.c ****         /* Enable the clock. */
 206:.\Generated_Source\PSoC5/UART_1.c ****         UART_1_IntClock_Start();
 223              		.loc 1 206 0
 224 004a FFF7FEFF 		bl	UART_1_IntClock_Start
 207:.\Generated_Source\PSoC5/UART_1.c ****     #endif /* End UART_1_INTERNAL_CLOCK_USED */
 208:.\Generated_Source\PSoC5/UART_1.c **** 
 209:.\Generated_Source\PSoC5/UART_1.c ****     CyExitCriticalSection(enableInterrupts);
 225              		.loc 1 209 0
 226 004e FB79     		ldrb	r3, [r7, #7]	@ zero_extendqisi2
 227 0050 1846     		mov	r0, r3
 228 0052 FFF7FEFF 		bl	CyExitCriticalSection
 210:.\Generated_Source\PSoC5/UART_1.c **** }
 229              		.loc 1 210 0
 230 0056 0837     		adds	r7, r7, #8
 231 0058 BD46     		mov	sp, r7
 232              		@ sp needed
 233 005a 80BD     		pop	{r7, pc}
 234              	.L10:
 235              		.align	2
 236              	.L9:
 237 005c 9C640040 		.word	1073767580
 238 0060 90640040 		.word	1073767568
 239 0064 00E100E0 		.word	-536813312
 240 0068 91640040 		.word	1073767569
 241              		.cfi_endproc
 242              	.LFE2:
 243              		.size	UART_1_Enable, .-UART_1_Enable
 244              		.section	.text.UART_1_Stop,"ax",%progbits
 245              		.align	2
 246              		.global	UART_1_Stop
ARM GAS  C:\Users\dskyNote\AppData\Local\Temp\ccZwia2j.s 			page 9


 247              		.thumb
 248              		.thumb_func
 249              		.type	UART_1_Stop, %function
 250              	UART_1_Stop:
 251              	.LFB3:
 211:.\Generated_Source\PSoC5/UART_1.c **** 
 212:.\Generated_Source\PSoC5/UART_1.c **** 
 213:.\Generated_Source\PSoC5/UART_1.c **** /*******************************************************************************
 214:.\Generated_Source\PSoC5/UART_1.c **** * Function Name: UART_1_Stop
 215:.\Generated_Source\PSoC5/UART_1.c **** ********************************************************************************
 216:.\Generated_Source\PSoC5/UART_1.c **** *
 217:.\Generated_Source\PSoC5/UART_1.c **** * Summary:
 218:.\Generated_Source\PSoC5/UART_1.c **** *  Disable the UART component
 219:.\Generated_Source\PSoC5/UART_1.c **** *
 220:.\Generated_Source\PSoC5/UART_1.c **** * Parameters:
 221:.\Generated_Source\PSoC5/UART_1.c **** *  None.
 222:.\Generated_Source\PSoC5/UART_1.c **** *
 223:.\Generated_Source\PSoC5/UART_1.c **** * Return:
 224:.\Generated_Source\PSoC5/UART_1.c **** *  None.
 225:.\Generated_Source\PSoC5/UART_1.c **** *
 226:.\Generated_Source\PSoC5/UART_1.c **** *******************************************************************************/
 227:.\Generated_Source\PSoC5/UART_1.c **** void UART_1_Stop(void) 
 228:.\Generated_Source\PSoC5/UART_1.c **** {
 252              		.loc 1 228 0
 253              		.cfi_startproc
 254              		@ args = 0, pretend = 0, frame = 8
 255              		@ frame_needed = 1, uses_anonymous_args = 0
 256 0000 80B5     		push	{r7, lr}
 257              		.cfi_def_cfa_offset 8
 258              		.cfi_offset 7, -8
 259              		.cfi_offset 14, -4
 260 0002 82B0     		sub	sp, sp, #8
 261              		.cfi_def_cfa_offset 16
 262 0004 00AF     		add	r7, sp, #0
 263              		.cfi_def_cfa_register 7
 229:.\Generated_Source\PSoC5/UART_1.c ****     uint8 enableInterrupts;
 230:.\Generated_Source\PSoC5/UART_1.c ****     enableInterrupts = CyEnterCriticalSection();
 264              		.loc 1 230 0
 265 0006 FFF7FEFF 		bl	CyEnterCriticalSection
 266 000a 0346     		mov	r3, r0
 267 000c FB71     		strb	r3, [r7, #7]
 231:.\Generated_Source\PSoC5/UART_1.c **** 
 232:.\Generated_Source\PSoC5/UART_1.c ****     /* Write Bit Counter Disable */
 233:.\Generated_Source\PSoC5/UART_1.c ****     #if(UART_1_RX_ENABLED || UART_1_HD_ENABLED)
 234:.\Generated_Source\PSoC5/UART_1.c ****         UART_1_RXBITCTR_CONTROL_REG &= (uint8)~UART_1_CNTR_ENABLE;
 268              		.loc 1 234 0
 269 000e 124B     		ldr	r3, .L12
 270 0010 114A     		ldr	r2, .L12
 271 0012 1278     		ldrb	r2, [r2]
 272 0014 D2B2     		uxtb	r2, r2
 273 0016 22F02002 		bic	r2, r2, #32
 274 001a D2B2     		uxtb	r2, r2
 275 001c 1A70     		strb	r2, [r3]
 235:.\Generated_Source\PSoC5/UART_1.c ****     #endif /* End UART_1_RX_ENABLED */
 236:.\Generated_Source\PSoC5/UART_1.c **** 
 237:.\Generated_Source\PSoC5/UART_1.c ****     #if(UART_1_TX_ENABLED)
 238:.\Generated_Source\PSoC5/UART_1.c ****         #if(!UART_1_TXCLKGEN_DP)
ARM GAS  C:\Users\dskyNote\AppData\Local\Temp\ccZwia2j.s 			page 10


 239:.\Generated_Source\PSoC5/UART_1.c ****             UART_1_TXBITCTR_CONTROL_REG &= (uint8)~UART_1_CNTR_ENABLE;
 240:.\Generated_Source\PSoC5/UART_1.c ****         #endif /* End UART_1_TXCLKGEN_DP */
 241:.\Generated_Source\PSoC5/UART_1.c ****     #endif /* UART_1_TX_ENABLED */
 242:.\Generated_Source\PSoC5/UART_1.c **** 
 243:.\Generated_Source\PSoC5/UART_1.c ****     #if(UART_1_INTERNAL_CLOCK_USED)
 244:.\Generated_Source\PSoC5/UART_1.c ****         /* Disable the clock. */
 245:.\Generated_Source\PSoC5/UART_1.c ****         UART_1_IntClock_Stop();
 276              		.loc 1 245 0
 277 001e FFF7FEFF 		bl	UART_1_IntClock_Stop
 246:.\Generated_Source\PSoC5/UART_1.c ****     #endif /* End UART_1_INTERNAL_CLOCK_USED */
 247:.\Generated_Source\PSoC5/UART_1.c **** 
 248:.\Generated_Source\PSoC5/UART_1.c ****     /* Disable internal interrupt component */
 249:.\Generated_Source\PSoC5/UART_1.c ****     #if(UART_1_RX_ENABLED || UART_1_HD_ENABLED)
 250:.\Generated_Source\PSoC5/UART_1.c ****         UART_1_RXSTATUS_ACTL_REG  &= (uint8)~UART_1_INT_ENABLE;
 278              		.loc 1 250 0
 279 0022 0E4B     		ldr	r3, .L12+4
 280 0024 0D4A     		ldr	r2, .L12+4
 281 0026 1278     		ldrb	r2, [r2]
 282 0028 D2B2     		uxtb	r2, r2
 283 002a 22F01002 		bic	r2, r2, #16
 284 002e D2B2     		uxtb	r2, r2
 285 0030 1A70     		strb	r2, [r3]
 251:.\Generated_Source\PSoC5/UART_1.c ****         #if(UART_1_RX_INTERRUPT_ENABLED && (UART_1_RXBUFFERSIZE > UART_1_FIFO_LENGTH))
 252:.\Generated_Source\PSoC5/UART_1.c ****             UART_1_DisableRxInt();
 286              		.loc 1 252 0
 287 0032 FFF7FEFF 		bl	UART_1_DisableRxInt
 253:.\Generated_Source\PSoC5/UART_1.c ****         #endif /* End UART_1_RX_INTERRUPT_ENABLED */
 254:.\Generated_Source\PSoC5/UART_1.c ****     #endif /* End UART_1_RX_ENABLED */
 255:.\Generated_Source\PSoC5/UART_1.c **** 
 256:.\Generated_Source\PSoC5/UART_1.c ****     #if(UART_1_TX_ENABLED)
 257:.\Generated_Source\PSoC5/UART_1.c ****         UART_1_TXSTATUS_ACTL_REG &= (uint8)~UART_1_INT_ENABLE;
 288              		.loc 1 257 0
 289 0036 0A4B     		ldr	r3, .L12+8
 290 0038 094A     		ldr	r2, .L12+8
 291 003a 1278     		ldrb	r2, [r2]
 292 003c D2B2     		uxtb	r2, r2
 293 003e 22F01002 		bic	r2, r2, #16
 294 0042 D2B2     		uxtb	r2, r2
 295 0044 1A70     		strb	r2, [r3]
 258:.\Generated_Source\PSoC5/UART_1.c ****         #if(UART_1_TX_INTERRUPT_ENABLED && (UART_1_TXBUFFERSIZE > UART_1_FIFO_LENGTH))
 259:.\Generated_Source\PSoC5/UART_1.c ****             UART_1_DisableTxInt();
 296              		.loc 1 259 0
 297 0046 FFF7FEFF 		bl	UART_1_DisableTxInt
 260:.\Generated_Source\PSoC5/UART_1.c ****         #endif /* End UART_1_TX_INTERRUPT_ENABLED */
 261:.\Generated_Source\PSoC5/UART_1.c ****     #endif /* End UART_1_TX_ENABLED */
 262:.\Generated_Source\PSoC5/UART_1.c **** 
 263:.\Generated_Source\PSoC5/UART_1.c ****     CyExitCriticalSection(enableInterrupts);
 298              		.loc 1 263 0
 299 004a FB79     		ldrb	r3, [r7, #7]	@ zero_extendqisi2
 300 004c 1846     		mov	r0, r3
 301 004e FFF7FEFF 		bl	CyExitCriticalSection
 264:.\Generated_Source\PSoC5/UART_1.c **** }
 302              		.loc 1 264 0
 303 0052 0837     		adds	r7, r7, #8
 304 0054 BD46     		mov	sp, r7
 305              		@ sp needed
 306 0056 80BD     		pop	{r7, pc}
ARM GAS  C:\Users\dskyNote\AppData\Local\Temp\ccZwia2j.s 			page 11


 307              	.L13:
 308              		.align	2
 309              	.L12:
 310 0058 9C640040 		.word	1073767580
 311 005c 90640040 		.word	1073767568
 312 0060 91640040 		.word	1073767569
 313              		.cfi_endproc
 314              	.LFE3:
 315              		.size	UART_1_Stop, .-UART_1_Stop
 316              		.section	.text.UART_1_ReadControlRegister,"ax",%progbits
 317              		.align	2
 318              		.global	UART_1_ReadControlRegister
 319              		.thumb
 320              		.thumb_func
 321              		.type	UART_1_ReadControlRegister, %function
 322              	UART_1_ReadControlRegister:
 323              	.LFB4:
 265:.\Generated_Source\PSoC5/UART_1.c **** 
 266:.\Generated_Source\PSoC5/UART_1.c **** 
 267:.\Generated_Source\PSoC5/UART_1.c **** /*******************************************************************************
 268:.\Generated_Source\PSoC5/UART_1.c **** * Function Name: UART_1_ReadControlRegister
 269:.\Generated_Source\PSoC5/UART_1.c **** ********************************************************************************
 270:.\Generated_Source\PSoC5/UART_1.c **** *
 271:.\Generated_Source\PSoC5/UART_1.c **** * Summary:
 272:.\Generated_Source\PSoC5/UART_1.c **** *  Read the current state of the control register
 273:.\Generated_Source\PSoC5/UART_1.c **** *
 274:.\Generated_Source\PSoC5/UART_1.c **** * Parameters:
 275:.\Generated_Source\PSoC5/UART_1.c **** *  None.
 276:.\Generated_Source\PSoC5/UART_1.c **** *
 277:.\Generated_Source\PSoC5/UART_1.c **** * Return:
 278:.\Generated_Source\PSoC5/UART_1.c **** *  Current state of the control register.
 279:.\Generated_Source\PSoC5/UART_1.c **** *
 280:.\Generated_Source\PSoC5/UART_1.c **** *******************************************************************************/
 281:.\Generated_Source\PSoC5/UART_1.c **** uint8 UART_1_ReadControlRegister(void) 
 282:.\Generated_Source\PSoC5/UART_1.c **** {
 324              		.loc 1 282 0
 325              		.cfi_startproc
 326              		@ args = 0, pretend = 0, frame = 0
 327              		@ frame_needed = 1, uses_anonymous_args = 0
 328              		@ link register save eliminated.
 329 0000 80B4     		push	{r7}
 330              		.cfi_def_cfa_offset 4
 331              		.cfi_offset 7, -4
 332 0002 00AF     		add	r7, sp, #0
 333              		.cfi_def_cfa_register 7
 283:.\Generated_Source\PSoC5/UART_1.c ****     #if( UART_1_CONTROL_REG_REMOVED )
 284:.\Generated_Source\PSoC5/UART_1.c ****         return(0u);
 334              		.loc 1 284 0
 335 0004 0023     		movs	r3, #0
 285:.\Generated_Source\PSoC5/UART_1.c ****     #else
 286:.\Generated_Source\PSoC5/UART_1.c ****         return(UART_1_CONTROL_REG);
 287:.\Generated_Source\PSoC5/UART_1.c ****     #endif /* End UART_1_CONTROL_REG_REMOVED */
 288:.\Generated_Source\PSoC5/UART_1.c **** }
 336              		.loc 1 288 0
 337 0006 1846     		mov	r0, r3
 338 0008 BD46     		mov	sp, r7
 339              		@ sp needed
ARM GAS  C:\Users\dskyNote\AppData\Local\Temp\ccZwia2j.s 			page 12


 340 000a 5DF8047B 		ldr	r7, [sp], #4
 341 000e 7047     		bx	lr
 342              		.cfi_endproc
 343              	.LFE4:
 344              		.size	UART_1_ReadControlRegister, .-UART_1_ReadControlRegister
 345              		.section	.text.UART_1_WriteControlRegister,"ax",%progbits
 346              		.align	2
 347              		.global	UART_1_WriteControlRegister
 348              		.thumb
 349              		.thumb_func
 350              		.type	UART_1_WriteControlRegister, %function
 351              	UART_1_WriteControlRegister:
 352              	.LFB5:
 289:.\Generated_Source\PSoC5/UART_1.c **** 
 290:.\Generated_Source\PSoC5/UART_1.c **** 
 291:.\Generated_Source\PSoC5/UART_1.c **** /*******************************************************************************
 292:.\Generated_Source\PSoC5/UART_1.c **** * Function Name: UART_1_WriteControlRegister
 293:.\Generated_Source\PSoC5/UART_1.c **** ********************************************************************************
 294:.\Generated_Source\PSoC5/UART_1.c **** *
 295:.\Generated_Source\PSoC5/UART_1.c **** * Summary:
 296:.\Generated_Source\PSoC5/UART_1.c **** *  Writes an 8-bit value into the control register
 297:.\Generated_Source\PSoC5/UART_1.c **** *
 298:.\Generated_Source\PSoC5/UART_1.c **** * Parameters:
 299:.\Generated_Source\PSoC5/UART_1.c **** *  control:  control register value
 300:.\Generated_Source\PSoC5/UART_1.c **** *
 301:.\Generated_Source\PSoC5/UART_1.c **** * Return:
 302:.\Generated_Source\PSoC5/UART_1.c **** *  None.
 303:.\Generated_Source\PSoC5/UART_1.c **** *
 304:.\Generated_Source\PSoC5/UART_1.c **** *******************************************************************************/
 305:.\Generated_Source\PSoC5/UART_1.c **** void  UART_1_WriteControlRegister(uint8 control) 
 306:.\Generated_Source\PSoC5/UART_1.c **** {
 353              		.loc 1 306 0
 354              		.cfi_startproc
 355              		@ args = 0, pretend = 0, frame = 8
 356              		@ frame_needed = 1, uses_anonymous_args = 0
 357              		@ link register save eliminated.
 358 0000 80B4     		push	{r7}
 359              		.cfi_def_cfa_offset 4
 360              		.cfi_offset 7, -4
 361 0002 83B0     		sub	sp, sp, #12
 362              		.cfi_def_cfa_offset 16
 363 0004 00AF     		add	r7, sp, #0
 364              		.cfi_def_cfa_register 7
 365 0006 0346     		mov	r3, r0
 366 0008 FB71     		strb	r3, [r7, #7]
 307:.\Generated_Source\PSoC5/UART_1.c ****     #if( UART_1_CONTROL_REG_REMOVED )
 308:.\Generated_Source\PSoC5/UART_1.c ****         if(control != 0u) { }      /* release compiler warning */
 309:.\Generated_Source\PSoC5/UART_1.c ****     #else
 310:.\Generated_Source\PSoC5/UART_1.c ****        UART_1_CONTROL_REG = control;
 311:.\Generated_Source\PSoC5/UART_1.c ****     #endif /* End UART_1_CONTROL_REG_REMOVED */
 312:.\Generated_Source\PSoC5/UART_1.c **** }
 367              		.loc 1 312 0
 368 000a 0C37     		adds	r7, r7, #12
 369 000c BD46     		mov	sp, r7
 370              		@ sp needed
 371 000e 5DF8047B 		ldr	r7, [sp], #4
 372 0012 7047     		bx	lr
ARM GAS  C:\Users\dskyNote\AppData\Local\Temp\ccZwia2j.s 			page 13


 373              		.cfi_endproc
 374              	.LFE5:
 375              		.size	UART_1_WriteControlRegister, .-UART_1_WriteControlRegister
 376              		.section	.text.UART_1_EnableRxInt,"ax",%progbits
 377              		.align	2
 378              		.global	UART_1_EnableRxInt
 379              		.thumb
 380              		.thumb_func
 381              		.type	UART_1_EnableRxInt, %function
 382              	UART_1_EnableRxInt:
 383              	.LFB6:
 313:.\Generated_Source\PSoC5/UART_1.c **** 
 314:.\Generated_Source\PSoC5/UART_1.c **** 
 315:.\Generated_Source\PSoC5/UART_1.c **** #if(UART_1_RX_ENABLED || UART_1_HD_ENABLED)
 316:.\Generated_Source\PSoC5/UART_1.c **** 
 317:.\Generated_Source\PSoC5/UART_1.c ****     #if(UART_1_RX_INTERRUPT_ENABLED)
 318:.\Generated_Source\PSoC5/UART_1.c **** 
 319:.\Generated_Source\PSoC5/UART_1.c ****         /*******************************************************************************
 320:.\Generated_Source\PSoC5/UART_1.c ****         * Function Name: UART_1_EnableRxInt
 321:.\Generated_Source\PSoC5/UART_1.c ****         ********************************************************************************
 322:.\Generated_Source\PSoC5/UART_1.c ****         *
 323:.\Generated_Source\PSoC5/UART_1.c ****         * Summary:
 324:.\Generated_Source\PSoC5/UART_1.c ****         *  Enable RX interrupt generation
 325:.\Generated_Source\PSoC5/UART_1.c ****         *
 326:.\Generated_Source\PSoC5/UART_1.c ****         * Parameters:
 327:.\Generated_Source\PSoC5/UART_1.c ****         *  None.
 328:.\Generated_Source\PSoC5/UART_1.c ****         *
 329:.\Generated_Source\PSoC5/UART_1.c ****         * Return:
 330:.\Generated_Source\PSoC5/UART_1.c ****         *  None.
 331:.\Generated_Source\PSoC5/UART_1.c ****         *
 332:.\Generated_Source\PSoC5/UART_1.c ****         * Theory:
 333:.\Generated_Source\PSoC5/UART_1.c ****         *  Enable the interrupt output -or- the interrupt component itself
 334:.\Generated_Source\PSoC5/UART_1.c ****         *
 335:.\Generated_Source\PSoC5/UART_1.c ****         *******************************************************************************/
 336:.\Generated_Source\PSoC5/UART_1.c ****         void UART_1_EnableRxInt(void) 
 337:.\Generated_Source\PSoC5/UART_1.c ****         {
 384              		.loc 1 337 0
 385              		.cfi_startproc
 386              		@ args = 0, pretend = 0, frame = 0
 387              		@ frame_needed = 1, uses_anonymous_args = 0
 388              		@ link register save eliminated.
 389 0000 80B4     		push	{r7}
 390              		.cfi_def_cfa_offset 4
 391              		.cfi_offset 7, -4
 392 0002 00AF     		add	r7, sp, #0
 393              		.cfi_def_cfa_register 7
 338:.\Generated_Source\PSoC5/UART_1.c ****             CyIntEnable(UART_1_RX_VECT_NUM);
 394              		.loc 1 338 0
 395 0004 034B     		ldr	r3, .L18
 396 0006 0422     		movs	r2, #4
 397 0008 1A60     		str	r2, [r3]
 339:.\Generated_Source\PSoC5/UART_1.c ****         }
 398              		.loc 1 339 0
 399 000a BD46     		mov	sp, r7
 400              		@ sp needed
 401 000c 5DF8047B 		ldr	r7, [sp], #4
 402 0010 7047     		bx	lr
ARM GAS  C:\Users\dskyNote\AppData\Local\Temp\ccZwia2j.s 			page 14


 403              	.L19:
 404 0012 00BF     		.align	2
 405              	.L18:
 406 0014 00E100E0 		.word	-536813312
 407              		.cfi_endproc
 408              	.LFE6:
 409              		.size	UART_1_EnableRxInt, .-UART_1_EnableRxInt
 410              		.section	.text.UART_1_DisableRxInt,"ax",%progbits
 411              		.align	2
 412              		.global	UART_1_DisableRxInt
 413              		.thumb
 414              		.thumb_func
 415              		.type	UART_1_DisableRxInt, %function
 416              	UART_1_DisableRxInt:
 417              	.LFB7:
 340:.\Generated_Source\PSoC5/UART_1.c **** 
 341:.\Generated_Source\PSoC5/UART_1.c **** 
 342:.\Generated_Source\PSoC5/UART_1.c ****         /*******************************************************************************
 343:.\Generated_Source\PSoC5/UART_1.c ****         * Function Name: UART_1_DisableRxInt
 344:.\Generated_Source\PSoC5/UART_1.c ****         ********************************************************************************
 345:.\Generated_Source\PSoC5/UART_1.c ****         *
 346:.\Generated_Source\PSoC5/UART_1.c ****         * Summary:
 347:.\Generated_Source\PSoC5/UART_1.c ****         *  Disable RX interrupt generation
 348:.\Generated_Source\PSoC5/UART_1.c ****         *
 349:.\Generated_Source\PSoC5/UART_1.c ****         * Parameters:
 350:.\Generated_Source\PSoC5/UART_1.c ****         *  None.
 351:.\Generated_Source\PSoC5/UART_1.c ****         *
 352:.\Generated_Source\PSoC5/UART_1.c ****         * Return:
 353:.\Generated_Source\PSoC5/UART_1.c ****         *  None.
 354:.\Generated_Source\PSoC5/UART_1.c ****         *
 355:.\Generated_Source\PSoC5/UART_1.c ****         * Theory:
 356:.\Generated_Source\PSoC5/UART_1.c ****         *  Disable the interrupt output -or- the interrupt component itself
 357:.\Generated_Source\PSoC5/UART_1.c ****         *
 358:.\Generated_Source\PSoC5/UART_1.c ****         *******************************************************************************/
 359:.\Generated_Source\PSoC5/UART_1.c ****         void UART_1_DisableRxInt(void) 
 360:.\Generated_Source\PSoC5/UART_1.c ****         {
 418              		.loc 1 360 0
 419              		.cfi_startproc
 420              		@ args = 0, pretend = 0, frame = 0
 421              		@ frame_needed = 1, uses_anonymous_args = 0
 422              		@ link register save eliminated.
 423 0000 80B4     		push	{r7}
 424              		.cfi_def_cfa_offset 4
 425              		.cfi_offset 7, -4
 426 0002 00AF     		add	r7, sp, #0
 427              		.cfi_def_cfa_register 7
 361:.\Generated_Source\PSoC5/UART_1.c ****             CyIntDisable(UART_1_RX_VECT_NUM);
 428              		.loc 1 361 0
 429 0004 034B     		ldr	r3, .L21
 430 0006 0422     		movs	r2, #4
 431 0008 1A60     		str	r2, [r3]
 362:.\Generated_Source\PSoC5/UART_1.c ****         }
 432              		.loc 1 362 0
 433 000a BD46     		mov	sp, r7
 434              		@ sp needed
 435 000c 5DF8047B 		ldr	r7, [sp], #4
 436 0010 7047     		bx	lr
ARM GAS  C:\Users\dskyNote\AppData\Local\Temp\ccZwia2j.s 			page 15


 437              	.L22:
 438 0012 00BF     		.align	2
 439              	.L21:
 440 0014 80E100E0 		.word	-536813184
 441              		.cfi_endproc
 442              	.LFE7:
 443              		.size	UART_1_DisableRxInt, .-UART_1_DisableRxInt
 444              		.section	.text.UART_1_SetRxInterruptMode,"ax",%progbits
 445              		.align	2
 446              		.global	UART_1_SetRxInterruptMode
 447              		.thumb
 448              		.thumb_func
 449              		.type	UART_1_SetRxInterruptMode, %function
 450              	UART_1_SetRxInterruptMode:
 451              	.LFB8:
 363:.\Generated_Source\PSoC5/UART_1.c **** 
 364:.\Generated_Source\PSoC5/UART_1.c ****     #endif /* UART_1_RX_INTERRUPT_ENABLED */
 365:.\Generated_Source\PSoC5/UART_1.c **** 
 366:.\Generated_Source\PSoC5/UART_1.c **** 
 367:.\Generated_Source\PSoC5/UART_1.c ****     /*******************************************************************************
 368:.\Generated_Source\PSoC5/UART_1.c ****     * Function Name: UART_1_SetRxInterruptMode
 369:.\Generated_Source\PSoC5/UART_1.c ****     ********************************************************************************
 370:.\Generated_Source\PSoC5/UART_1.c ****     *
 371:.\Generated_Source\PSoC5/UART_1.c ****     * Summary:
 372:.\Generated_Source\PSoC5/UART_1.c ****     *  Configure which status bits trigger an interrupt event
 373:.\Generated_Source\PSoC5/UART_1.c ****     *
 374:.\Generated_Source\PSoC5/UART_1.c ****     * Parameters:
 375:.\Generated_Source\PSoC5/UART_1.c ****     *  IntSrc:  An or'd combination of the desired status bit masks (defined in
 376:.\Generated_Source\PSoC5/UART_1.c ****     *           the header file)
 377:.\Generated_Source\PSoC5/UART_1.c ****     *
 378:.\Generated_Source\PSoC5/UART_1.c ****     * Return:
 379:.\Generated_Source\PSoC5/UART_1.c ****     *  None.
 380:.\Generated_Source\PSoC5/UART_1.c ****     *
 381:.\Generated_Source\PSoC5/UART_1.c ****     * Theory:
 382:.\Generated_Source\PSoC5/UART_1.c ****     *  Enables the output of specific status bits to the interrupt controller
 383:.\Generated_Source\PSoC5/UART_1.c ****     *
 384:.\Generated_Source\PSoC5/UART_1.c ****     *******************************************************************************/
 385:.\Generated_Source\PSoC5/UART_1.c ****     void UART_1_SetRxInterruptMode(uint8 intSrc) 
 386:.\Generated_Source\PSoC5/UART_1.c ****     {
 452              		.loc 1 386 0
 453              		.cfi_startproc
 454              		@ args = 0, pretend = 0, frame = 8
 455              		@ frame_needed = 1, uses_anonymous_args = 0
 456              		@ link register save eliminated.
 457 0000 80B4     		push	{r7}
 458              		.cfi_def_cfa_offset 4
 459              		.cfi_offset 7, -4
 460 0002 83B0     		sub	sp, sp, #12
 461              		.cfi_def_cfa_offset 16
 462 0004 00AF     		add	r7, sp, #0
 463              		.cfi_def_cfa_register 7
 464 0006 0346     		mov	r3, r0
 465 0008 FB71     		strb	r3, [r7, #7]
 387:.\Generated_Source\PSoC5/UART_1.c ****         UART_1_RXSTATUS_MASK_REG  = intSrc;
 466              		.loc 1 387 0
 467 000a 044B     		ldr	r3, .L24
 468 000c FA79     		ldrb	r2, [r7, #7]
ARM GAS  C:\Users\dskyNote\AppData\Local\Temp\ccZwia2j.s 			page 16


 469 000e 1A70     		strb	r2, [r3]
 388:.\Generated_Source\PSoC5/UART_1.c ****     }
 470              		.loc 1 388 0
 471 0010 0C37     		adds	r7, r7, #12
 472 0012 BD46     		mov	sp, r7
 473              		@ sp needed
 474 0014 5DF8047B 		ldr	r7, [sp], #4
 475 0018 7047     		bx	lr
 476              	.L25:
 477 001a 00BF     		.align	2
 478              	.L24:
 479 001c 80640040 		.word	1073767552
 480              		.cfi_endproc
 481              	.LFE8:
 482              		.size	UART_1_SetRxInterruptMode, .-UART_1_SetRxInterruptMode
 483              		.section	.text.UART_1_ReadRxData,"ax",%progbits
 484              		.align	2
 485              		.global	UART_1_ReadRxData
 486              		.thumb
 487              		.thumb_func
 488              		.type	UART_1_ReadRxData, %function
 489              	UART_1_ReadRxData:
 490              	.LFB9:
 389:.\Generated_Source\PSoC5/UART_1.c **** 
 390:.\Generated_Source\PSoC5/UART_1.c **** 
 391:.\Generated_Source\PSoC5/UART_1.c ****     /*******************************************************************************
 392:.\Generated_Source\PSoC5/UART_1.c ****     * Function Name: UART_1_ReadRxData
 393:.\Generated_Source\PSoC5/UART_1.c ****     ********************************************************************************
 394:.\Generated_Source\PSoC5/UART_1.c ****     *
 395:.\Generated_Source\PSoC5/UART_1.c ****     * Summary:
 396:.\Generated_Source\PSoC5/UART_1.c ****     *  Returns data in RX Data register without checking status register to
 397:.\Generated_Source\PSoC5/UART_1.c ****     *  determine if data is valid
 398:.\Generated_Source\PSoC5/UART_1.c ****     *
 399:.\Generated_Source\PSoC5/UART_1.c ****     * Parameters:
 400:.\Generated_Source\PSoC5/UART_1.c ****     *  None.
 401:.\Generated_Source\PSoC5/UART_1.c ****     *
 402:.\Generated_Source\PSoC5/UART_1.c ****     * Return:
 403:.\Generated_Source\PSoC5/UART_1.c ****     *  Received data from RX register
 404:.\Generated_Source\PSoC5/UART_1.c ****     *
 405:.\Generated_Source\PSoC5/UART_1.c ****     * Global Variables:
 406:.\Generated_Source\PSoC5/UART_1.c ****     *  UART_1_rxBuffer - RAM buffer pointer for save received data.
 407:.\Generated_Source\PSoC5/UART_1.c ****     *  UART_1_rxBufferWrite - cyclic index for write to rxBuffer,
 408:.\Generated_Source\PSoC5/UART_1.c ****     *     checked to identify new data.
 409:.\Generated_Source\PSoC5/UART_1.c ****     *  UART_1_rxBufferRead - cyclic index for read from rxBuffer,
 410:.\Generated_Source\PSoC5/UART_1.c ****     *     incremented after each byte has been read from buffer.
 411:.\Generated_Source\PSoC5/UART_1.c ****     *  UART_1_rxBufferLoopDetect - creared if loop condition was detected
 412:.\Generated_Source\PSoC5/UART_1.c ****     *     in RX ISR.
 413:.\Generated_Source\PSoC5/UART_1.c ****     *
 414:.\Generated_Source\PSoC5/UART_1.c ****     * Reentrant:
 415:.\Generated_Source\PSoC5/UART_1.c ****     *  No.
 416:.\Generated_Source\PSoC5/UART_1.c ****     *
 417:.\Generated_Source\PSoC5/UART_1.c ****     *******************************************************************************/
 418:.\Generated_Source\PSoC5/UART_1.c ****     uint8 UART_1_ReadRxData(void) 
 419:.\Generated_Source\PSoC5/UART_1.c ****     {
 491              		.loc 1 419 0
 492              		.cfi_startproc
 493              		@ args = 0, pretend = 0, frame = 8
ARM GAS  C:\Users\dskyNote\AppData\Local\Temp\ccZwia2j.s 			page 17


 494              		@ frame_needed = 1, uses_anonymous_args = 0
 495 0000 80B5     		push	{r7, lr}
 496              		.cfi_def_cfa_offset 8
 497              		.cfi_offset 7, -8
 498              		.cfi_offset 14, -4
 499 0002 82B0     		sub	sp, sp, #8
 500              		.cfi_def_cfa_offset 16
 501 0004 00AF     		add	r7, sp, #0
 502              		.cfi_def_cfa_register 7
 420:.\Generated_Source\PSoC5/UART_1.c ****         uint8 rxData;
 421:.\Generated_Source\PSoC5/UART_1.c **** 
 422:.\Generated_Source\PSoC5/UART_1.c ****         #if(UART_1_RXBUFFERSIZE > UART_1_FIFO_LENGTH)
 423:.\Generated_Source\PSoC5/UART_1.c ****             uint8 loc_rxBufferRead;
 424:.\Generated_Source\PSoC5/UART_1.c ****             uint8 loc_rxBufferWrite;
 425:.\Generated_Source\PSoC5/UART_1.c ****             /* Protect variables that could change on interrupt. */
 426:.\Generated_Source\PSoC5/UART_1.c ****             /* Disable Rx interrupt. */
 427:.\Generated_Source\PSoC5/UART_1.c ****             #if(UART_1_RX_INTERRUPT_ENABLED)
 428:.\Generated_Source\PSoC5/UART_1.c ****                 UART_1_DisableRxInt();
 503              		.loc 1 428 0
 504 0006 FFF7FEFF 		bl	UART_1_DisableRxInt
 429:.\Generated_Source\PSoC5/UART_1.c ****             #endif /* UART_1_RX_INTERRUPT_ENABLED */
 430:.\Generated_Source\PSoC5/UART_1.c ****             loc_rxBufferRead = UART_1_rxBufferRead;
 505              		.loc 1 430 0
 506 000a 1D4B     		ldr	r3, .L33
 507 000c 1B78     		ldrb	r3, [r3]
 508 000e BB71     		strb	r3, [r7, #6]
 431:.\Generated_Source\PSoC5/UART_1.c ****             loc_rxBufferWrite = UART_1_rxBufferWrite;
 509              		.loc 1 431 0
 510 0010 1C4B     		ldr	r3, .L33+4
 511 0012 1B78     		ldrb	r3, [r3]
 512 0014 7B71     		strb	r3, [r7, #5]
 432:.\Generated_Source\PSoC5/UART_1.c **** 
 433:.\Generated_Source\PSoC5/UART_1.c ****             if( (UART_1_rxBufferLoopDetect != 0u) || (loc_rxBufferRead != loc_rxBufferWrite) )
 513              		.loc 1 433 0
 514 0016 1C4B     		ldr	r3, .L33+8
 515 0018 1B78     		ldrb	r3, [r3]
 516 001a DBB2     		uxtb	r3, r3
 517 001c 002B     		cmp	r3, #0
 518 001e 03D1     		bne	.L27
 519              		.loc 1 433 0 is_stmt 0 discriminator 1
 520 0020 BA79     		ldrb	r2, [r7, #6]	@ zero_extendqisi2
 521 0022 7B79     		ldrb	r3, [r7, #5]	@ zero_extendqisi2
 522 0024 9A42     		cmp	r2, r3
 523 0026 21D0     		beq	.L28
 524              	.L27:
 434:.\Generated_Source\PSoC5/UART_1.c ****             {
 435:.\Generated_Source\PSoC5/UART_1.c ****                 rxData = UART_1_rxBuffer[loc_rxBufferRead];
 525              		.loc 1 435 0 is_stmt 1
 526 0028 BB79     		ldrb	r3, [r7, #6]	@ zero_extendqisi2
 527 002a 184A     		ldr	r2, .L33+12
 528 002c D35C     		ldrb	r3, [r2, r3]
 529 002e FB71     		strb	r3, [r7, #7]
 436:.\Generated_Source\PSoC5/UART_1.c ****                 loc_rxBufferRead++;
 530              		.loc 1 436 0
 531 0030 BB79     		ldrb	r3, [r7, #6]	@ zero_extendqisi2
 532 0032 0133     		adds	r3, r3, #1
 533 0034 BB71     		strb	r3, [r7, #6]
ARM GAS  C:\Users\dskyNote\AppData\Local\Temp\ccZwia2j.s 			page 18


 437:.\Generated_Source\PSoC5/UART_1.c **** 
 438:.\Generated_Source\PSoC5/UART_1.c ****                 if(loc_rxBufferRead >= UART_1_RXBUFFERSIZE)
 534              		.loc 1 438 0
 535 0036 BB79     		ldrb	r3, [r7, #6]	@ zero_extendqisi2
 536 0038 5BB2     		sxtb	r3, r3
 537 003a 002B     		cmp	r3, #0
 538 003c 01DA     		bge	.L29
 439:.\Generated_Source\PSoC5/UART_1.c ****                 {
 440:.\Generated_Source\PSoC5/UART_1.c ****                     loc_rxBufferRead = 0u;
 539              		.loc 1 440 0
 540 003e 0023     		movs	r3, #0
 541 0040 BB71     		strb	r3, [r7, #6]
 542              	.L29:
 441:.\Generated_Source\PSoC5/UART_1.c ****                 }
 442:.\Generated_Source\PSoC5/UART_1.c ****                 /* Update the real pointer */
 443:.\Generated_Source\PSoC5/UART_1.c ****                 UART_1_rxBufferRead = loc_rxBufferRead;
 543              		.loc 1 443 0
 544 0042 0F4B     		ldr	r3, .L33
 545 0044 BA79     		ldrb	r2, [r7, #6]
 546 0046 1A70     		strb	r2, [r3]
 444:.\Generated_Source\PSoC5/UART_1.c **** 
 445:.\Generated_Source\PSoC5/UART_1.c ****                 if(UART_1_rxBufferLoopDetect != 0u )
 547              		.loc 1 445 0
 548 0048 0F4B     		ldr	r3, .L33+8
 549 004a 1B78     		ldrb	r3, [r3]
 550 004c DBB2     		uxtb	r3, r3
 551 004e 002B     		cmp	r3, #0
 552 0050 0BD0     		beq	.L30
 446:.\Generated_Source\PSoC5/UART_1.c ****                 {
 447:.\Generated_Source\PSoC5/UART_1.c ****                     UART_1_rxBufferLoopDetect = 0u;
 553              		.loc 1 447 0
 554 0052 0D4B     		ldr	r3, .L33+8
 555 0054 0022     		movs	r2, #0
 556 0056 1A70     		strb	r2, [r3]
 448:.\Generated_Source\PSoC5/UART_1.c ****                     #if( (UART_1_RX_INTERRUPT_ENABLED) && (UART_1_FLOW_CONTROL != 0u) && \
 449:.\Generated_Source\PSoC5/UART_1.c ****                          (UART_1_RXBUFFERSIZE > UART_1_FIFO_LENGTH) )
 450:.\Generated_Source\PSoC5/UART_1.c ****                         /* When Hardware Flow Control selected - return RX mask */
 451:.\Generated_Source\PSoC5/UART_1.c ****                         #if( UART_1_HD_ENABLED )
 452:.\Generated_Source\PSoC5/UART_1.c ****                             if((UART_1_CONTROL_REG & UART_1_CTRL_HD_SEND) == 0u)
 453:.\Generated_Source\PSoC5/UART_1.c ****                             {   /* In Half duplex mode return RX mask only in RX
 454:.\Generated_Source\PSoC5/UART_1.c ****                                 *  configuration set, otherwise
 455:.\Generated_Source\PSoC5/UART_1.c ****                                 *  mask will be returned in LoadRxConfig() API.
 456:.\Generated_Source\PSoC5/UART_1.c ****                                 */
 457:.\Generated_Source\PSoC5/UART_1.c ****                                 UART_1_RXSTATUS_MASK_REG  |= UART_1_RX_STS_FIFO_NOTEMPTY;
 458:.\Generated_Source\PSoC5/UART_1.c ****                             }
 459:.\Generated_Source\PSoC5/UART_1.c ****                         #else
 460:.\Generated_Source\PSoC5/UART_1.c ****                             UART_1_RXSTATUS_MASK_REG  |= UART_1_RX_STS_FIFO_NOTEMPTY;
 557              		.loc 1 460 0
 558 0058 0D4B     		ldr	r3, .L33+16
 559 005a 0D4A     		ldr	r2, .L33+16
 560 005c 1278     		ldrb	r2, [r2]
 561 005e D2B2     		uxtb	r2, r2
 562 0060 42F02002 		orr	r2, r2, #32
 563 0064 D2B2     		uxtb	r2, r2
 564 0066 1A70     		strb	r2, [r3]
 445:.\Generated_Source\PSoC5/UART_1.c ****                 if(UART_1_rxBufferLoopDetect != 0u )
 565              		.loc 1 445 0
ARM GAS  C:\Users\dskyNote\AppData\Local\Temp\ccZwia2j.s 			page 19


 566 0068 03E0     		b	.L31
 567              	.L30:
 445:.\Generated_Source\PSoC5/UART_1.c ****                 if(UART_1_rxBufferLoopDetect != 0u )
 568              		.loc 1 445 0 is_stmt 0 discriminator 1
 569 006a 02E0     		b	.L31
 570              	.L28:
 461:.\Generated_Source\PSoC5/UART_1.c ****                         #endif /* end UART_1_HD_ENABLED */
 462:.\Generated_Source\PSoC5/UART_1.c ****                     #endif /* UART_1_RX_INTERRUPT_ENABLED and Hardware flow control*/
 463:.\Generated_Source\PSoC5/UART_1.c ****                 }
 464:.\Generated_Source\PSoC5/UART_1.c ****             }
 465:.\Generated_Source\PSoC5/UART_1.c ****             else
 466:.\Generated_Source\PSoC5/UART_1.c ****             {   /* Needs to check status for RX_STS_FIFO_NOTEMPTY bit*/
 467:.\Generated_Source\PSoC5/UART_1.c ****                 rxData = UART_1_RXDATA_REG;
 571              		.loc 1 467 0 is_stmt 1
 572 006c 094B     		ldr	r3, .L33+20
 573 006e 1B78     		ldrb	r3, [r3]
 574 0070 FB71     		strb	r3, [r7, #7]
 575              	.L31:
 468:.\Generated_Source\PSoC5/UART_1.c ****             }
 469:.\Generated_Source\PSoC5/UART_1.c **** 
 470:.\Generated_Source\PSoC5/UART_1.c ****             /* Enable Rx interrupt. */
 471:.\Generated_Source\PSoC5/UART_1.c ****             #if(UART_1_RX_INTERRUPT_ENABLED)
 472:.\Generated_Source\PSoC5/UART_1.c ****                 UART_1_EnableRxInt();
 576              		.loc 1 472 0
 577 0072 FFF7FEFF 		bl	UART_1_EnableRxInt
 473:.\Generated_Source\PSoC5/UART_1.c ****             #endif /* End UART_1_RX_INTERRUPT_ENABLED */
 474:.\Generated_Source\PSoC5/UART_1.c **** 
 475:.\Generated_Source\PSoC5/UART_1.c ****         #else /* UART_1_RXBUFFERSIZE > UART_1_FIFO_LENGTH */
 476:.\Generated_Source\PSoC5/UART_1.c **** 
 477:.\Generated_Source\PSoC5/UART_1.c ****             /* Needs to check status for RX_STS_FIFO_NOTEMPTY bit*/
 478:.\Generated_Source\PSoC5/UART_1.c ****             rxData = UART_1_RXDATA_REG;
 479:.\Generated_Source\PSoC5/UART_1.c **** 
 480:.\Generated_Source\PSoC5/UART_1.c ****         #endif /* UART_1_RXBUFFERSIZE > UART_1_FIFO_LENGTH */
 481:.\Generated_Source\PSoC5/UART_1.c **** 
 482:.\Generated_Source\PSoC5/UART_1.c ****         return(rxData);
 578              		.loc 1 482 0
 579 0076 FB79     		ldrb	r3, [r7, #7]	@ zero_extendqisi2
 483:.\Generated_Source\PSoC5/UART_1.c ****     }
 580              		.loc 1 483 0
 581 0078 1846     		mov	r0, r3
 582 007a 0837     		adds	r7, r7, #8
 583 007c BD46     		mov	sp, r7
 584              		@ sp needed
 585 007e 80BD     		pop	{r7, pc}
 586              	.L34:
 587              		.align	2
 588              	.L33:
 589 0080 00000000 		.word	UART_1_rxBufferRead
 590 0084 00000000 		.word	UART_1_rxBufferWrite
 591 0088 00000000 		.word	UART_1_rxBufferLoopDetect
 592 008c 00000000 		.word	UART_1_rxBuffer
 593 0090 80640040 		.word	1073767552
 594 0094 4C640040 		.word	1073767500
 595              		.cfi_endproc
 596              	.LFE9:
 597              		.size	UART_1_ReadRxData, .-UART_1_ReadRxData
 598              		.section	.text.UART_1_ReadRxStatus,"ax",%progbits
ARM GAS  C:\Users\dskyNote\AppData\Local\Temp\ccZwia2j.s 			page 20


 599              		.align	2
 600              		.global	UART_1_ReadRxStatus
 601              		.thumb
 602              		.thumb_func
 603              		.type	UART_1_ReadRxStatus, %function
 604              	UART_1_ReadRxStatus:
 605              	.LFB10:
 484:.\Generated_Source\PSoC5/UART_1.c **** 
 485:.\Generated_Source\PSoC5/UART_1.c **** 
 486:.\Generated_Source\PSoC5/UART_1.c ****     /*******************************************************************************
 487:.\Generated_Source\PSoC5/UART_1.c ****     * Function Name: UART_1_ReadRxStatus
 488:.\Generated_Source\PSoC5/UART_1.c ****     ********************************************************************************
 489:.\Generated_Source\PSoC5/UART_1.c ****     *
 490:.\Generated_Source\PSoC5/UART_1.c ****     * Summary:
 491:.\Generated_Source\PSoC5/UART_1.c ****     *  Read the current state of the status register
 492:.\Generated_Source\PSoC5/UART_1.c ****     *  And detect software buffer overflow.
 493:.\Generated_Source\PSoC5/UART_1.c ****     *
 494:.\Generated_Source\PSoC5/UART_1.c ****     * Parameters:
 495:.\Generated_Source\PSoC5/UART_1.c ****     *  None.
 496:.\Generated_Source\PSoC5/UART_1.c ****     *
 497:.\Generated_Source\PSoC5/UART_1.c ****     * Return:
 498:.\Generated_Source\PSoC5/UART_1.c ****     *  Current state of the status register.
 499:.\Generated_Source\PSoC5/UART_1.c ****     *
 500:.\Generated_Source\PSoC5/UART_1.c ****     * Global Variables:
 501:.\Generated_Source\PSoC5/UART_1.c ****     *  UART_1_rxBufferOverflow - used to indicate overload condition.
 502:.\Generated_Source\PSoC5/UART_1.c ****     *   It set to one in RX interrupt when there isn?t free space in
 503:.\Generated_Source\PSoC5/UART_1.c ****     *   UART_1_rxBufferRead to write new data. This condition returned
 504:.\Generated_Source\PSoC5/UART_1.c ****     *   and cleared to zero by this API as an
 505:.\Generated_Source\PSoC5/UART_1.c ****     *   UART_1_RX_STS_SOFT_BUFF_OVER bit along with RX Status register
 506:.\Generated_Source\PSoC5/UART_1.c ****     *   bits.
 507:.\Generated_Source\PSoC5/UART_1.c ****     *
 508:.\Generated_Source\PSoC5/UART_1.c ****     *******************************************************************************/
 509:.\Generated_Source\PSoC5/UART_1.c ****     uint8 UART_1_ReadRxStatus(void) 
 510:.\Generated_Source\PSoC5/UART_1.c ****     {
 606              		.loc 1 510 0
 607              		.cfi_startproc
 608              		@ args = 0, pretend = 0, frame = 8
 609              		@ frame_needed = 1, uses_anonymous_args = 0
 610              		@ link register save eliminated.
 611 0000 80B4     		push	{r7}
 612              		.cfi_def_cfa_offset 4
 613              		.cfi_offset 7, -4
 614 0002 83B0     		sub	sp, sp, #12
 615              		.cfi_def_cfa_offset 16
 616 0004 00AF     		add	r7, sp, #0
 617              		.cfi_def_cfa_register 7
 511:.\Generated_Source\PSoC5/UART_1.c ****         uint8 status;
 512:.\Generated_Source\PSoC5/UART_1.c **** 
 513:.\Generated_Source\PSoC5/UART_1.c ****         status = UART_1_RXSTATUS_REG & UART_1_RX_HW_MASK;
 618              		.loc 1 513 0
 619 0006 0C4B     		ldr	r3, .L38
 620 0008 1B78     		ldrb	r3, [r3]
 621 000a DBB2     		uxtb	r3, r3
 622 000c 03F07F03 		and	r3, r3, #127
 623 0010 FB71     		strb	r3, [r7, #7]
 514:.\Generated_Source\PSoC5/UART_1.c **** 
 515:.\Generated_Source\PSoC5/UART_1.c ****         #if(UART_1_RXBUFFERSIZE > UART_1_FIFO_LENGTH)
ARM GAS  C:\Users\dskyNote\AppData\Local\Temp\ccZwia2j.s 			page 21


 516:.\Generated_Source\PSoC5/UART_1.c ****             if( UART_1_rxBufferOverflow != 0u )
 624              		.loc 1 516 0
 625 0012 0A4B     		ldr	r3, .L38+4
 626 0014 1B78     		ldrb	r3, [r3]
 627 0016 DBB2     		uxtb	r3, r3
 628 0018 002B     		cmp	r3, #0
 629 001a 06D0     		beq	.L36
 517:.\Generated_Source\PSoC5/UART_1.c ****             {
 518:.\Generated_Source\PSoC5/UART_1.c ****                 status |= UART_1_RX_STS_SOFT_BUFF_OVER;
 630              		.loc 1 518 0
 631 001c FB79     		ldrb	r3, [r7, #7]
 632 001e 63F07F03 		orn	r3, r3, #127
 633 0022 FB71     		strb	r3, [r7, #7]
 519:.\Generated_Source\PSoC5/UART_1.c ****                 UART_1_rxBufferOverflow = 0u;
 634              		.loc 1 519 0
 635 0024 054B     		ldr	r3, .L38+4
 636 0026 0022     		movs	r2, #0
 637 0028 1A70     		strb	r2, [r3]
 638              	.L36:
 520:.\Generated_Source\PSoC5/UART_1.c ****             }
 521:.\Generated_Source\PSoC5/UART_1.c ****         #endif /* UART_1_RXBUFFERSIZE */
 522:.\Generated_Source\PSoC5/UART_1.c **** 
 523:.\Generated_Source\PSoC5/UART_1.c ****         return(status);
 639              		.loc 1 523 0
 640 002a FB79     		ldrb	r3, [r7, #7]	@ zero_extendqisi2
 524:.\Generated_Source\PSoC5/UART_1.c ****     }
 641              		.loc 1 524 0
 642 002c 1846     		mov	r0, r3
 643 002e 0C37     		adds	r7, r7, #12
 644 0030 BD46     		mov	sp, r7
 645              		@ sp needed
 646 0032 5DF8047B 		ldr	r7, [sp], #4
 647 0036 7047     		bx	lr
 648              	.L39:
 649              		.align	2
 650              	.L38:
 651 0038 60640040 		.word	1073767520
 652 003c 00000000 		.word	UART_1_rxBufferOverflow
 653              		.cfi_endproc
 654              	.LFE10:
 655              		.size	UART_1_ReadRxStatus, .-UART_1_ReadRxStatus
 656              		.section	.text.UART_1_GetChar,"ax",%progbits
 657              		.align	2
 658              		.global	UART_1_GetChar
 659              		.thumb
 660              		.thumb_func
 661              		.type	UART_1_GetChar, %function
 662              	UART_1_GetChar:
 663              	.LFB11:
 525:.\Generated_Source\PSoC5/UART_1.c **** 
 526:.\Generated_Source\PSoC5/UART_1.c **** 
 527:.\Generated_Source\PSoC5/UART_1.c ****     /*******************************************************************************
 528:.\Generated_Source\PSoC5/UART_1.c ****     * Function Name: UART_1_GetChar
 529:.\Generated_Source\PSoC5/UART_1.c ****     ********************************************************************************
 530:.\Generated_Source\PSoC5/UART_1.c ****     *
 531:.\Generated_Source\PSoC5/UART_1.c ****     * Summary:
 532:.\Generated_Source\PSoC5/UART_1.c ****     *  Reads UART RX buffer immediately, if data is not available or an error
ARM GAS  C:\Users\dskyNote\AppData\Local\Temp\ccZwia2j.s 			page 22


 533:.\Generated_Source\PSoC5/UART_1.c ****     *  condition exists, zero is returned; otherwise, character is read and
 534:.\Generated_Source\PSoC5/UART_1.c ****     *  returned.
 535:.\Generated_Source\PSoC5/UART_1.c ****     *
 536:.\Generated_Source\PSoC5/UART_1.c ****     * Parameters:
 537:.\Generated_Source\PSoC5/UART_1.c ****     *  None.
 538:.\Generated_Source\PSoC5/UART_1.c ****     *
 539:.\Generated_Source\PSoC5/UART_1.c ****     * Return:
 540:.\Generated_Source\PSoC5/UART_1.c ****     *  Character read from UART RX buffer. ASCII characters from 1 to 255 are valid.
 541:.\Generated_Source\PSoC5/UART_1.c ****     *  A returned zero signifies an error condition or no data available.
 542:.\Generated_Source\PSoC5/UART_1.c ****     *
 543:.\Generated_Source\PSoC5/UART_1.c ****     * Global Variables:
 544:.\Generated_Source\PSoC5/UART_1.c ****     *  UART_1_rxBuffer - RAM buffer pointer for save received data.
 545:.\Generated_Source\PSoC5/UART_1.c ****     *  UART_1_rxBufferWrite - cyclic index for write to rxBuffer,
 546:.\Generated_Source\PSoC5/UART_1.c ****     *     checked to identify new data.
 547:.\Generated_Source\PSoC5/UART_1.c ****     *  UART_1_rxBufferRead - cyclic index for read from rxBuffer,
 548:.\Generated_Source\PSoC5/UART_1.c ****     *     incremented after each byte has been read from buffer.
 549:.\Generated_Source\PSoC5/UART_1.c ****     *  UART_1_rxBufferLoopDetect - creared if loop condition was detected
 550:.\Generated_Source\PSoC5/UART_1.c ****     *     in RX ISR.
 551:.\Generated_Source\PSoC5/UART_1.c ****     *
 552:.\Generated_Source\PSoC5/UART_1.c ****     * Reentrant:
 553:.\Generated_Source\PSoC5/UART_1.c ****     *  No.
 554:.\Generated_Source\PSoC5/UART_1.c ****     *
 555:.\Generated_Source\PSoC5/UART_1.c ****     *******************************************************************************/
 556:.\Generated_Source\PSoC5/UART_1.c ****     uint8 UART_1_GetChar(void) 
 557:.\Generated_Source\PSoC5/UART_1.c ****     {
 664              		.loc 1 557 0
 665              		.cfi_startproc
 666              		@ args = 0, pretend = 0, frame = 8
 667              		@ frame_needed = 1, uses_anonymous_args = 0
 668 0000 80B5     		push	{r7, lr}
 669              		.cfi_def_cfa_offset 8
 670              		.cfi_offset 7, -8
 671              		.cfi_offset 14, -4
 672 0002 82B0     		sub	sp, sp, #8
 673              		.cfi_def_cfa_offset 16
 674 0004 00AF     		add	r7, sp, #0
 675              		.cfi_def_cfa_register 7
 558:.\Generated_Source\PSoC5/UART_1.c ****         uint8 rxData = 0u;
 676              		.loc 1 558 0
 677 0006 0023     		movs	r3, #0
 678 0008 FB71     		strb	r3, [r7, #7]
 559:.\Generated_Source\PSoC5/UART_1.c ****         uint8 rxStatus;
 560:.\Generated_Source\PSoC5/UART_1.c **** 
 561:.\Generated_Source\PSoC5/UART_1.c ****         #if(UART_1_RXBUFFERSIZE > UART_1_FIFO_LENGTH)
 562:.\Generated_Source\PSoC5/UART_1.c ****             uint8 loc_rxBufferRead;
 563:.\Generated_Source\PSoC5/UART_1.c ****             uint8 loc_rxBufferWrite;
 564:.\Generated_Source\PSoC5/UART_1.c ****             /* Protect variables that could change on interrupt. */
 565:.\Generated_Source\PSoC5/UART_1.c ****             /* Disable Rx interrupt. */
 566:.\Generated_Source\PSoC5/UART_1.c ****             #if(UART_1_RX_INTERRUPT_ENABLED)
 567:.\Generated_Source\PSoC5/UART_1.c ****                 UART_1_DisableRxInt();
 679              		.loc 1 567 0
 680 000a FFF7FEFF 		bl	UART_1_DisableRxInt
 568:.\Generated_Source\PSoC5/UART_1.c ****             #endif /* UART_1_RX_INTERRUPT_ENABLED */
 569:.\Generated_Source\PSoC5/UART_1.c ****             loc_rxBufferRead = UART_1_rxBufferRead;
 681              		.loc 1 569 0
 682 000e 254B     		ldr	r3, .L47
 683 0010 1B78     		ldrb	r3, [r3]
ARM GAS  C:\Users\dskyNote\AppData\Local\Temp\ccZwia2j.s 			page 23


 684 0012 BB71     		strb	r3, [r7, #6]
 570:.\Generated_Source\PSoC5/UART_1.c ****             loc_rxBufferWrite = UART_1_rxBufferWrite;
 685              		.loc 1 570 0
 686 0014 244B     		ldr	r3, .L47+4
 687 0016 1B78     		ldrb	r3, [r3]
 688 0018 7B71     		strb	r3, [r7, #5]
 571:.\Generated_Source\PSoC5/UART_1.c **** 
 572:.\Generated_Source\PSoC5/UART_1.c ****             if( (UART_1_rxBufferLoopDetect != 0u) || (loc_rxBufferRead != loc_rxBufferWrite) )
 689              		.loc 1 572 0
 690 001a 244B     		ldr	r3, .L47+8
 691 001c 1B78     		ldrb	r3, [r3]
 692 001e DBB2     		uxtb	r3, r3
 693 0020 002B     		cmp	r3, #0
 694 0022 03D1     		bne	.L41
 695              		.loc 1 572 0 is_stmt 0 discriminator 1
 696 0024 BA79     		ldrb	r2, [r7, #6]	@ zero_extendqisi2
 697 0026 7B79     		ldrb	r3, [r7, #5]	@ zero_extendqisi2
 698 0028 9A42     		cmp	r2, r3
 699 002a 21D0     		beq	.L42
 700              	.L41:
 573:.\Generated_Source\PSoC5/UART_1.c ****             {
 574:.\Generated_Source\PSoC5/UART_1.c ****                 rxData = UART_1_rxBuffer[loc_rxBufferRead];
 701              		.loc 1 574 0 is_stmt 1
 702 002c BB79     		ldrb	r3, [r7, #6]	@ zero_extendqisi2
 703 002e 204A     		ldr	r2, .L47+12
 704 0030 D35C     		ldrb	r3, [r2, r3]
 705 0032 FB71     		strb	r3, [r7, #7]
 575:.\Generated_Source\PSoC5/UART_1.c ****                 loc_rxBufferRead++;
 706              		.loc 1 575 0
 707 0034 BB79     		ldrb	r3, [r7, #6]	@ zero_extendqisi2
 708 0036 0133     		adds	r3, r3, #1
 709 0038 BB71     		strb	r3, [r7, #6]
 576:.\Generated_Source\PSoC5/UART_1.c ****                 if(loc_rxBufferRead >= UART_1_RXBUFFERSIZE)
 710              		.loc 1 576 0
 711 003a BB79     		ldrb	r3, [r7, #6]	@ zero_extendqisi2
 712 003c 5BB2     		sxtb	r3, r3
 713 003e 002B     		cmp	r3, #0
 714 0040 01DA     		bge	.L43
 577:.\Generated_Source\PSoC5/UART_1.c ****                 {
 578:.\Generated_Source\PSoC5/UART_1.c ****                     loc_rxBufferRead = 0u;
 715              		.loc 1 578 0
 716 0042 0023     		movs	r3, #0
 717 0044 BB71     		strb	r3, [r7, #6]
 718              	.L43:
 579:.\Generated_Source\PSoC5/UART_1.c ****                 }
 580:.\Generated_Source\PSoC5/UART_1.c ****                 /* Update the real pointer */
 581:.\Generated_Source\PSoC5/UART_1.c ****                 UART_1_rxBufferRead = loc_rxBufferRead;
 719              		.loc 1 581 0
 720 0046 174B     		ldr	r3, .L47
 721 0048 BA79     		ldrb	r2, [r7, #6]
 722 004a 1A70     		strb	r2, [r3]
 582:.\Generated_Source\PSoC5/UART_1.c **** 
 583:.\Generated_Source\PSoC5/UART_1.c ****                 if(UART_1_rxBufferLoopDetect > 0u )
 723              		.loc 1 583 0
 724 004c 174B     		ldr	r3, .L47+8
 725 004e 1B78     		ldrb	r3, [r3]
 726 0050 DBB2     		uxtb	r3, r3
ARM GAS  C:\Users\dskyNote\AppData\Local\Temp\ccZwia2j.s 			page 24


 727 0052 002B     		cmp	r3, #0
 728 0054 0BD0     		beq	.L44
 584:.\Generated_Source\PSoC5/UART_1.c ****                 {
 585:.\Generated_Source\PSoC5/UART_1.c ****                     UART_1_rxBufferLoopDetect = 0u;
 729              		.loc 1 585 0
 730 0056 154B     		ldr	r3, .L47+8
 731 0058 0022     		movs	r2, #0
 732 005a 1A70     		strb	r2, [r3]
 586:.\Generated_Source\PSoC5/UART_1.c ****                     #if( (UART_1_RX_INTERRUPT_ENABLED) && (UART_1_FLOW_CONTROL != 0u) )
 587:.\Generated_Source\PSoC5/UART_1.c ****                         /* When Hardware Flow Control selected - return RX mask */
 588:.\Generated_Source\PSoC5/UART_1.c ****                         #if( UART_1_HD_ENABLED )
 589:.\Generated_Source\PSoC5/UART_1.c ****                             if((UART_1_CONTROL_REG & UART_1_CTRL_HD_SEND) == 0u)
 590:.\Generated_Source\PSoC5/UART_1.c ****                             {   /* In Half duplex mode return RX mask only if
 591:.\Generated_Source\PSoC5/UART_1.c ****                                 *  RX configuration set, otherwise
 592:.\Generated_Source\PSoC5/UART_1.c ****                                 *  mask will be returned in LoadRxConfig() API.
 593:.\Generated_Source\PSoC5/UART_1.c ****                                 */
 594:.\Generated_Source\PSoC5/UART_1.c ****                                 UART_1_RXSTATUS_MASK_REG  |= UART_1_RX_STS_FIFO_NOTEMPTY;
 595:.\Generated_Source\PSoC5/UART_1.c ****                             }
 596:.\Generated_Source\PSoC5/UART_1.c ****                         #else
 597:.\Generated_Source\PSoC5/UART_1.c ****                             UART_1_RXSTATUS_MASK_REG  |= UART_1_RX_STS_FIFO_NOTEMPTY;
 733              		.loc 1 597 0
 734 005c 154B     		ldr	r3, .L47+16
 735 005e 154A     		ldr	r2, .L47+16
 736 0060 1278     		ldrb	r2, [r2]
 737 0062 D2B2     		uxtb	r2, r2
 738 0064 42F02002 		orr	r2, r2, #32
 739 0068 D2B2     		uxtb	r2, r2
 740 006a 1A70     		strb	r2, [r3]
 583:.\Generated_Source\PSoC5/UART_1.c ****                 if(UART_1_rxBufferLoopDetect > 0u )
 741              		.loc 1 583 0
 742 006c 12E0     		b	.L45
 743              	.L44:
 583:.\Generated_Source\PSoC5/UART_1.c ****                 if(UART_1_rxBufferLoopDetect > 0u )
 744              		.loc 1 583 0 is_stmt 0 discriminator 1
 745 006e 11E0     		b	.L45
 746              	.L42:
 598:.\Generated_Source\PSoC5/UART_1.c ****                         #endif /* end UART_1_HD_ENABLED */
 599:.\Generated_Source\PSoC5/UART_1.c ****                     #endif /* UART_1_RX_INTERRUPT_ENABLED and Hardware flow control*/
 600:.\Generated_Source\PSoC5/UART_1.c ****                 }
 601:.\Generated_Source\PSoC5/UART_1.c **** 
 602:.\Generated_Source\PSoC5/UART_1.c ****             }
 603:.\Generated_Source\PSoC5/UART_1.c ****             else
 604:.\Generated_Source\PSoC5/UART_1.c ****             {   rxStatus = UART_1_RXSTATUS_REG;
 747              		.loc 1 604 0 is_stmt 1
 748 0070 114B     		ldr	r3, .L47+20
 749 0072 1B78     		ldrb	r3, [r3]
 750 0074 3B71     		strb	r3, [r7, #4]
 605:.\Generated_Source\PSoC5/UART_1.c ****                 if((rxStatus & UART_1_RX_STS_FIFO_NOTEMPTY) != 0u)
 751              		.loc 1 605 0
 752 0076 3B79     		ldrb	r3, [r7, #4]	@ zero_extendqisi2
 753 0078 03F02003 		and	r3, r3, #32
 754 007c 002B     		cmp	r3, #0
 755 007e 09D0     		beq	.L45
 606:.\Generated_Source\PSoC5/UART_1.c ****                 {   /* Read received data from FIFO*/
 607:.\Generated_Source\PSoC5/UART_1.c ****                     rxData = UART_1_RXDATA_REG;
 756              		.loc 1 607 0
 757 0080 0E4B     		ldr	r3, .L47+24
ARM GAS  C:\Users\dskyNote\AppData\Local\Temp\ccZwia2j.s 			page 25


 758 0082 1B78     		ldrb	r3, [r3]
 759 0084 FB71     		strb	r3, [r7, #7]
 608:.\Generated_Source\PSoC5/UART_1.c ****                     /*Check status on error*/
 609:.\Generated_Source\PSoC5/UART_1.c ****                     if((rxStatus & (UART_1_RX_STS_BREAK | UART_1_RX_STS_PAR_ERROR |
 610:.\Generated_Source\PSoC5/UART_1.c ****                                    UART_1_RX_STS_STOP_ERROR | UART_1_RX_STS_OVERRUN)) != 0u)
 760              		.loc 1 610 0
 761 0086 3B79     		ldrb	r3, [r7, #4]	@ zero_extendqisi2
 762 0088 03F01E03 		and	r3, r3, #30
 609:.\Generated_Source\PSoC5/UART_1.c ****                     if((rxStatus & (UART_1_RX_STS_BREAK | UART_1_RX_STS_PAR_ERROR |
 763              		.loc 1 609 0
 764 008c 002B     		cmp	r3, #0
 765 008e 01D0     		beq	.L45
 611:.\Generated_Source\PSoC5/UART_1.c ****                     {
 612:.\Generated_Source\PSoC5/UART_1.c ****                         rxData = 0u;
 766              		.loc 1 612 0
 767 0090 0023     		movs	r3, #0
 768 0092 FB71     		strb	r3, [r7, #7]
 769              	.L45:
 613:.\Generated_Source\PSoC5/UART_1.c ****                     }
 614:.\Generated_Source\PSoC5/UART_1.c ****                 }
 615:.\Generated_Source\PSoC5/UART_1.c ****             }
 616:.\Generated_Source\PSoC5/UART_1.c **** 
 617:.\Generated_Source\PSoC5/UART_1.c ****             /* Enable Rx interrupt. */
 618:.\Generated_Source\PSoC5/UART_1.c ****             #if(UART_1_RX_INTERRUPT_ENABLED)
 619:.\Generated_Source\PSoC5/UART_1.c ****                 UART_1_EnableRxInt();
 770              		.loc 1 619 0
 771 0094 FFF7FEFF 		bl	UART_1_EnableRxInt
 620:.\Generated_Source\PSoC5/UART_1.c ****             #endif /* UART_1_RX_INTERRUPT_ENABLED */
 621:.\Generated_Source\PSoC5/UART_1.c **** 
 622:.\Generated_Source\PSoC5/UART_1.c ****         #else /* UART_1_RXBUFFERSIZE > UART_1_FIFO_LENGTH */
 623:.\Generated_Source\PSoC5/UART_1.c **** 
 624:.\Generated_Source\PSoC5/UART_1.c ****             rxStatus =UART_1_RXSTATUS_REG;
 625:.\Generated_Source\PSoC5/UART_1.c ****             if((rxStatus & UART_1_RX_STS_FIFO_NOTEMPTY) != 0u)
 626:.\Generated_Source\PSoC5/UART_1.c ****             {   /* Read received data from FIFO*/
 627:.\Generated_Source\PSoC5/UART_1.c ****                 rxData = UART_1_RXDATA_REG;
 628:.\Generated_Source\PSoC5/UART_1.c ****                 /*Check status on error*/
 629:.\Generated_Source\PSoC5/UART_1.c ****                 if((rxStatus & (UART_1_RX_STS_BREAK | UART_1_RX_STS_PAR_ERROR |
 630:.\Generated_Source\PSoC5/UART_1.c ****                                UART_1_RX_STS_STOP_ERROR | UART_1_RX_STS_OVERRUN)) != 0u)
 631:.\Generated_Source\PSoC5/UART_1.c ****                 {
 632:.\Generated_Source\PSoC5/UART_1.c ****                     rxData = 0u;
 633:.\Generated_Source\PSoC5/UART_1.c ****                 }
 634:.\Generated_Source\PSoC5/UART_1.c ****             }
 635:.\Generated_Source\PSoC5/UART_1.c ****         #endif /* UART_1_RXBUFFERSIZE > UART_1_FIFO_LENGTH */
 636:.\Generated_Source\PSoC5/UART_1.c **** 
 637:.\Generated_Source\PSoC5/UART_1.c ****         return(rxData);
 772              		.loc 1 637 0
 773 0098 FB79     		ldrb	r3, [r7, #7]	@ zero_extendqisi2
 638:.\Generated_Source\PSoC5/UART_1.c ****     }
 774              		.loc 1 638 0
 775 009a 1846     		mov	r0, r3
 776 009c 0837     		adds	r7, r7, #8
 777 009e BD46     		mov	sp, r7
 778              		@ sp needed
 779 00a0 80BD     		pop	{r7, pc}
 780              	.L48:
 781 00a2 00BF     		.align	2
 782              	.L47:
ARM GAS  C:\Users\dskyNote\AppData\Local\Temp\ccZwia2j.s 			page 26


 783 00a4 00000000 		.word	UART_1_rxBufferRead
 784 00a8 00000000 		.word	UART_1_rxBufferWrite
 785 00ac 00000000 		.word	UART_1_rxBufferLoopDetect
 786 00b0 00000000 		.word	UART_1_rxBuffer
 787 00b4 80640040 		.word	1073767552
 788 00b8 60640040 		.word	1073767520
 789 00bc 4C640040 		.word	1073767500
 790              		.cfi_endproc
 791              	.LFE11:
 792              		.size	UART_1_GetChar, .-UART_1_GetChar
 793              		.section	.text.UART_1_GetByte,"ax",%progbits
 794              		.align	2
 795              		.global	UART_1_GetByte
 796              		.thumb
 797              		.thumb_func
 798              		.type	UART_1_GetByte, %function
 799              	UART_1_GetByte:
 800              	.LFB12:
 639:.\Generated_Source\PSoC5/UART_1.c **** 
 640:.\Generated_Source\PSoC5/UART_1.c **** 
 641:.\Generated_Source\PSoC5/UART_1.c ****     /*******************************************************************************
 642:.\Generated_Source\PSoC5/UART_1.c ****     * Function Name: UART_1_GetByte
 643:.\Generated_Source\PSoC5/UART_1.c ****     ********************************************************************************
 644:.\Generated_Source\PSoC5/UART_1.c ****     *
 645:.\Generated_Source\PSoC5/UART_1.c ****     * Summary:
 646:.\Generated_Source\PSoC5/UART_1.c ****     *  Grab the next available byte of data from the recieve FIFO
 647:.\Generated_Source\PSoC5/UART_1.c ****     *
 648:.\Generated_Source\PSoC5/UART_1.c ****     * Parameters:
 649:.\Generated_Source\PSoC5/UART_1.c ****     *  None.
 650:.\Generated_Source\PSoC5/UART_1.c ****     *
 651:.\Generated_Source\PSoC5/UART_1.c ****     * Return:
 652:.\Generated_Source\PSoC5/UART_1.c ****     *  MSB contains Status Register and LSB contains UART RX data
 653:.\Generated_Source\PSoC5/UART_1.c ****     *
 654:.\Generated_Source\PSoC5/UART_1.c ****     * Reentrant:
 655:.\Generated_Source\PSoC5/UART_1.c ****     *  No.
 656:.\Generated_Source\PSoC5/UART_1.c ****     *
 657:.\Generated_Source\PSoC5/UART_1.c ****     *******************************************************************************/
 658:.\Generated_Source\PSoC5/UART_1.c ****     uint16 UART_1_GetByte(void) 
 659:.\Generated_Source\PSoC5/UART_1.c ****     {
 801              		.loc 1 659 0
 802              		.cfi_startproc
 803              		@ args = 0, pretend = 0, frame = 0
 804              		@ frame_needed = 1, uses_anonymous_args = 0
 805 0000 98B5     		push	{r3, r4, r7, lr}
 806              		.cfi_def_cfa_offset 16
 807              		.cfi_offset 3, -16
 808              		.cfi_offset 4, -12
 809              		.cfi_offset 7, -8
 810              		.cfi_offset 14, -4
 811 0002 00AF     		add	r7, sp, #0
 812              		.cfi_def_cfa_register 7
 660:.\Generated_Source\PSoC5/UART_1.c ****         return ( ((uint16)UART_1_ReadRxStatus() << 8u) | UART_1_ReadRxData() );
 813              		.loc 1 660 0
 814 0004 FFF7FEFF 		bl	UART_1_ReadRxStatus
 815 0008 0346     		mov	r3, r0
 816 000a 1B02     		lsls	r3, r3, #8
 817 000c 9CB2     		uxth	r4, r3
ARM GAS  C:\Users\dskyNote\AppData\Local\Temp\ccZwia2j.s 			page 27


 818 000e FFF7FEFF 		bl	UART_1_ReadRxData
 819 0012 0346     		mov	r3, r0
 820 0014 2246     		mov	r2, r4	@ movhi
 821 0016 1343     		orrs	r3, r3, r2
 822 0018 9BB2     		uxth	r3, r3
 823 001a 9BB2     		uxth	r3, r3
 661:.\Generated_Source\PSoC5/UART_1.c ****     }
 824              		.loc 1 661 0
 825 001c 1846     		mov	r0, r3
 826 001e 98BD     		pop	{r3, r4, r7, pc}
 827              		.cfi_endproc
 828              	.LFE12:
 829              		.size	UART_1_GetByte, .-UART_1_GetByte
 830              		.section	.text.UART_1_GetRxBufferSize,"ax",%progbits
 831              		.align	2
 832              		.global	UART_1_GetRxBufferSize
 833              		.thumb
 834              		.thumb_func
 835              		.type	UART_1_GetRxBufferSize, %function
 836              	UART_1_GetRxBufferSize:
 837              	.LFB13:
 662:.\Generated_Source\PSoC5/UART_1.c **** 
 663:.\Generated_Source\PSoC5/UART_1.c **** 
 664:.\Generated_Source\PSoC5/UART_1.c ****     /*******************************************************************************
 665:.\Generated_Source\PSoC5/UART_1.c ****     * Function Name: UART_1_GetRxBufferSize
 666:.\Generated_Source\PSoC5/UART_1.c ****     ********************************************************************************
 667:.\Generated_Source\PSoC5/UART_1.c ****     *
 668:.\Generated_Source\PSoC5/UART_1.c ****     * Summary:
 669:.\Generated_Source\PSoC5/UART_1.c ****     *  Determine the amount of bytes left in the RX buffer and return the count in
 670:.\Generated_Source\PSoC5/UART_1.c ****     *  bytes
 671:.\Generated_Source\PSoC5/UART_1.c ****     *
 672:.\Generated_Source\PSoC5/UART_1.c ****     * Parameters:
 673:.\Generated_Source\PSoC5/UART_1.c ****     *  None.
 674:.\Generated_Source\PSoC5/UART_1.c ****     *
 675:.\Generated_Source\PSoC5/UART_1.c ****     * Return:
 676:.\Generated_Source\PSoC5/UART_1.c ****     *  uint8: Integer count of the number of bytes left
 677:.\Generated_Source\PSoC5/UART_1.c ****     *  in the RX buffer
 678:.\Generated_Source\PSoC5/UART_1.c ****     *
 679:.\Generated_Source\PSoC5/UART_1.c ****     * Global Variables:
 680:.\Generated_Source\PSoC5/UART_1.c ****     *  UART_1_rxBufferWrite - used to calculate left bytes.
 681:.\Generated_Source\PSoC5/UART_1.c ****     *  UART_1_rxBufferRead - used to calculate left bytes.
 682:.\Generated_Source\PSoC5/UART_1.c ****     *  UART_1_rxBufferLoopDetect - checked to decide left bytes amount.
 683:.\Generated_Source\PSoC5/UART_1.c ****     *
 684:.\Generated_Source\PSoC5/UART_1.c ****     * Reentrant:
 685:.\Generated_Source\PSoC5/UART_1.c ****     *  No.
 686:.\Generated_Source\PSoC5/UART_1.c ****     *
 687:.\Generated_Source\PSoC5/UART_1.c ****     * Theory:
 688:.\Generated_Source\PSoC5/UART_1.c ****     *  Allows the user to find out how full the RX Buffer is.
 689:.\Generated_Source\PSoC5/UART_1.c ****     *
 690:.\Generated_Source\PSoC5/UART_1.c ****     *******************************************************************************/
 691:.\Generated_Source\PSoC5/UART_1.c ****     uint8 UART_1_GetRxBufferSize(void)
 692:.\Generated_Source\PSoC5/UART_1.c ****                                                             
 693:.\Generated_Source\PSoC5/UART_1.c ****     {
 838              		.loc 1 693 0
 839              		.cfi_startproc
 840              		@ args = 0, pretend = 0, frame = 8
 841              		@ frame_needed = 1, uses_anonymous_args = 0
ARM GAS  C:\Users\dskyNote\AppData\Local\Temp\ccZwia2j.s 			page 28


 842 0000 80B5     		push	{r7, lr}
 843              		.cfi_def_cfa_offset 8
 844              		.cfi_offset 7, -8
 845              		.cfi_offset 14, -4
 846 0002 82B0     		sub	sp, sp, #8
 847              		.cfi_def_cfa_offset 16
 848 0004 00AF     		add	r7, sp, #0
 849              		.cfi_def_cfa_register 7
 694:.\Generated_Source\PSoC5/UART_1.c ****         uint8 size;
 695:.\Generated_Source\PSoC5/UART_1.c **** 
 696:.\Generated_Source\PSoC5/UART_1.c ****         #if(UART_1_RXBUFFERSIZE > UART_1_FIFO_LENGTH)
 697:.\Generated_Source\PSoC5/UART_1.c **** 
 698:.\Generated_Source\PSoC5/UART_1.c ****             /* Disable Rx interrupt. */
 699:.\Generated_Source\PSoC5/UART_1.c ****             /* Protect variables that could change on interrupt. */
 700:.\Generated_Source\PSoC5/UART_1.c ****             #if(UART_1_RX_INTERRUPT_ENABLED)
 701:.\Generated_Source\PSoC5/UART_1.c ****                 UART_1_DisableRxInt();
 850              		.loc 1 701 0
 851 0006 FFF7FEFF 		bl	UART_1_DisableRxInt
 702:.\Generated_Source\PSoC5/UART_1.c ****             #endif /* UART_1_RX_INTERRUPT_ENABLED */
 703:.\Generated_Source\PSoC5/UART_1.c **** 
 704:.\Generated_Source\PSoC5/UART_1.c ****             if(UART_1_rxBufferRead == UART_1_rxBufferWrite)
 852              		.loc 1 704 0
 853 000a 1A4B     		ldr	r3, .L58
 854 000c 1B78     		ldrb	r3, [r3]
 855 000e DAB2     		uxtb	r2, r3
 856 0010 194B     		ldr	r3, .L58+4
 857 0012 1B78     		ldrb	r3, [r3]
 858 0014 DBB2     		uxtb	r3, r3
 859 0016 9A42     		cmp	r2, r3
 860 0018 0AD1     		bne	.L52
 705:.\Generated_Source\PSoC5/UART_1.c ****             {
 706:.\Generated_Source\PSoC5/UART_1.c ****                 if(UART_1_rxBufferLoopDetect > 0u)
 861              		.loc 1 706 0
 862 001a 184B     		ldr	r3, .L58+8
 863 001c 1B78     		ldrb	r3, [r3]
 864 001e DBB2     		uxtb	r3, r3
 865 0020 002B     		cmp	r3, #0
 866 0022 02D0     		beq	.L53
 707:.\Generated_Source\PSoC5/UART_1.c ****                 {
 708:.\Generated_Source\PSoC5/UART_1.c ****                     size = UART_1_RXBUFFERSIZE;
 867              		.loc 1 708 0
 868 0024 8023     		movs	r3, #128
 869 0026 FB71     		strb	r3, [r7, #7]
 870 0028 1DE0     		b	.L55
 871              	.L53:
 709:.\Generated_Source\PSoC5/UART_1.c ****                 }
 710:.\Generated_Source\PSoC5/UART_1.c ****                 else
 711:.\Generated_Source\PSoC5/UART_1.c ****                 {
 712:.\Generated_Source\PSoC5/UART_1.c ****                     size = 0u;
 872              		.loc 1 712 0
 873 002a 0023     		movs	r3, #0
 874 002c FB71     		strb	r3, [r7, #7]
 875 002e 1AE0     		b	.L55
 876              	.L52:
 713:.\Generated_Source\PSoC5/UART_1.c ****                 }
 714:.\Generated_Source\PSoC5/UART_1.c ****             }
 715:.\Generated_Source\PSoC5/UART_1.c ****             else if(UART_1_rxBufferRead < UART_1_rxBufferWrite)
ARM GAS  C:\Users\dskyNote\AppData\Local\Temp\ccZwia2j.s 			page 29


 877              		.loc 1 715 0
 878 0030 104B     		ldr	r3, .L58
 879 0032 1B78     		ldrb	r3, [r3]
 880 0034 DAB2     		uxtb	r2, r3
 881 0036 104B     		ldr	r3, .L58+4
 882 0038 1B78     		ldrb	r3, [r3]
 883 003a DBB2     		uxtb	r3, r3
 884 003c 9A42     		cmp	r2, r3
 885 003e 08D2     		bcs	.L56
 716:.\Generated_Source\PSoC5/UART_1.c ****             {
 717:.\Generated_Source\PSoC5/UART_1.c ****                 size = (UART_1_rxBufferWrite - UART_1_rxBufferRead);
 886              		.loc 1 717 0
 887 0040 0D4B     		ldr	r3, .L58+4
 888 0042 1B78     		ldrb	r3, [r3]
 889 0044 DAB2     		uxtb	r2, r3
 890 0046 0B4B     		ldr	r3, .L58
 891 0048 1B78     		ldrb	r3, [r3]
 892 004a DBB2     		uxtb	r3, r3
 893 004c D31A     		subs	r3, r2, r3
 894 004e FB71     		strb	r3, [r7, #7]
 895 0050 09E0     		b	.L55
 896              	.L56:
 718:.\Generated_Source\PSoC5/UART_1.c ****             }
 719:.\Generated_Source\PSoC5/UART_1.c ****             else
 720:.\Generated_Source\PSoC5/UART_1.c ****             {
 721:.\Generated_Source\PSoC5/UART_1.c ****                 size = (UART_1_RXBUFFERSIZE - UART_1_rxBufferRead) + UART_1_rxBufferWrite;
 897              		.loc 1 721 0
 898 0052 094B     		ldr	r3, .L58+4
 899 0054 1B78     		ldrb	r3, [r3]
 900 0056 DAB2     		uxtb	r2, r3
 901 0058 064B     		ldr	r3, .L58
 902 005a 1B78     		ldrb	r3, [r3]
 903 005c DBB2     		uxtb	r3, r3
 904 005e D31A     		subs	r3, r2, r3
 905 0060 DBB2     		uxtb	r3, r3
 906 0062 803B     		subs	r3, r3, #128
 907 0064 FB71     		strb	r3, [r7, #7]
 908              	.L55:
 722:.\Generated_Source\PSoC5/UART_1.c ****             }
 723:.\Generated_Source\PSoC5/UART_1.c **** 
 724:.\Generated_Source\PSoC5/UART_1.c ****             /* Enable Rx interrupt. */
 725:.\Generated_Source\PSoC5/UART_1.c ****             #if(UART_1_RX_INTERRUPT_ENABLED)
 726:.\Generated_Source\PSoC5/UART_1.c ****                 UART_1_EnableRxInt();
 909              		.loc 1 726 0
 910 0066 FFF7FEFF 		bl	UART_1_EnableRxInt
 727:.\Generated_Source\PSoC5/UART_1.c ****             #endif /* End UART_1_RX_INTERRUPT_ENABLED */
 728:.\Generated_Source\PSoC5/UART_1.c **** 
 729:.\Generated_Source\PSoC5/UART_1.c ****         #else /* UART_1_RXBUFFERSIZE > UART_1_FIFO_LENGTH */
 730:.\Generated_Source\PSoC5/UART_1.c **** 
 731:.\Generated_Source\PSoC5/UART_1.c ****             /* We can only know if there is data in the fifo. */
 732:.\Generated_Source\PSoC5/UART_1.c ****             size = ((UART_1_RXSTATUS_REG & UART_1_RX_STS_FIFO_NOTEMPTY) != 0u) ? 1u : 0u;
 733:.\Generated_Source\PSoC5/UART_1.c **** 
 734:.\Generated_Source\PSoC5/UART_1.c ****         #endif /* End UART_1_RXBUFFERSIZE > UART_1_FIFO_LENGTH */
 735:.\Generated_Source\PSoC5/UART_1.c **** 
 736:.\Generated_Source\PSoC5/UART_1.c ****         return(size);
 911              		.loc 1 736 0
 912 006a FB79     		ldrb	r3, [r7, #7]	@ zero_extendqisi2
ARM GAS  C:\Users\dskyNote\AppData\Local\Temp\ccZwia2j.s 			page 30


 737:.\Generated_Source\PSoC5/UART_1.c ****     }
 913              		.loc 1 737 0
 914 006c 1846     		mov	r0, r3
 915 006e 0837     		adds	r7, r7, #8
 916 0070 BD46     		mov	sp, r7
 917              		@ sp needed
 918 0072 80BD     		pop	{r7, pc}
 919              	.L59:
 920              		.align	2
 921              	.L58:
 922 0074 00000000 		.word	UART_1_rxBufferRead
 923 0078 00000000 		.word	UART_1_rxBufferWrite
 924 007c 00000000 		.word	UART_1_rxBufferLoopDetect
 925              		.cfi_endproc
 926              	.LFE13:
 927              		.size	UART_1_GetRxBufferSize, .-UART_1_GetRxBufferSize
 928              		.section	.text.UART_1_ClearRxBuffer,"ax",%progbits
 929              		.align	2
 930              		.global	UART_1_ClearRxBuffer
 931              		.thumb
 932              		.thumb_func
 933              		.type	UART_1_ClearRxBuffer, %function
 934              	UART_1_ClearRxBuffer:
 935              	.LFB14:
 738:.\Generated_Source\PSoC5/UART_1.c **** 
 739:.\Generated_Source\PSoC5/UART_1.c **** 
 740:.\Generated_Source\PSoC5/UART_1.c ****     /*******************************************************************************
 741:.\Generated_Source\PSoC5/UART_1.c ****     * Function Name: UART_1_ClearRxBuffer
 742:.\Generated_Source\PSoC5/UART_1.c ****     ********************************************************************************
 743:.\Generated_Source\PSoC5/UART_1.c ****     *
 744:.\Generated_Source\PSoC5/UART_1.c ****     * Summary:
 745:.\Generated_Source\PSoC5/UART_1.c ****     *  Clears the RX RAM buffer by setting the read and write pointers both to zero.
 746:.\Generated_Source\PSoC5/UART_1.c ****     *  Clears hardware RX FIFO.
 747:.\Generated_Source\PSoC5/UART_1.c ****     *
 748:.\Generated_Source\PSoC5/UART_1.c ****     * Parameters:
 749:.\Generated_Source\PSoC5/UART_1.c ****     *  None.
 750:.\Generated_Source\PSoC5/UART_1.c ****     *
 751:.\Generated_Source\PSoC5/UART_1.c ****     * Return:
 752:.\Generated_Source\PSoC5/UART_1.c ****     *  None.
 753:.\Generated_Source\PSoC5/UART_1.c ****     *
 754:.\Generated_Source\PSoC5/UART_1.c ****     * Global Variables:
 755:.\Generated_Source\PSoC5/UART_1.c ****     *  UART_1_rxBufferWrite - cleared to zero.
 756:.\Generated_Source\PSoC5/UART_1.c ****     *  UART_1_rxBufferRead - cleared to zero.
 757:.\Generated_Source\PSoC5/UART_1.c ****     *  UART_1_rxBufferLoopDetect - cleared to zero.
 758:.\Generated_Source\PSoC5/UART_1.c ****     *  UART_1_rxBufferOverflow - cleared to zero.
 759:.\Generated_Source\PSoC5/UART_1.c ****     *
 760:.\Generated_Source\PSoC5/UART_1.c ****     * Reentrant:
 761:.\Generated_Source\PSoC5/UART_1.c ****     *  No.
 762:.\Generated_Source\PSoC5/UART_1.c ****     *
 763:.\Generated_Source\PSoC5/UART_1.c ****     * Theory:
 764:.\Generated_Source\PSoC5/UART_1.c ****     *  Setting the pointers to zero makes the system believe there is no data to
 765:.\Generated_Source\PSoC5/UART_1.c ****     *  read and writing will resume at address 0 overwriting any data that may
 766:.\Generated_Source\PSoC5/UART_1.c ****     *  have remained in the RAM.
 767:.\Generated_Source\PSoC5/UART_1.c ****     *
 768:.\Generated_Source\PSoC5/UART_1.c ****     * Side Effects:
 769:.\Generated_Source\PSoC5/UART_1.c ****     *  Any received data not read from the RAM or FIFO buffer will be lost.
 770:.\Generated_Source\PSoC5/UART_1.c ****     *******************************************************************************/
ARM GAS  C:\Users\dskyNote\AppData\Local\Temp\ccZwia2j.s 			page 31


 771:.\Generated_Source\PSoC5/UART_1.c ****     void UART_1_ClearRxBuffer(void) 
 772:.\Generated_Source\PSoC5/UART_1.c ****     {
 936              		.loc 1 772 0
 937              		.cfi_startproc
 938              		@ args = 0, pretend = 0, frame = 8
 939              		@ frame_needed = 1, uses_anonymous_args = 0
 940 0000 80B5     		push	{r7, lr}
 941              		.cfi_def_cfa_offset 8
 942              		.cfi_offset 7, -8
 943              		.cfi_offset 14, -4
 944 0002 82B0     		sub	sp, sp, #8
 945              		.cfi_def_cfa_offset 16
 946 0004 00AF     		add	r7, sp, #0
 947              		.cfi_def_cfa_register 7
 773:.\Generated_Source\PSoC5/UART_1.c ****         uint8 enableInterrupts;
 774:.\Generated_Source\PSoC5/UART_1.c **** 
 775:.\Generated_Source\PSoC5/UART_1.c ****         /* clear the HW FIFO */
 776:.\Generated_Source\PSoC5/UART_1.c ****         /* Enter critical section */
 777:.\Generated_Source\PSoC5/UART_1.c ****         enableInterrupts = CyEnterCriticalSection();
 948              		.loc 1 777 0
 949 0006 FFF7FEFF 		bl	CyEnterCriticalSection
 950 000a 0346     		mov	r3, r0
 951 000c FB71     		strb	r3, [r7, #7]
 778:.\Generated_Source\PSoC5/UART_1.c ****         UART_1_RXDATA_AUX_CTL_REG |=  UART_1_RX_FIFO_CLR;
 952              		.loc 1 778 0
 953 000e 134B     		ldr	r3, .L61
 954 0010 124A     		ldr	r2, .L61
 955 0012 1278     		ldrb	r2, [r2]
 956 0014 D2B2     		uxtb	r2, r2
 957 0016 42F00102 		orr	r2, r2, #1
 958 001a D2B2     		uxtb	r2, r2
 959 001c 1A70     		strb	r2, [r3]
 779:.\Generated_Source\PSoC5/UART_1.c ****         UART_1_RXDATA_AUX_CTL_REG &= (uint8)~UART_1_RX_FIFO_CLR;
 960              		.loc 1 779 0
 961 001e 0F4B     		ldr	r3, .L61
 962 0020 0E4A     		ldr	r2, .L61
 963 0022 1278     		ldrb	r2, [r2]
 964 0024 D2B2     		uxtb	r2, r2
 965 0026 22F00102 		bic	r2, r2, #1
 966 002a D2B2     		uxtb	r2, r2
 967 002c 1A70     		strb	r2, [r3]
 780:.\Generated_Source\PSoC5/UART_1.c ****         /* Exit critical section */
 781:.\Generated_Source\PSoC5/UART_1.c ****         CyExitCriticalSection(enableInterrupts);
 968              		.loc 1 781 0
 969 002e FB79     		ldrb	r3, [r7, #7]	@ zero_extendqisi2
 970 0030 1846     		mov	r0, r3
 971 0032 FFF7FEFF 		bl	CyExitCriticalSection
 782:.\Generated_Source\PSoC5/UART_1.c **** 
 783:.\Generated_Source\PSoC5/UART_1.c ****         #if(UART_1_RXBUFFERSIZE > UART_1_FIFO_LENGTH)
 784:.\Generated_Source\PSoC5/UART_1.c ****             /* Disable Rx interrupt. */
 785:.\Generated_Source\PSoC5/UART_1.c ****             /* Protect variables that could change on interrupt. */
 786:.\Generated_Source\PSoC5/UART_1.c ****             #if(UART_1_RX_INTERRUPT_ENABLED)
 787:.\Generated_Source\PSoC5/UART_1.c ****                 UART_1_DisableRxInt();
 972              		.loc 1 787 0
 973 0036 FFF7FEFF 		bl	UART_1_DisableRxInt
 788:.\Generated_Source\PSoC5/UART_1.c ****             #endif /* End UART_1_RX_INTERRUPT_ENABLED */
 789:.\Generated_Source\PSoC5/UART_1.c **** 
ARM GAS  C:\Users\dskyNote\AppData\Local\Temp\ccZwia2j.s 			page 32


 790:.\Generated_Source\PSoC5/UART_1.c ****             UART_1_rxBufferRead = 0u;
 974              		.loc 1 790 0
 975 003a 094B     		ldr	r3, .L61+4
 976 003c 0022     		movs	r2, #0
 977 003e 1A70     		strb	r2, [r3]
 791:.\Generated_Source\PSoC5/UART_1.c ****             UART_1_rxBufferWrite = 0u;
 978              		.loc 1 791 0
 979 0040 084B     		ldr	r3, .L61+8
 980 0042 0022     		movs	r2, #0
 981 0044 1A70     		strb	r2, [r3]
 792:.\Generated_Source\PSoC5/UART_1.c ****             UART_1_rxBufferLoopDetect = 0u;
 982              		.loc 1 792 0
 983 0046 084B     		ldr	r3, .L61+12
 984 0048 0022     		movs	r2, #0
 985 004a 1A70     		strb	r2, [r3]
 793:.\Generated_Source\PSoC5/UART_1.c ****             UART_1_rxBufferOverflow = 0u;
 986              		.loc 1 793 0
 987 004c 074B     		ldr	r3, .L61+16
 988 004e 0022     		movs	r2, #0
 989 0050 1A70     		strb	r2, [r3]
 794:.\Generated_Source\PSoC5/UART_1.c **** 
 795:.\Generated_Source\PSoC5/UART_1.c ****             /* Enable Rx interrupt. */
 796:.\Generated_Source\PSoC5/UART_1.c ****             #if(UART_1_RX_INTERRUPT_ENABLED)
 797:.\Generated_Source\PSoC5/UART_1.c ****                 UART_1_EnableRxInt();
 990              		.loc 1 797 0
 991 0052 FFF7FEFF 		bl	UART_1_EnableRxInt
 798:.\Generated_Source\PSoC5/UART_1.c ****             #endif /* End UART_1_RX_INTERRUPT_ENABLED */
 799:.\Generated_Source\PSoC5/UART_1.c ****         #endif /* End UART_1_RXBUFFERSIZE > UART_1_FIFO_LENGTH */
 800:.\Generated_Source\PSoC5/UART_1.c **** 
 801:.\Generated_Source\PSoC5/UART_1.c ****     }
 992              		.loc 1 801 0
 993 0056 0837     		adds	r7, r7, #8
 994 0058 BD46     		mov	sp, r7
 995              		@ sp needed
 996 005a 80BD     		pop	{r7, pc}
 997              	.L62:
 998              		.align	2
 999              	.L61:
 1000 005c 9C640040 		.word	1073767580
 1001 0060 00000000 		.word	UART_1_rxBufferRead
 1002 0064 00000000 		.word	UART_1_rxBufferWrite
 1003 0068 00000000 		.word	UART_1_rxBufferLoopDetect
 1004 006c 00000000 		.word	UART_1_rxBufferOverflow
 1005              		.cfi_endproc
 1006              	.LFE14:
 1007              		.size	UART_1_ClearRxBuffer, .-UART_1_ClearRxBuffer
 1008              		.section	.text.UART_1_SetRxAddressMode,"ax",%progbits
 1009              		.align	2
 1010              		.global	UART_1_SetRxAddressMode
 1011              		.thumb
 1012              		.thumb_func
 1013              		.type	UART_1_SetRxAddressMode, %function
 1014              	UART_1_SetRxAddressMode:
 1015              	.LFB15:
 802:.\Generated_Source\PSoC5/UART_1.c **** 
 803:.\Generated_Source\PSoC5/UART_1.c **** 
 804:.\Generated_Source\PSoC5/UART_1.c ****     /*******************************************************************************
ARM GAS  C:\Users\dskyNote\AppData\Local\Temp\ccZwia2j.s 			page 33


 805:.\Generated_Source\PSoC5/UART_1.c ****     * Function Name: UART_1_SetRxAddressMode
 806:.\Generated_Source\PSoC5/UART_1.c ****     ********************************************************************************
 807:.\Generated_Source\PSoC5/UART_1.c ****     *
 808:.\Generated_Source\PSoC5/UART_1.c ****     * Summary:
 809:.\Generated_Source\PSoC5/UART_1.c ****     *  Set the receive addressing mode
 810:.\Generated_Source\PSoC5/UART_1.c ****     *
 811:.\Generated_Source\PSoC5/UART_1.c ****     * Parameters:
 812:.\Generated_Source\PSoC5/UART_1.c ****     *  addressMode: Enumerated value indicating the mode of RX addressing
 813:.\Generated_Source\PSoC5/UART_1.c ****     *  UART_1__B_UART__AM_SW_BYTE_BYTE -  Software Byte-by-Byte address
 814:.\Generated_Source\PSoC5/UART_1.c ****     *                                               detection
 815:.\Generated_Source\PSoC5/UART_1.c ****     *  UART_1__B_UART__AM_SW_DETECT_TO_BUFFER - Software Detect to Buffer
 816:.\Generated_Source\PSoC5/UART_1.c ****     *                                               address detection
 817:.\Generated_Source\PSoC5/UART_1.c ****     *  UART_1__B_UART__AM_HW_BYTE_BY_BYTE - Hardware Byte-by-Byte address
 818:.\Generated_Source\PSoC5/UART_1.c ****     *                                               detection
 819:.\Generated_Source\PSoC5/UART_1.c ****     *  UART_1__B_UART__AM_HW_DETECT_TO_BUFFER - Hardware Detect to Buffer
 820:.\Generated_Source\PSoC5/UART_1.c ****     *                                               address detection
 821:.\Generated_Source\PSoC5/UART_1.c ****     *  UART_1__B_UART__AM_NONE - No address detection
 822:.\Generated_Source\PSoC5/UART_1.c ****     *
 823:.\Generated_Source\PSoC5/UART_1.c ****     * Return:
 824:.\Generated_Source\PSoC5/UART_1.c ****     *  None.
 825:.\Generated_Source\PSoC5/UART_1.c ****     *
 826:.\Generated_Source\PSoC5/UART_1.c ****     * Global Variables:
 827:.\Generated_Source\PSoC5/UART_1.c ****     *  UART_1_rxAddressMode - the parameter stored in this variable for
 828:.\Generated_Source\PSoC5/UART_1.c ****     *   the farther usage in RX ISR.
 829:.\Generated_Source\PSoC5/UART_1.c ****     *  UART_1_rxAddressDetected - set to initial state (0).
 830:.\Generated_Source\PSoC5/UART_1.c ****     *
 831:.\Generated_Source\PSoC5/UART_1.c ****     *******************************************************************************/
 832:.\Generated_Source\PSoC5/UART_1.c ****     void UART_1_SetRxAddressMode(uint8 addressMode)
 833:.\Generated_Source\PSoC5/UART_1.c ****                                                         
 834:.\Generated_Source\PSoC5/UART_1.c ****     {
 1016              		.loc 1 834 0
 1017              		.cfi_startproc
 1018              		@ args = 0, pretend = 0, frame = 8
 1019              		@ frame_needed = 1, uses_anonymous_args = 0
 1020              		@ link register save eliminated.
 1021 0000 80B4     		push	{r7}
 1022              		.cfi_def_cfa_offset 4
 1023              		.cfi_offset 7, -4
 1024 0002 83B0     		sub	sp, sp, #12
 1025              		.cfi_def_cfa_offset 16
 1026 0004 00AF     		add	r7, sp, #0
 1027              		.cfi_def_cfa_register 7
 1028 0006 0346     		mov	r3, r0
 1029 0008 FB71     		strb	r3, [r7, #7]
 835:.\Generated_Source\PSoC5/UART_1.c ****         #if(UART_1_RXHW_ADDRESS_ENABLED)
 836:.\Generated_Source\PSoC5/UART_1.c ****             #if(UART_1_CONTROL_REG_REMOVED)
 837:.\Generated_Source\PSoC5/UART_1.c ****                 if(addressMode != 0u) { }     /* release compiler warning */
 838:.\Generated_Source\PSoC5/UART_1.c ****             #else /* UART_1_CONTROL_REG_REMOVED */
 839:.\Generated_Source\PSoC5/UART_1.c ****                 uint8 tmpCtrl;
 840:.\Generated_Source\PSoC5/UART_1.c ****                 tmpCtrl = UART_1_CONTROL_REG & (uint8)~UART_1_CTRL_RXADDR_MODE_MASK;
 841:.\Generated_Source\PSoC5/UART_1.c ****                 tmpCtrl |= (uint8)(addressMode << UART_1_CTRL_RXADDR_MODE0_SHIFT);
 842:.\Generated_Source\PSoC5/UART_1.c ****                 UART_1_CONTROL_REG = tmpCtrl;
 843:.\Generated_Source\PSoC5/UART_1.c ****                 #if(UART_1_RX_INTERRUPT_ENABLED && \
 844:.\Generated_Source\PSoC5/UART_1.c ****                    (UART_1_RXBUFFERSIZE > UART_1_FIFO_LENGTH) )
 845:.\Generated_Source\PSoC5/UART_1.c ****                     UART_1_rxAddressMode = addressMode;
 846:.\Generated_Source\PSoC5/UART_1.c ****                     UART_1_rxAddressDetected = 0u;
 847:.\Generated_Source\PSoC5/UART_1.c ****                 #endif /* End UART_1_RXBUFFERSIZE > UART_1_FIFO_LENGTH*/
ARM GAS  C:\Users\dskyNote\AppData\Local\Temp\ccZwia2j.s 			page 34


 848:.\Generated_Source\PSoC5/UART_1.c ****             #endif /* End UART_1_CONTROL_REG_REMOVED */
 849:.\Generated_Source\PSoC5/UART_1.c ****         #else /* UART_1_RXHW_ADDRESS_ENABLED */
 850:.\Generated_Source\PSoC5/UART_1.c ****             if(addressMode != 0u) { }     /* release compiler warning */
 851:.\Generated_Source\PSoC5/UART_1.c ****         #endif /* End UART_1_RXHW_ADDRESS_ENABLED */
 852:.\Generated_Source\PSoC5/UART_1.c ****     }
 1030              		.loc 1 852 0
 1031 000a 0C37     		adds	r7, r7, #12
 1032 000c BD46     		mov	sp, r7
 1033              		@ sp needed
 1034 000e 5DF8047B 		ldr	r7, [sp], #4
 1035 0012 7047     		bx	lr
 1036              		.cfi_endproc
 1037              	.LFE15:
 1038              		.size	UART_1_SetRxAddressMode, .-UART_1_SetRxAddressMode
 1039              		.section	.text.UART_1_SetRxAddress1,"ax",%progbits
 1040              		.align	2
 1041              		.global	UART_1_SetRxAddress1
 1042              		.thumb
 1043              		.thumb_func
 1044              		.type	UART_1_SetRxAddress1, %function
 1045              	UART_1_SetRxAddress1:
 1046              	.LFB16:
 853:.\Generated_Source\PSoC5/UART_1.c **** 
 854:.\Generated_Source\PSoC5/UART_1.c **** 
 855:.\Generated_Source\PSoC5/UART_1.c ****     /*******************************************************************************
 856:.\Generated_Source\PSoC5/UART_1.c ****     * Function Name: UART_1_SetRxAddress1
 857:.\Generated_Source\PSoC5/UART_1.c ****     ********************************************************************************
 858:.\Generated_Source\PSoC5/UART_1.c ****     *
 859:.\Generated_Source\PSoC5/UART_1.c ****     * Summary:
 860:.\Generated_Source\PSoC5/UART_1.c ****     *  Set the first hardware address compare value
 861:.\Generated_Source\PSoC5/UART_1.c ****     *
 862:.\Generated_Source\PSoC5/UART_1.c ****     * Parameters:
 863:.\Generated_Source\PSoC5/UART_1.c ****     *  address
 864:.\Generated_Source\PSoC5/UART_1.c ****     *
 865:.\Generated_Source\PSoC5/UART_1.c ****     * Return:
 866:.\Generated_Source\PSoC5/UART_1.c ****     *  None.
 867:.\Generated_Source\PSoC5/UART_1.c ****     *
 868:.\Generated_Source\PSoC5/UART_1.c ****     *******************************************************************************/
 869:.\Generated_Source\PSoC5/UART_1.c ****     void UART_1_SetRxAddress1(uint8 address) 
 870:.\Generated_Source\PSoC5/UART_1.c **** 
 871:.\Generated_Source\PSoC5/UART_1.c ****     {
 1047              		.loc 1 871 0
 1048              		.cfi_startproc
 1049              		@ args = 0, pretend = 0, frame = 8
 1050              		@ frame_needed = 1, uses_anonymous_args = 0
 1051              		@ link register save eliminated.
 1052 0000 80B4     		push	{r7}
 1053              		.cfi_def_cfa_offset 4
 1054              		.cfi_offset 7, -4
 1055 0002 83B0     		sub	sp, sp, #12
 1056              		.cfi_def_cfa_offset 16
 1057 0004 00AF     		add	r7, sp, #0
 1058              		.cfi_def_cfa_register 7
 1059 0006 0346     		mov	r3, r0
 1060 0008 FB71     		strb	r3, [r7, #7]
 872:.\Generated_Source\PSoC5/UART_1.c ****         UART_1_RXADDRESS1_REG = address;
 1061              		.loc 1 872 0
ARM GAS  C:\Users\dskyNote\AppData\Local\Temp\ccZwia2j.s 			page 35


 1062 000a 044B     		ldr	r3, .L65
 1063 000c FA79     		ldrb	r2, [r7, #7]
 1064 000e 1A70     		strb	r2, [r3]
 873:.\Generated_Source\PSoC5/UART_1.c ****     }
 1065              		.loc 1 873 0
 1066 0010 0C37     		adds	r7, r7, #12
 1067 0012 BD46     		mov	sp, r7
 1068              		@ sp needed
 1069 0014 5DF8047B 		ldr	r7, [sp], #4
 1070 0018 7047     		bx	lr
 1071              	.L66:
 1072 001a 00BF     		.align	2
 1073              	.L65:
 1074 001c 2C640040 		.word	1073767468
 1075              		.cfi_endproc
 1076              	.LFE16:
 1077              		.size	UART_1_SetRxAddress1, .-UART_1_SetRxAddress1
 1078              		.section	.text.UART_1_SetRxAddress2,"ax",%progbits
 1079              		.align	2
 1080              		.global	UART_1_SetRxAddress2
 1081              		.thumb
 1082              		.thumb_func
 1083              		.type	UART_1_SetRxAddress2, %function
 1084              	UART_1_SetRxAddress2:
 1085              	.LFB17:
 874:.\Generated_Source\PSoC5/UART_1.c **** 
 875:.\Generated_Source\PSoC5/UART_1.c **** 
 876:.\Generated_Source\PSoC5/UART_1.c ****     /*******************************************************************************
 877:.\Generated_Source\PSoC5/UART_1.c ****     * Function Name: UART_1_SetRxAddress2
 878:.\Generated_Source\PSoC5/UART_1.c ****     ********************************************************************************
 879:.\Generated_Source\PSoC5/UART_1.c ****     *
 880:.\Generated_Source\PSoC5/UART_1.c ****     * Summary:
 881:.\Generated_Source\PSoC5/UART_1.c ****     *  Set the second hardware address compare value
 882:.\Generated_Source\PSoC5/UART_1.c ****     *
 883:.\Generated_Source\PSoC5/UART_1.c ****     * Parameters:
 884:.\Generated_Source\PSoC5/UART_1.c ****     *  address
 885:.\Generated_Source\PSoC5/UART_1.c ****     *
 886:.\Generated_Source\PSoC5/UART_1.c ****     * Return:
 887:.\Generated_Source\PSoC5/UART_1.c ****     *  None.
 888:.\Generated_Source\PSoC5/UART_1.c ****     *
 889:.\Generated_Source\PSoC5/UART_1.c ****     *******************************************************************************/
 890:.\Generated_Source\PSoC5/UART_1.c ****     void UART_1_SetRxAddress2(uint8 address) 
 891:.\Generated_Source\PSoC5/UART_1.c ****     {
 1086              		.loc 1 891 0
 1087              		.cfi_startproc
 1088              		@ args = 0, pretend = 0, frame = 8
 1089              		@ frame_needed = 1, uses_anonymous_args = 0
 1090              		@ link register save eliminated.
 1091 0000 80B4     		push	{r7}
 1092              		.cfi_def_cfa_offset 4
 1093              		.cfi_offset 7, -4
 1094 0002 83B0     		sub	sp, sp, #12
 1095              		.cfi_def_cfa_offset 16
 1096 0004 00AF     		add	r7, sp, #0
 1097              		.cfi_def_cfa_register 7
 1098 0006 0346     		mov	r3, r0
 1099 0008 FB71     		strb	r3, [r7, #7]
ARM GAS  C:\Users\dskyNote\AppData\Local\Temp\ccZwia2j.s 			page 36


 892:.\Generated_Source\PSoC5/UART_1.c ****         UART_1_RXADDRESS2_REG = address;
 1100              		.loc 1 892 0
 1101 000a 044B     		ldr	r3, .L68
 1102 000c FA79     		ldrb	r2, [r7, #7]
 1103 000e 1A70     		strb	r2, [r3]
 893:.\Generated_Source\PSoC5/UART_1.c ****     }
 1104              		.loc 1 893 0
 1105 0010 0C37     		adds	r7, r7, #12
 1106 0012 BD46     		mov	sp, r7
 1107              		@ sp needed
 1108 0014 5DF8047B 		ldr	r7, [sp], #4
 1109 0018 7047     		bx	lr
 1110              	.L69:
 1111 001a 00BF     		.align	2
 1112              	.L68:
 1113 001c 3C640040 		.word	1073767484
 1114              		.cfi_endproc
 1115              	.LFE17:
 1116              		.size	UART_1_SetRxAddress2, .-UART_1_SetRxAddress2
 1117              		.section	.text.UART_1_EnableTxInt,"ax",%progbits
 1118              		.align	2
 1119              		.global	UART_1_EnableTxInt
 1120              		.thumb
 1121              		.thumb_func
 1122              		.type	UART_1_EnableTxInt, %function
 1123              	UART_1_EnableTxInt:
 1124              	.LFB18:
 894:.\Generated_Source\PSoC5/UART_1.c **** 
 895:.\Generated_Source\PSoC5/UART_1.c **** #endif  /* UART_1_RX_ENABLED || UART_1_HD_ENABLED*/
 896:.\Generated_Source\PSoC5/UART_1.c **** 
 897:.\Generated_Source\PSoC5/UART_1.c **** 
 898:.\Generated_Source\PSoC5/UART_1.c **** #if( (UART_1_TX_ENABLED) || (UART_1_HD_ENABLED) )
 899:.\Generated_Source\PSoC5/UART_1.c **** 
 900:.\Generated_Source\PSoC5/UART_1.c ****     #if(UART_1_TX_INTERRUPT_ENABLED)
 901:.\Generated_Source\PSoC5/UART_1.c **** 
 902:.\Generated_Source\PSoC5/UART_1.c ****         /*******************************************************************************
 903:.\Generated_Source\PSoC5/UART_1.c ****         * Function Name: UART_1_EnableTxInt
 904:.\Generated_Source\PSoC5/UART_1.c ****         ********************************************************************************
 905:.\Generated_Source\PSoC5/UART_1.c ****         *
 906:.\Generated_Source\PSoC5/UART_1.c ****         * Summary:
 907:.\Generated_Source\PSoC5/UART_1.c ****         *  Enable TX interrupt generation
 908:.\Generated_Source\PSoC5/UART_1.c ****         *
 909:.\Generated_Source\PSoC5/UART_1.c ****         * Parameters:
 910:.\Generated_Source\PSoC5/UART_1.c ****         *  None.
 911:.\Generated_Source\PSoC5/UART_1.c ****         *
 912:.\Generated_Source\PSoC5/UART_1.c ****         * Return:
 913:.\Generated_Source\PSoC5/UART_1.c ****         *  None.
 914:.\Generated_Source\PSoC5/UART_1.c ****         *
 915:.\Generated_Source\PSoC5/UART_1.c ****         * Theory:
 916:.\Generated_Source\PSoC5/UART_1.c ****         *  Enable the interrupt output -or- the interrupt component itself
 917:.\Generated_Source\PSoC5/UART_1.c ****         *
 918:.\Generated_Source\PSoC5/UART_1.c ****         *******************************************************************************/
 919:.\Generated_Source\PSoC5/UART_1.c ****         void UART_1_EnableTxInt(void) 
 920:.\Generated_Source\PSoC5/UART_1.c ****         {
 1125              		.loc 1 920 0
 1126              		.cfi_startproc
 1127              		@ args = 0, pretend = 0, frame = 0
ARM GAS  C:\Users\dskyNote\AppData\Local\Temp\ccZwia2j.s 			page 37


 1128              		@ frame_needed = 1, uses_anonymous_args = 0
 1129              		@ link register save eliminated.
 1130 0000 80B4     		push	{r7}
 1131              		.cfi_def_cfa_offset 4
 1132              		.cfi_offset 7, -4
 1133 0002 00AF     		add	r7, sp, #0
 1134              		.cfi_def_cfa_register 7
 921:.\Generated_Source\PSoC5/UART_1.c ****             CyIntEnable(UART_1_TX_VECT_NUM);
 1135              		.loc 1 921 0
 1136 0004 034B     		ldr	r3, .L71
 1137 0006 0822     		movs	r2, #8
 1138 0008 1A60     		str	r2, [r3]
 922:.\Generated_Source\PSoC5/UART_1.c ****         }
 1139              		.loc 1 922 0
 1140 000a BD46     		mov	sp, r7
 1141              		@ sp needed
 1142 000c 5DF8047B 		ldr	r7, [sp], #4
 1143 0010 7047     		bx	lr
 1144              	.L72:
 1145 0012 00BF     		.align	2
 1146              	.L71:
 1147 0014 00E100E0 		.word	-536813312
 1148              		.cfi_endproc
 1149              	.LFE18:
 1150              		.size	UART_1_EnableTxInt, .-UART_1_EnableTxInt
 1151              		.section	.text.UART_1_DisableTxInt,"ax",%progbits
 1152              		.align	2
 1153              		.global	UART_1_DisableTxInt
 1154              		.thumb
 1155              		.thumb_func
 1156              		.type	UART_1_DisableTxInt, %function
 1157              	UART_1_DisableTxInt:
 1158              	.LFB19:
 923:.\Generated_Source\PSoC5/UART_1.c **** 
 924:.\Generated_Source\PSoC5/UART_1.c **** 
 925:.\Generated_Source\PSoC5/UART_1.c ****         /*******************************************************************************
 926:.\Generated_Source\PSoC5/UART_1.c ****         * Function Name: UART_1_DisableTxInt
 927:.\Generated_Source\PSoC5/UART_1.c ****         ********************************************************************************
 928:.\Generated_Source\PSoC5/UART_1.c ****         *
 929:.\Generated_Source\PSoC5/UART_1.c ****         * Summary:
 930:.\Generated_Source\PSoC5/UART_1.c ****         *  Disable TX interrupt generation
 931:.\Generated_Source\PSoC5/UART_1.c ****         *
 932:.\Generated_Source\PSoC5/UART_1.c ****         * Parameters:
 933:.\Generated_Source\PSoC5/UART_1.c ****         *  None.
 934:.\Generated_Source\PSoC5/UART_1.c ****         *
 935:.\Generated_Source\PSoC5/UART_1.c ****         * Return:
 936:.\Generated_Source\PSoC5/UART_1.c ****         *  None.
 937:.\Generated_Source\PSoC5/UART_1.c ****         *
 938:.\Generated_Source\PSoC5/UART_1.c ****         * Theory:
 939:.\Generated_Source\PSoC5/UART_1.c ****         *  Disable the interrupt output -or- the interrupt component itself
 940:.\Generated_Source\PSoC5/UART_1.c ****         *
 941:.\Generated_Source\PSoC5/UART_1.c ****         *******************************************************************************/
 942:.\Generated_Source\PSoC5/UART_1.c ****         void UART_1_DisableTxInt(void) 
 943:.\Generated_Source\PSoC5/UART_1.c ****         {
 1159              		.loc 1 943 0
 1160              		.cfi_startproc
 1161              		@ args = 0, pretend = 0, frame = 0
ARM GAS  C:\Users\dskyNote\AppData\Local\Temp\ccZwia2j.s 			page 38


 1162              		@ frame_needed = 1, uses_anonymous_args = 0
 1163              		@ link register save eliminated.
 1164 0000 80B4     		push	{r7}
 1165              		.cfi_def_cfa_offset 4
 1166              		.cfi_offset 7, -4
 1167 0002 00AF     		add	r7, sp, #0
 1168              		.cfi_def_cfa_register 7
 944:.\Generated_Source\PSoC5/UART_1.c ****             CyIntDisable(UART_1_TX_VECT_NUM);
 1169              		.loc 1 944 0
 1170 0004 034B     		ldr	r3, .L74
 1171 0006 0822     		movs	r2, #8
 1172 0008 1A60     		str	r2, [r3]
 945:.\Generated_Source\PSoC5/UART_1.c ****         }
 1173              		.loc 1 945 0
 1174 000a BD46     		mov	sp, r7
 1175              		@ sp needed
 1176 000c 5DF8047B 		ldr	r7, [sp], #4
 1177 0010 7047     		bx	lr
 1178              	.L75:
 1179 0012 00BF     		.align	2
 1180              	.L74:
 1181 0014 80E100E0 		.word	-536813184
 1182              		.cfi_endproc
 1183              	.LFE19:
 1184              		.size	UART_1_DisableTxInt, .-UART_1_DisableTxInt
 1185              		.section	.text.UART_1_SetTxInterruptMode,"ax",%progbits
 1186              		.align	2
 1187              		.global	UART_1_SetTxInterruptMode
 1188              		.thumb
 1189              		.thumb_func
 1190              		.type	UART_1_SetTxInterruptMode, %function
 1191              	UART_1_SetTxInterruptMode:
 1192              	.LFB20:
 946:.\Generated_Source\PSoC5/UART_1.c **** 
 947:.\Generated_Source\PSoC5/UART_1.c ****     #endif /* UART_1_TX_INTERRUPT_ENABLED */
 948:.\Generated_Source\PSoC5/UART_1.c **** 
 949:.\Generated_Source\PSoC5/UART_1.c **** 
 950:.\Generated_Source\PSoC5/UART_1.c ****     /*******************************************************************************
 951:.\Generated_Source\PSoC5/UART_1.c ****     * Function Name: UART_1_SetTxInterruptMode
 952:.\Generated_Source\PSoC5/UART_1.c ****     ********************************************************************************
 953:.\Generated_Source\PSoC5/UART_1.c ****     *
 954:.\Generated_Source\PSoC5/UART_1.c ****     * Summary:
 955:.\Generated_Source\PSoC5/UART_1.c ****     *  Configure which status bits trigger an interrupt event
 956:.\Generated_Source\PSoC5/UART_1.c ****     *
 957:.\Generated_Source\PSoC5/UART_1.c ****     * Parameters:
 958:.\Generated_Source\PSoC5/UART_1.c ****     *  intSrc: An or'd combination of the desired status bit masks (defined in
 959:.\Generated_Source\PSoC5/UART_1.c ****     *          the header file)
 960:.\Generated_Source\PSoC5/UART_1.c ****     *
 961:.\Generated_Source\PSoC5/UART_1.c ****     * Return:
 962:.\Generated_Source\PSoC5/UART_1.c ****     *  None.
 963:.\Generated_Source\PSoC5/UART_1.c ****     *
 964:.\Generated_Source\PSoC5/UART_1.c ****     * Theory:
 965:.\Generated_Source\PSoC5/UART_1.c ****     *  Enables the output of specific status bits to the interrupt controller
 966:.\Generated_Source\PSoC5/UART_1.c ****     *
 967:.\Generated_Source\PSoC5/UART_1.c ****     *******************************************************************************/
 968:.\Generated_Source\PSoC5/UART_1.c ****     void UART_1_SetTxInterruptMode(uint8 intSrc) 
 969:.\Generated_Source\PSoC5/UART_1.c ****     {
ARM GAS  C:\Users\dskyNote\AppData\Local\Temp\ccZwia2j.s 			page 39


 1193              		.loc 1 969 0
 1194              		.cfi_startproc
 1195              		@ args = 0, pretend = 0, frame = 8
 1196              		@ frame_needed = 1, uses_anonymous_args = 0
 1197              		@ link register save eliminated.
 1198 0000 80B4     		push	{r7}
 1199              		.cfi_def_cfa_offset 4
 1200              		.cfi_offset 7, -4
 1201 0002 83B0     		sub	sp, sp, #12
 1202              		.cfi_def_cfa_offset 16
 1203 0004 00AF     		add	r7, sp, #0
 1204              		.cfi_def_cfa_register 7
 1205 0006 0346     		mov	r3, r0
 1206 0008 FB71     		strb	r3, [r7, #7]
 970:.\Generated_Source\PSoC5/UART_1.c ****         UART_1_TXSTATUS_MASK_REG = intSrc;
 1207              		.loc 1 970 0
 1208 000a 044B     		ldr	r3, .L77
 1209 000c FA79     		ldrb	r2, [r7, #7]
 1210 000e 1A70     		strb	r2, [r3]
 971:.\Generated_Source\PSoC5/UART_1.c ****     }
 1211              		.loc 1 971 0
 1212 0010 0C37     		adds	r7, r7, #12
 1213 0012 BD46     		mov	sp, r7
 1214              		@ sp needed
 1215 0014 5DF8047B 		ldr	r7, [sp], #4
 1216 0018 7047     		bx	lr
 1217              	.L78:
 1218 001a 00BF     		.align	2
 1219              	.L77:
 1220 001c 81640040 		.word	1073767553
 1221              		.cfi_endproc
 1222              	.LFE20:
 1223              		.size	UART_1_SetTxInterruptMode, .-UART_1_SetTxInterruptMode
 1224              		.section	.text.UART_1_WriteTxData,"ax",%progbits
 1225              		.align	2
 1226              		.global	UART_1_WriteTxData
 1227              		.thumb
 1228              		.thumb_func
 1229              		.type	UART_1_WriteTxData, %function
 1230              	UART_1_WriteTxData:
 1231              	.LFB21:
 972:.\Generated_Source\PSoC5/UART_1.c **** 
 973:.\Generated_Source\PSoC5/UART_1.c **** 
 974:.\Generated_Source\PSoC5/UART_1.c ****     /*******************************************************************************
 975:.\Generated_Source\PSoC5/UART_1.c ****     * Function Name: UART_1_WriteTxData
 976:.\Generated_Source\PSoC5/UART_1.c ****     ********************************************************************************
 977:.\Generated_Source\PSoC5/UART_1.c ****     *
 978:.\Generated_Source\PSoC5/UART_1.c ****     * Summary:
 979:.\Generated_Source\PSoC5/UART_1.c ****     *  Write a byte of data to the Transmit FIFO or TX buffer to be sent when the
 980:.\Generated_Source\PSoC5/UART_1.c ****     *  bus is available. WriteTxData sends a byte without checking for buffer room
 981:.\Generated_Source\PSoC5/UART_1.c ****     *  or status. It is up to the user to separately check status.
 982:.\Generated_Source\PSoC5/UART_1.c ****     *
 983:.\Generated_Source\PSoC5/UART_1.c ****     * Parameters:
 984:.\Generated_Source\PSoC5/UART_1.c ****     *  TXDataByte: byte of data to place in the transmit FIFO
 985:.\Generated_Source\PSoC5/UART_1.c ****     *
 986:.\Generated_Source\PSoC5/UART_1.c ****     * Return:
 987:.\Generated_Source\PSoC5/UART_1.c ****     * void
ARM GAS  C:\Users\dskyNote\AppData\Local\Temp\ccZwia2j.s 			page 40


 988:.\Generated_Source\PSoC5/UART_1.c ****     *
 989:.\Generated_Source\PSoC5/UART_1.c ****     * Global Variables:
 990:.\Generated_Source\PSoC5/UART_1.c ****     *  UART_1_txBuffer - RAM buffer pointer for save data for transmission
 991:.\Generated_Source\PSoC5/UART_1.c ****     *  UART_1_txBufferWrite - cyclic index for write to txBuffer,
 992:.\Generated_Source\PSoC5/UART_1.c ****     *    incremented after each byte saved to buffer.
 993:.\Generated_Source\PSoC5/UART_1.c ****     *  UART_1_txBufferRead - cyclic index for read from txBuffer,
 994:.\Generated_Source\PSoC5/UART_1.c ****     *    checked to identify the condition to write to FIFO directly or to TX buffer
 995:.\Generated_Source\PSoC5/UART_1.c ****     *  UART_1_initVar - checked to identify that the component has been
 996:.\Generated_Source\PSoC5/UART_1.c ****     *    initialized.
 997:.\Generated_Source\PSoC5/UART_1.c ****     *
 998:.\Generated_Source\PSoC5/UART_1.c ****     * Reentrant:
 999:.\Generated_Source\PSoC5/UART_1.c ****     *  No.
1000:.\Generated_Source\PSoC5/UART_1.c ****     *
1001:.\Generated_Source\PSoC5/UART_1.c ****     *******************************************************************************/
1002:.\Generated_Source\PSoC5/UART_1.c ****     void UART_1_WriteTxData(uint8 txDataByte) 
1003:.\Generated_Source\PSoC5/UART_1.c ****     {
 1232              		.loc 1 1003 0
 1233              		.cfi_startproc
 1234              		@ args = 0, pretend = 0, frame = 8
 1235              		@ frame_needed = 1, uses_anonymous_args = 0
 1236 0000 80B5     		push	{r7, lr}
 1237              		.cfi_def_cfa_offset 8
 1238              		.cfi_offset 7, -8
 1239              		.cfi_offset 14, -4
 1240 0002 82B0     		sub	sp, sp, #8
 1241              		.cfi_def_cfa_offset 16
 1242 0004 00AF     		add	r7, sp, #0
 1243              		.cfi_def_cfa_register 7
 1244 0006 0346     		mov	r3, r0
 1245 0008 FB71     		strb	r3, [r7, #7]
1004:.\Generated_Source\PSoC5/UART_1.c ****         /* If not Initialized then skip this function*/
1005:.\Generated_Source\PSoC5/UART_1.c ****         if(UART_1_initVar != 0u)
 1246              		.loc 1 1005 0
 1247 000a 184B     		ldr	r3, .L84
 1248 000c 1B78     		ldrb	r3, [r3]	@ zero_extendqisi2
 1249 000e 002B     		cmp	r3, #0
 1250 0010 29D0     		beq	.L79
1006:.\Generated_Source\PSoC5/UART_1.c ****         {
1007:.\Generated_Source\PSoC5/UART_1.c ****             #if(UART_1_TXBUFFERSIZE > UART_1_FIFO_LENGTH)
1008:.\Generated_Source\PSoC5/UART_1.c **** 
1009:.\Generated_Source\PSoC5/UART_1.c ****                 /* Disable Tx interrupt. */
1010:.\Generated_Source\PSoC5/UART_1.c ****                 /* Protect variables that could change on interrupt. */
1011:.\Generated_Source\PSoC5/UART_1.c ****                 #if(UART_1_TX_INTERRUPT_ENABLED)
1012:.\Generated_Source\PSoC5/UART_1.c ****                     UART_1_DisableTxInt();
 1251              		.loc 1 1012 0
 1252 0012 FFF7FEFF 		bl	UART_1_DisableTxInt
1013:.\Generated_Source\PSoC5/UART_1.c ****                 #endif /* End UART_1_TX_INTERRUPT_ENABLED */
1014:.\Generated_Source\PSoC5/UART_1.c **** 
1015:.\Generated_Source\PSoC5/UART_1.c ****                 if( (UART_1_txBufferRead == UART_1_txBufferWrite) &&
 1253              		.loc 1 1015 0
 1254 0016 164B     		ldr	r3, .L84+4
 1255 0018 1B78     		ldrb	r3, [r3]
 1256 001a DAB2     		uxtb	r2, r3
 1257 001c 154B     		ldr	r3, .L84+8
 1258 001e 1B78     		ldrb	r3, [r3]	@ zero_extendqisi2
 1259 0020 9A42     		cmp	r2, r3
 1260 0022 0AD1     		bne	.L81
ARM GAS  C:\Users\dskyNote\AppData\Local\Temp\ccZwia2j.s 			page 41


1016:.\Generated_Source\PSoC5/UART_1.c ****                     ((UART_1_TXSTATUS_REG & UART_1_TX_STS_FIFO_FULL) == 0u) )
 1261              		.loc 1 1016 0 discriminator 1
 1262 0024 144B     		ldr	r3, .L84+12
 1263 0026 1B78     		ldrb	r3, [r3]
 1264 0028 DBB2     		uxtb	r3, r3
 1265 002a 03F00403 		and	r3, r3, #4
1015:.\Generated_Source\PSoC5/UART_1.c ****                 if( (UART_1_txBufferRead == UART_1_txBufferWrite) &&
 1266              		.loc 1 1015 0 discriminator 1
 1267 002e 002B     		cmp	r3, #0
 1268 0030 03D1     		bne	.L81
1017:.\Generated_Source\PSoC5/UART_1.c ****                 {
1018:.\Generated_Source\PSoC5/UART_1.c ****                     /* Add directly to the FIFO. */
1019:.\Generated_Source\PSoC5/UART_1.c ****                     UART_1_TXDATA_REG = txDataByte;
 1269              		.loc 1 1019 0
 1270 0032 124B     		ldr	r3, .L84+16
 1271 0034 FA79     		ldrb	r2, [r7, #7]
 1272 0036 1A70     		strb	r2, [r3]
 1273 0038 13E0     		b	.L82
 1274              	.L81:
1020:.\Generated_Source\PSoC5/UART_1.c ****                 }
1021:.\Generated_Source\PSoC5/UART_1.c ****                 else
1022:.\Generated_Source\PSoC5/UART_1.c ****                 {
1023:.\Generated_Source\PSoC5/UART_1.c ****                     if(UART_1_txBufferWrite >= UART_1_TXBUFFERSIZE)
 1275              		.loc 1 1023 0
 1276 003a 0E4B     		ldr	r3, .L84+8
 1277 003c 1B78     		ldrb	r3, [r3]	@ zero_extendqisi2
 1278 003e DBB2     		uxtb	r3, r3
 1279 0040 5BB2     		sxtb	r3, r3
 1280 0042 002B     		cmp	r3, #0
 1281 0044 02DA     		bge	.L83
1024:.\Generated_Source\PSoC5/UART_1.c ****                     {
1025:.\Generated_Source\PSoC5/UART_1.c ****                         UART_1_txBufferWrite = 0u;
 1282              		.loc 1 1025 0
 1283 0046 0B4B     		ldr	r3, .L84+8
 1284 0048 0022     		movs	r2, #0
 1285 004a 1A70     		strb	r2, [r3]
 1286              	.L83:
1026:.\Generated_Source\PSoC5/UART_1.c ****                     }
1027:.\Generated_Source\PSoC5/UART_1.c **** 
1028:.\Generated_Source\PSoC5/UART_1.c ****                     UART_1_txBuffer[UART_1_txBufferWrite] = txDataByte;
 1287              		.loc 1 1028 0
 1288 004c 094B     		ldr	r3, .L84+8
 1289 004e 1B78     		ldrb	r3, [r3]	@ zero_extendqisi2
 1290 0050 0B4A     		ldr	r2, .L84+20
 1291 0052 F979     		ldrb	r1, [r7, #7]
 1292 0054 D154     		strb	r1, [r2, r3]
1029:.\Generated_Source\PSoC5/UART_1.c **** 
1030:.\Generated_Source\PSoC5/UART_1.c ****                     /* Add to the software buffer. */
1031:.\Generated_Source\PSoC5/UART_1.c ****                     UART_1_txBufferWrite++;
 1293              		.loc 1 1031 0
 1294 0056 074B     		ldr	r3, .L84+8
 1295 0058 1B78     		ldrb	r3, [r3]	@ zero_extendqisi2
 1296 005a 0133     		adds	r3, r3, #1
 1297 005c DAB2     		uxtb	r2, r3
 1298 005e 054B     		ldr	r3, .L84+8
 1299 0060 1A70     		strb	r2, [r3]
 1300              	.L82:
ARM GAS  C:\Users\dskyNote\AppData\Local\Temp\ccZwia2j.s 			page 42


1032:.\Generated_Source\PSoC5/UART_1.c **** 
1033:.\Generated_Source\PSoC5/UART_1.c ****                 }
1034:.\Generated_Source\PSoC5/UART_1.c **** 
1035:.\Generated_Source\PSoC5/UART_1.c ****                 /* Enable Tx interrupt. */
1036:.\Generated_Source\PSoC5/UART_1.c ****                 #if(UART_1_TX_INTERRUPT_ENABLED)
1037:.\Generated_Source\PSoC5/UART_1.c ****                     UART_1_EnableTxInt();
 1301              		.loc 1 1037 0
 1302 0062 FFF7FEFF 		bl	UART_1_EnableTxInt
 1303              	.L79:
1038:.\Generated_Source\PSoC5/UART_1.c ****                 #endif /* End UART_1_TX_INTERRUPT_ENABLED */
1039:.\Generated_Source\PSoC5/UART_1.c **** 
1040:.\Generated_Source\PSoC5/UART_1.c ****             #else /* UART_1_TXBUFFERSIZE > UART_1_FIFO_LENGTH */
1041:.\Generated_Source\PSoC5/UART_1.c **** 
1042:.\Generated_Source\PSoC5/UART_1.c ****                 /* Add directly to the FIFO. */
1043:.\Generated_Source\PSoC5/UART_1.c ****                 UART_1_TXDATA_REG = txDataByte;
1044:.\Generated_Source\PSoC5/UART_1.c **** 
1045:.\Generated_Source\PSoC5/UART_1.c ****             #endif /* End UART_1_TXBUFFERSIZE > UART_1_FIFO_LENGTH */
1046:.\Generated_Source\PSoC5/UART_1.c ****         }
1047:.\Generated_Source\PSoC5/UART_1.c ****     }
 1304              		.loc 1 1047 0
 1305 0066 0837     		adds	r7, r7, #8
 1306 0068 BD46     		mov	sp, r7
 1307              		@ sp needed
 1308 006a 80BD     		pop	{r7, pc}
 1309              	.L85:
 1310              		.align	2
 1311              	.L84:
 1312 006c 00000000 		.word	UART_1_initVar
 1313 0070 00000000 		.word	UART_1_txBufferRead
 1314 0074 00000000 		.word	UART_1_txBufferWrite
 1315 0078 61640040 		.word	1073767521
 1316 007c 41640040 		.word	1073767489
 1317 0080 00000000 		.word	UART_1_txBuffer
 1318              		.cfi_endproc
 1319              	.LFE21:
 1320              		.size	UART_1_WriteTxData, .-UART_1_WriteTxData
 1321              		.section	.text.UART_1_ReadTxStatus,"ax",%progbits
 1322              		.align	2
 1323              		.global	UART_1_ReadTxStatus
 1324              		.thumb
 1325              		.thumb_func
 1326              		.type	UART_1_ReadTxStatus, %function
 1327              	UART_1_ReadTxStatus:
 1328              	.LFB22:
1048:.\Generated_Source\PSoC5/UART_1.c **** 
1049:.\Generated_Source\PSoC5/UART_1.c **** 
1050:.\Generated_Source\PSoC5/UART_1.c ****     /*******************************************************************************
1051:.\Generated_Source\PSoC5/UART_1.c ****     * Function Name: UART_1_ReadTxStatus
1052:.\Generated_Source\PSoC5/UART_1.c ****     ********************************************************************************
1053:.\Generated_Source\PSoC5/UART_1.c ****     *
1054:.\Generated_Source\PSoC5/UART_1.c ****     * Summary:
1055:.\Generated_Source\PSoC5/UART_1.c ****     *  Read the status register for the component
1056:.\Generated_Source\PSoC5/UART_1.c ****     *
1057:.\Generated_Source\PSoC5/UART_1.c ****     * Parameters:
1058:.\Generated_Source\PSoC5/UART_1.c ****     *  None.
1059:.\Generated_Source\PSoC5/UART_1.c ****     *
1060:.\Generated_Source\PSoC5/UART_1.c ****     * Return:
ARM GAS  C:\Users\dskyNote\AppData\Local\Temp\ccZwia2j.s 			page 43


1061:.\Generated_Source\PSoC5/UART_1.c ****     *  Contents of the status register
1062:.\Generated_Source\PSoC5/UART_1.c ****     *
1063:.\Generated_Source\PSoC5/UART_1.c ****     * Theory:
1064:.\Generated_Source\PSoC5/UART_1.c ****     *  This function reads the status register which is clear on read. It is up to
1065:.\Generated_Source\PSoC5/UART_1.c ****     *  the user to handle all bits in this return value accordingly, even if the bit
1066:.\Generated_Source\PSoC5/UART_1.c ****     *  was not enabled as an interrupt source the event happened and must be handled
1067:.\Generated_Source\PSoC5/UART_1.c ****     *  accordingly.
1068:.\Generated_Source\PSoC5/UART_1.c ****     *
1069:.\Generated_Source\PSoC5/UART_1.c ****     *******************************************************************************/
1070:.\Generated_Source\PSoC5/UART_1.c ****     uint8 UART_1_ReadTxStatus(void) 
1071:.\Generated_Source\PSoC5/UART_1.c ****     {
 1329              		.loc 1 1071 0
 1330              		.cfi_startproc
 1331              		@ args = 0, pretend = 0, frame = 0
 1332              		@ frame_needed = 1, uses_anonymous_args = 0
 1333              		@ link register save eliminated.
 1334 0000 80B4     		push	{r7}
 1335              		.cfi_def_cfa_offset 4
 1336              		.cfi_offset 7, -4
 1337 0002 00AF     		add	r7, sp, #0
 1338              		.cfi_def_cfa_register 7
1072:.\Generated_Source\PSoC5/UART_1.c ****         return(UART_1_TXSTATUS_REG);
 1339              		.loc 1 1072 0
 1340 0004 034B     		ldr	r3, .L88
 1341 0006 1B78     		ldrb	r3, [r3]
 1342 0008 DBB2     		uxtb	r3, r3
1073:.\Generated_Source\PSoC5/UART_1.c ****     }
 1343              		.loc 1 1073 0
 1344 000a 1846     		mov	r0, r3
 1345 000c BD46     		mov	sp, r7
 1346              		@ sp needed
 1347 000e 5DF8047B 		ldr	r7, [sp], #4
 1348 0012 7047     		bx	lr
 1349              	.L89:
 1350              		.align	2
 1351              	.L88:
 1352 0014 61640040 		.word	1073767521
 1353              		.cfi_endproc
 1354              	.LFE22:
 1355              		.size	UART_1_ReadTxStatus, .-UART_1_ReadTxStatus
 1356              		.section	.text.UART_1_PutChar,"ax",%progbits
 1357              		.align	2
 1358              		.global	UART_1_PutChar
 1359              		.thumb
 1360              		.thumb_func
 1361              		.type	UART_1_PutChar, %function
 1362              	UART_1_PutChar:
 1363              	.LFB23:
1074:.\Generated_Source\PSoC5/UART_1.c **** 
1075:.\Generated_Source\PSoC5/UART_1.c **** 
1076:.\Generated_Source\PSoC5/UART_1.c ****     /*******************************************************************************
1077:.\Generated_Source\PSoC5/UART_1.c ****     * Function Name: UART_1_PutChar
1078:.\Generated_Source\PSoC5/UART_1.c ****     ********************************************************************************
1079:.\Generated_Source\PSoC5/UART_1.c ****     *
1080:.\Generated_Source\PSoC5/UART_1.c ****     * Summary:
1081:.\Generated_Source\PSoC5/UART_1.c ****     *  Wait to send byte until TX register or buffer has room.
1082:.\Generated_Source\PSoC5/UART_1.c ****     *
ARM GAS  C:\Users\dskyNote\AppData\Local\Temp\ccZwia2j.s 			page 44


1083:.\Generated_Source\PSoC5/UART_1.c ****     * Parameters:
1084:.\Generated_Source\PSoC5/UART_1.c ****     *  txDataByte: The 8-bit data value to send across the UART.
1085:.\Generated_Source\PSoC5/UART_1.c ****     *
1086:.\Generated_Source\PSoC5/UART_1.c ****     * Return:
1087:.\Generated_Source\PSoC5/UART_1.c ****     *  None.
1088:.\Generated_Source\PSoC5/UART_1.c ****     *
1089:.\Generated_Source\PSoC5/UART_1.c ****     * Global Variables:
1090:.\Generated_Source\PSoC5/UART_1.c ****     *  UART_1_txBuffer - RAM buffer pointer for save data for transmission
1091:.\Generated_Source\PSoC5/UART_1.c ****     *  UART_1_txBufferWrite - cyclic index for write to txBuffer,
1092:.\Generated_Source\PSoC5/UART_1.c ****     *     checked to identify free space in txBuffer and incremented after each byte
1093:.\Generated_Source\PSoC5/UART_1.c ****     *     saved to buffer.
1094:.\Generated_Source\PSoC5/UART_1.c ****     *  UART_1_txBufferRead - cyclic index for read from txBuffer,
1095:.\Generated_Source\PSoC5/UART_1.c ****     *     checked to identify free space in txBuffer.
1096:.\Generated_Source\PSoC5/UART_1.c ****     *  UART_1_initVar - checked to identify that the component has been
1097:.\Generated_Source\PSoC5/UART_1.c ****     *     initialized.
1098:.\Generated_Source\PSoC5/UART_1.c ****     *
1099:.\Generated_Source\PSoC5/UART_1.c ****     * Reentrant:
1100:.\Generated_Source\PSoC5/UART_1.c ****     *  No.
1101:.\Generated_Source\PSoC5/UART_1.c ****     *
1102:.\Generated_Source\PSoC5/UART_1.c ****     * Theory:
1103:.\Generated_Source\PSoC5/UART_1.c ****     *  Allows the user to transmit any byte of data in a single transfer
1104:.\Generated_Source\PSoC5/UART_1.c ****     *
1105:.\Generated_Source\PSoC5/UART_1.c ****     *******************************************************************************/
1106:.\Generated_Source\PSoC5/UART_1.c ****     void UART_1_PutChar(uint8 txDataByte) 
1107:.\Generated_Source\PSoC5/UART_1.c ****     {
 1364              		.loc 1 1107 0
 1365              		.cfi_startproc
 1366              		@ args = 0, pretend = 0, frame = 16
 1367              		@ frame_needed = 1, uses_anonymous_args = 0
 1368              		@ link register save eliminated.
 1369 0000 80B4     		push	{r7}
 1370              		.cfi_def_cfa_offset 4
 1371              		.cfi_offset 7, -4
 1372 0002 85B0     		sub	sp, sp, #20
 1373              		.cfi_def_cfa_offset 24
 1374 0004 00AF     		add	r7, sp, #0
 1375              		.cfi_def_cfa_register 7
 1376 0006 0346     		mov	r3, r0
 1377 0008 FB71     		strb	r3, [r7, #7]
 1378              	.L93:
1108:.\Generated_Source\PSoC5/UART_1.c ****             #if(UART_1_TXBUFFERSIZE > UART_1_FIFO_LENGTH)
1109:.\Generated_Source\PSoC5/UART_1.c ****                 /* The temporary output pointer is used since it takes two instructions
1110:.\Generated_Source\PSoC5/UART_1.c ****                 *  to increment with a wrap, and we can't risk doing that with the real
1111:.\Generated_Source\PSoC5/UART_1.c ****                 *  pointer and getting an interrupt in between instructions.
1112:.\Generated_Source\PSoC5/UART_1.c ****                 */
1113:.\Generated_Source\PSoC5/UART_1.c ****                 uint8 loc_txBufferWrite;
1114:.\Generated_Source\PSoC5/UART_1.c ****                 uint8 loc_txBufferRead;
1115:.\Generated_Source\PSoC5/UART_1.c **** 
1116:.\Generated_Source\PSoC5/UART_1.c ****                 do{
1117:.\Generated_Source\PSoC5/UART_1.c ****                     /* Block if software buffer is full, so we don't overwrite. */
1118:.\Generated_Source\PSoC5/UART_1.c ****                     #if ((UART_1_TXBUFFERSIZE > UART_1_MAX_BYTE_VALUE) && (CY_PSOC3))
1119:.\Generated_Source\PSoC5/UART_1.c ****                         /* Disable TX interrupt to protect variables that could change on interrupt
1120:.\Generated_Source\PSoC5/UART_1.c ****                         CyIntDisable(UART_1_TX_VECT_NUM);
1121:.\Generated_Source\PSoC5/UART_1.c ****                     #endif /* End TXBUFFERSIZE > 255 */
1122:.\Generated_Source\PSoC5/UART_1.c ****                     loc_txBufferWrite = UART_1_txBufferWrite;
 1379              		.loc 1 1122 0
 1380 000a 204B     		ldr	r3, .L97
ARM GAS  C:\Users\dskyNote\AppData\Local\Temp\ccZwia2j.s 			page 45


 1381 000c 1B78     		ldrb	r3, [r3]
 1382 000e FB73     		strb	r3, [r7, #15]
1123:.\Generated_Source\PSoC5/UART_1.c ****                     loc_txBufferRead = UART_1_txBufferRead;
 1383              		.loc 1 1123 0
 1384 0010 1F4B     		ldr	r3, .L97+4
 1385 0012 1B78     		ldrb	r3, [r3]
 1386 0014 BB73     		strb	r3, [r7, #14]
1124:.\Generated_Source\PSoC5/UART_1.c ****                     #if ((UART_1_TXBUFFERSIZE > UART_1_MAX_BYTE_VALUE) && (CY_PSOC3))
1125:.\Generated_Source\PSoC5/UART_1.c ****                         /* Enable interrupt to continue transmission */
1126:.\Generated_Source\PSoC5/UART_1.c ****                         CyIntEnable(UART_1_TX_VECT_NUM);
1127:.\Generated_Source\PSoC5/UART_1.c ****                     #endif /* End TXBUFFERSIZE > 255 */
1128:.\Generated_Source\PSoC5/UART_1.c ****                 }while( (loc_txBufferWrite < loc_txBufferRead) ? (loc_txBufferWrite == (loc_txBuffe
 1387              		.loc 1 1128 0
 1388 0016 FA7B     		ldrb	r2, [r7, #15]	@ zero_extendqisi2
 1389 0018 BB7B     		ldrb	r3, [r7, #14]	@ zero_extendqisi2
 1390 001a 9A42     		cmp	r2, r3
 1391 001c 08D2     		bcs	.L91
 1392              		.loc 1 1128 0 is_stmt 0 discriminator 1
 1393 001e FA7B     		ldrb	r2, [r7, #15]	@ zero_extendqisi2
 1394 0020 BB7B     		ldrb	r3, [r7, #14]	@ zero_extendqisi2
 1395 0022 013B     		subs	r3, r3, #1
 1396 0024 9A42     		cmp	r2, r3
 1397 0026 14BF     		ite	ne
 1398 0028 0023     		movne	r3, #0
 1399 002a 0123     		moveq	r3, #1
 1400 002c DBB2     		uxtb	r3, r3
 1401 002e 07E0     		b	.L92
 1402              	.L91:
1129:.\Generated_Source\PSoC5/UART_1.c ****                                         ((loc_txBufferWrite - loc_txBufferRead) ==
 1403              		.loc 1 1129 0 is_stmt 1 discriminator 2
 1404 0030 FA7B     		ldrb	r2, [r7, #15]	@ zero_extendqisi2
 1405 0032 BB7B     		ldrb	r3, [r7, #14]	@ zero_extendqisi2
 1406 0034 D31A     		subs	r3, r2, r3
1128:.\Generated_Source\PSoC5/UART_1.c ****                 }while( (loc_txBufferWrite < loc_txBufferRead) ? (loc_txBufferWrite == (loc_txBuffe
 1407              		.loc 1 1128 0 discriminator 2
 1408 0036 7F2B     		cmp	r3, #127
 1409 0038 14BF     		ite	ne
 1410 003a 0023     		movne	r3, #0
 1411 003c 0123     		moveq	r3, #1
 1412 003e DBB2     		uxtb	r3, r3
 1413              	.L92:
1130:.\Generated_Source\PSoC5/UART_1.c ****                                         (uint8)(UART_1_TXBUFFERSIZE - 1u)) );
 1414              		.loc 1 1130 0
 1415 0040 002B     		cmp	r3, #0
 1416 0042 E2D1     		bne	.L93
1131:.\Generated_Source\PSoC5/UART_1.c **** 
1132:.\Generated_Source\PSoC5/UART_1.c ****                 if( (loc_txBufferRead == loc_txBufferWrite) &&
 1417              		.loc 1 1132 0
 1418 0044 BA7B     		ldrb	r2, [r7, #14]	@ zero_extendqisi2
 1419 0046 FB7B     		ldrb	r3, [r7, #15]	@ zero_extendqisi2
 1420 0048 9A42     		cmp	r2, r3
 1421 004a 0AD1     		bne	.L94
1133:.\Generated_Source\PSoC5/UART_1.c ****                     ((UART_1_TXSTATUS_REG & UART_1_TX_STS_FIFO_FULL) == 0u) )
 1422              		.loc 1 1133 0 discriminator 1
 1423 004c 114B     		ldr	r3, .L97+8
 1424 004e 1B78     		ldrb	r3, [r3]
 1425 0050 DBB2     		uxtb	r3, r3
ARM GAS  C:\Users\dskyNote\AppData\Local\Temp\ccZwia2j.s 			page 46


 1426 0052 03F00403 		and	r3, r3, #4
1132:.\Generated_Source\PSoC5/UART_1.c ****                 if( (loc_txBufferRead == loc_txBufferWrite) &&
 1427              		.loc 1 1132 0 discriminator 1
 1428 0056 002B     		cmp	r3, #0
 1429 0058 03D1     		bne	.L94
1134:.\Generated_Source\PSoC5/UART_1.c ****                 {
1135:.\Generated_Source\PSoC5/UART_1.c ****                     /* Add directly to the FIFO. */
1136:.\Generated_Source\PSoC5/UART_1.c ****                     UART_1_TXDATA_REG = txDataByte;
 1430              		.loc 1 1136 0
 1431 005a 0F4B     		ldr	r3, .L97+12
 1432 005c FA79     		ldrb	r2, [r7, #7]
 1433 005e 1A70     		strb	r2, [r3]
 1434 0060 0FE0     		b	.L90
 1435              	.L94:
1137:.\Generated_Source\PSoC5/UART_1.c ****                 }
1138:.\Generated_Source\PSoC5/UART_1.c ****                 else
1139:.\Generated_Source\PSoC5/UART_1.c ****                 {
1140:.\Generated_Source\PSoC5/UART_1.c ****                     if(loc_txBufferWrite >= UART_1_TXBUFFERSIZE)
 1436              		.loc 1 1140 0
 1437 0062 FB7B     		ldrb	r3, [r7, #15]	@ zero_extendqisi2
 1438 0064 5BB2     		sxtb	r3, r3
 1439 0066 002B     		cmp	r3, #0
 1440 0068 01DA     		bge	.L96
1141:.\Generated_Source\PSoC5/UART_1.c ****                     {
1142:.\Generated_Source\PSoC5/UART_1.c ****                         loc_txBufferWrite = 0u;
 1441              		.loc 1 1142 0
 1442 006a 0023     		movs	r3, #0
 1443 006c FB73     		strb	r3, [r7, #15]
 1444              	.L96:
1143:.\Generated_Source\PSoC5/UART_1.c ****                     }
1144:.\Generated_Source\PSoC5/UART_1.c ****                     /* Add to the software buffer. */
1145:.\Generated_Source\PSoC5/UART_1.c ****                     UART_1_txBuffer[loc_txBufferWrite] = txDataByte;
 1445              		.loc 1 1145 0
 1446 006e FB7B     		ldrb	r3, [r7, #15]	@ zero_extendqisi2
 1447 0070 0A4A     		ldr	r2, .L97+16
 1448 0072 F979     		ldrb	r1, [r7, #7]
 1449 0074 D154     		strb	r1, [r2, r3]
1146:.\Generated_Source\PSoC5/UART_1.c ****                     loc_txBufferWrite++;
 1450              		.loc 1 1146 0
 1451 0076 FB7B     		ldrb	r3, [r7, #15]	@ zero_extendqisi2
 1452 0078 0133     		adds	r3, r3, #1
 1453 007a FB73     		strb	r3, [r7, #15]
1147:.\Generated_Source\PSoC5/UART_1.c **** 
1148:.\Generated_Source\PSoC5/UART_1.c ****                     /* Finally, update the real output pointer */
1149:.\Generated_Source\PSoC5/UART_1.c ****                     #if ((UART_1_TXBUFFERSIZE > UART_1_MAX_BYTE_VALUE) && (CY_PSOC3))
1150:.\Generated_Source\PSoC5/UART_1.c ****                         CyIntDisable(UART_1_TX_VECT_NUM);
1151:.\Generated_Source\PSoC5/UART_1.c ****                     #endif /* End TXBUFFERSIZE > 255 */
1152:.\Generated_Source\PSoC5/UART_1.c ****                     UART_1_txBufferWrite = loc_txBufferWrite;
 1454              		.loc 1 1152 0
 1455 007c 034B     		ldr	r3, .L97
 1456 007e FA7B     		ldrb	r2, [r7, #15]
 1457 0080 1A70     		strb	r2, [r3]
 1458              	.L90:
1153:.\Generated_Source\PSoC5/UART_1.c ****                     #if ((UART_1_TXBUFFERSIZE > UART_1_MAX_BYTE_VALUE) && (CY_PSOC3))
1154:.\Generated_Source\PSoC5/UART_1.c ****                         CyIntEnable(UART_1_TX_VECT_NUM);
1155:.\Generated_Source\PSoC5/UART_1.c ****                     #endif /* End TXBUFFERSIZE > 255 */
1156:.\Generated_Source\PSoC5/UART_1.c ****                 }
ARM GAS  C:\Users\dskyNote\AppData\Local\Temp\ccZwia2j.s 			page 47


1157:.\Generated_Source\PSoC5/UART_1.c **** 
1158:.\Generated_Source\PSoC5/UART_1.c ****             #else /* UART_1_TXBUFFERSIZE > UART_1_FIFO_LENGTH */
1159:.\Generated_Source\PSoC5/UART_1.c **** 
1160:.\Generated_Source\PSoC5/UART_1.c ****                 while((UART_1_TXSTATUS_REG & UART_1_TX_STS_FIFO_FULL) != 0u)
1161:.\Generated_Source\PSoC5/UART_1.c ****                 {
1162:.\Generated_Source\PSoC5/UART_1.c ****                     ; /* Wait for room in the FIFO. */
1163:.\Generated_Source\PSoC5/UART_1.c ****                 }
1164:.\Generated_Source\PSoC5/UART_1.c **** 
1165:.\Generated_Source\PSoC5/UART_1.c ****                 /* Add directly to the FIFO. */
1166:.\Generated_Source\PSoC5/UART_1.c ****                 UART_1_TXDATA_REG = txDataByte;
1167:.\Generated_Source\PSoC5/UART_1.c **** 
1168:.\Generated_Source\PSoC5/UART_1.c ****             #endif /* End UART_1_TXBUFFERSIZE > UART_1_FIFO_LENGTH */
1169:.\Generated_Source\PSoC5/UART_1.c ****     }
 1459              		.loc 1 1169 0
 1460 0082 1437     		adds	r7, r7, #20
 1461 0084 BD46     		mov	sp, r7
 1462              		@ sp needed
 1463 0086 5DF8047B 		ldr	r7, [sp], #4
 1464 008a 7047     		bx	lr
 1465              	.L98:
 1466              		.align	2
 1467              	.L97:
 1468 008c 00000000 		.word	UART_1_txBufferWrite
 1469 0090 00000000 		.word	UART_1_txBufferRead
 1470 0094 61640040 		.word	1073767521
 1471 0098 41640040 		.word	1073767489
 1472 009c 00000000 		.word	UART_1_txBuffer
 1473              		.cfi_endproc
 1474              	.LFE23:
 1475              		.size	UART_1_PutChar, .-UART_1_PutChar
 1476              		.section	.text.UART_1_PutString,"ax",%progbits
 1477              		.align	2
 1478              		.global	UART_1_PutString
 1479              		.thumb
 1480              		.thumb_func
 1481              		.type	UART_1_PutString, %function
 1482              	UART_1_PutString:
 1483              	.LFB24:
1170:.\Generated_Source\PSoC5/UART_1.c **** 
1171:.\Generated_Source\PSoC5/UART_1.c **** 
1172:.\Generated_Source\PSoC5/UART_1.c ****     /*******************************************************************************
1173:.\Generated_Source\PSoC5/UART_1.c ****     * Function Name: UART_1_PutString
1174:.\Generated_Source\PSoC5/UART_1.c ****     ********************************************************************************
1175:.\Generated_Source\PSoC5/UART_1.c ****     *
1176:.\Generated_Source\PSoC5/UART_1.c ****     * Summary:
1177:.\Generated_Source\PSoC5/UART_1.c ****     *  Write a Sequence of bytes on the Transmit line. Data comes from RAM or ROM.
1178:.\Generated_Source\PSoC5/UART_1.c ****     *
1179:.\Generated_Source\PSoC5/UART_1.c ****     * Parameters:
1180:.\Generated_Source\PSoC5/UART_1.c ****     *  string: char pointer to character string of Data to Send.
1181:.\Generated_Source\PSoC5/UART_1.c ****     *
1182:.\Generated_Source\PSoC5/UART_1.c ****     * Return:
1183:.\Generated_Source\PSoC5/UART_1.c ****     *  None.
1184:.\Generated_Source\PSoC5/UART_1.c ****     *
1185:.\Generated_Source\PSoC5/UART_1.c ****     * Global Variables:
1186:.\Generated_Source\PSoC5/UART_1.c ****     *  UART_1_initVar - checked to identify that the component has been
1187:.\Generated_Source\PSoC5/UART_1.c ****     *     initialized.
1188:.\Generated_Source\PSoC5/UART_1.c ****     *
ARM GAS  C:\Users\dskyNote\AppData\Local\Temp\ccZwia2j.s 			page 48


1189:.\Generated_Source\PSoC5/UART_1.c ****     * Reentrant:
1190:.\Generated_Source\PSoC5/UART_1.c ****     *  No.
1191:.\Generated_Source\PSoC5/UART_1.c ****     *
1192:.\Generated_Source\PSoC5/UART_1.c ****     * Theory:
1193:.\Generated_Source\PSoC5/UART_1.c ****     *  This function will block if there is not enough memory to place the whole
1194:.\Generated_Source\PSoC5/UART_1.c ****     *  string, it will block until the entire string has been written to the
1195:.\Generated_Source\PSoC5/UART_1.c ****     *  transmit buffer.
1196:.\Generated_Source\PSoC5/UART_1.c ****     *
1197:.\Generated_Source\PSoC5/UART_1.c ****     *******************************************************************************/
1198:.\Generated_Source\PSoC5/UART_1.c ****     void UART_1_PutString(const char8 string[]) 
1199:.\Generated_Source\PSoC5/UART_1.c ****     {
 1484              		.loc 1 1199 0
 1485              		.cfi_startproc
 1486              		@ args = 0, pretend = 0, frame = 16
 1487              		@ frame_needed = 1, uses_anonymous_args = 0
 1488 0000 80B5     		push	{r7, lr}
 1489              		.cfi_def_cfa_offset 8
 1490              		.cfi_offset 7, -8
 1491              		.cfi_offset 14, -4
 1492 0002 84B0     		sub	sp, sp, #16
 1493              		.cfi_def_cfa_offset 24
 1494 0004 00AF     		add	r7, sp, #0
 1495              		.cfi_def_cfa_register 7
 1496 0006 7860     		str	r0, [r7, #4]
1200:.\Generated_Source\PSoC5/UART_1.c ****         uint16 buf_index = 0u;
 1497              		.loc 1 1200 0
 1498 0008 0023     		movs	r3, #0
 1499 000a FB81     		strh	r3, [r7, #14]	@ movhi
1201:.\Generated_Source\PSoC5/UART_1.c ****         /* If not Initialized then skip this function*/
1202:.\Generated_Source\PSoC5/UART_1.c ****         if(UART_1_initVar != 0u)
 1500              		.loc 1 1202 0
 1501 000c 0B4B     		ldr	r3, .L103
 1502 000e 1B78     		ldrb	r3, [r3]	@ zero_extendqisi2
 1503 0010 002B     		cmp	r3, #0
 1504 0012 10D0     		beq	.L99
1203:.\Generated_Source\PSoC5/UART_1.c ****         {
1204:.\Generated_Source\PSoC5/UART_1.c ****             /* This is a blocking function, it will not exit until all data is sent*/
1205:.\Generated_Source\PSoC5/UART_1.c ****             while(string[buf_index] != (char8)0)
 1505              		.loc 1 1205 0
 1506 0014 09E0     		b	.L101
 1507              	.L102:
1206:.\Generated_Source\PSoC5/UART_1.c ****             {
1207:.\Generated_Source\PSoC5/UART_1.c ****                 UART_1_PutChar((uint8)string[buf_index]);
 1508              		.loc 1 1207 0
 1509 0016 FB89     		ldrh	r3, [r7, #14]
 1510 0018 7A68     		ldr	r2, [r7, #4]
 1511 001a 1344     		add	r3, r3, r2
 1512 001c 1B78     		ldrb	r3, [r3]	@ zero_extendqisi2
 1513 001e 1846     		mov	r0, r3
 1514 0020 FFF7FEFF 		bl	UART_1_PutChar
1208:.\Generated_Source\PSoC5/UART_1.c ****                 buf_index++;
 1515              		.loc 1 1208 0
 1516 0024 FB89     		ldrh	r3, [r7, #14]
 1517 0026 0133     		adds	r3, r3, #1
 1518 0028 FB81     		strh	r3, [r7, #14]	@ movhi
 1519              	.L101:
1205:.\Generated_Source\PSoC5/UART_1.c ****             while(string[buf_index] != (char8)0)
ARM GAS  C:\Users\dskyNote\AppData\Local\Temp\ccZwia2j.s 			page 49


 1520              		.loc 1 1205 0 discriminator 1
 1521 002a FB89     		ldrh	r3, [r7, #14]
 1522 002c 7A68     		ldr	r2, [r7, #4]
 1523 002e 1344     		add	r3, r3, r2
 1524 0030 1B78     		ldrb	r3, [r3]	@ zero_extendqisi2
 1525 0032 002B     		cmp	r3, #0
 1526 0034 EFD1     		bne	.L102
 1527              	.L99:
1209:.\Generated_Source\PSoC5/UART_1.c ****             }
1210:.\Generated_Source\PSoC5/UART_1.c ****         }
1211:.\Generated_Source\PSoC5/UART_1.c ****     }
 1528              		.loc 1 1211 0
 1529 0036 1037     		adds	r7, r7, #16
 1530 0038 BD46     		mov	sp, r7
 1531              		@ sp needed
 1532 003a 80BD     		pop	{r7, pc}
 1533              	.L104:
 1534              		.align	2
 1535              	.L103:
 1536 003c 00000000 		.word	UART_1_initVar
 1537              		.cfi_endproc
 1538              	.LFE24:
 1539              		.size	UART_1_PutString, .-UART_1_PutString
 1540              		.section	.text.UART_1_PutArray,"ax",%progbits
 1541              		.align	2
 1542              		.global	UART_1_PutArray
 1543              		.thumb
 1544              		.thumb_func
 1545              		.type	UART_1_PutArray, %function
 1546              	UART_1_PutArray:
 1547              	.LFB25:
1212:.\Generated_Source\PSoC5/UART_1.c **** 
1213:.\Generated_Source\PSoC5/UART_1.c **** 
1214:.\Generated_Source\PSoC5/UART_1.c ****     /*******************************************************************************
1215:.\Generated_Source\PSoC5/UART_1.c ****     * Function Name: UART_1_PutArray
1216:.\Generated_Source\PSoC5/UART_1.c ****     ********************************************************************************
1217:.\Generated_Source\PSoC5/UART_1.c ****     *
1218:.\Generated_Source\PSoC5/UART_1.c ****     * Summary:
1219:.\Generated_Source\PSoC5/UART_1.c ****     *  Write a Sequence of bytes on the Transmit line. Data comes from RAM or ROM.
1220:.\Generated_Source\PSoC5/UART_1.c ****     *
1221:.\Generated_Source\PSoC5/UART_1.c ****     * Parameters:
1222:.\Generated_Source\PSoC5/UART_1.c ****     *  string: Address of the memory array residing in RAM or ROM.
1223:.\Generated_Source\PSoC5/UART_1.c ****     *  byteCount: Number of Bytes to be transmitted.
1224:.\Generated_Source\PSoC5/UART_1.c ****     *
1225:.\Generated_Source\PSoC5/UART_1.c ****     * Return:
1226:.\Generated_Source\PSoC5/UART_1.c ****     *  None.
1227:.\Generated_Source\PSoC5/UART_1.c ****     *
1228:.\Generated_Source\PSoC5/UART_1.c ****     * Global Variables:
1229:.\Generated_Source\PSoC5/UART_1.c ****     *  UART_1_initVar - checked to identify that the component has been
1230:.\Generated_Source\PSoC5/UART_1.c ****     *     initialized.
1231:.\Generated_Source\PSoC5/UART_1.c ****     *
1232:.\Generated_Source\PSoC5/UART_1.c ****     * Reentrant:
1233:.\Generated_Source\PSoC5/UART_1.c ****     *  No.
1234:.\Generated_Source\PSoC5/UART_1.c ****     *
1235:.\Generated_Source\PSoC5/UART_1.c ****     *******************************************************************************/
1236:.\Generated_Source\PSoC5/UART_1.c ****     void UART_1_PutArray(const uint8 string[], uint8 byteCount)
1237:.\Generated_Source\PSoC5/UART_1.c ****                                                                     
ARM GAS  C:\Users\dskyNote\AppData\Local\Temp\ccZwia2j.s 			page 50


1238:.\Generated_Source\PSoC5/UART_1.c ****     {
 1548              		.loc 1 1238 0
 1549              		.cfi_startproc
 1550              		@ args = 0, pretend = 0, frame = 16
 1551              		@ frame_needed = 1, uses_anonymous_args = 0
 1552 0000 80B5     		push	{r7, lr}
 1553              		.cfi_def_cfa_offset 8
 1554              		.cfi_offset 7, -8
 1555              		.cfi_offset 14, -4
 1556 0002 84B0     		sub	sp, sp, #16
 1557              		.cfi_def_cfa_offset 24
 1558 0004 00AF     		add	r7, sp, #0
 1559              		.cfi_def_cfa_register 7
 1560 0006 7860     		str	r0, [r7, #4]
 1561 0008 0B46     		mov	r3, r1
 1562 000a FB70     		strb	r3, [r7, #3]
1239:.\Generated_Source\PSoC5/UART_1.c ****         uint8 buf_index = 0u;
 1563              		.loc 1 1239 0
 1564 000c 0023     		movs	r3, #0
 1565 000e FB73     		strb	r3, [r7, #15]
1240:.\Generated_Source\PSoC5/UART_1.c ****         /* If not Initialized then skip this function*/
1241:.\Generated_Source\PSoC5/UART_1.c ****         if(UART_1_initVar != 0u)
 1566              		.loc 1 1241 0
 1567 0010 0A4B     		ldr	r3, .L108
 1568 0012 1B78     		ldrb	r3, [r3]	@ zero_extendqisi2
 1569 0014 002B     		cmp	r3, #0
 1570 0016 0DD0     		beq	.L105
 1571              	.L107:
1242:.\Generated_Source\PSoC5/UART_1.c ****         {
1243:.\Generated_Source\PSoC5/UART_1.c ****             do
1244:.\Generated_Source\PSoC5/UART_1.c ****             {
1245:.\Generated_Source\PSoC5/UART_1.c ****                 UART_1_PutChar(string[buf_index]);
 1572              		.loc 1 1245 0 discriminator 1
 1573 0018 FB7B     		ldrb	r3, [r7, #15]	@ zero_extendqisi2
 1574 001a 7A68     		ldr	r2, [r7, #4]
 1575 001c 1344     		add	r3, r3, r2
 1576 001e 1B78     		ldrb	r3, [r3]	@ zero_extendqisi2
 1577 0020 1846     		mov	r0, r3
 1578 0022 FFF7FEFF 		bl	UART_1_PutChar
1246:.\Generated_Source\PSoC5/UART_1.c ****                 buf_index++;
 1579              		.loc 1 1246 0 discriminator 1
 1580 0026 FB7B     		ldrb	r3, [r7, #15]	@ zero_extendqisi2
 1581 0028 0133     		adds	r3, r3, #1
 1582 002a FB73     		strb	r3, [r7, #15]
1247:.\Generated_Source\PSoC5/UART_1.c ****             }while(buf_index < byteCount);
 1583              		.loc 1 1247 0 discriminator 1
 1584 002c FA7B     		ldrb	r2, [r7, #15]	@ zero_extendqisi2
 1585 002e FB78     		ldrb	r3, [r7, #3]	@ zero_extendqisi2
 1586 0030 9A42     		cmp	r2, r3
 1587 0032 F1D3     		bcc	.L107
 1588              	.L105:
1248:.\Generated_Source\PSoC5/UART_1.c ****         }
1249:.\Generated_Source\PSoC5/UART_1.c ****     }
 1589              		.loc 1 1249 0
 1590 0034 1037     		adds	r7, r7, #16
 1591 0036 BD46     		mov	sp, r7
 1592              		@ sp needed
ARM GAS  C:\Users\dskyNote\AppData\Local\Temp\ccZwia2j.s 			page 51


 1593 0038 80BD     		pop	{r7, pc}
 1594              	.L109:
 1595 003a 00BF     		.align	2
 1596              	.L108:
 1597 003c 00000000 		.word	UART_1_initVar
 1598              		.cfi_endproc
 1599              	.LFE25:
 1600              		.size	UART_1_PutArray, .-UART_1_PutArray
 1601              		.section	.text.UART_1_PutCRLF,"ax",%progbits
 1602              		.align	2
 1603              		.global	UART_1_PutCRLF
 1604              		.thumb
 1605              		.thumb_func
 1606              		.type	UART_1_PutCRLF, %function
 1607              	UART_1_PutCRLF:
 1608              	.LFB26:
1250:.\Generated_Source\PSoC5/UART_1.c **** 
1251:.\Generated_Source\PSoC5/UART_1.c **** 
1252:.\Generated_Source\PSoC5/UART_1.c ****     /*******************************************************************************
1253:.\Generated_Source\PSoC5/UART_1.c ****     * Function Name: UART_1_PutCRLF
1254:.\Generated_Source\PSoC5/UART_1.c ****     ********************************************************************************
1255:.\Generated_Source\PSoC5/UART_1.c ****     *
1256:.\Generated_Source\PSoC5/UART_1.c ****     * Summary:
1257:.\Generated_Source\PSoC5/UART_1.c ****     *  Write a character and then carriage return and line feed.
1258:.\Generated_Source\PSoC5/UART_1.c ****     *
1259:.\Generated_Source\PSoC5/UART_1.c ****     * Parameters:
1260:.\Generated_Source\PSoC5/UART_1.c ****     *  txDataByte: uint8 Character to send.
1261:.\Generated_Source\PSoC5/UART_1.c ****     *
1262:.\Generated_Source\PSoC5/UART_1.c ****     * Return:
1263:.\Generated_Source\PSoC5/UART_1.c ****     *  None.
1264:.\Generated_Source\PSoC5/UART_1.c ****     *
1265:.\Generated_Source\PSoC5/UART_1.c ****     * Global Variables:
1266:.\Generated_Source\PSoC5/UART_1.c ****     *  UART_1_initVar - checked to identify that the component has been
1267:.\Generated_Source\PSoC5/UART_1.c ****     *     initialized.
1268:.\Generated_Source\PSoC5/UART_1.c ****     *
1269:.\Generated_Source\PSoC5/UART_1.c ****     * Reentrant:
1270:.\Generated_Source\PSoC5/UART_1.c ****     *  No.
1271:.\Generated_Source\PSoC5/UART_1.c ****     *
1272:.\Generated_Source\PSoC5/UART_1.c ****     *******************************************************************************/
1273:.\Generated_Source\PSoC5/UART_1.c ****     void UART_1_PutCRLF(uint8 txDataByte) 
1274:.\Generated_Source\PSoC5/UART_1.c ****     {
 1609              		.loc 1 1274 0
 1610              		.cfi_startproc
 1611              		@ args = 0, pretend = 0, frame = 8
 1612              		@ frame_needed = 1, uses_anonymous_args = 0
 1613 0000 80B5     		push	{r7, lr}
 1614              		.cfi_def_cfa_offset 8
 1615              		.cfi_offset 7, -8
 1616              		.cfi_offset 14, -4
 1617 0002 82B0     		sub	sp, sp, #8
 1618              		.cfi_def_cfa_offset 16
 1619 0004 00AF     		add	r7, sp, #0
 1620              		.cfi_def_cfa_register 7
 1621 0006 0346     		mov	r3, r0
 1622 0008 FB71     		strb	r3, [r7, #7]
1275:.\Generated_Source\PSoC5/UART_1.c ****         /* If not Initialized then skip this function*/
1276:.\Generated_Source\PSoC5/UART_1.c ****         if(UART_1_initVar != 0u)
ARM GAS  C:\Users\dskyNote\AppData\Local\Temp\ccZwia2j.s 			page 52


 1623              		.loc 1 1276 0
 1624 000a 084B     		ldr	r3, .L112
 1625 000c 1B78     		ldrb	r3, [r3]	@ zero_extendqisi2
 1626 000e 002B     		cmp	r3, #0
 1627 0010 09D0     		beq	.L110
1277:.\Generated_Source\PSoC5/UART_1.c ****         {
1278:.\Generated_Source\PSoC5/UART_1.c ****             UART_1_PutChar(txDataByte);
 1628              		.loc 1 1278 0
 1629 0012 FB79     		ldrb	r3, [r7, #7]	@ zero_extendqisi2
 1630 0014 1846     		mov	r0, r3
 1631 0016 FFF7FEFF 		bl	UART_1_PutChar
1279:.\Generated_Source\PSoC5/UART_1.c ****             UART_1_PutChar(0x0Du);
 1632              		.loc 1 1279 0
 1633 001a 0D20     		movs	r0, #13
 1634 001c FFF7FEFF 		bl	UART_1_PutChar
1280:.\Generated_Source\PSoC5/UART_1.c ****             UART_1_PutChar(0x0Au);
 1635              		.loc 1 1280 0
 1636 0020 0A20     		movs	r0, #10
 1637 0022 FFF7FEFF 		bl	UART_1_PutChar
 1638              	.L110:
1281:.\Generated_Source\PSoC5/UART_1.c ****         }
1282:.\Generated_Source\PSoC5/UART_1.c ****     }
 1639              		.loc 1 1282 0
 1640 0026 0837     		adds	r7, r7, #8
 1641 0028 BD46     		mov	sp, r7
 1642              		@ sp needed
 1643 002a 80BD     		pop	{r7, pc}
 1644              	.L113:
 1645              		.align	2
 1646              	.L112:
 1647 002c 00000000 		.word	UART_1_initVar
 1648              		.cfi_endproc
 1649              	.LFE26:
 1650              		.size	UART_1_PutCRLF, .-UART_1_PutCRLF
 1651              		.section	.text.UART_1_GetTxBufferSize,"ax",%progbits
 1652              		.align	2
 1653              		.global	UART_1_GetTxBufferSize
 1654              		.thumb
 1655              		.thumb_func
 1656              		.type	UART_1_GetTxBufferSize, %function
 1657              	UART_1_GetTxBufferSize:
 1658              	.LFB27:
1283:.\Generated_Source\PSoC5/UART_1.c **** 
1284:.\Generated_Source\PSoC5/UART_1.c **** 
1285:.\Generated_Source\PSoC5/UART_1.c ****     /*******************************************************************************
1286:.\Generated_Source\PSoC5/UART_1.c ****     * Function Name: UART_1_GetTxBufferSize
1287:.\Generated_Source\PSoC5/UART_1.c ****     ********************************************************************************
1288:.\Generated_Source\PSoC5/UART_1.c ****     *
1289:.\Generated_Source\PSoC5/UART_1.c ****     * Summary:
1290:.\Generated_Source\PSoC5/UART_1.c ****     *  Determine the amount of space left in the TX buffer and return the count in
1291:.\Generated_Source\PSoC5/UART_1.c ****     *  bytes
1292:.\Generated_Source\PSoC5/UART_1.c ****     *
1293:.\Generated_Source\PSoC5/UART_1.c ****     * Parameters:
1294:.\Generated_Source\PSoC5/UART_1.c ****     *  None.
1295:.\Generated_Source\PSoC5/UART_1.c ****     *
1296:.\Generated_Source\PSoC5/UART_1.c ****     * Return:
1297:.\Generated_Source\PSoC5/UART_1.c ****     *  Integer count of the number of bytes left in the TX buffer
ARM GAS  C:\Users\dskyNote\AppData\Local\Temp\ccZwia2j.s 			page 53


1298:.\Generated_Source\PSoC5/UART_1.c ****     *
1299:.\Generated_Source\PSoC5/UART_1.c ****     * Global Variables:
1300:.\Generated_Source\PSoC5/UART_1.c ****     *  UART_1_txBufferWrite - used to calculate left space.
1301:.\Generated_Source\PSoC5/UART_1.c ****     *  UART_1_txBufferRead - used to calculate left space.
1302:.\Generated_Source\PSoC5/UART_1.c ****     *
1303:.\Generated_Source\PSoC5/UART_1.c ****     * Reentrant:
1304:.\Generated_Source\PSoC5/UART_1.c ****     *  No.
1305:.\Generated_Source\PSoC5/UART_1.c ****     *
1306:.\Generated_Source\PSoC5/UART_1.c ****     * Theory:
1307:.\Generated_Source\PSoC5/UART_1.c ****     *  Allows the user to find out how full the TX Buffer is.
1308:.\Generated_Source\PSoC5/UART_1.c ****     *
1309:.\Generated_Source\PSoC5/UART_1.c ****     *******************************************************************************/
1310:.\Generated_Source\PSoC5/UART_1.c ****     uint8 UART_1_GetTxBufferSize(void)
1311:.\Generated_Source\PSoC5/UART_1.c ****                                                             
1312:.\Generated_Source\PSoC5/UART_1.c ****     {
 1659              		.loc 1 1312 0
 1660              		.cfi_startproc
 1661              		@ args = 0, pretend = 0, frame = 8
 1662              		@ frame_needed = 1, uses_anonymous_args = 0
 1663 0000 80B5     		push	{r7, lr}
 1664              		.cfi_def_cfa_offset 8
 1665              		.cfi_offset 7, -8
 1666              		.cfi_offset 14, -4
 1667 0002 82B0     		sub	sp, sp, #8
 1668              		.cfi_def_cfa_offset 16
 1669 0004 00AF     		add	r7, sp, #0
 1670              		.cfi_def_cfa_register 7
1313:.\Generated_Source\PSoC5/UART_1.c ****         uint8 size;
1314:.\Generated_Source\PSoC5/UART_1.c **** 
1315:.\Generated_Source\PSoC5/UART_1.c ****         #if(UART_1_TXBUFFERSIZE > UART_1_FIFO_LENGTH)
1316:.\Generated_Source\PSoC5/UART_1.c **** 
1317:.\Generated_Source\PSoC5/UART_1.c ****             /* Disable Tx interrupt. */
1318:.\Generated_Source\PSoC5/UART_1.c ****             /* Protect variables that could change on interrupt. */
1319:.\Generated_Source\PSoC5/UART_1.c ****             #if(UART_1_TX_INTERRUPT_ENABLED)
1320:.\Generated_Source\PSoC5/UART_1.c ****                 UART_1_DisableTxInt();
 1671              		.loc 1 1320 0
 1672 0006 FFF7FEFF 		bl	UART_1_DisableTxInt
1321:.\Generated_Source\PSoC5/UART_1.c ****             #endif /* End UART_1_TX_INTERRUPT_ENABLED */
1322:.\Generated_Source\PSoC5/UART_1.c **** 
1323:.\Generated_Source\PSoC5/UART_1.c ****             if(UART_1_txBufferRead == UART_1_txBufferWrite)
 1673              		.loc 1 1323 0
 1674 000a 144B     		ldr	r3, .L119
 1675 000c 1B78     		ldrb	r3, [r3]
 1676 000e DAB2     		uxtb	r2, r3
 1677 0010 134B     		ldr	r3, .L119+4
 1678 0012 1B78     		ldrb	r3, [r3]	@ zero_extendqisi2
 1679 0014 9A42     		cmp	r2, r3
 1680 0016 02D1     		bne	.L115
1324:.\Generated_Source\PSoC5/UART_1.c ****             {
1325:.\Generated_Source\PSoC5/UART_1.c ****                 size = 0u;
 1681              		.loc 1 1325 0
 1682 0018 0023     		movs	r3, #0
 1683 001a FB71     		strb	r3, [r7, #7]
 1684 001c 17E0     		b	.L116
 1685              	.L115:
1326:.\Generated_Source\PSoC5/UART_1.c ****             }
1327:.\Generated_Source\PSoC5/UART_1.c ****             else if(UART_1_txBufferRead < UART_1_txBufferWrite)
ARM GAS  C:\Users\dskyNote\AppData\Local\Temp\ccZwia2j.s 			page 54


 1686              		.loc 1 1327 0
 1687 001e 0F4B     		ldr	r3, .L119
 1688 0020 1B78     		ldrb	r3, [r3]
 1689 0022 DAB2     		uxtb	r2, r3
 1690 0024 0E4B     		ldr	r3, .L119+4
 1691 0026 1B78     		ldrb	r3, [r3]	@ zero_extendqisi2
 1692 0028 9A42     		cmp	r2, r3
 1693 002a 07D2     		bcs	.L117
1328:.\Generated_Source\PSoC5/UART_1.c ****             {
1329:.\Generated_Source\PSoC5/UART_1.c ****                 size = (UART_1_txBufferWrite - UART_1_txBufferRead);
 1694              		.loc 1 1329 0
 1695 002c 0C4B     		ldr	r3, .L119+4
 1696 002e 1A78     		ldrb	r2, [r3]	@ zero_extendqisi2
 1697 0030 0A4B     		ldr	r3, .L119
 1698 0032 1B78     		ldrb	r3, [r3]
 1699 0034 DBB2     		uxtb	r3, r3
 1700 0036 D31A     		subs	r3, r2, r3
 1701 0038 FB71     		strb	r3, [r7, #7]
 1702 003a 08E0     		b	.L116
 1703              	.L117:
1330:.\Generated_Source\PSoC5/UART_1.c ****             }
1331:.\Generated_Source\PSoC5/UART_1.c ****             else
1332:.\Generated_Source\PSoC5/UART_1.c ****             {
1333:.\Generated_Source\PSoC5/UART_1.c ****                 size = (UART_1_TXBUFFERSIZE - UART_1_txBufferRead) + UART_1_txBufferWrite;
 1704              		.loc 1 1333 0
 1705 003c 084B     		ldr	r3, .L119+4
 1706 003e 1A78     		ldrb	r2, [r3]	@ zero_extendqisi2
 1707 0040 064B     		ldr	r3, .L119
 1708 0042 1B78     		ldrb	r3, [r3]
 1709 0044 DBB2     		uxtb	r3, r3
 1710 0046 D31A     		subs	r3, r2, r3
 1711 0048 DBB2     		uxtb	r3, r3
 1712 004a 803B     		subs	r3, r3, #128
 1713 004c FB71     		strb	r3, [r7, #7]
 1714              	.L116:
1334:.\Generated_Source\PSoC5/UART_1.c ****             }
1335:.\Generated_Source\PSoC5/UART_1.c **** 
1336:.\Generated_Source\PSoC5/UART_1.c ****             /* Enable Tx interrupt. */
1337:.\Generated_Source\PSoC5/UART_1.c ****             #if(UART_1_TX_INTERRUPT_ENABLED)
1338:.\Generated_Source\PSoC5/UART_1.c ****                 UART_1_EnableTxInt();
 1715              		.loc 1 1338 0
 1716 004e FFF7FEFF 		bl	UART_1_EnableTxInt
1339:.\Generated_Source\PSoC5/UART_1.c ****             #endif /* End UART_1_TX_INTERRUPT_ENABLED */
1340:.\Generated_Source\PSoC5/UART_1.c **** 
1341:.\Generated_Source\PSoC5/UART_1.c ****         #else /* UART_1_TXBUFFERSIZE > UART_1_FIFO_LENGTH */
1342:.\Generated_Source\PSoC5/UART_1.c **** 
1343:.\Generated_Source\PSoC5/UART_1.c ****             size = UART_1_TXSTATUS_REG;
1344:.\Generated_Source\PSoC5/UART_1.c **** 
1345:.\Generated_Source\PSoC5/UART_1.c ****             /* Is the fifo is full. */
1346:.\Generated_Source\PSoC5/UART_1.c ****             if((size & UART_1_TX_STS_FIFO_FULL) != 0u)
1347:.\Generated_Source\PSoC5/UART_1.c ****             {
1348:.\Generated_Source\PSoC5/UART_1.c ****                 size = UART_1_FIFO_LENGTH;
1349:.\Generated_Source\PSoC5/UART_1.c ****             }
1350:.\Generated_Source\PSoC5/UART_1.c ****             else if((size & UART_1_TX_STS_FIFO_EMPTY) != 0u)
1351:.\Generated_Source\PSoC5/UART_1.c ****             {
1352:.\Generated_Source\PSoC5/UART_1.c ****                 size = 0u;
1353:.\Generated_Source\PSoC5/UART_1.c ****             }
ARM GAS  C:\Users\dskyNote\AppData\Local\Temp\ccZwia2j.s 			page 55


1354:.\Generated_Source\PSoC5/UART_1.c ****             else
1355:.\Generated_Source\PSoC5/UART_1.c ****             {
1356:.\Generated_Source\PSoC5/UART_1.c ****                 /* We only know there is data in the fifo. */
1357:.\Generated_Source\PSoC5/UART_1.c ****                 size = 1u;
1358:.\Generated_Source\PSoC5/UART_1.c ****             }
1359:.\Generated_Source\PSoC5/UART_1.c **** 
1360:.\Generated_Source\PSoC5/UART_1.c ****         #endif /* End UART_1_TXBUFFERSIZE > UART_1_FIFO_LENGTH */
1361:.\Generated_Source\PSoC5/UART_1.c **** 
1362:.\Generated_Source\PSoC5/UART_1.c ****         return(size);
 1717              		.loc 1 1362 0
 1718 0052 FB79     		ldrb	r3, [r7, #7]	@ zero_extendqisi2
1363:.\Generated_Source\PSoC5/UART_1.c ****     }
 1719              		.loc 1 1363 0
 1720 0054 1846     		mov	r0, r3
 1721 0056 0837     		adds	r7, r7, #8
 1722 0058 BD46     		mov	sp, r7
 1723              		@ sp needed
 1724 005a 80BD     		pop	{r7, pc}
 1725              	.L120:
 1726              		.align	2
 1727              	.L119:
 1728 005c 00000000 		.word	UART_1_txBufferRead
 1729 0060 00000000 		.word	UART_1_txBufferWrite
 1730              		.cfi_endproc
 1731              	.LFE27:
 1732              		.size	UART_1_GetTxBufferSize, .-UART_1_GetTxBufferSize
 1733              		.section	.text.UART_1_ClearTxBuffer,"ax",%progbits
 1734              		.align	2
 1735              		.global	UART_1_ClearTxBuffer
 1736              		.thumb
 1737              		.thumb_func
 1738              		.type	UART_1_ClearTxBuffer, %function
 1739              	UART_1_ClearTxBuffer:
 1740              	.LFB28:
1364:.\Generated_Source\PSoC5/UART_1.c **** 
1365:.\Generated_Source\PSoC5/UART_1.c **** 
1366:.\Generated_Source\PSoC5/UART_1.c ****     /*******************************************************************************
1367:.\Generated_Source\PSoC5/UART_1.c ****     * Function Name: UART_1_ClearTxBuffer
1368:.\Generated_Source\PSoC5/UART_1.c ****     ********************************************************************************
1369:.\Generated_Source\PSoC5/UART_1.c ****     *
1370:.\Generated_Source\PSoC5/UART_1.c ****     * Summary:
1371:.\Generated_Source\PSoC5/UART_1.c ****     *  Clears the TX RAM buffer by setting the read and write pointers both to zero.
1372:.\Generated_Source\PSoC5/UART_1.c ****     *  Clears the hardware TX FIFO.  Any data present in the FIFO will not be sent.
1373:.\Generated_Source\PSoC5/UART_1.c ****     *
1374:.\Generated_Source\PSoC5/UART_1.c ****     * Parameters:
1375:.\Generated_Source\PSoC5/UART_1.c ****     *  None.
1376:.\Generated_Source\PSoC5/UART_1.c ****     *
1377:.\Generated_Source\PSoC5/UART_1.c ****     * Return:
1378:.\Generated_Source\PSoC5/UART_1.c ****     *  None.
1379:.\Generated_Source\PSoC5/UART_1.c ****     *
1380:.\Generated_Source\PSoC5/UART_1.c ****     * Global Variables:
1381:.\Generated_Source\PSoC5/UART_1.c ****     *  UART_1_txBufferWrite - cleared to zero.
1382:.\Generated_Source\PSoC5/UART_1.c ****     *  UART_1_txBufferRead - cleared to zero.
1383:.\Generated_Source\PSoC5/UART_1.c ****     *
1384:.\Generated_Source\PSoC5/UART_1.c ****     * Reentrant:
1385:.\Generated_Source\PSoC5/UART_1.c ****     *  No.
1386:.\Generated_Source\PSoC5/UART_1.c ****     *
ARM GAS  C:\Users\dskyNote\AppData\Local\Temp\ccZwia2j.s 			page 56


1387:.\Generated_Source\PSoC5/UART_1.c ****     * Theory:
1388:.\Generated_Source\PSoC5/UART_1.c ****     *  Setting the pointers to zero makes the system believe there is no data to
1389:.\Generated_Source\PSoC5/UART_1.c ****     *  read and writing will resume at address 0 overwriting any data that may have
1390:.\Generated_Source\PSoC5/UART_1.c ****     *  remained in the RAM.
1391:.\Generated_Source\PSoC5/UART_1.c ****     *
1392:.\Generated_Source\PSoC5/UART_1.c ****     * Side Effects:
1393:.\Generated_Source\PSoC5/UART_1.c ****     *  Any received data not read from the RAM buffer will be lost when overwritten.
1394:.\Generated_Source\PSoC5/UART_1.c ****     *
1395:.\Generated_Source\PSoC5/UART_1.c ****     *******************************************************************************/
1396:.\Generated_Source\PSoC5/UART_1.c ****     void UART_1_ClearTxBuffer(void) 
1397:.\Generated_Source\PSoC5/UART_1.c ****     {
 1741              		.loc 1 1397 0
 1742              		.cfi_startproc
 1743              		@ args = 0, pretend = 0, frame = 8
 1744              		@ frame_needed = 1, uses_anonymous_args = 0
 1745 0000 80B5     		push	{r7, lr}
 1746              		.cfi_def_cfa_offset 8
 1747              		.cfi_offset 7, -8
 1748              		.cfi_offset 14, -4
 1749 0002 82B0     		sub	sp, sp, #8
 1750              		.cfi_def_cfa_offset 16
 1751 0004 00AF     		add	r7, sp, #0
 1752              		.cfi_def_cfa_register 7
1398:.\Generated_Source\PSoC5/UART_1.c ****         uint8 enableInterrupts;
1399:.\Generated_Source\PSoC5/UART_1.c **** 
1400:.\Generated_Source\PSoC5/UART_1.c ****         /* Enter critical section */
1401:.\Generated_Source\PSoC5/UART_1.c ****         enableInterrupts = CyEnterCriticalSection();
 1753              		.loc 1 1401 0
 1754 0006 FFF7FEFF 		bl	CyEnterCriticalSection
 1755 000a 0346     		mov	r3, r0
 1756 000c FB71     		strb	r3, [r7, #7]
1402:.\Generated_Source\PSoC5/UART_1.c ****         /* clear the HW FIFO */
1403:.\Generated_Source\PSoC5/UART_1.c ****         UART_1_TXDATA_AUX_CTL_REG |=  UART_1_TX_FIFO_CLR;
 1757              		.loc 1 1403 0
 1758 000e 104B     		ldr	r3, .L122
 1759 0010 0F4A     		ldr	r2, .L122
 1760 0012 1278     		ldrb	r2, [r2]
 1761 0014 D2B2     		uxtb	r2, r2
 1762 0016 42F00102 		orr	r2, r2, #1
 1763 001a D2B2     		uxtb	r2, r2
 1764 001c 1A70     		strb	r2, [r3]
1404:.\Generated_Source\PSoC5/UART_1.c ****         UART_1_TXDATA_AUX_CTL_REG &= (uint8)~UART_1_TX_FIFO_CLR;
 1765              		.loc 1 1404 0
 1766 001e 0C4B     		ldr	r3, .L122
 1767 0020 0B4A     		ldr	r2, .L122
 1768 0022 1278     		ldrb	r2, [r2]
 1769 0024 D2B2     		uxtb	r2, r2
 1770 0026 22F00102 		bic	r2, r2, #1
 1771 002a D2B2     		uxtb	r2, r2
 1772 002c 1A70     		strb	r2, [r3]
1405:.\Generated_Source\PSoC5/UART_1.c ****         /* Exit critical section */
1406:.\Generated_Source\PSoC5/UART_1.c ****         CyExitCriticalSection(enableInterrupts);
 1773              		.loc 1 1406 0
 1774 002e FB79     		ldrb	r3, [r7, #7]	@ zero_extendqisi2
 1775 0030 1846     		mov	r0, r3
 1776 0032 FFF7FEFF 		bl	CyExitCriticalSection
1407:.\Generated_Source\PSoC5/UART_1.c **** 
ARM GAS  C:\Users\dskyNote\AppData\Local\Temp\ccZwia2j.s 			page 57


1408:.\Generated_Source\PSoC5/UART_1.c ****         #if(UART_1_TXBUFFERSIZE > UART_1_FIFO_LENGTH)
1409:.\Generated_Source\PSoC5/UART_1.c **** 
1410:.\Generated_Source\PSoC5/UART_1.c ****             /* Disable Tx interrupt. */
1411:.\Generated_Source\PSoC5/UART_1.c ****             /* Protect variables that could change on interrupt. */
1412:.\Generated_Source\PSoC5/UART_1.c ****             #if(UART_1_TX_INTERRUPT_ENABLED)
1413:.\Generated_Source\PSoC5/UART_1.c ****                 UART_1_DisableTxInt();
 1777              		.loc 1 1413 0
 1778 0036 FFF7FEFF 		bl	UART_1_DisableTxInt
1414:.\Generated_Source\PSoC5/UART_1.c ****             #endif /* End UART_1_TX_INTERRUPT_ENABLED */
1415:.\Generated_Source\PSoC5/UART_1.c **** 
1416:.\Generated_Source\PSoC5/UART_1.c ****             UART_1_txBufferRead = 0u;
 1779              		.loc 1 1416 0
 1780 003a 064B     		ldr	r3, .L122+4
 1781 003c 0022     		movs	r2, #0
 1782 003e 1A70     		strb	r2, [r3]
1417:.\Generated_Source\PSoC5/UART_1.c ****             UART_1_txBufferWrite = 0u;
 1783              		.loc 1 1417 0
 1784 0040 054B     		ldr	r3, .L122+8
 1785 0042 0022     		movs	r2, #0
 1786 0044 1A70     		strb	r2, [r3]
1418:.\Generated_Source\PSoC5/UART_1.c **** 
1419:.\Generated_Source\PSoC5/UART_1.c ****             /* Enable Tx interrupt. */
1420:.\Generated_Source\PSoC5/UART_1.c ****             #if(UART_1_TX_INTERRUPT_ENABLED)
1421:.\Generated_Source\PSoC5/UART_1.c ****                 UART_1_EnableTxInt();
 1787              		.loc 1 1421 0
 1788 0046 FFF7FEFF 		bl	UART_1_EnableTxInt
1422:.\Generated_Source\PSoC5/UART_1.c ****             #endif /* End UART_1_TX_INTERRUPT_ENABLED */
1423:.\Generated_Source\PSoC5/UART_1.c **** 
1424:.\Generated_Source\PSoC5/UART_1.c ****         #endif /* End UART_1_TXBUFFERSIZE > UART_1_FIFO_LENGTH */
1425:.\Generated_Source\PSoC5/UART_1.c ****     }
 1789              		.loc 1 1425 0
 1790 004a 0837     		adds	r7, r7, #8
 1791 004c BD46     		mov	sp, r7
 1792              		@ sp needed
 1793 004e 80BD     		pop	{r7, pc}
 1794              	.L123:
 1795              		.align	2
 1796              	.L122:
 1797 0050 91640040 		.word	1073767569
 1798 0054 00000000 		.word	UART_1_txBufferRead
 1799 0058 00000000 		.word	UART_1_txBufferWrite
 1800              		.cfi_endproc
 1801              	.LFE28:
 1802              		.size	UART_1_ClearTxBuffer, .-UART_1_ClearTxBuffer
 1803              		.section	.text.UART_1_SendBreak,"ax",%progbits
 1804              		.align	2
 1805              		.global	UART_1_SendBreak
 1806              		.thumb
 1807              		.thumb_func
 1808              		.type	UART_1_SendBreak, %function
 1809              	UART_1_SendBreak:
 1810              	.LFB29:
1426:.\Generated_Source\PSoC5/UART_1.c **** 
1427:.\Generated_Source\PSoC5/UART_1.c **** 
1428:.\Generated_Source\PSoC5/UART_1.c ****     /*******************************************************************************
1429:.\Generated_Source\PSoC5/UART_1.c ****     * Function Name: UART_1_SendBreak
1430:.\Generated_Source\PSoC5/UART_1.c ****     ********************************************************************************
ARM GAS  C:\Users\dskyNote\AppData\Local\Temp\ccZwia2j.s 			page 58


1431:.\Generated_Source\PSoC5/UART_1.c ****     *
1432:.\Generated_Source\PSoC5/UART_1.c ****     * Summary:
1433:.\Generated_Source\PSoC5/UART_1.c ****     *  Write a Break command to the UART
1434:.\Generated_Source\PSoC5/UART_1.c ****     *
1435:.\Generated_Source\PSoC5/UART_1.c ****     * Parameters:
1436:.\Generated_Source\PSoC5/UART_1.c ****     *  uint8 retMode:  Wait mode,
1437:.\Generated_Source\PSoC5/UART_1.c ****     *   0 - Initialize registers for Break, sends the Break signal and return
1438:.\Generated_Source\PSoC5/UART_1.c ****     *       imediately.
1439:.\Generated_Source\PSoC5/UART_1.c ****     *   1 - Wait until Break sending is complete, reinitialize registers to normal
1440:.\Generated_Source\PSoC5/UART_1.c ****     *       transmission mode then return.
1441:.\Generated_Source\PSoC5/UART_1.c ****     *   2 - Reinitialize registers to normal transmission mode then return.
1442:.\Generated_Source\PSoC5/UART_1.c ****     *   3 - both steps: 0 and 1
1443:.\Generated_Source\PSoC5/UART_1.c ****     *       init registers for Break, send Break signal
1444:.\Generated_Source\PSoC5/UART_1.c ****     *       wait until Break sending is complete, reinit registers to normal
1445:.\Generated_Source\PSoC5/UART_1.c ****     *       transmission mode then return.
1446:.\Generated_Source\PSoC5/UART_1.c ****     *
1447:.\Generated_Source\PSoC5/UART_1.c ****     * Return:
1448:.\Generated_Source\PSoC5/UART_1.c ****     *  None.
1449:.\Generated_Source\PSoC5/UART_1.c ****     *
1450:.\Generated_Source\PSoC5/UART_1.c ****     * Global Variables:
1451:.\Generated_Source\PSoC5/UART_1.c ****     *  UART_1_initVar - checked to identify that the component has been
1452:.\Generated_Source\PSoC5/UART_1.c ****     *     initialized.
1453:.\Generated_Source\PSoC5/UART_1.c ****     *  tx_period - static variable, used for keeping TX period configuration.
1454:.\Generated_Source\PSoC5/UART_1.c ****     *
1455:.\Generated_Source\PSoC5/UART_1.c ****     * Reentrant:
1456:.\Generated_Source\PSoC5/UART_1.c ****     *  No.
1457:.\Generated_Source\PSoC5/UART_1.c ****     *
1458:.\Generated_Source\PSoC5/UART_1.c ****     * Theory:
1459:.\Generated_Source\PSoC5/UART_1.c ****     *  SendBreak function initializes registers to send 13-bit break signal. It is
1460:.\Generated_Source\PSoC5/UART_1.c ****     *  important to return the registers configuration to normal for continue 8-bit
1461:.\Generated_Source\PSoC5/UART_1.c ****     *  operation.
1462:.\Generated_Source\PSoC5/UART_1.c ****     *  Trere are 3 variants for this API usage:
1463:.\Generated_Source\PSoC5/UART_1.c ****     *  1) SendBreak(3) - function will send the Break signal and take care on the
1464:.\Generated_Source\PSoC5/UART_1.c ****     *     configuration returning. Funcition will block CPU untill transmition
1465:.\Generated_Source\PSoC5/UART_1.c ****     *     complete.
1466:.\Generated_Source\PSoC5/UART_1.c ****     *  2) User may want to use bloking time if UART configured to the low speed
1467:.\Generated_Source\PSoC5/UART_1.c ****     *     operation
1468:.\Generated_Source\PSoC5/UART_1.c ****     *     Emample for this case:
1469:.\Generated_Source\PSoC5/UART_1.c ****     *     SendBreak(0);     - init Break signal transmition
1470:.\Generated_Source\PSoC5/UART_1.c ****     *         Add your code here to use CPU time
1471:.\Generated_Source\PSoC5/UART_1.c ****     *     SendBreak(1);     - complete Break operation
1472:.\Generated_Source\PSoC5/UART_1.c ****     *  3) Same to 2) but user may want to init and use the interrupt for complete
1473:.\Generated_Source\PSoC5/UART_1.c ****     *     break operation.
1474:.\Generated_Source\PSoC5/UART_1.c ****     *     Example for this case:
1475:.\Generated_Source\PSoC5/UART_1.c ****     *     Init TX interrupt whith "TX - On TX Complete" parameter
1476:.\Generated_Source\PSoC5/UART_1.c ****     *     SendBreak(0);     - init Break signal transmition
1477:.\Generated_Source\PSoC5/UART_1.c ****     *         Add your code here to use CPU time
1478:.\Generated_Source\PSoC5/UART_1.c ****     *     When interrupt appear with UART_TX_STS_COMPLETE status:
1479:.\Generated_Source\PSoC5/UART_1.c ****     *     SendBreak(2);     - complete Break operation
1480:.\Generated_Source\PSoC5/UART_1.c ****     *
1481:.\Generated_Source\PSoC5/UART_1.c ****     * Side Effects:
1482:.\Generated_Source\PSoC5/UART_1.c ****     *   Uses static variable to keep registers configuration.
1483:.\Generated_Source\PSoC5/UART_1.c ****     *
1484:.\Generated_Source\PSoC5/UART_1.c ****     *******************************************************************************/
1485:.\Generated_Source\PSoC5/UART_1.c ****     void UART_1_SendBreak(uint8 retMode) 
1486:.\Generated_Source\PSoC5/UART_1.c ****     {
 1811              		.loc 1 1486 0
ARM GAS  C:\Users\dskyNote\AppData\Local\Temp\ccZwia2j.s 			page 59


 1812              		.cfi_startproc
 1813              		@ args = 0, pretend = 0, frame = 16
 1814              		@ frame_needed = 1, uses_anonymous_args = 0
 1815              		@ link register save eliminated.
 1816 0000 80B4     		push	{r7}
 1817              		.cfi_def_cfa_offset 4
 1818              		.cfi_offset 7, -4
 1819 0002 85B0     		sub	sp, sp, #20
 1820              		.cfi_def_cfa_offset 24
 1821 0004 00AF     		add	r7, sp, #0
 1822              		.cfi_def_cfa_register 7
 1823 0006 0346     		mov	r3, r0
 1824 0008 FB71     		strb	r3, [r7, #7]
1487:.\Generated_Source\PSoC5/UART_1.c **** 
1488:.\Generated_Source\PSoC5/UART_1.c ****         /* If not Initialized then skip this function*/
1489:.\Generated_Source\PSoC5/UART_1.c ****         if(UART_1_initVar != 0u)
 1825              		.loc 1 1489 0
 1826 000a 1F4B     		ldr	r3, .L132
 1827 000c 1B78     		ldrb	r3, [r3]	@ zero_extendqisi2
 1828 000e 002B     		cmp	r3, #0
 1829 0010 35D0     		beq	.L124
 1830              	.LBB2:
1490:.\Generated_Source\PSoC5/UART_1.c ****         {
1491:.\Generated_Source\PSoC5/UART_1.c ****             /*Set the Counter to 13-bits and transmit a 00 byte*/
1492:.\Generated_Source\PSoC5/UART_1.c ****             /*When that is done then reset the counter value back*/
1493:.\Generated_Source\PSoC5/UART_1.c ****             uint8 tmpStat;
1494:.\Generated_Source\PSoC5/UART_1.c **** 
1495:.\Generated_Source\PSoC5/UART_1.c ****             #if(UART_1_HD_ENABLED) /* Half Duplex mode*/
1496:.\Generated_Source\PSoC5/UART_1.c **** 
1497:.\Generated_Source\PSoC5/UART_1.c ****                 if( (retMode == UART_1_SEND_BREAK) ||
1498:.\Generated_Source\PSoC5/UART_1.c ****                     (retMode == UART_1_SEND_WAIT_REINIT ) )
1499:.\Generated_Source\PSoC5/UART_1.c ****                 {
1500:.\Generated_Source\PSoC5/UART_1.c ****                     /* CTRL_HD_SEND_BREAK - sends break bits in HD mode*/
1501:.\Generated_Source\PSoC5/UART_1.c ****                     UART_1_WriteControlRegister(UART_1_ReadControlRegister() |
1502:.\Generated_Source\PSoC5/UART_1.c ****                                                           UART_1_CTRL_HD_SEND_BREAK);
1503:.\Generated_Source\PSoC5/UART_1.c ****                     /* Send zeros*/
1504:.\Generated_Source\PSoC5/UART_1.c ****                     UART_1_TXDATA_REG = 0u;
1505:.\Generated_Source\PSoC5/UART_1.c **** 
1506:.\Generated_Source\PSoC5/UART_1.c ****                     do /*wait until transmit starts*/
1507:.\Generated_Source\PSoC5/UART_1.c ****                     {
1508:.\Generated_Source\PSoC5/UART_1.c ****                         tmpStat = UART_1_TXSTATUS_REG;
1509:.\Generated_Source\PSoC5/UART_1.c ****                     }while((tmpStat & UART_1_TX_STS_FIFO_EMPTY) != 0u);
1510:.\Generated_Source\PSoC5/UART_1.c ****                 }
1511:.\Generated_Source\PSoC5/UART_1.c **** 
1512:.\Generated_Source\PSoC5/UART_1.c ****                 if( (retMode == UART_1_WAIT_FOR_COMPLETE_REINIT) ||
1513:.\Generated_Source\PSoC5/UART_1.c ****                     (retMode == UART_1_SEND_WAIT_REINIT) )
1514:.\Generated_Source\PSoC5/UART_1.c ****                 {
1515:.\Generated_Source\PSoC5/UART_1.c ****                     do /*wait until transmit complete*/
1516:.\Generated_Source\PSoC5/UART_1.c ****                     {
1517:.\Generated_Source\PSoC5/UART_1.c ****                         tmpStat = UART_1_TXSTATUS_REG;
1518:.\Generated_Source\PSoC5/UART_1.c ****                     }while(((uint8)~tmpStat & UART_1_TX_STS_COMPLETE) != 0u);
1519:.\Generated_Source\PSoC5/UART_1.c ****                 }
1520:.\Generated_Source\PSoC5/UART_1.c **** 
1521:.\Generated_Source\PSoC5/UART_1.c ****                 if( (retMode == UART_1_WAIT_FOR_COMPLETE_REINIT) ||
1522:.\Generated_Source\PSoC5/UART_1.c ****                     (retMode == UART_1_REINIT) ||
1523:.\Generated_Source\PSoC5/UART_1.c ****                     (retMode == UART_1_SEND_WAIT_REINIT) )
1524:.\Generated_Source\PSoC5/UART_1.c ****                 {
ARM GAS  C:\Users\dskyNote\AppData\Local\Temp\ccZwia2j.s 			page 60


1525:.\Generated_Source\PSoC5/UART_1.c ****                     UART_1_WriteControlRegister(UART_1_ReadControlRegister() &
1526:.\Generated_Source\PSoC5/UART_1.c ****                                                   (uint8)~UART_1_CTRL_HD_SEND_BREAK);
1527:.\Generated_Source\PSoC5/UART_1.c ****                 }
1528:.\Generated_Source\PSoC5/UART_1.c **** 
1529:.\Generated_Source\PSoC5/UART_1.c ****             #else /* UART_1_HD_ENABLED Full Duplex mode */
1530:.\Generated_Source\PSoC5/UART_1.c **** 
1531:.\Generated_Source\PSoC5/UART_1.c ****                 static uint8 tx_period;
1532:.\Generated_Source\PSoC5/UART_1.c **** 
1533:.\Generated_Source\PSoC5/UART_1.c ****                 if( (retMode == UART_1_SEND_BREAK) ||
 1831              		.loc 1 1533 0
 1832 0012 FB79     		ldrb	r3, [r7, #7]	@ zero_extendqisi2
 1833 0014 002B     		cmp	r3, #0
 1834 0016 02D0     		beq	.L126
 1835              		.loc 1 1533 0 is_stmt 0 discriminator 1
 1836 0018 FB79     		ldrb	r3, [r7, #7]	@ zero_extendqisi2
 1837 001a 032B     		cmp	r3, #3
 1838 001c 12D1     		bne	.L127
 1839              	.L126:
1534:.\Generated_Source\PSoC5/UART_1.c ****                     (retMode == UART_1_SEND_WAIT_REINIT) )
1535:.\Generated_Source\PSoC5/UART_1.c ****                 {
1536:.\Generated_Source\PSoC5/UART_1.c ****                     /* CTRL_HD_SEND_BREAK - skip to send parity bit at Break signal in Full Duplex 
1537:.\Generated_Source\PSoC5/UART_1.c ****                     #if( (UART_1_PARITY_TYPE != UART_1__B_UART__NONE_REVB) || \
1538:.\Generated_Source\PSoC5/UART_1.c ****                                         (UART_1_PARITY_TYPE_SW != 0u) )
1539:.\Generated_Source\PSoC5/UART_1.c ****                         UART_1_WriteControlRegister(UART_1_ReadControlRegister() |
1540:.\Generated_Source\PSoC5/UART_1.c ****                                                               UART_1_CTRL_HD_SEND_BREAK);
1541:.\Generated_Source\PSoC5/UART_1.c ****                     #endif /* End UART_1_PARITY_TYPE != UART_1__B_UART__NONE_REVB  */
1542:.\Generated_Source\PSoC5/UART_1.c **** 
1543:.\Generated_Source\PSoC5/UART_1.c ****                     #if(UART_1_TXCLKGEN_DP)
1544:.\Generated_Source\PSoC5/UART_1.c ****                         tx_period = UART_1_TXBITCLKTX_COMPLETE_REG;
 1840              		.loc 1 1544 0 is_stmt 1
 1841 001e 1B4B     		ldr	r3, .L132+4
 1842 0020 1B78     		ldrb	r3, [r3]
 1843 0022 DAB2     		uxtb	r2, r3
 1844 0024 1A4B     		ldr	r3, .L132+8
 1845 0026 1A70     		strb	r2, [r3]
1545:.\Generated_Source\PSoC5/UART_1.c ****                         UART_1_TXBITCLKTX_COMPLETE_REG = UART_1_TXBITCTR_BREAKBITS;
 1846              		.loc 1 1545 0
 1847 0028 184B     		ldr	r3, .L132+4
 1848 002a 6722     		movs	r2, #103
 1849 002c 1A70     		strb	r2, [r3]
1546:.\Generated_Source\PSoC5/UART_1.c ****                     #else
1547:.\Generated_Source\PSoC5/UART_1.c ****                         tx_period = UART_1_TXBITCTR_PERIOD_REG;
1548:.\Generated_Source\PSoC5/UART_1.c ****                         UART_1_TXBITCTR_PERIOD_REG = UART_1_TXBITCTR_BREAKBITS8X;
1549:.\Generated_Source\PSoC5/UART_1.c ****                     #endif /* End UART_1_TXCLKGEN_DP */
1550:.\Generated_Source\PSoC5/UART_1.c **** 
1551:.\Generated_Source\PSoC5/UART_1.c ****                     /* Send zeros*/
1552:.\Generated_Source\PSoC5/UART_1.c ****                     UART_1_TXDATA_REG = 0u;
 1850              		.loc 1 1552 0
 1851 002e 194B     		ldr	r3, .L132+12
 1852 0030 0022     		movs	r2, #0
 1853 0032 1A70     		strb	r2, [r3]
 1854              	.L128:
1553:.\Generated_Source\PSoC5/UART_1.c **** 
1554:.\Generated_Source\PSoC5/UART_1.c ****                     do /* wait until transmit starts */
1555:.\Generated_Source\PSoC5/UART_1.c ****                     {
1556:.\Generated_Source\PSoC5/UART_1.c ****                         tmpStat = UART_1_TXSTATUS_REG;
 1855              		.loc 1 1556 0 discriminator 1
ARM GAS  C:\Users\dskyNote\AppData\Local\Temp\ccZwia2j.s 			page 61


 1856 0034 184B     		ldr	r3, .L132+16
 1857 0036 1B78     		ldrb	r3, [r3]
 1858 0038 FB73     		strb	r3, [r7, #15]
1557:.\Generated_Source\PSoC5/UART_1.c ****                     }while((tmpStat & UART_1_TX_STS_FIFO_EMPTY) != 0u);
 1859              		.loc 1 1557 0 discriminator 1
 1860 003a FB7B     		ldrb	r3, [r7, #15]	@ zero_extendqisi2
 1861 003c 03F00203 		and	r3, r3, #2
 1862 0040 002B     		cmp	r3, #0
 1863 0042 F7D1     		bne	.L128
 1864              	.L127:
1558:.\Generated_Source\PSoC5/UART_1.c ****                 }
1559:.\Generated_Source\PSoC5/UART_1.c **** 
1560:.\Generated_Source\PSoC5/UART_1.c ****                 if( (retMode == UART_1_WAIT_FOR_COMPLETE_REINIT) ||
 1865              		.loc 1 1560 0
 1866 0044 FB79     		ldrb	r3, [r7, #7]	@ zero_extendqisi2
 1867 0046 012B     		cmp	r3, #1
 1868 0048 02D0     		beq	.L129
 1869              		.loc 1 1560 0 is_stmt 0 discriminator 1
 1870 004a FB79     		ldrb	r3, [r7, #7]	@ zero_extendqisi2
 1871 004c 032B     		cmp	r3, #3
 1872 004e 09D1     		bne	.L130
 1873              	.L129:
1561:.\Generated_Source\PSoC5/UART_1.c ****                     (retMode == UART_1_SEND_WAIT_REINIT) )
1562:.\Generated_Source\PSoC5/UART_1.c ****                 {
1563:.\Generated_Source\PSoC5/UART_1.c ****                     do /*wait until transmit complete*/
1564:.\Generated_Source\PSoC5/UART_1.c ****                     {
1565:.\Generated_Source\PSoC5/UART_1.c ****                         tmpStat = UART_1_TXSTATUS_REG;
 1874              		.loc 1 1565 0 is_stmt 1 discriminator 1
 1875 0050 114B     		ldr	r3, .L132+16
 1876 0052 1B78     		ldrb	r3, [r3]
 1877 0054 FB73     		strb	r3, [r7, #15]
1566:.\Generated_Source\PSoC5/UART_1.c ****                     }while(((uint8)~tmpStat & UART_1_TX_STS_COMPLETE) != 0u);
 1878              		.loc 1 1566 0 discriminator 1
 1879 0056 FB7B     		ldrb	r3, [r7, #15]
 1880 0058 DB43     		mvns	r3, r3
 1881 005a DBB2     		uxtb	r3, r3
 1882 005c 03F00103 		and	r3, r3, #1
 1883 0060 002B     		cmp	r3, #0
 1884 0062 F5D1     		bne	.L129
 1885              	.L130:
1567:.\Generated_Source\PSoC5/UART_1.c ****                 }
1568:.\Generated_Source\PSoC5/UART_1.c **** 
1569:.\Generated_Source\PSoC5/UART_1.c ****                 if( (retMode == UART_1_WAIT_FOR_COMPLETE_REINIT) ||
 1886              		.loc 1 1569 0
 1887 0064 FB79     		ldrb	r3, [r7, #7]	@ zero_extendqisi2
 1888 0066 012B     		cmp	r3, #1
 1889 0068 05D0     		beq	.L131
 1890              		.loc 1 1569 0 is_stmt 0 discriminator 1
 1891 006a FB79     		ldrb	r3, [r7, #7]	@ zero_extendqisi2
 1892 006c 022B     		cmp	r3, #2
 1893 006e 02D0     		beq	.L131
1570:.\Generated_Source\PSoC5/UART_1.c ****                     (retMode == UART_1_REINIT) ||
 1894              		.loc 1 1570 0 is_stmt 1
 1895 0070 FB79     		ldrb	r3, [r7, #7]	@ zero_extendqisi2
 1896 0072 032B     		cmp	r3, #3
 1897 0074 03D1     		bne	.L124
 1898              	.L131:
ARM GAS  C:\Users\dskyNote\AppData\Local\Temp\ccZwia2j.s 			page 62


1571:.\Generated_Source\PSoC5/UART_1.c ****                     (retMode == UART_1_SEND_WAIT_REINIT) )
1572:.\Generated_Source\PSoC5/UART_1.c ****                 {
1573:.\Generated_Source\PSoC5/UART_1.c **** 
1574:.\Generated_Source\PSoC5/UART_1.c ****                     #if(UART_1_TXCLKGEN_DP)
1575:.\Generated_Source\PSoC5/UART_1.c ****                         UART_1_TXBITCLKTX_COMPLETE_REG = tx_period;
 1899              		.loc 1 1575 0
 1900 0076 054B     		ldr	r3, .L132+4
 1901 0078 054A     		ldr	r2, .L132+8
 1902 007a 1278     		ldrb	r2, [r2]	@ zero_extendqisi2
 1903 007c 1A70     		strb	r2, [r3]
 1904              	.L124:
 1905              	.LBE2:
1576:.\Generated_Source\PSoC5/UART_1.c ****                     #else
1577:.\Generated_Source\PSoC5/UART_1.c ****                         UART_1_TXBITCTR_PERIOD_REG = tx_period;
1578:.\Generated_Source\PSoC5/UART_1.c ****                     #endif /* End UART_1_TXCLKGEN_DP */
1579:.\Generated_Source\PSoC5/UART_1.c **** 
1580:.\Generated_Source\PSoC5/UART_1.c ****                     #if( (UART_1_PARITY_TYPE != UART_1__B_UART__NONE_REVB) || \
1581:.\Generated_Source\PSoC5/UART_1.c ****                          (UART_1_PARITY_TYPE_SW != 0u) )
1582:.\Generated_Source\PSoC5/UART_1.c ****                         UART_1_WriteControlRegister(UART_1_ReadControlRegister() &
1583:.\Generated_Source\PSoC5/UART_1.c ****                                                       (uint8)~UART_1_CTRL_HD_SEND_BREAK);
1584:.\Generated_Source\PSoC5/UART_1.c ****                     #endif /* End UART_1_PARITY_TYPE != NONE */
1585:.\Generated_Source\PSoC5/UART_1.c ****                 }
1586:.\Generated_Source\PSoC5/UART_1.c ****             #endif    /* End UART_1_HD_ENABLED */
1587:.\Generated_Source\PSoC5/UART_1.c ****         }
1588:.\Generated_Source\PSoC5/UART_1.c ****     }
 1906              		.loc 1 1588 0
 1907 007e 1437     		adds	r7, r7, #20
 1908 0080 BD46     		mov	sp, r7
 1909              		@ sp needed
 1910 0082 5DF8047B 		ldr	r7, [sp], #4
 1911 0086 7047     		bx	lr
 1912              	.L133:
 1913              		.align	2
 1914              	.L132:
 1915 0088 00000000 		.word	UART_1_initVar
 1916 008c 30640040 		.word	1073767472
 1917 0090 07000000 		.word	tx_period.4994
 1918 0094 41640040 		.word	1073767489
 1919 0098 61640040 		.word	1073767521
 1920              		.cfi_endproc
 1921              	.LFE29:
 1922              		.size	UART_1_SendBreak, .-UART_1_SendBreak
 1923              		.section	.text.UART_1_SetTxAddressMode,"ax",%progbits
 1924              		.align	2
 1925              		.global	UART_1_SetTxAddressMode
 1926              		.thumb
 1927              		.thumb_func
 1928              		.type	UART_1_SetTxAddressMode, %function
 1929              	UART_1_SetTxAddressMode:
 1930              	.LFB30:
1589:.\Generated_Source\PSoC5/UART_1.c **** 
1590:.\Generated_Source\PSoC5/UART_1.c **** 
1591:.\Generated_Source\PSoC5/UART_1.c ****     /*******************************************************************************
1592:.\Generated_Source\PSoC5/UART_1.c ****     * Function Name: UART_1_SetTxAddressMode
1593:.\Generated_Source\PSoC5/UART_1.c ****     ********************************************************************************
1594:.\Generated_Source\PSoC5/UART_1.c ****     *
1595:.\Generated_Source\PSoC5/UART_1.c ****     * Summary:
ARM GAS  C:\Users\dskyNote\AppData\Local\Temp\ccZwia2j.s 			page 63


1596:.\Generated_Source\PSoC5/UART_1.c ****     *  Set the transmit addressing mode
1597:.\Generated_Source\PSoC5/UART_1.c ****     *
1598:.\Generated_Source\PSoC5/UART_1.c ****     * Parameters:
1599:.\Generated_Source\PSoC5/UART_1.c ****     *  addressMode: 0 -> Space
1600:.\Generated_Source\PSoC5/UART_1.c ****     *               1 -> Mark
1601:.\Generated_Source\PSoC5/UART_1.c ****     *
1602:.\Generated_Source\PSoC5/UART_1.c ****     * Return:
1603:.\Generated_Source\PSoC5/UART_1.c ****     *  None.
1604:.\Generated_Source\PSoC5/UART_1.c ****     *
1605:.\Generated_Source\PSoC5/UART_1.c ****     *******************************************************************************/
1606:.\Generated_Source\PSoC5/UART_1.c ****     void UART_1_SetTxAddressMode(uint8 addressMode) 
1607:.\Generated_Source\PSoC5/UART_1.c ****     {
 1931              		.loc 1 1607 0
 1932              		.cfi_startproc
 1933              		@ args = 0, pretend = 0, frame = 8
 1934              		@ frame_needed = 1, uses_anonymous_args = 0
 1935              		@ link register save eliminated.
 1936 0000 80B4     		push	{r7}
 1937              		.cfi_def_cfa_offset 4
 1938              		.cfi_offset 7, -4
 1939 0002 83B0     		sub	sp, sp, #12
 1940              		.cfi_def_cfa_offset 16
 1941 0004 00AF     		add	r7, sp, #0
 1942              		.cfi_def_cfa_register 7
 1943 0006 0346     		mov	r3, r0
 1944 0008 FB71     		strb	r3, [r7, #7]
1608:.\Generated_Source\PSoC5/UART_1.c ****         /* Mark/Space sending enable*/
1609:.\Generated_Source\PSoC5/UART_1.c ****         if(addressMode != 0u)
1610:.\Generated_Source\PSoC5/UART_1.c ****         {
1611:.\Generated_Source\PSoC5/UART_1.c ****             #if( UART_1_CONTROL_REG_REMOVED == 0u )
1612:.\Generated_Source\PSoC5/UART_1.c ****                 UART_1_WriteControlRegister(UART_1_ReadControlRegister() |
1613:.\Generated_Source\PSoC5/UART_1.c ****                                                       UART_1_CTRL_MARK);
1614:.\Generated_Source\PSoC5/UART_1.c ****             #endif /* End UART_1_CONTROL_REG_REMOVED == 0u */
1615:.\Generated_Source\PSoC5/UART_1.c ****         }
1616:.\Generated_Source\PSoC5/UART_1.c ****         else
1617:.\Generated_Source\PSoC5/UART_1.c ****         {
1618:.\Generated_Source\PSoC5/UART_1.c ****             #if( UART_1_CONTROL_REG_REMOVED == 0u )
1619:.\Generated_Source\PSoC5/UART_1.c ****                 UART_1_WriteControlRegister(UART_1_ReadControlRegister() &
1620:.\Generated_Source\PSoC5/UART_1.c ****                                                     (uint8)~UART_1_CTRL_MARK);
1621:.\Generated_Source\PSoC5/UART_1.c ****             #endif /* End UART_1_CONTROL_REG_REMOVED == 0u */
1622:.\Generated_Source\PSoC5/UART_1.c ****         }
1623:.\Generated_Source\PSoC5/UART_1.c ****     }
 1945              		.loc 1 1623 0
 1946 000a 0C37     		adds	r7, r7, #12
 1947 000c BD46     		mov	sp, r7
 1948              		@ sp needed
 1949 000e 5DF8047B 		ldr	r7, [sp], #4
 1950 0012 7047     		bx	lr
 1951              		.cfi_endproc
 1952              	.LFE30:
 1953              		.size	UART_1_SetTxAddressMode, .-UART_1_SetTxAddressMode
 1954              		.bss
 1955              	tx_period.4994:
 1956 0007 00       		.space	1
 1957              		.text
 1958              	.Letext0:
 1959              		.file 2 ".\\Generated_Source\\PSoC5\\cytypes.h"
ARM GAS  C:\Users\dskyNote\AppData\Local\Temp\ccZwia2j.s 			page 64


 1960              		.section	.debug_info,"",%progbits
 1961              	.Ldebug_info0:
 1962 0000 5A060000 		.4byte	0x65a
 1963 0004 0400     		.2byte	0x4
 1964 0006 00000000 		.4byte	.Ldebug_abbrev0
 1965 000a 04       		.byte	0x4
 1966 000b 01       		.uleb128 0x1
 1967 000c E7020000 		.4byte	.LASF79
 1968 0010 01       		.byte	0x1
 1969 0011 24010000 		.4byte	.LASF80
 1970 0015 AB040000 		.4byte	.LASF81
 1971 0019 00000000 		.4byte	.Ldebug_ranges0+0
 1972 001d 00000000 		.4byte	0
 1973 0021 00000000 		.4byte	.Ldebug_line0
 1974 0025 02       		.uleb128 0x2
 1975 0026 01       		.byte	0x1
 1976 0027 06       		.byte	0x6
 1977 0028 DA000000 		.4byte	.LASF0
 1978 002c 02       		.uleb128 0x2
 1979 002d 01       		.byte	0x1
 1980 002e 08       		.byte	0x8
 1981 002f E9030000 		.4byte	.LASF1
 1982 0033 02       		.uleb128 0x2
 1983 0034 02       		.byte	0x2
 1984 0035 05       		.byte	0x5
 1985 0036 F7030000 		.4byte	.LASF2
 1986 003a 02       		.uleb128 0x2
 1987 003b 02       		.byte	0x2
 1988 003c 07       		.byte	0x7
 1989 003d E8010000 		.4byte	.LASF3
 1990 0041 02       		.uleb128 0x2
 1991 0042 04       		.byte	0x4
 1992 0043 05       		.byte	0x5
 1993 0044 F5000000 		.4byte	.LASF4
 1994 0048 02       		.uleb128 0x2
 1995 0049 04       		.byte	0x4
 1996 004a 07       		.byte	0x7
 1997 004b C0010000 		.4byte	.LASF5
 1998 004f 02       		.uleb128 0x2
 1999 0050 08       		.byte	0x8
 2000 0051 05       		.byte	0x5
 2001 0052 CC000000 		.4byte	.LASF6
 2002 0056 02       		.uleb128 0x2
 2003 0057 08       		.byte	0x8
 2004 0058 07       		.byte	0x7
 2005 0059 86000000 		.4byte	.LASF7
 2006 005d 03       		.uleb128 0x3
 2007 005e 04       		.byte	0x4
 2008 005f 05       		.byte	0x5
 2009 0060 696E7400 		.ascii	"int\000"
 2010 0064 02       		.uleb128 0x2
 2011 0065 04       		.byte	0x4
 2012 0066 07       		.byte	0x7
 2013 0067 8B010000 		.4byte	.LASF8
 2014 006b 04       		.uleb128 0x4
 2015 006c 0B010000 		.4byte	.LASF9
 2016 0070 02       		.byte	0x2
ARM GAS  C:\Users\dskyNote\AppData\Local\Temp\ccZwia2j.s 			page 65


 2017 0071 5B       		.byte	0x5b
 2018 0072 2C000000 		.4byte	0x2c
 2019 0076 04       		.uleb128 0x4
 2020 0077 00000000 		.4byte	.LASF10
 2021 007b 02       		.byte	0x2
 2022 007c 5C       		.byte	0x5c
 2023 007d 3A000000 		.4byte	0x3a
 2024 0081 04       		.uleb128 0x4
 2025 0082 46010000 		.4byte	.LASF11
 2026 0086 02       		.byte	0x2
 2027 0087 5D       		.byte	0x5d
 2028 0088 48000000 		.4byte	0x48
 2029 008c 02       		.uleb128 0x2
 2030 008d 04       		.byte	0x4
 2031 008e 04       		.byte	0x4
 2032 008f A0030000 		.4byte	.LASF12
 2033 0093 02       		.uleb128 0x2
 2034 0094 08       		.byte	0x8
 2035 0095 04       		.byte	0x4
 2036 0096 11010000 		.4byte	.LASF13
 2037 009a 04       		.uleb128 0x4
 2038 009b A5040000 		.4byte	.LASF14
 2039 009f 02       		.byte	0x2
 2040 00a0 6C       		.byte	0x6c
 2041 00a1 A5000000 		.4byte	0xa5
 2042 00a5 02       		.uleb128 0x2
 2043 00a6 01       		.byte	0x1
 2044 00a7 08       		.byte	0x8
 2045 00a8 8B040000 		.4byte	.LASF15
 2046 00ac 04       		.uleb128 0x4
 2047 00ad E4030000 		.4byte	.LASF16
 2048 00b1 02       		.byte	0x2
 2049 00b2 F0       		.byte	0xf0
 2050 00b3 B7000000 		.4byte	0xb7
 2051 00b7 05       		.uleb128 0x5
 2052 00b8 6B000000 		.4byte	0x6b
 2053 00bc 04       		.uleb128 0x4
 2054 00bd 79020000 		.4byte	.LASF17
 2055 00c1 02       		.byte	0x2
 2056 00c2 F2       		.byte	0xf2
 2057 00c3 C7000000 		.4byte	0xc7
 2058 00c7 05       		.uleb128 0x5
 2059 00c8 81000000 		.4byte	0x81
 2060 00cc 02       		.uleb128 0x2
 2061 00cd 04       		.byte	0x4
 2062 00ce 07       		.byte	0x7
 2063 00cf 9A020000 		.4byte	.LASF18
 2064 00d3 06       		.uleb128 0x6
 2065 00d4 FE000000 		.4byte	.LASF19
 2066 00d8 01       		.byte	0x1
 2067 00d9 49       		.byte	0x49
 2068 00da 00000000 		.4byte	.LFB0
 2069 00de 20000000 		.4byte	.LFE0-.LFB0
 2070 00e2 01       		.uleb128 0x1
 2071 00e3 9C       		.byte	0x9c
 2072 00e4 06       		.uleb128 0x6
 2073 00e5 D2040000 		.4byte	.LASF20
ARM GAS  C:\Users\dskyNote\AppData\Local\Temp\ccZwia2j.s 			page 66


 2074 00e9 01       		.byte	0x1
 2075 00ea 65       		.byte	0x65
 2076 00eb 00000000 		.4byte	.LFB1
 2077 00ef 60000000 		.4byte	.LFE1-.LFB1
 2078 00f3 01       		.uleb128 0x1
 2079 00f4 9C       		.byte	0x9c
 2080 00f5 07       		.uleb128 0x7
 2081 00f6 FB010000 		.4byte	.LASF21
 2082 00fa 01       		.byte	0x1
 2083 00fb AE       		.byte	0xae
 2084 00fc 00000000 		.4byte	.LFB2
 2085 0100 6C000000 		.4byte	.LFE2-.LFB2
 2086 0104 01       		.uleb128 0x1
 2087 0105 9C       		.byte	0x9c
 2088 0106 19010000 		.4byte	0x119
 2089 010a 08       		.uleb128 0x8
 2090 010b DE040000 		.4byte	.LASF23
 2091 010f 01       		.byte	0x1
 2092 0110 B0       		.byte	0xb0
 2093 0111 6B000000 		.4byte	0x6b
 2094 0115 02       		.uleb128 0x2
 2095 0116 91       		.byte	0x91
 2096 0117 77       		.sleb128 -9
 2097 0118 00       		.byte	0
 2098 0119 07       		.uleb128 0x7
 2099 011a 5E020000 		.4byte	.LASF22
 2100 011e 01       		.byte	0x1
 2101 011f E3       		.byte	0xe3
 2102 0120 00000000 		.4byte	.LFB3
 2103 0124 64000000 		.4byte	.LFE3-.LFB3
 2104 0128 01       		.uleb128 0x1
 2105 0129 9C       		.byte	0x9c
 2106 012a 3D010000 		.4byte	0x13d
 2107 012e 08       		.uleb128 0x8
 2108 012f DE040000 		.4byte	.LASF23
 2109 0133 01       		.byte	0x1
 2110 0134 E5       		.byte	0xe5
 2111 0135 6B000000 		.4byte	0x6b
 2112 0139 02       		.uleb128 0x2
 2113 013a 91       		.byte	0x91
 2114 013b 77       		.sleb128 -9
 2115 013c 00       		.byte	0
 2116 013d 09       		.uleb128 0x9
 2117 013e 43020000 		.4byte	.LASF38
 2118 0142 01       		.byte	0x1
 2119 0143 1901     		.2byte	0x119
 2120 0145 6B000000 		.4byte	0x6b
 2121 0149 00000000 		.4byte	.LFB4
 2122 014d 10000000 		.4byte	.LFE4-.LFB4
 2123 0151 01       		.uleb128 0x1
 2124 0152 9C       		.byte	0x9c
 2125 0153 0A       		.uleb128 0xa
 2126 0154 15040000 		.4byte	.LASF24
 2127 0158 01       		.byte	0x1
 2128 0159 3101     		.2byte	0x131
 2129 015b 00000000 		.4byte	.LFB5
 2130 015f 14000000 		.4byte	.LFE5-.LFB5
ARM GAS  C:\Users\dskyNote\AppData\Local\Temp\ccZwia2j.s 			page 67


 2131 0163 01       		.uleb128 0x1
 2132 0164 9C       		.byte	0x9c
 2133 0165 79010000 		.4byte	0x179
 2134 0169 0B       		.uleb128 0xb
 2135 016a 4D010000 		.4byte	.LASF28
 2136 016e 01       		.byte	0x1
 2137 016f 3101     		.2byte	0x131
 2138 0171 6B000000 		.4byte	0x6b
 2139 0175 02       		.uleb128 0x2
 2140 0176 91       		.byte	0x91
 2141 0177 77       		.sleb128 -9
 2142 0178 00       		.byte	0
 2143 0179 0C       		.uleb128 0xc
 2144 017a 31040000 		.4byte	.LASF25
 2145 017e 01       		.byte	0x1
 2146 017f 5001     		.2byte	0x150
 2147 0181 00000000 		.4byte	.LFB6
 2148 0185 18000000 		.4byte	.LFE6-.LFB6
 2149 0189 01       		.uleb128 0x1
 2150 018a 9C       		.byte	0x9c
 2151 018b 0C       		.uleb128 0xc
 2152 018c 72000000 		.4byte	.LASF26
 2153 0190 01       		.byte	0x1
 2154 0191 6701     		.2byte	0x167
 2155 0193 00000000 		.4byte	.LFB7
 2156 0197 18000000 		.4byte	.LFE7-.LFB7
 2157 019b 01       		.uleb128 0x1
 2158 019c 9C       		.byte	0x9c
 2159 019d 0A       		.uleb128 0xa
 2160 019e 55010000 		.4byte	.LASF27
 2161 01a2 01       		.byte	0x1
 2162 01a3 8101     		.2byte	0x181
 2163 01a5 00000000 		.4byte	.LFB8
 2164 01a9 20000000 		.4byte	.LFE8-.LFB8
 2165 01ad 01       		.uleb128 0x1
 2166 01ae 9C       		.byte	0x9c
 2167 01af C3010000 		.4byte	0x1c3
 2168 01b3 0B       		.uleb128 0xb
 2169 01b4 3C020000 		.4byte	.LASF29
 2170 01b8 01       		.byte	0x1
 2171 01b9 8101     		.2byte	0x181
 2172 01bb 6B000000 		.4byte	0x6b
 2173 01bf 02       		.uleb128 0x2
 2174 01c0 91       		.byte	0x91
 2175 01c1 77       		.sleb128 -9
 2176 01c2 00       		.byte	0
 2177 01c3 0D       		.uleb128 0xd
 2178 01c4 60000000 		.4byte	.LASF33
 2179 01c8 01       		.byte	0x1
 2180 01c9 A201     		.2byte	0x1a2
 2181 01cb 6B000000 		.4byte	0x6b
 2182 01cf 00000000 		.4byte	.LFB9
 2183 01d3 98000000 		.4byte	.LFE9-.LFB9
 2184 01d7 01       		.uleb128 0x1
 2185 01d8 9C       		.byte	0x9c
 2186 01d9 0B020000 		.4byte	0x20b
 2187 01dd 0E       		.uleb128 0xe
ARM GAS  C:\Users\dskyNote\AppData\Local\Temp\ccZwia2j.s 			page 68


 2188 01de 74040000 		.4byte	.LASF30
 2189 01e2 01       		.byte	0x1
 2190 01e3 A401     		.2byte	0x1a4
 2191 01e5 6B000000 		.4byte	0x6b
 2192 01e9 02       		.uleb128 0x2
 2193 01ea 91       		.byte	0x91
 2194 01eb 77       		.sleb128 -9
 2195 01ec 0E       		.uleb128 0xe
 2196 01ed 09020000 		.4byte	.LASF31
 2197 01f1 01       		.byte	0x1
 2198 01f2 A701     		.2byte	0x1a7
 2199 01f4 6B000000 		.4byte	0x6b
 2200 01f8 02       		.uleb128 0x2
 2201 01f9 91       		.byte	0x91
 2202 01fa 76       		.sleb128 -10
 2203 01fb 0E       		.uleb128 0xe
 2204 01fc 1C000000 		.4byte	.LASF32
 2205 0200 01       		.byte	0x1
 2206 0201 A801     		.2byte	0x1a8
 2207 0203 6B000000 		.4byte	0x6b
 2208 0207 02       		.uleb128 0x2
 2209 0208 91       		.byte	0x91
 2210 0209 75       		.sleb128 -11
 2211 020a 00       		.byte	0
 2212 020b 0F       		.uleb128 0xf
 2213 020c 1B050000 		.4byte	.LASF34
 2214 0210 01       		.byte	0x1
 2215 0211 FD01     		.2byte	0x1fd
 2216 0213 6B000000 		.4byte	0x6b
 2217 0217 00000000 		.4byte	.LFB10
 2218 021b 40000000 		.4byte	.LFE10-.LFB10
 2219 021f 01       		.uleb128 0x1
 2220 0220 9C       		.byte	0x9c
 2221 0221 35020000 		.4byte	0x235
 2222 0225 0E       		.uleb128 0xe
 2223 0226 EF040000 		.4byte	.LASF35
 2224 022a 01       		.byte	0x1
 2225 022b FF01     		.2byte	0x1ff
 2226 022d 6B000000 		.4byte	0x6b
 2227 0231 02       		.uleb128 0x2
 2228 0232 91       		.byte	0x91
 2229 0233 77       		.sleb128 -9
 2230 0234 00       		.byte	0
 2231 0235 0D       		.uleb128 0xd
 2232 0236 2F050000 		.4byte	.LASF36
 2233 023a 01       		.byte	0x1
 2234 023b 2C02     		.2byte	0x22c
 2235 023d 6B000000 		.4byte	0x6b
 2236 0241 00000000 		.4byte	.LFB11
 2237 0245 C0000000 		.4byte	.LFE11-.LFB11
 2238 0249 01       		.uleb128 0x1
 2239 024a 9C       		.byte	0x9c
 2240 024b 8C020000 		.4byte	0x28c
 2241 024f 0E       		.uleb128 0xe
 2242 0250 74040000 		.4byte	.LASF30
 2243 0254 01       		.byte	0x1
 2244 0255 2E02     		.2byte	0x22e
ARM GAS  C:\Users\dskyNote\AppData\Local\Temp\ccZwia2j.s 			page 69


 2245 0257 6B000000 		.4byte	0x6b
 2246 025b 02       		.uleb128 0x2
 2247 025c 91       		.byte	0x91
 2248 025d 77       		.sleb128 -9
 2249 025e 0E       		.uleb128 0xe
 2250 025f 7D030000 		.4byte	.LASF37
 2251 0263 01       		.byte	0x1
 2252 0264 2F02     		.2byte	0x22f
 2253 0266 6B000000 		.4byte	0x6b
 2254 026a 02       		.uleb128 0x2
 2255 026b 91       		.byte	0x91
 2256 026c 74       		.sleb128 -12
 2257 026d 0E       		.uleb128 0xe
 2258 026e 09020000 		.4byte	.LASF31
 2259 0272 01       		.byte	0x1
 2260 0273 3202     		.2byte	0x232
 2261 0275 6B000000 		.4byte	0x6b
 2262 0279 02       		.uleb128 0x2
 2263 027a 91       		.byte	0x91
 2264 027b 76       		.sleb128 -10
 2265 027c 0E       		.uleb128 0xe
 2266 027d 1C000000 		.4byte	.LASF32
 2267 0281 01       		.byte	0x1
 2268 0282 3302     		.2byte	0x233
 2269 0284 6B000000 		.4byte	0x6b
 2270 0288 02       		.uleb128 0x2
 2271 0289 91       		.byte	0x91
 2272 028a 75       		.sleb128 -11
 2273 028b 00       		.byte	0
 2274 028c 10       		.uleb128 0x10
 2275 028d 6A020000 		.4byte	.LASF39
 2276 0291 01       		.byte	0x1
 2277 0292 9202     		.2byte	0x292
 2278 0294 76000000 		.4byte	0x76
 2279 0298 00000000 		.4byte	.LFB12
 2280 029c 20000000 		.4byte	.LFE12-.LFB12
 2281 02a0 01       		.uleb128 0x1
 2282 02a1 9C       		.byte	0x9c
 2283 02a2 0D       		.uleb128 0xd
 2284 02a3 5D040000 		.4byte	.LASF40
 2285 02a7 01       		.byte	0x1
 2286 02a8 B302     		.2byte	0x2b3
 2287 02aa 6B000000 		.4byte	0x6b
 2288 02ae 00000000 		.4byte	.LFB13
 2289 02b2 80000000 		.4byte	.LFE13-.LFB13
 2290 02b6 01       		.uleb128 0x1
 2291 02b7 9C       		.byte	0x9c
 2292 02b8 CC020000 		.4byte	0x2cc
 2293 02bc 0E       		.uleb128 0xe
 2294 02bd E3010000 		.4byte	.LASF41
 2295 02c1 01       		.byte	0x1
 2296 02c2 B602     		.2byte	0x2b6
 2297 02c4 6B000000 		.4byte	0x6b
 2298 02c8 02       		.uleb128 0x2
 2299 02c9 91       		.byte	0x91
 2300 02ca 77       		.sleb128 -9
 2301 02cb 00       		.byte	0
ARM GAS  C:\Users\dskyNote\AppData\Local\Temp\ccZwia2j.s 			page 70


 2302 02cc 11       		.uleb128 0x11
 2303 02cd B7030000 		.4byte	.LASF42
 2304 02d1 01       		.byte	0x1
 2305 02d2 0303     		.2byte	0x303
 2306 02d4 00000000 		.4byte	.LFB14
 2307 02d8 70000000 		.4byte	.LFE14-.LFB14
 2308 02dc 01       		.uleb128 0x1
 2309 02dd 9C       		.byte	0x9c
 2310 02de F2020000 		.4byte	0x2f2
 2311 02e2 0E       		.uleb128 0xe
 2312 02e3 DE040000 		.4byte	.LASF23
 2313 02e7 01       		.byte	0x1
 2314 02e8 0503     		.2byte	0x305
 2315 02ea 6B000000 		.4byte	0x6b
 2316 02ee 02       		.uleb128 0x2
 2317 02ef 91       		.byte	0x91
 2318 02f0 77       		.sleb128 -9
 2319 02f1 00       		.byte	0
 2320 02f2 0A       		.uleb128 0xa
 2321 02f3 CC030000 		.4byte	.LASF43
 2322 02f7 01       		.byte	0x1
 2323 02f8 4003     		.2byte	0x340
 2324 02fa 00000000 		.4byte	.LFB15
 2325 02fe 14000000 		.4byte	.LFE15-.LFB15
 2326 0302 01       		.uleb128 0x1
 2327 0303 9C       		.byte	0x9c
 2328 0304 18030000 		.4byte	0x318
 2329 0308 0B       		.uleb128 0xb
 2330 0309 18010000 		.4byte	.LASF44
 2331 030d 01       		.byte	0x1
 2332 030e 4003     		.2byte	0x340
 2333 0310 6B000000 		.4byte	0x6b
 2334 0314 02       		.uleb128 0x2
 2335 0315 91       		.byte	0x91
 2336 0316 77       		.sleb128 -9
 2337 0317 00       		.byte	0
 2338 0318 0A       		.uleb128 0xa
 2339 0319 A3020000 		.4byte	.LASF45
 2340 031d 01       		.byte	0x1
 2341 031e 6503     		.2byte	0x365
 2342 0320 00000000 		.4byte	.LFB16
 2343 0324 20000000 		.4byte	.LFE16-.LFB16
 2344 0328 01       		.uleb128 0x1
 2345 0329 9C       		.byte	0x9c
 2346 032a 3E030000 		.4byte	0x33e
 2347 032e 0B       		.uleb128 0xb
 2348 032f DF020000 		.4byte	.LASF46
 2349 0333 01       		.byte	0x1
 2350 0334 6503     		.2byte	0x365
 2351 0336 6B000000 		.4byte	0x6b
 2352 033a 02       		.uleb128 0x2
 2353 033b 91       		.byte	0x91
 2354 033c 77       		.sleb128 -9
 2355 033d 00       		.byte	0
 2356 033e 0A       		.uleb128 0xa
 2357 033f B8020000 		.4byte	.LASF47
 2358 0343 01       		.byte	0x1
ARM GAS  C:\Users\dskyNote\AppData\Local\Temp\ccZwia2j.s 			page 71


 2359 0344 7A03     		.2byte	0x37a
 2360 0346 00000000 		.4byte	.LFB17
 2361 034a 20000000 		.4byte	.LFE17-.LFB17
 2362 034e 01       		.uleb128 0x1
 2363 034f 9C       		.byte	0x9c
 2364 0350 64030000 		.4byte	0x364
 2365 0354 0B       		.uleb128 0xb
 2366 0355 DF020000 		.4byte	.LASF46
 2367 0359 01       		.byte	0x1
 2368 035a 7A03     		.2byte	0x37a
 2369 035c 6B000000 		.4byte	0x6b
 2370 0360 02       		.uleb128 0x2
 2371 0361 91       		.byte	0x91
 2372 0362 77       		.sleb128 -9
 2373 0363 00       		.byte	0
 2374 0364 0C       		.uleb128 0xc
 2375 0365 3E050000 		.4byte	.LASF48
 2376 0369 01       		.byte	0x1
 2377 036a 9703     		.2byte	0x397
 2378 036c 00000000 		.4byte	.LFB18
 2379 0370 18000000 		.4byte	.LFE18-.LFB18
 2380 0374 01       		.uleb128 0x1
 2381 0375 9C       		.byte	0x9c
 2382 0376 0C       		.uleb128 0xc
 2383 0377 AC010000 		.4byte	.LASF49
 2384 037b 01       		.byte	0x1
 2385 037c AE03     		.2byte	0x3ae
 2386 037e 00000000 		.4byte	.LFB19
 2387 0382 18000000 		.4byte	.LFE19-.LFB19
 2388 0386 01       		.uleb128 0x1
 2389 0387 9C       		.byte	0x9c
 2390 0388 0A       		.uleb128 0xa
 2391 0389 86030000 		.4byte	.LASF50
 2392 038d 01       		.byte	0x1
 2393 038e C803     		.2byte	0x3c8
 2394 0390 00000000 		.4byte	.LFB20
 2395 0394 20000000 		.4byte	.LFE20-.LFB20
 2396 0398 01       		.uleb128 0x1
 2397 0399 9C       		.byte	0x9c
 2398 039a AE030000 		.4byte	0x3ae
 2399 039e 0B       		.uleb128 0xb
 2400 039f 3C020000 		.4byte	.LASF29
 2401 03a3 01       		.byte	0x1
 2402 03a4 C803     		.2byte	0x3c8
 2403 03a6 6B000000 		.4byte	0x6b
 2404 03aa 02       		.uleb128 0x2
 2405 03ab 91       		.byte	0x91
 2406 03ac 77       		.sleb128 -9
 2407 03ad 00       		.byte	0
 2408 03ae 11       		.uleb128 0x11
 2409 03af 7F020000 		.4byte	.LASF51
 2410 03b3 01       		.byte	0x1
 2411 03b4 EA03     		.2byte	0x3ea
 2412 03b6 00000000 		.4byte	.LFB21
 2413 03ba 84000000 		.4byte	.LFE21-.LFB21
 2414 03be 01       		.uleb128 0x1
 2415 03bf 9C       		.byte	0x9c
ARM GAS  C:\Users\dskyNote\AppData\Local\Temp\ccZwia2j.s 			page 72


 2416 03c0 D4030000 		.4byte	0x3d4
 2417 03c4 0B       		.uleb128 0xb
 2418 03c5 2E000000 		.4byte	.LASF52
 2419 03c9 01       		.byte	0x1
 2420 03ca EA03     		.2byte	0x3ea
 2421 03cc 6B000000 		.4byte	0x6b
 2422 03d0 02       		.uleb128 0x2
 2423 03d1 91       		.byte	0x91
 2424 03d2 77       		.sleb128 -9
 2425 03d3 00       		.byte	0
 2426 03d4 09       		.uleb128 0x9
 2427 03d5 98010000 		.4byte	.LASF53
 2428 03d9 01       		.byte	0x1
 2429 03da 2E04     		.2byte	0x42e
 2430 03dc 6B000000 		.4byte	0x6b
 2431 03e0 00000000 		.4byte	.LFB22
 2432 03e4 18000000 		.4byte	.LFE22-.LFB22
 2433 03e8 01       		.uleb128 0x1
 2434 03e9 9C       		.byte	0x9c
 2435 03ea 0A       		.uleb128 0xa
 2436 03eb 39000000 		.4byte	.LASF54
 2437 03ef 01       		.byte	0x1
 2438 03f0 5204     		.2byte	0x452
 2439 03f2 00000000 		.4byte	.LFB23
 2440 03f6 A0000000 		.4byte	.LFE23-.LFB23
 2441 03fa 01       		.uleb128 0x1
 2442 03fb 9C       		.byte	0x9c
 2443 03fc 2E040000 		.4byte	0x42e
 2444 0400 0B       		.uleb128 0xb
 2445 0401 2E000000 		.4byte	.LASF52
 2446 0405 01       		.byte	0x1
 2447 0406 5204     		.2byte	0x452
 2448 0408 6B000000 		.4byte	0x6b
 2449 040c 02       		.uleb128 0x2
 2450 040d 91       		.byte	0x91
 2451 040e 6F       		.sleb128 -17
 2452 040f 0E       		.uleb128 0xe
 2453 0410 CD020000 		.4byte	.LASF55
 2454 0414 01       		.byte	0x1
 2455 0415 5904     		.2byte	0x459
 2456 0417 6B000000 		.4byte	0x6b
 2457 041b 02       		.uleb128 0x2
 2458 041c 91       		.byte	0x91
 2459 041d 77       		.sleb128 -9
 2460 041e 0E       		.uleb128 0xe
 2461 041f D2010000 		.4byte	.LASF56
 2462 0423 01       		.byte	0x1
 2463 0424 5A04     		.2byte	0x45a
 2464 0426 6B000000 		.4byte	0x6b
 2465 042a 02       		.uleb128 0x2
 2466 042b 91       		.byte	0x91
 2467 042c 76       		.sleb128 -10
 2468 042d 00       		.byte	0
 2469 042e 11       		.uleb128 0x11
 2470 042f A6030000 		.4byte	.LASF57
 2471 0433 01       		.byte	0x1
 2472 0434 AE04     		.2byte	0x4ae
ARM GAS  C:\Users\dskyNote\AppData\Local\Temp\ccZwia2j.s 			page 73


 2473 0436 00000000 		.4byte	.LFB24
 2474 043a 40000000 		.4byte	.LFE24-.LFB24
 2475 043e 01       		.uleb128 0x1
 2476 043f 9C       		.byte	0x9c
 2477 0440 63040000 		.4byte	0x463
 2478 0444 0B       		.uleb128 0xb
 2479 0445 48000000 		.4byte	.LASF58
 2480 0449 01       		.byte	0x1
 2481 044a AE04     		.2byte	0x4ae
 2482 044c 63040000 		.4byte	0x463
 2483 0450 02       		.uleb128 0x2
 2484 0451 91       		.byte	0x91
 2485 0452 6C       		.sleb128 -20
 2486 0453 0E       		.uleb128 0xe
 2487 0454 51050000 		.4byte	.LASF59
 2488 0458 01       		.byte	0x1
 2489 0459 B004     		.2byte	0x4b0
 2490 045b 76000000 		.4byte	0x76
 2491 045f 02       		.uleb128 0x2
 2492 0460 91       		.byte	0x91
 2493 0461 76       		.sleb128 -10
 2494 0462 00       		.byte	0
 2495 0463 12       		.uleb128 0x12
 2496 0464 04       		.byte	0x4
 2497 0465 69040000 		.4byte	0x469
 2498 0469 13       		.uleb128 0x13
 2499 046a 9A000000 		.4byte	0x9a
 2500 046e 11       		.uleb128 0x11
 2501 046f 5B050000 		.4byte	.LASF60
 2502 0473 01       		.byte	0x1
 2503 0474 D404     		.2byte	0x4d4
 2504 0476 00000000 		.4byte	.LFB25
 2505 047a 40000000 		.4byte	.LFE25-.LFB25
 2506 047e 01       		.uleb128 0x1
 2507 047f 9C       		.byte	0x9c
 2508 0480 B2040000 		.4byte	0x4b2
 2509 0484 0B       		.uleb128 0xb
 2510 0485 48000000 		.4byte	.LASF58
 2511 0489 01       		.byte	0x1
 2512 048a D404     		.2byte	0x4d4
 2513 048c B2040000 		.4byte	0x4b2
 2514 0490 02       		.uleb128 0x2
 2515 0491 91       		.byte	0x91
 2516 0492 6C       		.sleb128 -20
 2517 0493 0B       		.uleb128 0xb
 2518 0494 53040000 		.4byte	.LASF61
 2519 0498 01       		.byte	0x1
 2520 0499 D404     		.2byte	0x4d4
 2521 049b 6B000000 		.4byte	0x6b
 2522 049f 02       		.uleb128 0x2
 2523 04a0 91       		.byte	0x91
 2524 04a1 6B       		.sleb128 -21
 2525 04a2 0E       		.uleb128 0xe
 2526 04a3 51050000 		.4byte	.LASF59
 2527 04a7 01       		.byte	0x1
 2528 04a8 D704     		.2byte	0x4d7
 2529 04aa 6B000000 		.4byte	0x6b
ARM GAS  C:\Users\dskyNote\AppData\Local\Temp\ccZwia2j.s 			page 74


 2530 04ae 02       		.uleb128 0x2
 2531 04af 91       		.byte	0x91
 2532 04b0 77       		.sleb128 -9
 2533 04b1 00       		.byte	0
 2534 04b2 12       		.uleb128 0x12
 2535 04b3 04       		.byte	0x4
 2536 04b4 B8040000 		.4byte	0x4b8
 2537 04b8 13       		.uleb128 0x13
 2538 04b9 6B000000 		.4byte	0x6b
 2539 04bd 11       		.uleb128 0x11
 2540 04be E6000000 		.4byte	.LASF62
 2541 04c2 01       		.byte	0x1
 2542 04c3 F904     		.2byte	0x4f9
 2543 04c5 00000000 		.4byte	.LFB26
 2544 04c9 30000000 		.4byte	.LFE26-.LFB26
 2545 04cd 01       		.uleb128 0x1
 2546 04ce 9C       		.byte	0x9c
 2547 04cf E3040000 		.4byte	0x4e3
 2548 04d3 0B       		.uleb128 0xb
 2549 04d4 2E000000 		.4byte	.LASF52
 2550 04d8 01       		.byte	0x1
 2551 04d9 F904     		.2byte	0x4f9
 2552 04db 6B000000 		.4byte	0x6b
 2553 04df 02       		.uleb128 0x2
 2554 04e0 91       		.byte	0x91
 2555 04e1 77       		.sleb128 -9
 2556 04e2 00       		.byte	0
 2557 04e3 0D       		.uleb128 0xd
 2558 04e4 B5000000 		.4byte	.LASF63
 2559 04e8 01       		.byte	0x1
 2560 04e9 1E05     		.2byte	0x51e
 2561 04eb 6B000000 		.4byte	0x6b
 2562 04ef 00000000 		.4byte	.LFB27
 2563 04f3 64000000 		.4byte	.LFE27-.LFB27
 2564 04f7 01       		.uleb128 0x1
 2565 04f8 9C       		.byte	0x9c
 2566 04f9 0D050000 		.4byte	0x50d
 2567 04fd 0E       		.uleb128 0xe
 2568 04fe E3010000 		.4byte	.LASF41
 2569 0502 01       		.byte	0x1
 2570 0503 2105     		.2byte	0x521
 2571 0505 6B000000 		.4byte	0x6b
 2572 0509 02       		.uleb128 0x2
 2573 050a 91       		.byte	0x91
 2574 050b 77       		.sleb128 -9
 2575 050c 00       		.byte	0
 2576 050d 11       		.uleb128 0x11
 2577 050e 07000000 		.4byte	.LASF64
 2578 0512 01       		.byte	0x1
 2579 0513 7405     		.2byte	0x574
 2580 0515 00000000 		.4byte	.LFB28
 2581 0519 5C000000 		.4byte	.LFE28-.LFB28
 2582 051d 01       		.uleb128 0x1
 2583 051e 9C       		.byte	0x9c
 2584 051f 33050000 		.4byte	0x533
 2585 0523 0E       		.uleb128 0xe
 2586 0524 DE040000 		.4byte	.LASF23
ARM GAS  C:\Users\dskyNote\AppData\Local\Temp\ccZwia2j.s 			page 75


 2587 0528 01       		.byte	0x1
 2588 0529 7605     		.2byte	0x576
 2589 052b 6B000000 		.4byte	0x6b
 2590 052f 02       		.uleb128 0x2
 2591 0530 91       		.byte	0x91
 2592 0531 77       		.sleb128 -9
 2593 0532 00       		.byte	0
 2594 0533 0A       		.uleb128 0xa
 2595 0534 4F000000 		.4byte	.LASF65
 2596 0538 01       		.byte	0x1
 2597 0539 CD05     		.2byte	0x5cd
 2598 053b 00000000 		.4byte	.LFB29
 2599 053f 9C000000 		.4byte	.LFE29-.LFB29
 2600 0543 01       		.uleb128 0x1
 2601 0544 9C       		.byte	0x9c
 2602 0545 84050000 		.4byte	0x584
 2603 0549 0B       		.uleb128 0xb
 2604 054a 83010000 		.4byte	.LASF66
 2605 054e 01       		.byte	0x1
 2606 054f CD05     		.2byte	0x5cd
 2607 0551 6B000000 		.4byte	0x6b
 2608 0555 02       		.uleb128 0x2
 2609 0556 91       		.byte	0x91
 2610 0557 6F       		.sleb128 -17
 2611 0558 14       		.uleb128 0x14
 2612 0559 12000000 		.4byte	.LBB2
 2613 055d 6C000000 		.4byte	.LBE2-.LBB2
 2614 0561 0E       		.uleb128 0xe
 2615 0562 92020000 		.4byte	.LASF67
 2616 0566 01       		.byte	0x1
 2617 0567 D505     		.2byte	0x5d5
 2618 0569 6B000000 		.4byte	0x6b
 2619 056d 02       		.uleb128 0x2
 2620 056e 91       		.byte	0x91
 2621 056f 77       		.sleb128 -9
 2622 0570 0E       		.uleb128 0xe
 2623 0571 32020000 		.4byte	.LASF68
 2624 0575 01       		.byte	0x1
 2625 0576 FB05     		.2byte	0x5fb
 2626 0578 6B000000 		.4byte	0x6b
 2627 057c 05       		.uleb128 0x5
 2628 057d 03       		.byte	0x3
 2629 057e 07000000 		.4byte	tx_period.4994
 2630 0582 00       		.byte	0
 2631 0583 00       		.byte	0
 2632 0584 0A       		.uleb128 0xa
 2633 0585 1A020000 		.4byte	.LASF69
 2634 0589 01       		.byte	0x1
 2635 058a 4606     		.2byte	0x646
 2636 058c 00000000 		.4byte	.LFB30
 2637 0590 14000000 		.4byte	.LFE30-.LFB30
 2638 0594 01       		.uleb128 0x1
 2639 0595 9C       		.byte	0x9c
 2640 0596 AA050000 		.4byte	0x5aa
 2641 059a 0B       		.uleb128 0xb
 2642 059b 18010000 		.4byte	.LASF44
 2643 059f 01       		.byte	0x1
ARM GAS  C:\Users\dskyNote\AppData\Local\Temp\ccZwia2j.s 			page 76


 2644 05a0 4606     		.2byte	0x646
 2645 05a2 6B000000 		.4byte	0x6b
 2646 05a6 02       		.uleb128 0x2
 2647 05a7 91       		.byte	0x91
 2648 05a8 77       		.sleb128 -9
 2649 05a9 00       		.byte	0
 2650 05aa 15       		.uleb128 0x15
 2651 05ab 44040000 		.4byte	.LASF70
 2652 05af 01       		.byte	0x1
 2653 05b0 1C       		.byte	0x1c
 2654 05b1 6B000000 		.4byte	0x6b
 2655 05b5 05       		.uleb128 0x5
 2656 05b6 03       		.byte	0x3
 2657 05b7 00000000 		.4byte	UART_1_initVar
 2658 05bb 16       		.uleb128 0x16
 2659 05bc 6B000000 		.4byte	0x6b
 2660 05c0 CB050000 		.4byte	0x5cb
 2661 05c4 17       		.uleb128 0x17
 2662 05c5 CC000000 		.4byte	0xcc
 2663 05c9 7F       		.byte	0x7f
 2664 05ca 00       		.byte	0
 2665 05cb 15       		.uleb128 0x15
 2666 05cc F6040000 		.4byte	.LASF71
 2667 05d0 01       		.byte	0x1
 2668 05d1 1E       		.byte	0x1e
 2669 05d2 DC050000 		.4byte	0x5dc
 2670 05d6 05       		.uleb128 0x5
 2671 05d7 03       		.byte	0x3
 2672 05d8 00000000 		.4byte	UART_1_txBuffer
 2673 05dc 05       		.uleb128 0x5
 2674 05dd BB050000 		.4byte	0x5bb
 2675 05e1 15       		.uleb128 0x15
 2676 05e2 01040000 		.4byte	.LASF72
 2677 05e6 01       		.byte	0x1
 2678 05e7 1F       		.byte	0x1f
 2679 05e8 B7000000 		.4byte	0xb7
 2680 05ec 05       		.uleb128 0x5
 2681 05ed 03       		.byte	0x3
 2682 05ee 00000000 		.4byte	UART_1_txBufferRead
 2683 05f2 15       		.uleb128 0x15
 2684 05f3 90040000 		.4byte	.LASF73
 2685 05f7 01       		.byte	0x1
 2686 05f8 20       		.byte	0x20
 2687 05f9 6B000000 		.4byte	0x6b
 2688 05fd 05       		.uleb128 0x5
 2689 05fe 03       		.byte	0x3
 2690 05ff 00000000 		.4byte	UART_1_txBufferWrite
 2691 0603 15       		.uleb128 0x15
 2692 0604 7B040000 		.4byte	.LASF74
 2693 0608 01       		.byte	0x1
 2694 0609 24       		.byte	0x24
 2695 060a 14060000 		.4byte	0x614
 2696 060e 05       		.uleb128 0x5
 2697 060f 03       		.byte	0x3
 2698 0610 00000000 		.4byte	UART_1_rxBuffer
 2699 0614 05       		.uleb128 0x5
 2700 0615 BB050000 		.4byte	0x5bb
ARM GAS  C:\Users\dskyNote\AppData\Local\Temp\ccZwia2j.s 			page 77


 2701 0619 15       		.uleb128 0x15
 2702 061a 6F010000 		.4byte	.LASF75
 2703 061e 01       		.byte	0x1
 2704 061f 25       		.byte	0x25
 2705 0620 B7000000 		.4byte	0xb7
 2706 0624 05       		.uleb128 0x5
 2707 0625 03       		.byte	0x3
 2708 0626 00000000 		.4byte	UART_1_rxBufferRead
 2709 062a 15       		.uleb128 0x15
 2710 062b 06050000 		.4byte	.LASF76
 2711 062f 01       		.byte	0x1
 2712 0630 26       		.byte	0x26
 2713 0631 B7000000 		.4byte	0xb7
 2714 0635 05       		.uleb128 0x5
 2715 0636 03       		.byte	0x3
 2716 0637 00000000 		.4byte	UART_1_rxBufferWrite
 2717 063b 15       		.uleb128 0x15
 2718 063c 63030000 		.4byte	.LASF77
 2719 0640 01       		.byte	0x1
 2720 0641 27       		.byte	0x27
 2721 0642 B7000000 		.4byte	0xb7
 2722 0646 05       		.uleb128 0x5
 2723 0647 03       		.byte	0x3
 2724 0648 00000000 		.4byte	UART_1_rxBufferLoopDetect
 2725 064c 15       		.uleb128 0x15
 2726 064d 9D000000 		.4byte	.LASF78
 2727 0651 01       		.byte	0x1
 2728 0652 28       		.byte	0x28
 2729 0653 B7000000 		.4byte	0xb7
 2730 0657 05       		.uleb128 0x5
 2731 0658 03       		.byte	0x3
 2732 0659 00000000 		.4byte	UART_1_rxBufferOverflow
 2733 065d 00       		.byte	0
 2734              		.section	.debug_abbrev,"",%progbits
 2735              	.Ldebug_abbrev0:
 2736 0000 01       		.uleb128 0x1
 2737 0001 11       		.uleb128 0x11
 2738 0002 01       		.byte	0x1
 2739 0003 25       		.uleb128 0x25
 2740 0004 0E       		.uleb128 0xe
 2741 0005 13       		.uleb128 0x13
 2742 0006 0B       		.uleb128 0xb
 2743 0007 03       		.uleb128 0x3
 2744 0008 0E       		.uleb128 0xe
 2745 0009 1B       		.uleb128 0x1b
 2746 000a 0E       		.uleb128 0xe
 2747 000b 55       		.uleb128 0x55
 2748 000c 17       		.uleb128 0x17
 2749 000d 11       		.uleb128 0x11
 2750 000e 01       		.uleb128 0x1
 2751 000f 10       		.uleb128 0x10
 2752 0010 17       		.uleb128 0x17
 2753 0011 00       		.byte	0
 2754 0012 00       		.byte	0
 2755 0013 02       		.uleb128 0x2
 2756 0014 24       		.uleb128 0x24
 2757 0015 00       		.byte	0
ARM GAS  C:\Users\dskyNote\AppData\Local\Temp\ccZwia2j.s 			page 78


 2758 0016 0B       		.uleb128 0xb
 2759 0017 0B       		.uleb128 0xb
 2760 0018 3E       		.uleb128 0x3e
 2761 0019 0B       		.uleb128 0xb
 2762 001a 03       		.uleb128 0x3
 2763 001b 0E       		.uleb128 0xe
 2764 001c 00       		.byte	0
 2765 001d 00       		.byte	0
 2766 001e 03       		.uleb128 0x3
 2767 001f 24       		.uleb128 0x24
 2768 0020 00       		.byte	0
 2769 0021 0B       		.uleb128 0xb
 2770 0022 0B       		.uleb128 0xb
 2771 0023 3E       		.uleb128 0x3e
 2772 0024 0B       		.uleb128 0xb
 2773 0025 03       		.uleb128 0x3
 2774 0026 08       		.uleb128 0x8
 2775 0027 00       		.byte	0
 2776 0028 00       		.byte	0
 2777 0029 04       		.uleb128 0x4
 2778 002a 16       		.uleb128 0x16
 2779 002b 00       		.byte	0
 2780 002c 03       		.uleb128 0x3
 2781 002d 0E       		.uleb128 0xe
 2782 002e 3A       		.uleb128 0x3a
 2783 002f 0B       		.uleb128 0xb
 2784 0030 3B       		.uleb128 0x3b
 2785 0031 0B       		.uleb128 0xb
 2786 0032 49       		.uleb128 0x49
 2787 0033 13       		.uleb128 0x13
 2788 0034 00       		.byte	0
 2789 0035 00       		.byte	0
 2790 0036 05       		.uleb128 0x5
 2791 0037 35       		.uleb128 0x35
 2792 0038 00       		.byte	0
 2793 0039 49       		.uleb128 0x49
 2794 003a 13       		.uleb128 0x13
 2795 003b 00       		.byte	0
 2796 003c 00       		.byte	0
 2797 003d 06       		.uleb128 0x6
 2798 003e 2E       		.uleb128 0x2e
 2799 003f 00       		.byte	0
 2800 0040 3F       		.uleb128 0x3f
 2801 0041 19       		.uleb128 0x19
 2802 0042 03       		.uleb128 0x3
 2803 0043 0E       		.uleb128 0xe
 2804 0044 3A       		.uleb128 0x3a
 2805 0045 0B       		.uleb128 0xb
 2806 0046 3B       		.uleb128 0x3b
 2807 0047 0B       		.uleb128 0xb
 2808 0048 27       		.uleb128 0x27
 2809 0049 19       		.uleb128 0x19
 2810 004a 11       		.uleb128 0x11
 2811 004b 01       		.uleb128 0x1
 2812 004c 12       		.uleb128 0x12
 2813 004d 06       		.uleb128 0x6
 2814 004e 40       		.uleb128 0x40
ARM GAS  C:\Users\dskyNote\AppData\Local\Temp\ccZwia2j.s 			page 79


 2815 004f 18       		.uleb128 0x18
 2816 0050 9642     		.uleb128 0x2116
 2817 0052 19       		.uleb128 0x19
 2818 0053 00       		.byte	0
 2819 0054 00       		.byte	0
 2820 0055 07       		.uleb128 0x7
 2821 0056 2E       		.uleb128 0x2e
 2822 0057 01       		.byte	0x1
 2823 0058 3F       		.uleb128 0x3f
 2824 0059 19       		.uleb128 0x19
 2825 005a 03       		.uleb128 0x3
 2826 005b 0E       		.uleb128 0xe
 2827 005c 3A       		.uleb128 0x3a
 2828 005d 0B       		.uleb128 0xb
 2829 005e 3B       		.uleb128 0x3b
 2830 005f 0B       		.uleb128 0xb
 2831 0060 27       		.uleb128 0x27
 2832 0061 19       		.uleb128 0x19
 2833 0062 11       		.uleb128 0x11
 2834 0063 01       		.uleb128 0x1
 2835 0064 12       		.uleb128 0x12
 2836 0065 06       		.uleb128 0x6
 2837 0066 40       		.uleb128 0x40
 2838 0067 18       		.uleb128 0x18
 2839 0068 9642     		.uleb128 0x2116
 2840 006a 19       		.uleb128 0x19
 2841 006b 01       		.uleb128 0x1
 2842 006c 13       		.uleb128 0x13
 2843 006d 00       		.byte	0
 2844 006e 00       		.byte	0
 2845 006f 08       		.uleb128 0x8
 2846 0070 34       		.uleb128 0x34
 2847 0071 00       		.byte	0
 2848 0072 03       		.uleb128 0x3
 2849 0073 0E       		.uleb128 0xe
 2850 0074 3A       		.uleb128 0x3a
 2851 0075 0B       		.uleb128 0xb
 2852 0076 3B       		.uleb128 0x3b
 2853 0077 0B       		.uleb128 0xb
 2854 0078 49       		.uleb128 0x49
 2855 0079 13       		.uleb128 0x13
 2856 007a 02       		.uleb128 0x2
 2857 007b 18       		.uleb128 0x18
 2858 007c 00       		.byte	0
 2859 007d 00       		.byte	0
 2860 007e 09       		.uleb128 0x9
 2861 007f 2E       		.uleb128 0x2e
 2862 0080 00       		.byte	0
 2863 0081 3F       		.uleb128 0x3f
 2864 0082 19       		.uleb128 0x19
 2865 0083 03       		.uleb128 0x3
 2866 0084 0E       		.uleb128 0xe
 2867 0085 3A       		.uleb128 0x3a
 2868 0086 0B       		.uleb128 0xb
 2869 0087 3B       		.uleb128 0x3b
 2870 0088 05       		.uleb128 0x5
 2871 0089 27       		.uleb128 0x27
ARM GAS  C:\Users\dskyNote\AppData\Local\Temp\ccZwia2j.s 			page 80


 2872 008a 19       		.uleb128 0x19
 2873 008b 49       		.uleb128 0x49
 2874 008c 13       		.uleb128 0x13
 2875 008d 11       		.uleb128 0x11
 2876 008e 01       		.uleb128 0x1
 2877 008f 12       		.uleb128 0x12
 2878 0090 06       		.uleb128 0x6
 2879 0091 40       		.uleb128 0x40
 2880 0092 18       		.uleb128 0x18
 2881 0093 9742     		.uleb128 0x2117
 2882 0095 19       		.uleb128 0x19
 2883 0096 00       		.byte	0
 2884 0097 00       		.byte	0
 2885 0098 0A       		.uleb128 0xa
 2886 0099 2E       		.uleb128 0x2e
 2887 009a 01       		.byte	0x1
 2888 009b 3F       		.uleb128 0x3f
 2889 009c 19       		.uleb128 0x19
 2890 009d 03       		.uleb128 0x3
 2891 009e 0E       		.uleb128 0xe
 2892 009f 3A       		.uleb128 0x3a
 2893 00a0 0B       		.uleb128 0xb
 2894 00a1 3B       		.uleb128 0x3b
 2895 00a2 05       		.uleb128 0x5
 2896 00a3 27       		.uleb128 0x27
 2897 00a4 19       		.uleb128 0x19
 2898 00a5 11       		.uleb128 0x11
 2899 00a6 01       		.uleb128 0x1
 2900 00a7 12       		.uleb128 0x12
 2901 00a8 06       		.uleb128 0x6
 2902 00a9 40       		.uleb128 0x40
 2903 00aa 18       		.uleb128 0x18
 2904 00ab 9742     		.uleb128 0x2117
 2905 00ad 19       		.uleb128 0x19
 2906 00ae 01       		.uleb128 0x1
 2907 00af 13       		.uleb128 0x13
 2908 00b0 00       		.byte	0
 2909 00b1 00       		.byte	0
 2910 00b2 0B       		.uleb128 0xb
 2911 00b3 05       		.uleb128 0x5
 2912 00b4 00       		.byte	0
 2913 00b5 03       		.uleb128 0x3
 2914 00b6 0E       		.uleb128 0xe
 2915 00b7 3A       		.uleb128 0x3a
 2916 00b8 0B       		.uleb128 0xb
 2917 00b9 3B       		.uleb128 0x3b
 2918 00ba 05       		.uleb128 0x5
 2919 00bb 49       		.uleb128 0x49
 2920 00bc 13       		.uleb128 0x13
 2921 00bd 02       		.uleb128 0x2
 2922 00be 18       		.uleb128 0x18
 2923 00bf 00       		.byte	0
 2924 00c0 00       		.byte	0
 2925 00c1 0C       		.uleb128 0xc
 2926 00c2 2E       		.uleb128 0x2e
 2927 00c3 00       		.byte	0
 2928 00c4 3F       		.uleb128 0x3f
ARM GAS  C:\Users\dskyNote\AppData\Local\Temp\ccZwia2j.s 			page 81


 2929 00c5 19       		.uleb128 0x19
 2930 00c6 03       		.uleb128 0x3
 2931 00c7 0E       		.uleb128 0xe
 2932 00c8 3A       		.uleb128 0x3a
 2933 00c9 0B       		.uleb128 0xb
 2934 00ca 3B       		.uleb128 0x3b
 2935 00cb 05       		.uleb128 0x5
 2936 00cc 27       		.uleb128 0x27
 2937 00cd 19       		.uleb128 0x19
 2938 00ce 11       		.uleb128 0x11
 2939 00cf 01       		.uleb128 0x1
 2940 00d0 12       		.uleb128 0x12
 2941 00d1 06       		.uleb128 0x6
 2942 00d2 40       		.uleb128 0x40
 2943 00d3 18       		.uleb128 0x18
 2944 00d4 9742     		.uleb128 0x2117
 2945 00d6 19       		.uleb128 0x19
 2946 00d7 00       		.byte	0
 2947 00d8 00       		.byte	0
 2948 00d9 0D       		.uleb128 0xd
 2949 00da 2E       		.uleb128 0x2e
 2950 00db 01       		.byte	0x1
 2951 00dc 3F       		.uleb128 0x3f
 2952 00dd 19       		.uleb128 0x19
 2953 00de 03       		.uleb128 0x3
 2954 00df 0E       		.uleb128 0xe
 2955 00e0 3A       		.uleb128 0x3a
 2956 00e1 0B       		.uleb128 0xb
 2957 00e2 3B       		.uleb128 0x3b
 2958 00e3 05       		.uleb128 0x5
 2959 00e4 27       		.uleb128 0x27
 2960 00e5 19       		.uleb128 0x19
 2961 00e6 49       		.uleb128 0x49
 2962 00e7 13       		.uleb128 0x13
 2963 00e8 11       		.uleb128 0x11
 2964 00e9 01       		.uleb128 0x1
 2965 00ea 12       		.uleb128 0x12
 2966 00eb 06       		.uleb128 0x6
 2967 00ec 40       		.uleb128 0x40
 2968 00ed 18       		.uleb128 0x18
 2969 00ee 9642     		.uleb128 0x2116
 2970 00f0 19       		.uleb128 0x19
 2971 00f1 01       		.uleb128 0x1
 2972 00f2 13       		.uleb128 0x13
 2973 00f3 00       		.byte	0
 2974 00f4 00       		.byte	0
 2975 00f5 0E       		.uleb128 0xe
 2976 00f6 34       		.uleb128 0x34
 2977 00f7 00       		.byte	0
 2978 00f8 03       		.uleb128 0x3
 2979 00f9 0E       		.uleb128 0xe
 2980 00fa 3A       		.uleb128 0x3a
 2981 00fb 0B       		.uleb128 0xb
 2982 00fc 3B       		.uleb128 0x3b
 2983 00fd 05       		.uleb128 0x5
 2984 00fe 49       		.uleb128 0x49
 2985 00ff 13       		.uleb128 0x13
ARM GAS  C:\Users\dskyNote\AppData\Local\Temp\ccZwia2j.s 			page 82


 2986 0100 02       		.uleb128 0x2
 2987 0101 18       		.uleb128 0x18
 2988 0102 00       		.byte	0
 2989 0103 00       		.byte	0
 2990 0104 0F       		.uleb128 0xf
 2991 0105 2E       		.uleb128 0x2e
 2992 0106 01       		.byte	0x1
 2993 0107 3F       		.uleb128 0x3f
 2994 0108 19       		.uleb128 0x19
 2995 0109 03       		.uleb128 0x3
 2996 010a 0E       		.uleb128 0xe
 2997 010b 3A       		.uleb128 0x3a
 2998 010c 0B       		.uleb128 0xb
 2999 010d 3B       		.uleb128 0x3b
 3000 010e 05       		.uleb128 0x5
 3001 010f 27       		.uleb128 0x27
 3002 0110 19       		.uleb128 0x19
 3003 0111 49       		.uleb128 0x49
 3004 0112 13       		.uleb128 0x13
 3005 0113 11       		.uleb128 0x11
 3006 0114 01       		.uleb128 0x1
 3007 0115 12       		.uleb128 0x12
 3008 0116 06       		.uleb128 0x6
 3009 0117 40       		.uleb128 0x40
 3010 0118 18       		.uleb128 0x18
 3011 0119 9742     		.uleb128 0x2117
 3012 011b 19       		.uleb128 0x19
 3013 011c 01       		.uleb128 0x1
 3014 011d 13       		.uleb128 0x13
 3015 011e 00       		.byte	0
 3016 011f 00       		.byte	0
 3017 0120 10       		.uleb128 0x10
 3018 0121 2E       		.uleb128 0x2e
 3019 0122 00       		.byte	0
 3020 0123 3F       		.uleb128 0x3f
 3021 0124 19       		.uleb128 0x19
 3022 0125 03       		.uleb128 0x3
 3023 0126 0E       		.uleb128 0xe
 3024 0127 3A       		.uleb128 0x3a
 3025 0128 0B       		.uleb128 0xb
 3026 0129 3B       		.uleb128 0x3b
 3027 012a 05       		.uleb128 0x5
 3028 012b 27       		.uleb128 0x27
 3029 012c 19       		.uleb128 0x19
 3030 012d 49       		.uleb128 0x49
 3031 012e 13       		.uleb128 0x13
 3032 012f 11       		.uleb128 0x11
 3033 0130 01       		.uleb128 0x1
 3034 0131 12       		.uleb128 0x12
 3035 0132 06       		.uleb128 0x6
 3036 0133 40       		.uleb128 0x40
 3037 0134 18       		.uleb128 0x18
 3038 0135 9642     		.uleb128 0x2116
 3039 0137 19       		.uleb128 0x19
 3040 0138 00       		.byte	0
 3041 0139 00       		.byte	0
 3042 013a 11       		.uleb128 0x11
ARM GAS  C:\Users\dskyNote\AppData\Local\Temp\ccZwia2j.s 			page 83


 3043 013b 2E       		.uleb128 0x2e
 3044 013c 01       		.byte	0x1
 3045 013d 3F       		.uleb128 0x3f
 3046 013e 19       		.uleb128 0x19
 3047 013f 03       		.uleb128 0x3
 3048 0140 0E       		.uleb128 0xe
 3049 0141 3A       		.uleb128 0x3a
 3050 0142 0B       		.uleb128 0xb
 3051 0143 3B       		.uleb128 0x3b
 3052 0144 05       		.uleb128 0x5
 3053 0145 27       		.uleb128 0x27
 3054 0146 19       		.uleb128 0x19
 3055 0147 11       		.uleb128 0x11
 3056 0148 01       		.uleb128 0x1
 3057 0149 12       		.uleb128 0x12
 3058 014a 06       		.uleb128 0x6
 3059 014b 40       		.uleb128 0x40
 3060 014c 18       		.uleb128 0x18
 3061 014d 9642     		.uleb128 0x2116
 3062 014f 19       		.uleb128 0x19
 3063 0150 01       		.uleb128 0x1
 3064 0151 13       		.uleb128 0x13
 3065 0152 00       		.byte	0
 3066 0153 00       		.byte	0
 3067 0154 12       		.uleb128 0x12
 3068 0155 0F       		.uleb128 0xf
 3069 0156 00       		.byte	0
 3070 0157 0B       		.uleb128 0xb
 3071 0158 0B       		.uleb128 0xb
 3072 0159 49       		.uleb128 0x49
 3073 015a 13       		.uleb128 0x13
 3074 015b 00       		.byte	0
 3075 015c 00       		.byte	0
 3076 015d 13       		.uleb128 0x13
 3077 015e 26       		.uleb128 0x26
 3078 015f 00       		.byte	0
 3079 0160 49       		.uleb128 0x49
 3080 0161 13       		.uleb128 0x13
 3081 0162 00       		.byte	0
 3082 0163 00       		.byte	0
 3083 0164 14       		.uleb128 0x14
 3084 0165 0B       		.uleb128 0xb
 3085 0166 01       		.byte	0x1
 3086 0167 11       		.uleb128 0x11
 3087 0168 01       		.uleb128 0x1
 3088 0169 12       		.uleb128 0x12
 3089 016a 06       		.uleb128 0x6
 3090 016b 00       		.byte	0
 3091 016c 00       		.byte	0
 3092 016d 15       		.uleb128 0x15
 3093 016e 34       		.uleb128 0x34
 3094 016f 00       		.byte	0
 3095 0170 03       		.uleb128 0x3
 3096 0171 0E       		.uleb128 0xe
 3097 0172 3A       		.uleb128 0x3a
 3098 0173 0B       		.uleb128 0xb
 3099 0174 3B       		.uleb128 0x3b
ARM GAS  C:\Users\dskyNote\AppData\Local\Temp\ccZwia2j.s 			page 84


 3100 0175 0B       		.uleb128 0xb
 3101 0176 49       		.uleb128 0x49
 3102 0177 13       		.uleb128 0x13
 3103 0178 3F       		.uleb128 0x3f
 3104 0179 19       		.uleb128 0x19
 3105 017a 02       		.uleb128 0x2
 3106 017b 18       		.uleb128 0x18
 3107 017c 00       		.byte	0
 3108 017d 00       		.byte	0
 3109 017e 16       		.uleb128 0x16
 3110 017f 01       		.uleb128 0x1
 3111 0180 01       		.byte	0x1
 3112 0181 49       		.uleb128 0x49
 3113 0182 13       		.uleb128 0x13
 3114 0183 01       		.uleb128 0x1
 3115 0184 13       		.uleb128 0x13
 3116 0185 00       		.byte	0
 3117 0186 00       		.byte	0
 3118 0187 17       		.uleb128 0x17
 3119 0188 21       		.uleb128 0x21
 3120 0189 00       		.byte	0
 3121 018a 49       		.uleb128 0x49
 3122 018b 13       		.uleb128 0x13
 3123 018c 2F       		.uleb128 0x2f
 3124 018d 0B       		.uleb128 0xb
 3125 018e 00       		.byte	0
 3126 018f 00       		.byte	0
 3127 0190 00       		.byte	0
 3128              		.section	.debug_aranges,"",%progbits
 3129 0000 0C010000 		.4byte	0x10c
 3130 0004 0200     		.2byte	0x2
 3131 0006 00000000 		.4byte	.Ldebug_info0
 3132 000a 04       		.byte	0x4
 3133 000b 00       		.byte	0
 3134 000c 0000     		.2byte	0
 3135 000e 0000     		.2byte	0
 3136 0010 00000000 		.4byte	.LFB0
 3137 0014 20000000 		.4byte	.LFE0-.LFB0
 3138 0018 00000000 		.4byte	.LFB1
 3139 001c 60000000 		.4byte	.LFE1-.LFB1
 3140 0020 00000000 		.4byte	.LFB2
 3141 0024 6C000000 		.4byte	.LFE2-.LFB2
 3142 0028 00000000 		.4byte	.LFB3
 3143 002c 64000000 		.4byte	.LFE3-.LFB3
 3144 0030 00000000 		.4byte	.LFB4
 3145 0034 10000000 		.4byte	.LFE4-.LFB4
 3146 0038 00000000 		.4byte	.LFB5
 3147 003c 14000000 		.4byte	.LFE5-.LFB5
 3148 0040 00000000 		.4byte	.LFB6
 3149 0044 18000000 		.4byte	.LFE6-.LFB6
 3150 0048 00000000 		.4byte	.LFB7
 3151 004c 18000000 		.4byte	.LFE7-.LFB7
 3152 0050 00000000 		.4byte	.LFB8
 3153 0054 20000000 		.4byte	.LFE8-.LFB8
 3154 0058 00000000 		.4byte	.LFB9
 3155 005c 98000000 		.4byte	.LFE9-.LFB9
 3156 0060 00000000 		.4byte	.LFB10
ARM GAS  C:\Users\dskyNote\AppData\Local\Temp\ccZwia2j.s 			page 85


 3157 0064 40000000 		.4byte	.LFE10-.LFB10
 3158 0068 00000000 		.4byte	.LFB11
 3159 006c C0000000 		.4byte	.LFE11-.LFB11
 3160 0070 00000000 		.4byte	.LFB12
 3161 0074 20000000 		.4byte	.LFE12-.LFB12
 3162 0078 00000000 		.4byte	.LFB13
 3163 007c 80000000 		.4byte	.LFE13-.LFB13
 3164 0080 00000000 		.4byte	.LFB14
 3165 0084 70000000 		.4byte	.LFE14-.LFB14
 3166 0088 00000000 		.4byte	.LFB15
 3167 008c 14000000 		.4byte	.LFE15-.LFB15
 3168 0090 00000000 		.4byte	.LFB16
 3169 0094 20000000 		.4byte	.LFE16-.LFB16
 3170 0098 00000000 		.4byte	.LFB17
 3171 009c 20000000 		.4byte	.LFE17-.LFB17
 3172 00a0 00000000 		.4byte	.LFB18
 3173 00a4 18000000 		.4byte	.LFE18-.LFB18
 3174 00a8 00000000 		.4byte	.LFB19
 3175 00ac 18000000 		.4byte	.LFE19-.LFB19
 3176 00b0 00000000 		.4byte	.LFB20
 3177 00b4 20000000 		.4byte	.LFE20-.LFB20
 3178 00b8 00000000 		.4byte	.LFB21
 3179 00bc 84000000 		.4byte	.LFE21-.LFB21
 3180 00c0 00000000 		.4byte	.LFB22
 3181 00c4 18000000 		.4byte	.LFE22-.LFB22
 3182 00c8 00000000 		.4byte	.LFB23
 3183 00cc A0000000 		.4byte	.LFE23-.LFB23
 3184 00d0 00000000 		.4byte	.LFB24
 3185 00d4 40000000 		.4byte	.LFE24-.LFB24
 3186 00d8 00000000 		.4byte	.LFB25
 3187 00dc 40000000 		.4byte	.LFE25-.LFB25
 3188 00e0 00000000 		.4byte	.LFB26
 3189 00e4 30000000 		.4byte	.LFE26-.LFB26
 3190 00e8 00000000 		.4byte	.LFB27
 3191 00ec 64000000 		.4byte	.LFE27-.LFB27
 3192 00f0 00000000 		.4byte	.LFB28
 3193 00f4 5C000000 		.4byte	.LFE28-.LFB28
 3194 00f8 00000000 		.4byte	.LFB29
 3195 00fc 9C000000 		.4byte	.LFE29-.LFB29
 3196 0100 00000000 		.4byte	.LFB30
 3197 0104 14000000 		.4byte	.LFE30-.LFB30
 3198 0108 00000000 		.4byte	0
 3199 010c 00000000 		.4byte	0
 3200              		.section	.debug_ranges,"",%progbits
 3201              	.Ldebug_ranges0:
 3202 0000 00000000 		.4byte	.LFB0
 3203 0004 20000000 		.4byte	.LFE0
 3204 0008 00000000 		.4byte	.LFB1
 3205 000c 60000000 		.4byte	.LFE1
 3206 0010 00000000 		.4byte	.LFB2
 3207 0014 6C000000 		.4byte	.LFE2
 3208 0018 00000000 		.4byte	.LFB3
 3209 001c 64000000 		.4byte	.LFE3
 3210 0020 00000000 		.4byte	.LFB4
 3211 0024 10000000 		.4byte	.LFE4
 3212 0028 00000000 		.4byte	.LFB5
 3213 002c 14000000 		.4byte	.LFE5
ARM GAS  C:\Users\dskyNote\AppData\Local\Temp\ccZwia2j.s 			page 86


 3214 0030 00000000 		.4byte	.LFB6
 3215 0034 18000000 		.4byte	.LFE6
 3216 0038 00000000 		.4byte	.LFB7
 3217 003c 18000000 		.4byte	.LFE7
 3218 0040 00000000 		.4byte	.LFB8
 3219 0044 20000000 		.4byte	.LFE8
 3220 0048 00000000 		.4byte	.LFB9
 3221 004c 98000000 		.4byte	.LFE9
 3222 0050 00000000 		.4byte	.LFB10
 3223 0054 40000000 		.4byte	.LFE10
 3224 0058 00000000 		.4byte	.LFB11
 3225 005c C0000000 		.4byte	.LFE11
 3226 0060 00000000 		.4byte	.LFB12
 3227 0064 20000000 		.4byte	.LFE12
 3228 0068 00000000 		.4byte	.LFB13
 3229 006c 80000000 		.4byte	.LFE13
 3230 0070 00000000 		.4byte	.LFB14
 3231 0074 70000000 		.4byte	.LFE14
 3232 0078 00000000 		.4byte	.LFB15
 3233 007c 14000000 		.4byte	.LFE15
 3234 0080 00000000 		.4byte	.LFB16
 3235 0084 20000000 		.4byte	.LFE16
 3236 0088 00000000 		.4byte	.LFB17
 3237 008c 20000000 		.4byte	.LFE17
 3238 0090 00000000 		.4byte	.LFB18
 3239 0094 18000000 		.4byte	.LFE18
 3240 0098 00000000 		.4byte	.LFB19
 3241 009c 18000000 		.4byte	.LFE19
 3242 00a0 00000000 		.4byte	.LFB20
 3243 00a4 20000000 		.4byte	.LFE20
 3244 00a8 00000000 		.4byte	.LFB21
 3245 00ac 84000000 		.4byte	.LFE21
 3246 00b0 00000000 		.4byte	.LFB22
 3247 00b4 18000000 		.4byte	.LFE22
 3248 00b8 00000000 		.4byte	.LFB23
 3249 00bc A0000000 		.4byte	.LFE23
 3250 00c0 00000000 		.4byte	.LFB24
 3251 00c4 40000000 		.4byte	.LFE24
 3252 00c8 00000000 		.4byte	.LFB25
 3253 00cc 40000000 		.4byte	.LFE25
 3254 00d0 00000000 		.4byte	.LFB26
 3255 00d4 30000000 		.4byte	.LFE26
 3256 00d8 00000000 		.4byte	.LFB27
 3257 00dc 64000000 		.4byte	.LFE27
 3258 00e0 00000000 		.4byte	.LFB28
 3259 00e4 5C000000 		.4byte	.LFE28
 3260 00e8 00000000 		.4byte	.LFB29
 3261 00ec 9C000000 		.4byte	.LFE29
 3262 00f0 00000000 		.4byte	.LFB30
 3263 00f4 14000000 		.4byte	.LFE30
 3264 00f8 00000000 		.4byte	0
 3265 00fc 00000000 		.4byte	0
 3266              		.section	.debug_line,"",%progbits
 3267              	.Ldebug_line0:
 3268 0000 A9030000 		.section	.debug_str,"MS",%progbits,1
 3268      02004500 
 3268      00000201 
ARM GAS  C:\Users\dskyNote\AppData\Local\Temp\ccZwia2j.s 			page 87


 3268      FB0E0D00 
 3268      01010101 
 3269              	.LASF10:
 3270 0000 75696E74 		.ascii	"uint16\000"
 3270      313600
 3271              	.LASF64:
 3272 0007 55415254 		.ascii	"UART_1_ClearTxBuffer\000"
 3272      5F315F43 
 3272      6C656172 
 3272      54784275 
 3272      66666572 
 3273              	.LASF32:
 3274 001c 6C6F635F 		.ascii	"loc_rxBufferWrite\000"
 3274      72784275 
 3274      66666572 
 3274      57726974 
 3274      6500
 3275              	.LASF52:
 3276 002e 74784461 		.ascii	"txDataByte\000"
 3276      74614279 
 3276      746500
 3277              	.LASF54:
 3278 0039 55415254 		.ascii	"UART_1_PutChar\000"
 3278      5F315F50 
 3278      75744368 
 3278      617200
 3279              	.LASF58:
 3280 0048 73747269 		.ascii	"string\000"
 3280      6E6700
 3281              	.LASF65:
 3282 004f 55415254 		.ascii	"UART_1_SendBreak\000"
 3282      5F315F53 
 3282      656E6442 
 3282      7265616B 
 3282      00
 3283              	.LASF33:
 3284 0060 55415254 		.ascii	"UART_1_ReadRxData\000"
 3284      5F315F52 
 3284      65616452 
 3284      78446174 
 3284      6100
 3285              	.LASF26:
 3286 0072 55415254 		.ascii	"UART_1_DisableRxInt\000"
 3286      5F315F44 
 3286      69736162 
 3286      6C655278 
 3286      496E7400 
 3287              	.LASF7:
 3288 0086 6C6F6E67 		.ascii	"long long unsigned int\000"
 3288      206C6F6E 
 3288      6720756E 
 3288      7369676E 
 3288      65642069 
 3289              	.LASF78:
 3290 009d 55415254 		.ascii	"UART_1_rxBufferOverflow\000"
 3290      5F315F72 
 3290      78427566 
ARM GAS  C:\Users\dskyNote\AppData\Local\Temp\ccZwia2j.s 			page 88


 3290      6665724F 
 3290      76657266 
 3291              	.LASF63:
 3292 00b5 55415254 		.ascii	"UART_1_GetTxBufferSize\000"
 3292      5F315F47 
 3292      65745478 
 3292      42756666 
 3292      65725369 
 3293              	.LASF6:
 3294 00cc 6C6F6E67 		.ascii	"long long int\000"
 3294      206C6F6E 
 3294      6720696E 
 3294      7400
 3295              	.LASF0:
 3296 00da 7369676E 		.ascii	"signed char\000"
 3296      65642063 
 3296      68617200 
 3297              	.LASF62:
 3298 00e6 55415254 		.ascii	"UART_1_PutCRLF\000"
 3298      5F315F50 
 3298      75744352 
 3298      4C4600
 3299              	.LASF4:
 3300 00f5 6C6F6E67 		.ascii	"long int\000"
 3300      20696E74 
 3300      00
 3301              	.LASF19:
 3302 00fe 55415254 		.ascii	"UART_1_Start\000"
 3302      5F315F53 
 3302      74617274 
 3302      00
 3303              	.LASF9:
 3304 010b 75696E74 		.ascii	"uint8\000"
 3304      3800
 3305              	.LASF13:
 3306 0111 646F7562 		.ascii	"double\000"
 3306      6C6500
 3307              	.LASF44:
 3308 0118 61646472 		.ascii	"addressMode\000"
 3308      6573734D 
 3308      6F646500 
 3309              	.LASF80:
 3310 0124 2E5C4765 		.ascii	".\\Generated_Source\\PSoC5\\UART_1.c\000"
 3310      6E657261 
 3310      7465645F 
 3310      536F7572 
 3310      63655C50 
 3311              	.LASF11:
 3312 0146 75696E74 		.ascii	"uint32\000"
 3312      333200
 3313              	.LASF28:
 3314 014d 636F6E74 		.ascii	"control\000"
 3314      726F6C00 
 3315              	.LASF27:
 3316 0155 55415254 		.ascii	"UART_1_SetRxInterruptMode\000"
 3316      5F315F53 
 3316      65745278 
ARM GAS  C:\Users\dskyNote\AppData\Local\Temp\ccZwia2j.s 			page 89


 3316      496E7465 
 3316      72727570 
 3317              	.LASF75:
 3318 016f 55415254 		.ascii	"UART_1_rxBufferRead\000"
 3318      5F315F72 
 3318      78427566 
 3318      66657252 
 3318      65616400 
 3319              	.LASF66:
 3320 0183 7265744D 		.ascii	"retMode\000"
 3320      6F646500 
 3321              	.LASF8:
 3322 018b 756E7369 		.ascii	"unsigned int\000"
 3322      676E6564 
 3322      20696E74 
 3322      00
 3323              	.LASF53:
 3324 0198 55415254 		.ascii	"UART_1_ReadTxStatus\000"
 3324      5F315F52 
 3324      65616454 
 3324      78537461 
 3324      74757300 
 3325              	.LASF49:
 3326 01ac 55415254 		.ascii	"UART_1_DisableTxInt\000"
 3326      5F315F44 
 3326      69736162 
 3326      6C655478 
 3326      496E7400 
 3327              	.LASF5:
 3328 01c0 6C6F6E67 		.ascii	"long unsigned int\000"
 3328      20756E73 
 3328      69676E65 
 3328      6420696E 
 3328      7400
 3329              	.LASF56:
 3330 01d2 6C6F635F 		.ascii	"loc_txBufferRead\000"
 3330      74784275 
 3330      66666572 
 3330      52656164 
 3330      00
 3331              	.LASF41:
 3332 01e3 73697A65 		.ascii	"size\000"
 3332      00
 3333              	.LASF3:
 3334 01e8 73686F72 		.ascii	"short unsigned int\000"
 3334      7420756E 
 3334      7369676E 
 3334      65642069 
 3334      6E7400
 3335              	.LASF21:
 3336 01fb 55415254 		.ascii	"UART_1_Enable\000"
 3336      5F315F45 
 3336      6E61626C 
 3336      6500
 3337              	.LASF31:
 3338 0209 6C6F635F 		.ascii	"loc_rxBufferRead\000"
 3338      72784275 
ARM GAS  C:\Users\dskyNote\AppData\Local\Temp\ccZwia2j.s 			page 90


 3338      66666572 
 3338      52656164 
 3338      00
 3339              	.LASF69:
 3340 021a 55415254 		.ascii	"UART_1_SetTxAddressMode\000"
 3340      5F315F53 
 3340      65745478 
 3340      41646472 
 3340      6573734D 
 3341              	.LASF68:
 3342 0232 74785F70 		.ascii	"tx_period\000"
 3342      6572696F 
 3342      6400
 3343              	.LASF29:
 3344 023c 696E7453 		.ascii	"intSrc\000"
 3344      726300
 3345              	.LASF38:
 3346 0243 55415254 		.ascii	"UART_1_ReadControlRegister\000"
 3346      5F315F52 
 3346      65616443 
 3346      6F6E7472 
 3346      6F6C5265 
 3347              	.LASF22:
 3348 025e 55415254 		.ascii	"UART_1_Stop\000"
 3348      5F315F53 
 3348      746F7000 
 3349              	.LASF39:
 3350 026a 55415254 		.ascii	"UART_1_GetByte\000"
 3350      5F315F47 
 3350      65744279 
 3350      746500
 3351              	.LASF17:
 3352 0279 72656733 		.ascii	"reg32\000"
 3352      3200
 3353              	.LASF51:
 3354 027f 55415254 		.ascii	"UART_1_WriteTxData\000"
 3354      5F315F57 
 3354      72697465 
 3354      54784461 
 3354      746100
 3355              	.LASF67:
 3356 0292 746D7053 		.ascii	"tmpStat\000"
 3356      74617400 
 3357              	.LASF18:
 3358 029a 73697A65 		.ascii	"sizetype\000"
 3358      74797065 
 3358      00
 3359              	.LASF45:
 3360 02a3 55415254 		.ascii	"UART_1_SetRxAddress1\000"
 3360      5F315F53 
 3360      65745278 
 3360      41646472 
 3360      65737331 
 3361              	.LASF47:
 3362 02b8 55415254 		.ascii	"UART_1_SetRxAddress2\000"
 3362      5F315F53 
 3362      65745278 
ARM GAS  C:\Users\dskyNote\AppData\Local\Temp\ccZwia2j.s 			page 91


 3362      41646472 
 3362      65737332 
 3363              	.LASF55:
 3364 02cd 6C6F635F 		.ascii	"loc_txBufferWrite\000"
 3364      74784275 
 3364      66666572 
 3364      57726974 
 3364      6500
 3365              	.LASF46:
 3366 02df 61646472 		.ascii	"address\000"
 3366      65737300 
 3367              	.LASF79:
 3368 02e7 474E5520 		.ascii	"GNU C 4.8.4 20140526 (release) [ARM/embedded-4_8-br"
 3368      4320342E 
 3368      382E3420 
 3368      32303134 
 3368      30353236 
 3369 031a 616E6368 		.ascii	"anch revision 211358] -mcpu=cortex-m3 -mthumb -g -O"
 3369      20726576 
 3369      6973696F 
 3369      6E203231 
 3369      31333538 
 3370 034d 30202D66 		.ascii	"0 -ffunction-sections\000"
 3370      66756E63 
 3370      74696F6E 
 3370      2D736563 
 3370      74696F6E 
 3371              	.LASF77:
 3372 0363 55415254 		.ascii	"UART_1_rxBufferLoopDetect\000"
 3372      5F315F72 
 3372      78427566 
 3372      6665724C 
 3372      6F6F7044 
 3373              	.LASF37:
 3374 037d 72785374 		.ascii	"rxStatus\000"
 3374      61747573 
 3374      00
 3375              	.LASF50:
 3376 0386 55415254 		.ascii	"UART_1_SetTxInterruptMode\000"
 3376      5F315F53 
 3376      65745478 
 3376      496E7465 
 3376      72727570 
 3377              	.LASF12:
 3378 03a0 666C6F61 		.ascii	"float\000"
 3378      7400
 3379              	.LASF57:
 3380 03a6 55415254 		.ascii	"UART_1_PutString\000"
 3380      5F315F50 
 3380      75745374 
 3380      72696E67 
 3380      00
 3381              	.LASF42:
 3382 03b7 55415254 		.ascii	"UART_1_ClearRxBuffer\000"
 3382      5F315F43 
 3382      6C656172 
 3382      52784275 
ARM GAS  C:\Users\dskyNote\AppData\Local\Temp\ccZwia2j.s 			page 92


 3382      66666572 
 3383              	.LASF43:
 3384 03cc 55415254 		.ascii	"UART_1_SetRxAddressMode\000"
 3384      5F315F53 
 3384      65745278 
 3384      41646472 
 3384      6573734D 
 3385              	.LASF16:
 3386 03e4 72656738 		.ascii	"reg8\000"
 3386      00
 3387              	.LASF1:
 3388 03e9 756E7369 		.ascii	"unsigned char\000"
 3388      676E6564 
 3388      20636861 
 3388      7200
 3389              	.LASF2:
 3390 03f7 73686F72 		.ascii	"short int\000"
 3390      7420696E 
 3390      7400
 3391              	.LASF72:
 3392 0401 55415254 		.ascii	"UART_1_txBufferRead\000"
 3392      5F315F74 
 3392      78427566 
 3392      66657252 
 3392      65616400 
 3393              	.LASF24:
 3394 0415 55415254 		.ascii	"UART_1_WriteControlRegister\000"
 3394      5F315F57 
 3394      72697465 
 3394      436F6E74 
 3394      726F6C52 
 3395              	.LASF25:
 3396 0431 55415254 		.ascii	"UART_1_EnableRxInt\000"
 3396      5F315F45 
 3396      6E61626C 
 3396      65527849 
 3396      6E7400
 3397              	.LASF70:
 3398 0444 55415254 		.ascii	"UART_1_initVar\000"
 3398      5F315F69 
 3398      6E697456 
 3398      617200
 3399              	.LASF61:
 3400 0453 62797465 		.ascii	"byteCount\000"
 3400      436F756E 
 3400      7400
 3401              	.LASF40:
 3402 045d 55415254 		.ascii	"UART_1_GetRxBufferSize\000"
 3402      5F315F47 
 3402      65745278 
 3402      42756666 
 3402      65725369 
 3403              	.LASF30:
 3404 0474 72784461 		.ascii	"rxData\000"
 3404      746100
 3405              	.LASF74:
 3406 047b 55415254 		.ascii	"UART_1_rxBuffer\000"
ARM GAS  C:\Users\dskyNote\AppData\Local\Temp\ccZwia2j.s 			page 93


 3406      5F315F72 
 3406      78427566 
 3406      66657200 
 3407              	.LASF15:
 3408 048b 63686172 		.ascii	"char\000"
 3408      00
 3409              	.LASF73:
 3410 0490 55415254 		.ascii	"UART_1_txBufferWrite\000"
 3410      5F315F74 
 3410      78427566 
 3410      66657257 
 3410      72697465 
 3411              	.LASF14:
 3412 04a5 63686172 		.ascii	"char8\000"
 3412      3800
 3413              	.LASF81:
 3414 04ab 433A5C67 		.ascii	"C:\\gitData\\PSoC\\SFT1.0v\\Design01.cydsn\000"
 3414      69744461 
 3414      74615C50 
 3414      536F435C 
 3414      53465431 
 3415              	.LASF20:
 3416 04d2 55415254 		.ascii	"UART_1_Init\000"
 3416      5F315F49 
 3416      6E697400 
 3417              	.LASF23:
 3418 04de 656E6162 		.ascii	"enableInterrupts\000"
 3418      6C65496E 
 3418      74657272 
 3418      75707473 
 3418      00
 3419              	.LASF35:
 3420 04ef 73746174 		.ascii	"status\000"
 3420      757300
 3421              	.LASF71:
 3422 04f6 55415254 		.ascii	"UART_1_txBuffer\000"
 3422      5F315F74 
 3422      78427566 
 3422      66657200 
 3423              	.LASF76:
 3424 0506 55415254 		.ascii	"UART_1_rxBufferWrite\000"
 3424      5F315F72 
 3424      78427566 
 3424      66657257 
 3424      72697465 
 3425              	.LASF34:
 3426 051b 55415254 		.ascii	"UART_1_ReadRxStatus\000"
 3426      5F315F52 
 3426      65616452 
 3426      78537461 
 3426      74757300 
 3427              	.LASF36:
 3428 052f 55415254 		.ascii	"UART_1_GetChar\000"
 3428      5F315F47 
 3428      65744368 
 3428      617200
 3429              	.LASF48:
ARM GAS  C:\Users\dskyNote\AppData\Local\Temp\ccZwia2j.s 			page 94


 3430 053e 55415254 		.ascii	"UART_1_EnableTxInt\000"
 3430      5F315F45 
 3430      6E61626C 
 3430      65547849 
 3430      6E7400
 3431              	.LASF59:
 3432 0551 6275665F 		.ascii	"buf_index\000"
 3432      696E6465 
 3432      7800
 3433              	.LASF60:
 3434 055b 55415254 		.ascii	"UART_1_PutArray\000"
 3434      5F315F50 
 3434      75744172 
 3434      72617900 
 3435              		.ident	"GCC: (GNU Tools for ARM Embedded Processors) 4.8.4 20140526 (release) [ARM/embedded-4_8-br
