ARM GAS  C:\Users\dskyNote\AppData\Local\Temp\ccZwia2j.s 			page 1


   1              		.syntax unified
   2              		.cpu cortex-m3
   3              		.fpu softvfp
   4              		.eabi_attribute 20, 1
   5              		.eabi_attribute 21, 1
   6              		.eabi_attribute 23, 3
   7              		.eabi_attribute 24, 1
   8              		.eabi_attribute 25, 1
   9              		.eabi_attribute 26, 1
  10              		.eabi_attribute 30, 6
  11              		.eabi_attribute 34, 1
  12              		.eabi_attribute 18, 4
  13              		.thumb
  14              		.file	"UART_1.c"
  15              		.text
  16              	.Ltext0:
  17              		.cfi_sections	.debug_frame
  18              		.global	UART_1_initVar
  19              		.bss
  20              		.type	UART_1_initVar, %object
  21              		.size	UART_1_initVar, 1
  22              	UART_1_initVar:
  23 0000 00       		.space	1
  24              		.comm	UART_1_txBuffer,128,4
  25              		.global	UART_1_txBufferRead
  26              		.type	UART_1_txBufferRead, %object
  27              		.size	UART_1_txBufferRead, 1
  28              	UART_1_txBufferRead:
  29 0001 00       		.space	1
  30              		.global	UART_1_txBufferWrite
  31              		.type	UART_1_txBufferWrite, %object
  32              		.size	UART_1_txBufferWrite, 1
  33              	UART_1_txBufferWrite:
  34 0002 00       		.space	1
  35              		.comm	UART_1_rxBuffer,128,4
  36              		.global	UART_1_rxBufferRead
  37              		.type	UART_1_rxBufferRead, %object
  38              		.size	UART_1_rxBufferRead, 1
  39              	UART_1_rxBufferRead:
  40 0003 00       		.space	1
  41              		.global	UART_1_rxBufferWrite
  42              		.type	UART_1_rxBufferWrite, %object
  43              		.size	UART_1_rxBufferWrite, 1
  44              	UART_1_rxBufferWrite:
  45 0004 00       		.space	1
  46              		.global	UART_1_rxBufferLoopDetect
  47              		.type	UART_1_rxBufferLoopDetect, %object
  48              		.size	UART_1_rxBufferLoopDetect, 1
  49              	UART_1_rxBufferLoopDetect:
  50 0005 00       		.space	1
  51              		.global	UART_1_rxBufferOverflow
  52              		.type	UART_1_rxBufferOverflow, %object
  53              		.size	UART_1_rxBufferOverflow, 1
  54              	UART_1_rxBufferOverflow:
  55 0006 00       		.space	1
  56              		.section	.text.UART_1_Start,"ax",%progbits
  57              		.align	2
ARM GAS  C:\Users\dskyNote\AppData\Local\Temp\ccZwia2j.s 			page 2


  58              		.global	UART_1_Start
  59              		.thumb
  60              		.thumb_func
  61              		.type	UART_1_Start, %function
  62              	UART_1_Start:
  63              	.LFB0:
  64              		.file 1 ".\\Generated_Source\\PSoC5\\UART_1.c"
   1:.\Generated_Source\PSoC5/UART_1.c **** /*******************************************************************************
   2:.\Generated_Source\PSoC5/UART_1.c **** * File Name: UART_1.c
   3:.\Generated_Source\PSoC5/UART_1.c **** * Version 2.30
   4:.\Generated_Source\PSoC5/UART_1.c **** *
   5:.\Generated_Source\PSoC5/UART_1.c **** * Description:
   6:.\Generated_Source\PSoC5/UART_1.c **** *  This file provides all API functionality of the UART component
   7:.\Generated_Source\PSoC5/UART_1.c **** *
   8:.\Generated_Source\PSoC5/UART_1.c **** * Note:
   9:.\Generated_Source\PSoC5/UART_1.c **** *
  10:.\Generated_Source\PSoC5/UART_1.c **** ********************************************************************************
  11:.\Generated_Source\PSoC5/UART_1.c **** * Copyright 2008-2012, Cypress Semiconductor Corporation.  All rights reserved.
  12:.\Generated_Source\PSoC5/UART_1.c **** * You may use this file only in accordance with the license, terms, conditions,
  13:.\Generated_Source\PSoC5/UART_1.c **** * disclaimers, and limitations in the end user license agreement accompanying
  14:.\Generated_Source\PSoC5/UART_1.c **** * the software package with which this file was provided.
  15:.\Generated_Source\PSoC5/UART_1.c **** *******************************************************************************/
  16:.\Generated_Source\PSoC5/UART_1.c **** 
  17:.\Generated_Source\PSoC5/UART_1.c **** #include "UART_1.h"
  18:.\Generated_Source\PSoC5/UART_1.c **** #include "CyLib.h"
  19:.\Generated_Source\PSoC5/UART_1.c **** #if(UART_1_INTERNAL_CLOCK_USED)
  20:.\Generated_Source\PSoC5/UART_1.c ****     #include "UART_1_IntClock.h"
  21:.\Generated_Source\PSoC5/UART_1.c **** #endif /* End UART_1_INTERNAL_CLOCK_USED */
  22:.\Generated_Source\PSoC5/UART_1.c **** 
  23:.\Generated_Source\PSoC5/UART_1.c **** 
  24:.\Generated_Source\PSoC5/UART_1.c **** /***************************************
  25:.\Generated_Source\PSoC5/UART_1.c **** * Global data allocation
  26:.\Generated_Source\PSoC5/UART_1.c **** ***************************************/
  27:.\Generated_Source\PSoC5/UART_1.c **** 
  28:.\Generated_Source\PSoC5/UART_1.c **** uint8 UART_1_initVar = 0u;
  29:.\Generated_Source\PSoC5/UART_1.c **** #if( UART_1_TX_ENABLED && (UART_1_TXBUFFERSIZE > UART_1_FIFO_LENGTH))
  30:.\Generated_Source\PSoC5/UART_1.c ****     volatile uint8 UART_1_txBuffer[UART_1_TXBUFFERSIZE];
  31:.\Generated_Source\PSoC5/UART_1.c ****     volatile uint8 UART_1_txBufferRead = 0u;
  32:.\Generated_Source\PSoC5/UART_1.c ****     uint8 UART_1_txBufferWrite = 0u;
  33:.\Generated_Source\PSoC5/UART_1.c **** #endif /* End UART_1_TX_ENABLED */
  34:.\Generated_Source\PSoC5/UART_1.c **** #if( ( UART_1_RX_ENABLED || UART_1_HD_ENABLED ) && \
  35:.\Generated_Source\PSoC5/UART_1.c ****      (UART_1_RXBUFFERSIZE > UART_1_FIFO_LENGTH) )
  36:.\Generated_Source\PSoC5/UART_1.c ****     volatile uint8 UART_1_rxBuffer[UART_1_RXBUFFERSIZE];
  37:.\Generated_Source\PSoC5/UART_1.c ****     volatile uint8 UART_1_rxBufferRead = 0u;
  38:.\Generated_Source\PSoC5/UART_1.c ****     volatile uint8 UART_1_rxBufferWrite = 0u;
  39:.\Generated_Source\PSoC5/UART_1.c ****     volatile uint8 UART_1_rxBufferLoopDetect = 0u;
  40:.\Generated_Source\PSoC5/UART_1.c ****     volatile uint8 UART_1_rxBufferOverflow = 0u;
  41:.\Generated_Source\PSoC5/UART_1.c ****     #if (UART_1_RXHW_ADDRESS_ENABLED)
  42:.\Generated_Source\PSoC5/UART_1.c ****         volatile uint8 UART_1_rxAddressMode = UART_1_RXADDRESSMODE;
  43:.\Generated_Source\PSoC5/UART_1.c ****         volatile uint8 UART_1_rxAddressDetected = 0u;
  44:.\Generated_Source\PSoC5/UART_1.c ****     #endif /* End EnableHWAddress */
  45:.\Generated_Source\PSoC5/UART_1.c **** #endif /* End UART_1_RX_ENABLED */
  46:.\Generated_Source\PSoC5/UART_1.c **** 
  47:.\Generated_Source\PSoC5/UART_1.c **** 
  48:.\Generated_Source\PSoC5/UART_1.c **** /*******************************************************************************
  49:.\Generated_Source\PSoC5/UART_1.c **** * Function Name: UART_1_Start
  50:.\Generated_Source\PSoC5/UART_1.c **** ********************************************************************************
ARM GAS  C:\Users\dskyNote\AppData\Local\Temp\ccZwia2j.s 			page 3


  51:.\Generated_Source\PSoC5/UART_1.c **** *
  52:.\Generated_Source\PSoC5/UART_1.c **** * Summary:
  53:.\Generated_Source\PSoC5/UART_1.c **** *  Initialize and Enable the UART component.
  54:.\Generated_Source\PSoC5/UART_1.c **** *  Enable the clock input to enable operation.
  55:.\Generated_Source\PSoC5/UART_1.c **** *
  56:.\Generated_Source\PSoC5/UART_1.c **** * Parameters:
  57:.\Generated_Source\PSoC5/UART_1.c **** *  None.
  58:.\Generated_Source\PSoC5/UART_1.c **** *
  59:.\Generated_Source\PSoC5/UART_1.c **** * Return:
  60:.\Generated_Source\PSoC5/UART_1.c **** *  None.
  61:.\Generated_Source\PSoC5/UART_1.c **** *
  62:.\Generated_Source\PSoC5/UART_1.c **** * Global variables:
  63:.\Generated_Source\PSoC5/UART_1.c **** *  The UART_1_intiVar variable is used to indicate initial
  64:.\Generated_Source\PSoC5/UART_1.c **** *  configuration of this component. The variable is initialized to zero (0u)
  65:.\Generated_Source\PSoC5/UART_1.c **** *  and set to one (1u) the first time UART_Start() is called. This allows for
  66:.\Generated_Source\PSoC5/UART_1.c **** *  component initialization without re-initialization in all subsequent calls
  67:.\Generated_Source\PSoC5/UART_1.c **** *  to the UART_1_Start() routine.
  68:.\Generated_Source\PSoC5/UART_1.c **** *
  69:.\Generated_Source\PSoC5/UART_1.c **** * Reentrant:
  70:.\Generated_Source\PSoC5/UART_1.c **** *  No.
  71:.\Generated_Source\PSoC5/UART_1.c **** *
  72:.\Generated_Source\PSoC5/UART_1.c **** *******************************************************************************/
  73:.\Generated_Source\PSoC5/UART_1.c **** void UART_1_Start(void) 
  74:.\Generated_Source\PSoC5/UART_1.c **** {
  65              		.loc 1 74 0
  66              		.cfi_startproc
  67              		@ args = 0, pretend = 0, frame = 0
  68              		@ frame_needed = 1, uses_anonymous_args = 0
  69 0000 80B5     		push	{r7, lr}
  70              		.cfi_def_cfa_offset 8
  71              		.cfi_offset 7, -8
  72              		.cfi_offset 14, -4
  73 0002 00AF     		add	r7, sp, #0
  74              		.cfi_def_cfa_register 7
  75:.\Generated_Source\PSoC5/UART_1.c ****     /* If not Initialized then initialize all required hardware and software */
  76:.\Generated_Source\PSoC5/UART_1.c ****     if(UART_1_initVar == 0u)
  75              		.loc 1 76 0
  76 0004 054B     		ldr	r3, .L3
  77 0006 1B78     		ldrb	r3, [r3]	@ zero_extendqisi2
  78 0008 002B     		cmp	r3, #0
  79 000a 04D1     		bne	.L2
  77:.\Generated_Source\PSoC5/UART_1.c ****     {
  78:.\Generated_Source\PSoC5/UART_1.c ****         UART_1_Init();
  80              		.loc 1 78 0
  81 000c FFF7FEFF 		bl	UART_1_Init
  79:.\Generated_Source\PSoC5/UART_1.c ****         UART_1_initVar = 1u;
  82              		.loc 1 79 0
  83 0010 024B     		ldr	r3, .L3
  84 0012 0122     		movs	r2, #1
  85 0014 1A70     		strb	r2, [r3]
  86              	.L2:
  80:.\Generated_Source\PSoC5/UART_1.c ****     }
  81:.\Generated_Source\PSoC5/UART_1.c ****     UART_1_Enable();
  87              		.loc 1 81 0
  88 0016 FFF7FEFF 		bl	UART_1_Enable
  82:.\Generated_Source\PSoC5/UART_1.c **** }
  89              		.loc 1 82 0
ARM GAS  C:\Users\dskyNote\AppData\Local\Temp\ccZwia2j.s 			page 4


  90 001a 80BD     		pop	{r7, pc}
  91              	.L4:
  92              		.align	2
  93              	.L3:
  94 001c 00000000 		.word	UART_1_initVar
  95              		.cfi_endproc
  96              	.LFE0:
  97              		.size	UART_1_Start, .-UART_1_Start
  98              		.section	.text.UART_1_Init,"ax",%progbits
  99              		.align	2
 100              		.global	UART_1_Init
 101              		.thumb
 102              		.thumb_func
 103              		.type	UART_1_Init, %function
 104              	UART_1_Init:
 105              	.LFB1:
  83:.\Generated_Source\PSoC5/UART_1.c **** 
  84:.\Generated_Source\PSoC5/UART_1.c **** 
  85:.\Generated_Source\PSoC5/UART_1.c **** /*******************************************************************************
  86:.\Generated_Source\PSoC5/UART_1.c **** * Function Name: UART_1_Init
  87:.\Generated_Source\PSoC5/UART_1.c **** ********************************************************************************
  88:.\Generated_Source\PSoC5/UART_1.c **** *
  89:.\Generated_Source\PSoC5/UART_1.c **** * Summary:
  90:.\Generated_Source\PSoC5/UART_1.c **** *  Initialize component's parameters to the parameters set by user in the
  91:.\Generated_Source\PSoC5/UART_1.c **** *  customizer of the component placed onto schematic. Usually called in
  92:.\Generated_Source\PSoC5/UART_1.c **** *  UART_1_Start().
  93:.\Generated_Source\PSoC5/UART_1.c **** *
  94:.\Generated_Source\PSoC5/UART_1.c **** * Parameters:
  95:.\Generated_Source\PSoC5/UART_1.c **** *  None.
  96:.\Generated_Source\PSoC5/UART_1.c **** *
  97:.\Generated_Source\PSoC5/UART_1.c **** * Return:
  98:.\Generated_Source\PSoC5/UART_1.c **** *  None.
  99:.\Generated_Source\PSoC5/UART_1.c **** *
 100:.\Generated_Source\PSoC5/UART_1.c **** *******************************************************************************/
 101:.\Generated_Source\PSoC5/UART_1.c **** void UART_1_Init(void) 
 102:.\Generated_Source\PSoC5/UART_1.c **** {
 106              		.loc 1 102 0
 107              		.cfi_startproc
 108              		@ args = 0, pretend = 0, frame = 0
 109              		@ frame_needed = 1, uses_anonymous_args = 0
 110 0000 80B5     		push	{r7, lr}
 111              		.cfi_def_cfa_offset 8
 112              		.cfi_offset 7, -8
 113              		.cfi_offset 14, -4
 114 0002 00AF     		add	r7, sp, #0
 115              		.cfi_def_cfa_register 7
 103:.\Generated_Source\PSoC5/UART_1.c ****     #if(UART_1_RX_ENABLED || UART_1_HD_ENABLED)
 104:.\Generated_Source\PSoC5/UART_1.c **** 
 105:.\Generated_Source\PSoC5/UART_1.c ****         #if(UART_1_RX_INTERRUPT_ENABLED && (UART_1_RXBUFFERSIZE > UART_1_FIFO_LENGTH))
 106:.\Generated_Source\PSoC5/UART_1.c ****             /* Set the RX Interrupt. */
 107:.\Generated_Source\PSoC5/UART_1.c ****             (void)CyIntSetVector(UART_1_RX_VECT_NUM, &UART_1_RXISR);
 116              		.loc 1 107 0
 117 0004 0220     		movs	r0, #2
 118 0006 0F49     		ldr	r1, .L6
 119 0008 FFF7FEFF 		bl	CyIntSetVector
 108:.\Generated_Source\PSoC5/UART_1.c ****             CyIntSetPriority(UART_1_RX_VECT_NUM, UART_1_RX_PRIOR_NUM);
 120              		.loc 1 108 0
ARM GAS  C:\Users\dskyNote\AppData\Local\Temp\ccZwia2j.s 			page 5


 121 000c 0220     		movs	r0, #2
 122 000e 0121     		movs	r1, #1
 123 0010 FFF7FEFF 		bl	CyIntSetPriority
 109:.\Generated_Source\PSoC5/UART_1.c ****         #endif /* End UART_1_RX_INTERRUPT_ENABLED */
 110:.\Generated_Source\PSoC5/UART_1.c **** 
 111:.\Generated_Source\PSoC5/UART_1.c ****         #if (UART_1_RXHW_ADDRESS_ENABLED)
 112:.\Generated_Source\PSoC5/UART_1.c ****             UART_1_SetRxAddressMode(UART_1_RXAddressMode);
 113:.\Generated_Source\PSoC5/UART_1.c ****             UART_1_SetRxAddress1(UART_1_RXHWADDRESS1);
 114:.\Generated_Source\PSoC5/UART_1.c ****             UART_1_SetRxAddress2(UART_1_RXHWADDRESS2);
 115:.\Generated_Source\PSoC5/UART_1.c ****         #endif /* End UART_1_RXHW_ADDRESS_ENABLED */
 116:.\Generated_Source\PSoC5/UART_1.c **** 
 117:.\Generated_Source\PSoC5/UART_1.c ****         /* Init Count7 period */
 118:.\Generated_Source\PSoC5/UART_1.c ****         UART_1_RXBITCTR_PERIOD_REG = UART_1_RXBITCTR_INIT;
 124              		.loc 1 118 0
 125 0014 0C4B     		ldr	r3, .L6+4
 126 0016 7222     		movs	r2, #114
 127 0018 1A70     		strb	r2, [r3]
 119:.\Generated_Source\PSoC5/UART_1.c ****         /* Configure the Initial RX interrupt mask */
 120:.\Generated_Source\PSoC5/UART_1.c ****         UART_1_RXSTATUS_MASK_REG  = UART_1_INIT_RX_INTERRUPTS_MASK;
 128              		.loc 1 120 0
 129 001a 0C4B     		ldr	r3, .L6+8
 130 001c 2022     		movs	r2, #32
 131 001e 1A70     		strb	r2, [r3]
 121:.\Generated_Source\PSoC5/UART_1.c ****     #endif /* End UART_1_RX_ENABLED || UART_1_HD_ENABLED*/
 122:.\Generated_Source\PSoC5/UART_1.c **** 
 123:.\Generated_Source\PSoC5/UART_1.c ****     #if(UART_1_TX_ENABLED)
 124:.\Generated_Source\PSoC5/UART_1.c ****         #if(UART_1_TX_INTERRUPT_ENABLED && (UART_1_TXBUFFERSIZE > UART_1_FIFO_LENGTH))
 125:.\Generated_Source\PSoC5/UART_1.c ****             /* Set the TX Interrupt. */
 126:.\Generated_Source\PSoC5/UART_1.c ****             (void)CyIntSetVector(UART_1_TX_VECT_NUM, &UART_1_TXISR);
 132              		.loc 1 126 0
 133 0020 0320     		movs	r0, #3
 134 0022 0B49     		ldr	r1, .L6+12
 135 0024 FFF7FEFF 		bl	CyIntSetVector
 127:.\Generated_Source\PSoC5/UART_1.c ****             CyIntSetPriority(UART_1_TX_VECT_NUM, UART_1_TX_PRIOR_NUM);
 136              		.loc 1 127 0
 137 0028 0320     		movs	r0, #3
 138 002a 0721     		movs	r1, #7
 139 002c FFF7FEFF 		bl	CyIntSetPriority
 128:.\Generated_Source\PSoC5/UART_1.c ****         #endif /* End UART_1_TX_INTERRUPT_ENABLED */
 129:.\Generated_Source\PSoC5/UART_1.c **** 
 130:.\Generated_Source\PSoC5/UART_1.c ****         /* Write Counter Value for TX Bit Clk Generator*/
 131:.\Generated_Source\PSoC5/UART_1.c ****         #if(UART_1_TXCLKGEN_DP)
 132:.\Generated_Source\PSoC5/UART_1.c ****             UART_1_TXBITCLKGEN_CTR_REG = UART_1_BIT_CENTER;
 140              		.loc 1 132 0
 141 0030 084B     		ldr	r3, .L6+16
 142 0032 0722     		movs	r2, #7
 143 0034 1A70     		strb	r2, [r3]
 133:.\Generated_Source\PSoC5/UART_1.c ****             UART_1_TXBITCLKTX_COMPLETE_REG = (UART_1_NUMBER_OF_DATA_BITS +
 144              		.loc 1 133 0
 145 0036 084B     		ldr	r3, .L6+20
 146 0038 4822     		movs	r2, #72
 147 003a 1A70     		strb	r2, [r3]
 134:.\Generated_Source\PSoC5/UART_1.c ****                         UART_1_NUMBER_OF_START_BIT) * UART_1_OVER_SAMPLE_COUNT;
 135:.\Generated_Source\PSoC5/UART_1.c ****         #else
 136:.\Generated_Source\PSoC5/UART_1.c ****             UART_1_TXBITCTR_PERIOD_REG = ((UART_1_NUMBER_OF_DATA_BITS +
 137:.\Generated_Source\PSoC5/UART_1.c ****                         UART_1_NUMBER_OF_START_BIT) * UART_1_OVER_SAMPLE_8) - 1u;
 138:.\Generated_Source\PSoC5/UART_1.c ****         #endif /* End UART_1_TXCLKGEN_DP */
ARM GAS  C:\Users\dskyNote\AppData\Local\Temp\ccZwia2j.s 			page 6


 139:.\Generated_Source\PSoC5/UART_1.c **** 
 140:.\Generated_Source\PSoC5/UART_1.c ****         /* Configure the Initial TX interrupt mask */
 141:.\Generated_Source\PSoC5/UART_1.c ****         #if(UART_1_TX_INTERRUPT_ENABLED && (UART_1_TXBUFFERSIZE > UART_1_FIFO_LENGTH))
 142:.\Generated_Source\PSoC5/UART_1.c ****             UART_1_TXSTATUS_MASK_REG = UART_1_TX_STS_FIFO_EMPTY;
 148              		.loc 1 142 0
 149 003c 074B     		ldr	r3, .L6+24
 150 003e 0222     		movs	r2, #2
 151 0040 1A70     		strb	r2, [r3]
 143:.\Generated_Source\PSoC5/UART_1.c ****         #else
 144:.\Generated_Source\PSoC5/UART_1.c ****             UART_1_TXSTATUS_MASK_REG = UART_1_INIT_TX_INTERRUPTS_MASK;
 145:.\Generated_Source\PSoC5/UART_1.c ****         #endif /*End UART_1_TX_INTERRUPT_ENABLED*/
 146:.\Generated_Source\PSoC5/UART_1.c **** 
 147:.\Generated_Source\PSoC5/UART_1.c ****     #endif /* End UART_1_TX_ENABLED */
 148:.\Generated_Source\PSoC5/UART_1.c **** 
 149:.\Generated_Source\PSoC5/UART_1.c ****     #if(UART_1_PARITY_TYPE_SW)  /* Write Parity to Control Register */
 150:.\Generated_Source\PSoC5/UART_1.c ****         UART_1_WriteControlRegister( \
 151:.\Generated_Source\PSoC5/UART_1.c ****             (UART_1_ReadControlRegister() & (uint8)~UART_1_CTRL_PARITY_TYPE_MASK) | \
 152:.\Generated_Source\PSoC5/UART_1.c ****             (uint8)(UART_1_PARITY_TYPE << UART_1_CTRL_PARITY_TYPE0_SHIFT) );
 153:.\Generated_Source\PSoC5/UART_1.c ****     #endif /* End UART_1_PARITY_TYPE_SW */
 154:.\Generated_Source\PSoC5/UART_1.c **** }
 152              		.loc 1 154 0
 153 0042 80BD     		pop	{r7, pc}
 154              	.L7:
 155              		.align	2
 156              	.L6:
 157 0044 00000000 		.word	UART_1_RXISR
 158 0048 8C640040 		.word	1073767564
 159 004c 80640040 		.word	1073767552
 160 0050 00000000 		.word	UART_1_TXISR
 161 0054 20640040 		.word	1073767456
 162 0058 30640040 		.word	1073767472
 163 005c 81640040 		.word	1073767553
 164              		.cfi_endproc
 165              	.LFE1:
 166              		.size	UART_1_Init, .-UART_1_Init
 167              		.section	.text.UART_1_Enable,"ax",%progbits
 168              		.align	2
 169              		.global	UART_1_Enable
 170              		.thumb
 171              		.thumb_func
 172              		.type	UART_1_Enable, %function
 173              	UART_1_Enable:
 174              	.LFB2:
 155:.\Generated_Source\PSoC5/UART_1.c **** 
 156:.\Generated_Source\PSoC5/UART_1.c **** 
 157:.\Generated_Source\PSoC5/UART_1.c **** /*******************************************************************************
 158:.\Generated_Source\PSoC5/UART_1.c **** * Function Name: UART_1_Enable
 159:.\Generated_Source\PSoC5/UART_1.c **** ********************************************************************************
 160:.\Generated_Source\PSoC5/UART_1.c **** *
 161:.\Generated_Source\PSoC5/UART_1.c **** * Summary:
 162:.\Generated_Source\PSoC5/UART_1.c **** *  Enables the UART block operation
 163:.\Generated_Source\PSoC5/UART_1.c **** *
 164:.\Generated_Source\PSoC5/UART_1.c **** * Parameters:
 165:.\Generated_Source\PSoC5/UART_1.c **** *  None.
 166:.\Generated_Source\PSoC5/UART_1.c **** *
 167:.\Generated_Source\PSoC5/UART_1.c **** * Return:
 168:.\Generated_Source\PSoC5/UART_1.c **** *  None.
ARM GAS  C:\Users\dskyNote\AppData\Local\Temp\ccZwia2j.s 			page 7


 169:.\Generated_Source\PSoC5/UART_1.c **** *
 170:.\Generated_Source\PSoC5/UART_1.c **** * Global Variables:
 171:.\Generated_Source\PSoC5/UART_1.c **** *  UART_1_rxAddressDetected - set to initial state (0).
 172:.\Generated_Source\PSoC5/UART_1.c **** *
 173:.\Generated_Source\PSoC5/UART_1.c **** *******************************************************************************/
 174:.\Generated_Source\PSoC5/UART_1.c **** void UART_1_Enable(void) 
 175:.\Generated_Source\PSoC5/UART_1.c **** {
 175              		.loc 1 175 0
 176              		.cfi_startproc
 177              		@ args = 0, pretend = 0, frame = 8
 178              		@ frame_needed = 1, uses_anonymous_args = 0
 179 0000 80B5     		push	{r7, lr}
 180              		.cfi_def_cfa_offset 8
 181              		.cfi_offset 7, -8
 182              		.cfi_offset 14, -4
 183 0002 82B0     		sub	sp, sp, #8
 184              		.cfi_def_cfa_offset 16
 185 0004 00AF     		add	r7, sp, #0
 186              		.cfi_def_cfa_register 7
 176:.\Generated_Source\PSoC5/UART_1.c ****     uint8 enableInterrupts;
 177:.\Generated_Source\PSoC5/UART_1.c ****     enableInterrupts = CyEnterCriticalSection();
 187              		.loc 1 177 0
 188 0006 FFF7FEFF 		bl	CyEnterCriticalSection
 189 000a 0346     		mov	r3, r0
 190 000c FB71     		strb	r3, [r7, #7]
 178:.\Generated_Source\PSoC5/UART_1.c **** 
 179:.\Generated_Source\PSoC5/UART_1.c ****     #if(UART_1_RX_ENABLED || UART_1_HD_ENABLED)
 180:.\Generated_Source\PSoC5/UART_1.c ****         /*RX Counter (Count7) Enable */
 181:.\Generated_Source\PSoC5/UART_1.c ****         UART_1_RXBITCTR_CONTROL_REG |= UART_1_CNTR_ENABLE;
 191              		.loc 1 181 0
 192 000e 134B     		ldr	r3, .L9
 193 0010 124A     		ldr	r2, .L9
 194 0012 1278     		ldrb	r2, [r2]
 195 0014 D2B2     		uxtb	r2, r2
 196 0016 42F02002 		orr	r2, r2, #32
 197 001a D2B2     		uxtb	r2, r2
 198 001c 1A70     		strb	r2, [r3]
 182:.\Generated_Source\PSoC5/UART_1.c ****         /* Enable the RX Interrupt. */
 183:.\Generated_Source\PSoC5/UART_1.c ****         UART_1_RXSTATUS_ACTL_REG  |= UART_1_INT_ENABLE;
 199              		.loc 1 183 0
 200 001e 104B     		ldr	r3, .L9+4
 201 0020 0F4A     		ldr	r2, .L9+4
 202 0022 1278     		ldrb	r2, [r2]
 203 0024 D2B2     		uxtb	r2, r2
 204 0026 42F01002 		orr	r2, r2, #16
 205 002a D2B2     		uxtb	r2, r2
 206 002c 1A70     		strb	r2, [r3]
 184:.\Generated_Source\PSoC5/UART_1.c ****         #if(UART_1_RX_INTERRUPT_ENABLED && (UART_1_RXBUFFERSIZE > UART_1_FIFO_LENGTH))
 185:.\Generated_Source\PSoC5/UART_1.c ****             CyIntEnable(UART_1_RX_VECT_NUM);
 207              		.loc 1 185 0
 208 002e 0D4B     		ldr	r3, .L9+8
 209 0030 0422     		movs	r2, #4
 210 0032 1A60     		str	r2, [r3]
 186:.\Generated_Source\PSoC5/UART_1.c ****             #if (UART_1_RXHW_ADDRESS_ENABLED)
 187:.\Generated_Source\PSoC5/UART_1.c ****                 UART_1_rxAddressDetected = 0u;
 188:.\Generated_Source\PSoC5/UART_1.c ****             #endif /* End UART_1_RXHW_ADDRESS_ENABLED */
 189:.\Generated_Source\PSoC5/UART_1.c ****         #endif /* End UART_1_RX_INTERRUPT_ENABLED */
ARM GAS  C:\Users\dskyNote\AppData\Local\Temp\ccZwia2j.s 			page 8


 190:.\Generated_Source\PSoC5/UART_1.c ****     #endif /* End UART_1_RX_ENABLED || UART_1_HD_ENABLED*/
 191:.\Generated_Source\PSoC5/UART_1.c **** 
 192:.\Generated_Source\PSoC5/UART_1.c ****     #if(UART_1_TX_ENABLED)
 193:.\Generated_Source\PSoC5/UART_1.c ****         /*TX Counter (DP/Count7) Enable */
 194:.\Generated_Source\PSoC5/UART_1.c ****         #if(!UART_1_TXCLKGEN_DP)
 195:.\Generated_Source\PSoC5/UART_1.c ****             UART_1_TXBITCTR_CONTROL_REG |= UART_1_CNTR_ENABLE;
 196:.\Generated_Source\PSoC5/UART_1.c ****         #endif /* End UART_1_TXCLKGEN_DP */
 197:.\Generated_Source\PSoC5/UART_1.c ****         /* Enable the TX Interrupt. */
 198:.\Generated_Source\PSoC5/UART_1.c ****         UART_1_TXSTATUS_ACTL_REG |= UART_1_INT_ENABLE;
 211              		.loc 1 198 0
 212 0034 0C4B     		ldr	r3, .L9+12
 213 0036 0C4A     		ldr	r2, .L9+12
 214 0038 1278     		ldrb	r2, [r2]
 215 003a D2B2     		uxtb	r2, r2
 216 003c 42F01002 		orr	r2, r2, #16
 217 0040 D2B2     		uxtb	r2, r2
 218 0042 1A70     		strb	r2, [r3]
 199:.\Generated_Source\PSoC5/UART_1.c ****         #if(UART_1_TX_INTERRUPT_ENABLED && (UART_1_TXBUFFERSIZE > UART_1_FIFO_LENGTH))
 200:.\Generated_Source\PSoC5/UART_1.c ****             CyIntEnable(UART_1_TX_VECT_NUM);
 219              		.loc 1 200 0
 220 0044 074B     		ldr	r3, .L9+8
 221 0046 0822     		movs	r2, #8
 222 0048 1A60     		str	r2, [r3]
 201:.\Generated_Source\PSoC5/UART_1.c ****         #endif /* End UART_1_TX_INTERRUPT_ENABLED*/
 202:.\Generated_Source\PSoC5/UART_1.c ****      #endif /* End UART_1_TX_ENABLED */
 203:.\Generated_Source\PSoC5/UART_1.c **** 
 204:.\Generated_Source\PSoC5/UART_1.c ****     #if(UART_1_INTERNAL_CLOCK_USED)
 205:.\Generated_Source\PSoC5/UART_1.c ****         /* Enable the clock. */
 206:.\Generated_Source\PSoC5/UART_1.c ****         UART_1_IntClock_Start();
 223              		.loc 1 206 0
 224 004a FFF7FEFF 		bl	UART_1_IntClock_Start
 207:.\Generated_Source\PSoC5/UART_1.c ****     #endif /* End UART_1_INTERNAL_CLOCK_USED */
 208:.\Generated_Source\PSoC5/UART_1.c **** 
 209:.\Generated_Source\PSoC5/UART_1.c ****     CyExitCriticalSection(enableInterrupts);
 225              		.loc 1 209 0
 226 004e FB79     		ldrb	r3, [r7, #7]	@ zero_extendqisi2
 227 0050 1846     		mov	r0, r3
 228 0052 FFF7FEFF 		bl	CyExitCriticalSection
 210:.\Generated_Source\PSoC5/UART_1.c **** }
 229              		.loc 1 210 0
 230 0056 0837     		adds	r7, r7, #8
 231 0058 BD46     		mov	sp, r7
 232              		@ sp needed
 233 005a 80BD     		pop	{r7, pc}
 234              	.L10:
 235              		.align	2
 236              	.L9:
 237 005c 9C640040 		.word	1073767580
 238 0060 90640040 		.word	1073767568
 239 0064 00E100E0 		.word	-536813312
 240 0068 91640040 		.word	1073767569
 241              		.cfi_endproc
 242              	.LFE2:
 243              		.size	UART_1_Enable, .-UART_1_Enable
 244              		.section	.text.UART_1_Stop,"ax",%progbits
 245              		.align	2
 246              		.global	UART_1_Stop
ARM GAS  C:\Users\dskyNote\AppData\Local\Temp\ccZwia2j.s 			page 9


 247              		.thumb
 248              		.thumb_func
 249              		.type	UART_1_Stop, %function
 250              	UART_1_Stop:
 251              	.LFB3:
 211:.\Generated_Source\PSoC5/UART_1.c **** 
 212:.\Generated_Source\PSoC5/UART_1.c **** 
 213:.\Generated_Source\PSoC5/UART_1.c **** /*******************************************************************************
 214:.\Generated_Source\PSoC5/UART_1.c **** * Function Name: UART_1_Stop
 215:.\Generated_Source\PSoC5/UART_1.c **** ********************************************************************************
 216:.\Generated_Source\PSoC5/UART_1.c **** *
 217:.\Generated_Source\PSoC5/UART_1.c **** * Summary:
 218:.\Generated_Source\PSoC5/UART_1.c **** *  Disable the UART component
 219:.\Generated_Source\PSoC5/UART_1.c **** *
 220:.\Generated_Source\PSoC5/UART_1.c **** * Parameters:
 221:.\Generated_Source\PSoC5/UART_1.c **** *  None.
 222:.\Generated_Source\PSoC5/UART_1.c **** *
 223:.\Generated_Source\PSoC5/UART_1.c **** * Return:
 224:.\Generated_Source\PSoC5/UART_1.c **** *  None.
 225:.\Generated_Source\PSoC5/UART_1.c **** *
 226:.\Generated_Source\PSoC5/UART_1.c **** *******************************************************************************/
 227:.\Generated_Source\PSoC5/UART_1.c **** void UART_1_Stop(void) 
 228:.\Generated_Source\PSoC5/UART_1.c **** {
 252              		.loc 1 228 0
 253              		.cfi_startproc
 254              		@ args = 0, pretend = 0, frame = 8
 255              		@ frame_needed = 1, uses_anonymous_args = 0
 256 0000 80B5     		push	{r7, lr}
 257              		.cfi_def_cfa_offset 8
 258              		.cfi_offset 7, -8
 259              		.cfi_offset 14, -4
 260 0002 82B0     		sub	sp, sp, #8
 261              		.cfi_def_cfa_offset 16
 262 0004 00AF     		add	r7, sp, #0
 263              		.cfi_def_cfa_register 7
 229:.\Generated_Source\PSoC5/UART_1.c ****     uint8 enableInterrupts;
 230:.\Generated_Source\PSoC5/UART_1.c ****     enableInterrupts = CyEnterCriticalSection();
 264              		.loc 1 230 0
 265 0006 FFF7FEFF 		bl	CyEnterCriticalSection
 266 000a 0346     		mov	r3, r0
 267 000c FB71     		strb	r3, [r7, #7]
 231:.\Generated_Source\PSoC5/UART_1.c **** 
 232:.\Generated_Source\PSoC5/UART_1.c ****     /* Write Bit Counter Disable */
 233:.\Generated_Source\PSoC5/UART_1.c ****     #if(UART_1_RX_ENABLED || UART_1_HD_ENABLED)
 234:.\Generated_Source\PSoC5/UART_1.c ****         UART_1_RXBITCTR_CONTROL_REG &= (uint8)~UART_1_CNTR_ENABLE;
 268              		.loc 1 234 0
 269 000e 124B     		ldr	r3, .L12
 270 0010 114A     		ldr	r2, .L12
 271 0012 1278     		ldrb	r2, [r2]
 272 0014 D2B2     		uxtb	r2, r2
 273 0016 22F02002 		bic	r2, r2, #32
 274 001a D2B2     		uxtb	r2, r2
 275 001c 1A70     		strb	r2, [r3]
 235:.\Generated_Source\PSoC5/UART_1.c ****     #endif /* End UART_1_RX_ENABLED */
 236:.\Generated_Source\PSoC5/UART_1.c **** 
 237:.\Generated_Source\PSoC5/UART_1.c ****     #if(UART_1_TX_ENABLED)
 238:.\Generated_Source\PSoC5/UART_1.c ****         #if(!UART_1_TXCLKGEN_DP)
ARM GAS  C:\Users\dskyNote\AppData\Local\Temp\ccZwia2j.s 			page 10


 239:.\Generated_Source\PSoC5/UART_1.c ****             UART_1_TXBITCTR_CONTROL_REG &= (uint8)~UART_1_CNTR_ENABLE;
 240:.\Generated_Source\PSoC5/UART_1.c ****         #endif /* End UART_1_TXCLKGEN_DP */
 241:.\Generated_Source\PSoC5/UART_1.c ****     #endif /* UART_1_TX_ENABLED */
 242:.\Generated_Source\PSoC5/UART_1.c **** 
 243:.\Generated_Source\PSoC5/UART_1.c ****     #if(UART_1_INTERNAL_CLOCK_USED)
 244:.\Generated_Source\PSoC5/UART_1.c ****         /* Disable the clock. */
 245:.\Generated_Source\PSoC5/UART_1.c ****         UART_1_IntClock_Stop();
 276              		.loc 1 245 0
 277 001e FFF7FEFF 		bl	UART_1_IntClock_Stop
 246:.\Generated_Source\PSoC5/UART_1.c ****     #endif /* End UART_1_INTERNAL_CLOCK_USED */
 247:.\Generated_Source\PSoC5/UART_1.c **** 
 248:.\Generated_Source\PSoC5/UART_1.c ****     /* Disable internal interrupt component */
 249:.\Generated_Source\PSoC5/UART_1.c ****     #if(UART_1_RX_ENABLED || UART_1_HD_ENABLED)
 250:.\Generated_Source\PSoC5/UART_1.c ****         UART_1_RXSTATUS_ACTL_REG  &= (uint8)~UART_1_INT_ENABLE;
 278              		.loc 1 250 0
 279 0022 0E4B     		ldr	r3, .L12+4
 280 0024 0D4A     		ldr	r2, .L12+4
 281 0026 1278     		ldrb	r2, [r2]
 282 0028 D2B2     		uxtb	r2, r2
 283 002a 22F01002 		bic	r2, r2, #16
 284 002e D2B2     		uxtb	r2, r2
 285 0030 1A70     		strb	r2, [r3]
 251:.\Generated_Source\PSoC5/UART_1.c ****         #if(UART_1_RX_INTERRUPT_ENABLED && (UART_1_RXBUFFERSIZE > UART_1_FIFO_LENGTH))
 252:.\Generated_Source\PSoC5/UART_1.c ****             UART_1_DisableRxInt();
 286              		.loc 1 252 0
 287 0032 FFF7FEFF 		bl	UART_1_DisableRxInt
 253:.\Generated_Source\PSoC5/UART_1.c ****         #endif /* End UART_1_RX_INTERRUPT_ENABLED */
 254:.\Generated_Source\PSoC5/UART_1.c ****     #endif /* End UART_1_RX_ENABLED */
 255:.\Generated_Source\PSoC5/UART_1.c **** 
 256:.\Generated_Source\PSoC5/UART_1.c ****     #if(UART_1_TX_ENABLED)
 257:.\Generated_Source\PSoC5/UART_1.c ****         UART_1_TXSTATUS_ACTL_REG &= (uint8)~UART_1_INT_ENABLE;
 288              		.loc 1 257 0
 289 0036 0A4B     		ldr	r3, .L12+8
 290 0038 094A     		ldr	r2, .L12+8
 291 003a 1278     		ldrb	r2, [r2]
 292 003c D2B2     		uxtb	r2, r2
 293 003e 22F01002 		bic	r2, r2, #16
 294 0042 D2B2     		uxtb	r2, r2
 295 0044 1A70     		strb	r2, [r3]
 258:.\Generated_Source\PSoC5/UART_1.c ****         #if(UART_1_TX_INTERRUPT_ENABLED && (UART_1_TXBUFFERSIZE > UART_1_FIFO_LENGTH))
 259:.\Generated_Source\PSoC5/UART_1.c ****             UART_1_DisableTxInt();
 296              		.loc 1 259 0
 297 0046 FFF7FEFF 		bl	UART_1_DisableTxInt
 260:.\Generated_Source\PSoC5/UART_1.c ****         #endif /* End UART_1_TX_INTERRUPT_ENABLED */
 261:.\Generated_Source\PSoC5/UART_1.c ****     #endif /* End UART_1_TX_ENABLED */
 262:.\Generated_Source\PSoC5/UART_1.c **** 
 263:.\Generated_Source\PSoC5/UART_1.c ****     CyExitCriticalSection(enableInterrupts);
 298              		.loc 1 263 0
 299 004a FB79     		ldrb	r3, [r7, #7]	@ zero_extendqisi2
 300 004c 1846     		mov	r0, r3
 301 004e FFF7FEFF 		bl	CyExitCriticalSection
 264:.\Generated_Source\PSoC5/UART_1.c **** }
 302              		.loc 1 264 0
 303 0052 0837     		adds	r7, r7, #8
 304 0054 BD46     		mov	sp, r7
 305              		@ sp needed
 306 0056 80BD     		pop	{r7, pc}
ARM GAS  C:\Users\dskyNote\AppData\Local\Temp\ccZwia2j.s 			page 11


 307              	.L13:
 308              		.align	2
 309              	.L12:
 310 0058 9C640040 		.word	1073767580
 311 005c 90640040 		.word	1073767568
 312 0060 91640040 		.word	1073767569
 313              		.cfi_endproc
 314              	.LFE3:
 315              		.size	UART_1_Stop, .-UART_1_Stop
 316              		.section	.text.UART_1_ReadControlRegister,"ax",%progbits
 317              		.align	2
 318              		.global	UART_1_ReadControlRegister
 319              		.thumb
 320              		.thumb_func
 321              		.type	UART_1_ReadControlRegister, %function
 322              	UART_1_ReadControlRegister:
 323              	.LFB4:
 265:.\Generated_Source\PSoC5/UART_1.c **** 
 266:.\Generated_Source\PSoC5/UART_1.c **** 
 267:.\Generated_Source\PSoC5/UART_1.c **** /*******************************************************************************
 268:.\Generated_Source\PSoC5/UART_1.c **** * Function Name: UART_1_ReadControlRegister
 269:.\Generated_Source\PSoC5/UART_1.c **** ********************************************************************************
 270:.\Generated_Source\PSoC5/UART_1.c **** *
 271:.\Generated_Source\PSoC5/UART_1.c **** * Summary:
 272:.\Generated_Source\PSoC5/UART_1.c **** *  Read the current state of the control register
 273:.\Generated_Source\PSoC5/UART_1.c **** *
 274:.\Generated_Source\PSoC5/UART_1.c **** * Parameters:
 275:.\Generated_Source\PSoC5/UART_1.c **** *  None.
 276:.\Generated_Source\PSoC5/UART_1.c **** *
 277:.\Generated_Source\PSoC5/UART_1.c **** * Return:
 278:.\Generated_Source\PSoC5/UART_1.c **** *  Current state of the control register.
 279:.\Generated_Source\PSoC5/UART_1.c **** *
 280:.\Generated_Source\PSoC5/UART_1.c **** *******************************************************************************/
 281:.\Generated_Source\PSoC5/UART_1.c **** uint8 UART_1_ReadControlRegister(void) 
 282:.\Generated_Source\PSoC5/UART_1.c **** {
 324              		.loc 1 282 0
 325              		.cfi_startproc
 326              		@ args = 0, pretend = 0, frame = 0
 327              		@ frame_needed = 1, uses_anonymous_args = 0
 328              		@ link register save eliminated.
 329 0000 80B4     		push	{r7}
 330              		.cfi_def_cfa_offset 4
 331              		.cfi_offset 7, -4
 332 0002 00AF     		add	r7, sp, #0
 333              		.cfi_def_cfa_register 7
 283:.\Generated_Source\PSoC5/UART_1.c ****     #if( UART_1_CONTROL_REG_REMOVED )
 284:.\Generated_Source\PSoC5/UART_1.c ****         return(0u);
 334              		.loc 1 284 0
 335 0004 0023     		movs	r3, #0
 285:.\Generated_Source\PSoC5/UART_1.c ****     #else
 286:.\Generated_Source\PSoC5/UART_1.c ****         return(UART_1_CONTROL_REG);
 287:.\Generated_Source\PSoC5/UART_1.c ****     #endif /* End UART_1_CONTROL_REG_REMOVED */
 288:.\Generated_Source\PSoC5/UART_1.c **** }
 336              		.loc 1 288 0
 337 0006 1846     		mov	r0, r3
 338 0008 BD46     		mov	sp, r7
 339              		@ sp needed
ARM GAS  C:\Users\dskyNote\AppData\Local\Temp\ccZwia2j.s 			page 12


 340 000a 5DF8047B 		ldr	r7, [sp], #4
 341 000e 7047     		bx	lr
 342              		.cfi_endproc
 343              	.LFE4:
 344              		.size	UART_1_ReadControlRegister, .-UART_1_ReadControlRegister
 345              		.section	.text.UART_1_WriteControlRegister,"ax",%progbits
 346              		.align	2
 347              		.global	UART_1_WriteControlRegister
 348              		.thumb
 349              		.thumb_func
 350              		.type	UART_1_WriteControlRegister, %function
 351              	UART_1_WriteControlRegister:
 352              	.LFB5:
 289:.\Generated_Source\PSoC5/UART_1.c **** 
 290:.\Generated_Source\PSoC5/UART_1.c **** 
 291:.\Generated_Source\PSoC5/UART_1.c **** /*******************************************************************************
 292:.\Generated_Source\PSoC5/UART_1.c **** * Function Name: UART_1_WriteControlRegister
 293:.\Generated_Source\PSoC5/UART_1.c **** ********************************************************************************
 294:.\Generated_Source\PSoC5/UART_1.c **** *
 295:.\Generated_Source\PSoC5/UART_1.c **** * Summary:
 296:.\Generated_Source\PSoC5/UART_1.c **** *  Writes an 8-bit value into the control register
 297:.\Generated_Source\PSoC5/UART_1.c **** *
 298:.\Generated_Source\PSoC5/UART_1.c **** * Parameters:
 299:.\Generated_Source\PSoC5/UART_1.c **** *  control:  control register value
 300:.\Generated_Source\PSoC5/UART_1.c **** *
 301:.\Generated_Source\PSoC5/UART_1.c **** * Return:
 302:.\Generated_Source\PSoC5/UART_1.c **** *  None.
 303:.\Generated_Source\PSoC5/UART_1.c **** *
 304:.\Generated_Source\PSoC5/UART_1.c **** *******************************************************************************/
 305:.\Generated_Source\PSoC5/UART_1.c **** void  UART_1_WriteControlRegister(uint8 control) 
 306:.\Generated_Source\PSoC5/UART_1.c **** {
 353              		.loc 1 306 0
 354              		.cfi_startproc
 355              		@ args = 0, pretend = 0, frame = 8
 356              		@ frame_needed = 1, uses_anonymous_args = 0
 357              		@ link register save eliminated.
 358 0000 80B4     		push	{r7}
 359              		.cfi_def_cfa_offset 4
 360              		.cfi_offset 7, -4
 361 0002 83B0     		sub	sp, sp, #12
 362              		.cfi_def_cfa_offset 16
 363 0004 00AF     		add	r7, sp, #0
 364              		.cfi_def_cfa_register 7
 365 0006 0346     		mov	r3, r0
 366 0008 FB71     		strb	r3, [r7, #7]
 307:.\Generated_Source\PSoC5/UART_1.c ****     #if( UART_1_CONTROL_REG_REMOVED )
 308:.\Generated_Source\PSoC5/UART_1.c ****         if(control != 0u) { }      /* release compiler warning */
 309:.\Generated_Source\PSoC5/UART_1.c ****     #else
 310:.\Generated_Source\PSoC5/UART_1.c ****        UART_1_CONTROL_REG = control;
 311:.\Generated_Source\PSoC5/UART_1.c ****     #endif /* End UART_1_CONTROL_REG_REMOVED */
 312:.\Generated_Source\PSoC5/UART_1.c **** }
 367              		.loc 1 312 0
 368 000a 0C37     		adds	r7, r7, #12
 369 000c BD46     		mov	sp, r7
 370              		@ sp needed
 371 000e 5DF8047B 		ldr	r7, [sp], #4
 372 0012 7047     		bx	lr
ARM GAS  C:\Users\dskyNote\AppData\Local\Temp\ccZwia2j.s 			page 13


 373              		.cfi_endproc
 374              	.LFE5:
 375              		.size	UART_1_WriteControlRegister, .-UART_1_WriteControlRegister
 376              		.section	.text.UART_1_EnableRxInt,"ax",%progbits
 377              		.align	2
 378              		.global	UART_1_EnableRxInt
 379              		.thumb
 380              		.thumb_func
 381              		.type	UART_1_EnableRxInt, %function
 382              	UART_1_EnableRxInt:
 383              	.LFB6:
 313:.\Generated_Source\PSoC5/UART_1.c **** 
 314:.\Generated_Source\PSoC5/UART_1.c **** 
 315:.\Generated_Source\PSoC5/UART_1.c **** #if(UART_1_RX_ENABLED || UART_1_HD_ENABLED)
 316:.\Generated_Source\PSoC5/UART_1.c **** 
 317:.\Generated_Source\PSoC5/UART_1.c ****     #if(UART_1_RX_INTERRUPT_ENABLED)
 318:.\Generated_Source\PSoC5/UART_1.c **** 
 319:.\Generated_Source\PSoC5/UART_1.c ****         /*******************************************************************************
 320:.\Generated_Source\PSoC5/UART_1.c ****         * Function Name: UART_1_EnableRxInt
 321:.\Generated_Source\PSoC5/UART_1.c ****         ********************************************************************************
 322:.\Generated_Source\PSoC5/UART_1.c ****         *
 323:.\Generated_Source\PSoC5/UART_1.c ****         * Summary:
 324:.\Generated_Source\PSoC5/UART_1.c ****         *  Enable RX interrupt generation
 325:.\Generated_Source\PSoC5/UART_1.c ****         *
 326:.\Generated_Source\PSoC5/UART_1.c ****         * Parameters:
 327:.\Generated_Source\PSoC5/UART_1.c ****         *  None.
 328:.\Generated_Source\PSoC5/UART_1.c ****         *
 329:.\Generated_Source\PSoC5/UART_1.c ****         * Return:
 330:.\Generated_Source\PSoC5/UART_1.c ****         *  None.
 331:.\Generated_Source\PSoC5/UART_1.c ****         *
 332:.\Generated_Source\PSoC5/UART_1.c ****         * Theory:
 333:.\Generated_Source\PSoC5/UART_1.c ****         *  Enable the interrupt output -or- the interrupt component itself
 334:.\Generated_Source\PSoC5/UART_1.c ****         *
 335:.\Generated_Source\PSoC5/UART_1.c ****         *******************************************************************************/
 336:.\Generated_Source\PSoC5/UART_1.c ****         void UART_1_EnableRxInt(void) 
 337:.\Generated_Source\PSoC5/UART_1.c ****         {
 384              		.loc 1 337 0
 385              		.cfi_startproc
 386              		@ args = 0, pretend = 0, frame = 0
 387              		@ frame_needed = 1, uses_anonymous_args = 0
 388              		@ link register save eliminated.
 389 0000 80B4     		push	{r7}
 390              		.cfi_def_cfa_offset 4
 391              		.cfi_offset 7, -4
 392 0002 00AF     		add	r7, sp, #0
 393              		.cfi_def_cfa_register 7
 338:.\Generated_Source\PSoC5/UART_1.c ****             CyIntEnable(UART_1_RX_VECT_NUM);
 394              		.loc 1 338 0
 395 0004 034B     		ldr	r3, .L18
 396 0006 0422     		movs	r2, #4
 397 0008 1A60     		str	r2, [r3]
 339:.\Generated_Source\PSoC5/UART_1.c ****         }
 398              		.loc 1 339 0
 399 000a BD46     		mov	sp, r7
 400              		@ sp needed
 401 000c 5DF8047B 		ldr	r7, [sp], #4
 402 0010 7047     		bx	lr
ARM GAS  C:\Users\dskyNote\AppData\Local\Temp\ccZwia2j.s 			page 14


 403              	.L19:
 404 0012 00BF     		.align	2
 405              	.L18:
 406 0014 00E100E0 		.word	-536813312
 407              		.cfi_endproc
 408              	.LFE6:
 409              		.size	UART_1_EnableRxInt, .-UART_1_EnableRxInt
 410              		.section	.text.UART_1_DisableRxInt,"ax",%progbits
 411              		.align	2
 412              		.global	UART_1_DisableRxInt
 413              		.thumb
 414              		.thumb_func
 415              		.type	UART_1_DisableRxInt, %function
 416              	UART_1_DisableRxInt:
 417              	.LFB7:
 340:.\Generated_Source\PSoC5/UART_1.c **** 
 341:.\Generated_Source\PSoC5/UART_1.c **** 
 342:.\Generated_Source\PSoC5/UART_1.c ****         /*******************************************************************************
 343:.\Generated_Source\PSoC5/UART_1.c ****         * Function Name: UART_1_DisableRxInt
 344:.\Generated_Source\PSoC5/UART_1.c ****         ********************************************************************************
 345:.\Generated_Source\PSoC5/UART_1.c ****         *
 346:.\Generated_Source\PSoC5/UART_1.c ****         * Summary:
 347:.\Generated_Source\PSoC5/UART_1.c ****         *  Disable RX interrupt generation
 348:.\Generated_Source\PSoC5/UART_1.c ****         *
 349:.\Generated_Source\PSoC5/UART_1.c ****         * Parameters:
 350:.\Generated_Source\PSoC5/UART_1.c ****         *  None.
 351:.\Generated_Source\PSoC5/UART_1.c ****         *
 352:.\Generated_Source\PSoC5/UART_1.c ****         * Return:
 353:.\Generated_Source\PSoC5/UART_1.c ****         *  None.
 354:.\Generated_Source\PSoC5/UART_1.c ****         *
 355:.\Generated_Source\PSoC5/UART_1.c ****         * Theory:
 356:.\Generated_Source\PSoC5/UART_1.c ****         *  Disable the interrupt output -or- the interrupt component itself
 357:.\Generated_Source\PSoC5/UART_1.c ****         *
 358:.\Generated_Source\PSoC5/UART_1.c ****         *******************************************************************************/
 359:.\Generated_Source\PSoC5/UART_1.c ****         void UART_1_DisableRxInt(void) 
 360:.\Generated_Source\PSoC5/UART_1.c ****         {
 418              		.loc 1 360 0
 419              		.cfi_startproc
 420              		@ args = 0, pretend = 0, frame = 0
 421              		@ frame_needed = 1, uses_anonymous_args = 0
 422              		@ link register save eliminated.
 423 0000 80B4     		push	{r7}
 424              		.cfi_def_cfa_offset 4
 425              		.cfi_offset 7, -4
 426 0002 00AF     		add	r7, sp, #0
 427              		.cfi_def_cfa_register 7
 361:.\Generated_Source\PSoC5/UART_1.c ****             CyIntDisable(UART_1_RX_VECT_NUM);
 428              		.loc 1 361 0
 429 0004 034B     		ldr	r3, .L21
 430 0006 0422     		movs	r2, #4
 431 0008 1A60     		str	r2, [r3]
 362:.\Generated_Source\PSoC5/UART_1.c ****         }
 432              		.loc 1 362 0
 433 000a BD46     		mov	sp, r7
 434              		@ sp needed
 435 000c 5DF8047B 		ldr	r7, [sp], #4
 436 0010 7047     		bx	lr
ARM GAS  C:\Users\dskyNote\AppData\Local\Temp\ccZwia2j.s 			page 15


 437              	.L22:
 438 0012 00BF     		.align	2
 439              	.L21:
 440 0014 80E100E0 		.word	-536813184
 441              		.cfi_endproc
 442              	.LFE7:
 443              		.size	UART_1_DisableRxInt, .-UART_1_DisableRxInt
 444              		.section	.text.UART_1_SetRxInterruptMode,"ax",%progbits
 445              		.align	2
 446              		.global	UART_1_SetRxInterruptMode
 447              		.thumb
 448              		.thumb_func
 449              		.type	UART_1_SetRxInterruptMode, %function
 450              	UART_1_SetRxInterruptMode:
 451              	.LFB8:
 363:.\Generated_Source\PSoC5/UART_1.c **** 
 364:.\Generated_Source\PSoC5/UART_1.c ****     #endif /* UART_1_RX_INTERRUPT_ENABLED */
 365:.\Generated_Source\PSoC5/UART_1.c **** 
 366:.\Generated_Source\PSoC5/UART_1.c **** 
 367:.\Generated_Source\PSoC5/UART_1.c ****     /*******************************************************************************
 368:.\Generated_Source\PSoC5/UART_1.c ****     * Function Name: UART_1_SetRxInterruptMode
 369:.\Generated_Source\PSoC5/UART_1.c ****     ********************************************************************************
 370:.\Generated_Source\PSoC5/UART_1.c ****     *
 371:.\Generated_Source\PSoC5/UART_1.c ****     * Summary:
 372:.\Generated_Source\PSoC5/UART_1.c ****     *  Configure which status bits trigger an interrupt event
 373:.\Generated_Source\PSoC5/UART_1.c ****     *
 374:.\Generated_Source\PSoC5/UART_1.c ****     * Parameters:
 375:.\Generated_Source\PSoC5/UART_1.c ****     *  IntSrc:  An or'd combination of the desired status bit masks (defined in
 376:.\Generated_Source\PSoC5/UART_1.c ****     *           the header file)
 377:.\Generated_Source\PSoC5/UART_1.c ****     *
 378:.\Generated_Source\PSoC5/UART_1.c ****     * Return:
 379:.\Generated_Source\PSoC5/UART_1.c ****     *  None.
 380:.\Generated_Source\PSoC5/UART_1.c ****     *
 381:.\Generated_Source\PSoC5/UART_1.c ****     * Theory:
 382:.\Generated_Source\PSoC5/UART_1.c ****     *  Enables the output of specific status bits to the interrupt controller
 383:.\Generated_Source\PSoC5/UART_1.c ****     *
 384:.\Generated_Source\PSoC5/UART_1.c ****     *******************************************************************************/
 385:.\Generated_Source\PSoC5/UART_1.c ****     void UART_1_SetRxInterruptMode(uint8 intSrc) 
 386:.\Generated_Source\PSoC5/UART_1.c ****     {
 452              		.loc 1 386 0
 453              		.cfi_startproc
 454              		@ args = 0, pretend = 0, frame = 8
 455              		@ frame_needed = 1, uses_anonymous_args = 0
 456              		@ link register save eliminated.
 457 0000 80B4     		push	{r7}
 458              		.cfi_def_cfa_offset 4
 459              		.cfi_offset 7, -4
 460 0002 83B0     		sub	sp, sp, #12
 461              		.cfi_def_cfa_offset 16
 462 0004 00AF     		add	r7, sp, #0
 463              		.cfi_def_cfa_register 7
 464 0006 0346     		mov	r3, r0
 465 0008 FB71     		strb	r3, [r7, #7]
 387:.\Generated_Source\PSoC5/UART_1.c ****         UART_1_RXSTATUS_MASK_REG  = intSrc;
 466              		.loc 1 387 0
 467 000a 044B     		ldr	r3, .L24
 468 000c FA79     		ldrb	r2, [r7, #7]
ARM GAS  C:\Users\dskyNote\AppData\Local\Temp\ccZwia2j.s 			page 16


 469 000e 1A70     		strb	r2, [r3]
 388:.\Generated_Source\PSoC5/UART_1.c ****     }
 470              		.loc 1 388 0
 471 0010 0C37     		adds	r7, r7, #12
 472 0012 BD46     		mov	sp, r7
 473              		@ sp needed
 474 0014 5DF8047B 		ldr	r7, [sp], #4
 475 0018 7047     		bx	lr
 476              	.L25:
 477 001a 00BF     		.align	2
 478              	.L24:
 479 001c 80640040 		.word	1073767552
 480              		.cfi_endproc
 481              	.LFE8:
 482              		.size	UART_1_SetRxInterruptMode, .-UART_1_SetRxInterruptMode
 483              		.section	.text.UART_1_ReadRxData,"ax",%progbits
 484              		.align	2
 485              		.global	UART_1_ReadRxData
 486              		.thumb
 487              		.thumb_func
 488              		.type	UART_1_ReadRxData, %function
 489              	UART_1_ReadRxData:
 490              	.LFB9:
 389:.\Generated_Source\PSoC5/UART_1.c **** 
 390:.\Generated_Source\PSoC5/UART_1.c **** 
 391:.\Generated_Source\PSoC5/UART_1.c ****     /*******************************************************************************
 392:.\Generated_Source\PSoC5/UART_1.c ****     * Function Name: UART_1_ReadRxData
 393:.\Generated_Source\PSoC5/UART_1.c ****     ********************************************************************************
 394:.\Generated_Source\PSoC5/UART_1.c ****     *
 395:.\Generated_Source\PSoC5/UART_1.c ****     * Summary:
 396:.\Generated_Source\PSoC5/UART_1.c ****     *  Returns data in RX Data register without checking status register to
 397:.\Generated_Source\PSoC5/UART_1.c ****     *  determine if data is valid
 398:.\Generated_Source\PSoC5/UART_1.c ****     *
 399:.\Generated_Source\PSoC5/UART_1.c ****     * Parameters:
 400:.\Generated_Source\PSoC5/UART_1.c ****     *  None.
 401:.\Generated_Source\PSoC5/UART_1.c ****     *
 402:.\Generated_Source\PSoC5/UART_1.c ****     * Return:
 403:.\Generated_Source\PSoC5/UART_1.c ****     *  Received data from RX register
 404:.\Generated_Source\PSoC5/UART_1.c ****     *
 405:.\Generated_Source\PSoC5/UART_1.c ****     * Global Variables:
 406:.\Generated_Source\PSoC5/UART_1.c ****     *  UART_1_rxBuffer - RAM buffer pointer for save received data.
 407:.\Generated_Source\PSoC5/UART_1.c ****     *  UART_1_rxBufferWrite - cyclic index for write to rxBuffer,
 408:.\Generated_Source\PSoC5/UART_1.c ****     *     checked to identify new data.
 409:.\Generated_Source\PSoC5/UART_1.c ****     *  UART_1_rxBufferRead - cyclic index for read from rxBuffer,
 410:.\Generated_Source\PSoC5/UART_1.c ****     *     incremented after each byte has been read from buffer.
 411:.\Generated_Source\PSoC5/UART_1.c ****     *  UART_1_rxBufferLoopDetect - creared if loop condition was detected
 412:.\Generated_Source\PSoC5/UART_1.c ****     *     in RX ISR.
 413:.\Generated_Source\PSoC5/UART_1.c ****     *
 414:.\Generated_Source\PSoC5/UART_1.c ****     * Reentrant:
 415:.\Generated_Source\PSoC5/UART_1.c ****     *  No.
 416:.\Generated_Source\PSoC5/UART_1.c ****     *
 417:.\Generated_Source\PSoC5/UART_1.c ****     *******************************************************************************/
 418:.\Generated_Source\PSoC5/UART_1.c ****     uint8 UART_1_ReadRxData(void) 
 419:.\Generated_Source\PSoC5/UART_1.c ****     {
 491              		.loc 1 419 0
 492              		.cfi_startproc
 493              		@ args = 0, pretend = 0, frame = 8
ARM GAS  C:\Users\dskyNote\AppData\Local\Temp\ccZwia2j.s 			page 17


 494              		@ frame_needed = 1, uses_anonymous_args = 0
 495 0000 80B5     		push	{r7, lr}
 496              		.cfi_def_cfa_offset 8
 497              		.cfi_offset 7, -8
 498              		.cfi_offset 14, -4
 499 0002 82B0     		sub	sp, sp, #8
 500              		.cfi_def_cfa_offset 16
 501 0004 00AF     		add	r7, sp, #0
 502              		.cfi_def_cfa_register 7
 420:.\Generated_Source\PSoC5/UART_1.c ****         uint8 rxData;
 421:.\Generated_Source\PSoC5/UART_1.c **** 
 422:.\Generated_Source\PSoC5/UART_1.c ****         #if(UART_1_RXBUFFERSIZE > UART_1_FIFO_LENGTH)
 423:.\Generated_Source\PSoC5/UART_1.c ****             uint8 loc_rxBufferRead;
 424:.\Generated_Source\PSoC5/UART_1.c ****             uint8 loc_rxBufferWrite;
 425:.\Generated_Source\PSoC5/UART_1.c ****             /* Protect variables that could change on interrupt. */
 426:.\Generated_Source\PSoC5/UART_1.c ****             /* Disable Rx interrupt. */
 427:.\Generated_Source\PSoC5/UART_1.c ****             #if(UART_1_RX_INTERRUPT_ENABLED)
 428:.\Generated_Source\PSoC5/UART_1.c ****                 UART_1_DisableRxInt();
 503              		.loc 1 428 0
 504 0006 FFF7FEFF 		bl	UART_1_DisableRxInt
 429:.\Generated_Source\PSoC5/UART_1.c ****             #endif /* UART_1_RX_INTERRUPT_ENABLED */
 430:.\Generated_Source\PSoC5/UART_1.c ****             loc_rxBufferRead = UART_1_rxBufferRead;
 505              		.loc 1 430 0
 506 000a 1D4B     		ldr	r3, .L33
 507 000c 1B78     		ldrb	r3, [r3]
 508 000e BB71     		strb	r3, [r7, #6]
 431:.\Generated_Source\PSoC5/UART_1.c ****             loc_rxBufferWrite = UART_1_rxBufferWrite;
 509              		.loc 1 431 0
 510 0010 1C4B     		ldr	r3, .L33+4
 511 0012 1B78     		ldrb	r3, [r3]
 512 0014 7B71     		strb	r3, [r7, #5]
 432:.\Generated_Source\PSoC5/UART_1.c **** 
 433:.\Generated_Source\PSoC5/UART_1.c ****             if( (UART_1_rxBufferLoopDetect != 0u) || (loc_rxBufferRead != loc_rxBufferWrite) )
 513              		.loc 1 433 0
 514 0016 1C4B     		ldr	r3, .L33+8
 515 0018 1B78     		ldrb	r3, [r3]
 516 001a DBB2     		uxtb	r3, r3
 517 001c 002B     		cmp	r3, #0
 518 001e 03D1     		bne	.L27
 519              		.loc 1 433 0 is_stmt 0 discriminator 1
 520 0020 BA79     		ldrb	r2, [r7, #6]	@ zero_extendqisi2
 521 0022 7B79     		ldrb	r3, [r7, #5]	@ zero_extendqisi2
 522 0024 9A42     		cmp	r2, r3
 523 0026 21D0     		beq	.L28
 524              	.L27:
 434:.\Generated_Source\PSoC5/UART_1.c ****             {
 435:.\Generated_Source\PSoC5/UART_1.c ****                 rxData = UART_1_rxBuffer[loc_rxBufferRead];
 525              		.loc 1 435 0 is_stmt 1
 526 0028 BB79     		ldrb	r3, [r7, #6]	@ zero_extendqisi2
 527 002a 184A     		ldr	r2, .L33+12
 528 002c D35C     		ldrb	r3, [r2, r3]
 529 002e FB71     		strb	r3, [r7, #7]
 436:.\Generated_Source\PSoC5/UART_1.c ****                 loc_rxBufferRead++;
 530              		.loc 1 436 0
 531 0030 BB79     		ldrb	r3, [r7, #6]	@ zero_extendqisi2
 532 0032 0133     		adds	r3, r3, #1
 533 0034 BB71     		strb	r3, [r7, #6]
ARM GAS  C:\Users\dskyNote\AppData\Local\Temp\ccZwia2j.s 			page 18


 437:.\Generated_Source\PSoC5/UART_1.c **** 
 438:.\Generated_Source\PSoC5/UART_1.c ****                 if(loc_rxBufferRead >= UART_1_RXBUFFERSIZE)
 534              		.loc 1 438 0
 535 0036 BB79     		ldrb	r3, [r7, #6]	@ zero_extendqisi2
 536 0038 5BB2     		sxtb	r3, r3
 537 003a 002B     		cmp	r3, #0
 538 003c 01DA     		bge	.L29
 439:.\Generated_Source\PSoC5/UART_1.c ****                 {
 440:.\Generated_Source\PSoC5/UART_1.c ****                     loc_rxBufferRead = 0u;
 539              		.loc 1 440 0
 540 003e 0023     		movs	r3, #0
 541 0040 BB71     		strb	r3, [r7, #6]
 542              	.L29:
 441:.\Generated_Source\PSoC5/UART_1.c ****                 }
 442:.\Generated_Source\PSoC5/UART_1.c ****                 /* Update the real pointer */
 443:.\Generated_Source\PSoC5/UART_1.c ****                 UART_1_rxBufferRead = loc_rxBufferRead;
 543              		.loc 1 443 0
 544 0042 0F4B     		ldr	r3, .L33
 545 0044 BA79     		ldrb	r2, [r7, #6]
 546 0046 1A70     		strb	r2, [r3]
 444:.\Generated_Source\PSoC5/UART_1.c **** 
 445:.\Generated_Source\PSoC5/UART_1.c ****                 if(UART_1_rxBufferLoopDetect != 0u )
 547              		.loc 1 445 0
 548 0048 0F4B     		ldr	r3, .L33+8
 549 004a 1B78     		ldrb	r3, [r3]
 550 004c DBB2     		uxtb	r3, r3
 551 004e 002B     		cmp	r3, #0
 552 0050 0BD0     		beq	.L30
 446:.\Generated_Source\PSoC5/UART_1.c ****                 {
 447:.\Generated_Source\PSoC5/UART_1.c ****                     UART_1_rxBufferLoopDetect = 0u;
 553              		.loc 1 447 0
 554 0052 0D4B     		ldr	r3, .L33+8
 555 0054 0022     		movs	r2, #0
 556 0056 1A70     		strb	r2, [r3]
 448:.\Generated_Source\PSoC5/UART_1.c ****                     #if( (UART_1_RX_INTERRUPT_ENABLED) && (UART_1_FLOW_CONTROL != 0u) && \
 449:.\Generated_Source\PSoC5/UART_1.c ****                          (UART_1_RXBUFFERSIZE > UART_1_FIFO_LENGTH) )
 450:.\Generated_Source\PSoC5/UART_1.c ****                         /* When Hardware Flow Control selected - return RX mask */
 451:.\Generated_Source\PSoC5/UART_1.c ****                         #if( UART_1_HD_ENABLED )
 452:.\Generated_Source\PSoC5/UART_1.c ****                             if((UART_1_CONTROL_REG & UART_1_CTRL_HD_SEND) == 0u)
 453:.\Generated_Source\PSoC5/UART_1.c ****                             {   /* In Half duplex mode return RX mask only in RX
 454:.\Generated_Source\PSoC5/UART_1.c ****                                 *  configuration set, otherwise
 455:.\Generated_Source\PSoC5/UART_1.c ****                                 *  mask will be returned in LoadRxConfig() API.
 456:.\Generated_Source\PSoC5/UART_1.c ****                                 */
 457:.\Generated_Source\PSoC5/UART_1.c ****                                 UART_1_RXSTATUS_MASK_REG  |= UART_1_RX_STS_FIFO_NOTEMPTY;
 458:.\Generated_Source\PSoC5/UART_1.c ****                             }
 459:.\Generated_Source\PSoC5/UART_1.c ****                         #else
 460:.\Generated_Source\PSoC5/UART_1.c ****                             UART_1_RXSTATUS_MASK_REG  |= UART_1_RX_STS_FIFO_NOTEMPTY;
 557              		.loc 1 460 0
 558 0058 0D4B     		ldr	r3, .L33+16
 559 005a 0D4A     		ldr	r2, .L33+16
 560 005c 1278     		ldrb	r2, [r2]
 561 005e D2B2     		uxtb	r2, r2
 562 0060 42F02002 		orr	r2, r2, #32
 563 0064 D2B2     		uxtb	r2, r2
 564 0066 1A70     		strb	r2, [r3]
 445:.\Generated_Source\PSoC5/UART_1.c ****                 if(UART_1_rxBufferLoopDetect != 0u )
 565              		.loc 1 445 0
ARM GAS  C:\Users\dskyNote\AppData\Local\Temp\ccZwia2j.s 			page 19


 566 0068 03E0     		b	.L31
 567              	.L30:
 445:.\Generated_Source\PSoC5/UART_1.c ****                 if(UART_1_rxBufferLoopDetect != 0u )
 568              		.loc 1 445 0 is_stmt 0 discriminator 1
 569 006a 02E0     		b	.L31
 570              	.L28:
 461:.\Generated_Source\PSoC5/UART_1.c ****                         #endif /* end UART_1_HD_ENABLED */
 462:.\Generated_Source\PSoC5/UART_1.c ****                     #endif /* UART_1_RX_INTERRUPT_ENABLED and Hardware flow control*/
 463:.\Generated_Source\PSoC5/UART_1.c ****                 }
 464:.\Generated_Source\PSoC5/UART_1.c ****             }
 465:.\Generated_Source\PSoC5/UART_1.c ****             else
 466:.\Generated_Source\PSoC5/UART_1.c ****             {   /* Needs to check status for RX_STS_FIFO_NOTEMPTY bit*/
 467:.\Generated_Source\PSoC5/UART_1.c ****                 rxData = UART_1_RXDATA_REG;
 571              		.loc 1 467 0 is_stmt 1
 572 006c 094B     		ldr	r3, .L33+20
 573 006e 1B78     		ldrb	r3, [r3]
 574 0070 FB71     		strb	r3, [r7, #7]
 575              	.L31:
 468:.\Generated_Source\PSoC5/UART_1.c ****             }
 469:.\Generated_Source\PSoC5/UART_1.c **** 
 470:.\Generated_Source\PSoC5/UART_1.c ****             /* Enable Rx interrupt. */
 471:.\Generated_Source\PSoC5/UART_1.c ****             #if(UART_1_RX_INTERRUPT_ENABLED)
 472:.\Generated_Source\PSoC5/UART_1.c ****                 UART_1_EnableRxInt();
 576              		.loc 1 472 0
 577 0072 FFF7FEFF 		bl	UART_1_EnableRxInt
 473:.\Generated_Source\PSoC5/UART_1.c ****             #endif /* End UART_1_RX_INTERRUPT_ENABLED */
 474:.\Generated_Source\PSoC5/UART_1.c **** 
 475:.\Generated_Source\PSoC5/UART_1.c ****         #else /* UART_1_RXBUFFERSIZE > UART_1_FIFO_LENGTH */
 476:.\Generated_Source\PSoC5/UART_1.c **** 
 477:.\Generated_Source\PSoC5/UART_1.c ****             /* Needs to check status for RX_STS_FIFO_NOTEMPTY bit*/
 478:.\Generated_Source\PSoC5/UART_1.c ****             rxData = UART_1_RXDATA_REG;
 479:.\Generated_Source\PSoC5/UART_1.c **** 
 480:.\Generated_Source\PSoC5/UART_1.c ****         #endif /* UART_1_RXBUFFERSIZE > UART_1_FIFO_LENGTH */
 481:.\Generated_Source\PSoC5/UART_1.c **** 
 482:.\Generated_Source\PSoC5/UART_1.c ****         return(rxData);
 578              		.loc 1 482 0
 579 0076 FB79     		ldrb	r3, [r7, #7]	@ zero_extendqisi2
 483:.\Generated_Source\PSoC5/UART_1.c ****     }
 580              		.loc 1 483 0
 581 0078 1846     		mov	r0, r3
 582 007a 0837     		adds	r7, r7, #8
 583 007c BD46     		mov	sp, r7
 584              		@ sp needed
 585 007e 80BD     		pop	{r7, pc}
 586              	.L34:
 587              		.align	2
 588              	.L33:
 589 0080 00000000 		.word	UART_1_rxBufferRead
 590 0084 00000000 		.word	UART_1_rxBufferWrite
 591 0088 00000000 		.word	UART_1_rxBufferLoopDetect
 592 008c 00000000 		.word	UART_1_rxBuffer
 593 0090 80640040 		.word	1073767552
 594 0094 4C640040 		.word	1073767500
 595              		.cfi_endproc
 596              	.LFE9:
 597              		.size	UART_1_ReadRxData, .-UART_1_ReadRxData
 598              		.section	.text.UART_1_ReadRxStatus,"ax",%progbits
ARM GAS  C:\Users\dskyNote\AppData\Local\Temp\ccZwia2j.s 			page 20


 599              		.align	2
 600              		.global	UART_1_ReadRxStatus
 601              		.thumb
 602              		.thumb_func
 603              		.type	UART_1_ReadRxStatus, %function
 604              	UART_1_ReadRxStatus:
 605              	.LFB10:
 484:.\Generated_Source\PSoC5/UART_1.c **** 
 485:.\Generated_Source\PSoC5/UART_1.c **** 
 486:.\Generated_Source\PSoC5/UART_1.c ****     /*******************************************************************************
 487:.\Generated_Source\PSoC5/UART_1.c ****     * Function Name: UART_1_ReadRxStatus
 488:.\Generated_Source\PSoC5/UART_1.c ****     ********************************************************************************
 489:.\Generated_Source\PSoC5/UART_1.c ****     *
 490:.\Generated_Source\PSoC5/UART_1.c ****     * Summary:
 491:.\Generated_Source\PSoC5/UART_1.c ****     *  Read the current state of the status register
 492:.\Generated_Source\PSoC5/UART_1.c ****     *  And detect software buffer overflow.
 493:.\Generated_Source\PSoC5/UART_1.c ****     *
 494:.\Generated_Source\PSoC5/UART_1.c ****     * Parameters:
 495:.\Generated_Source\PSoC5/UART_1.c ****     *  None.
 496:.\Generated_Source\PSoC5/UART_1.c ****     *
 497:.\Generated_Source\PSoC5/UART_1.c ****     * Return:
 498:.\Generated_Source\PSoC5/UART_1.c ****     *  Current state of the status register.
 499:.\Generated_Source\PSoC5/UART_1.c ****     *
 500:.\Generated_Source\PSoC5/UART_1.c ****     * Global Variables:
 501:.\Generated_Source\PSoC5/UART_1.c ****     *  UART_1_rxBufferOverflow - used to indicate overload condition.
 502:.\Generated_Source\PSoC5/UART_1.c ****     *   It set to one in RX interrupt when there isn?t free space in
 503:.\Generated_Source\PSoC5/UART_1.c ****     *   UART_1_rxBufferRead to write new data. This condition returned
 504:.\Generated_Source\PSoC5/UART_1.c ****     *   and cleared to zero by this API as an
 505:.\Generated_Source\PSoC5/UART_1.c ****     *   UART_1_RX_STS_SOFT_BUFF_OVER bit along with RX Status register
 506:.\Generated_Source\PSoC5/UART_1.c ****     *   bits.
 507:.\Generated_Source\PSoC5/UART_1.c ****     *
 508:.\Generated_Source\PSoC5/UART_1.c ****     *******************************************************************************/
 509:.\Generated_Source\PSoC5/UART_1.c ****     uint8 UART_1_ReadRxStatus(void) 
 510:.\Generated_Source\PSoC5/UART_1.c ****     {
 606              		.loc 1 510 0
 607              		.cfi_startproc
 608              		@ args = 0, pretend = 0, frame = 8
 609              		@ frame_needed = 1, uses_anonymous_args = 0
 610              		@ link register save eliminated.
 611 0000 80B4     		push	{r7}
 612              		.cfi_def_cfa_offset 4
 613              		.cfi_offset 7, -4
 614 0002 83B0     		sub	sp, sp, #12
 615              		.cfi_def_cfa_offset 16
 616 0004 00AF     		add	r7, sp, #0
 617              		.cfi_def_cfa_register 7
 511:.\Generated_Source\PSoC5/UART_1.c ****         uint8 status;
 512:.\Generated_Source\PSoC5/UART_1.c **** 
 513:.\Generated_Source\PSoC5/UART_1.c ****         status = UART_1_RXSTATUS_REG & UART_1_RX_HW_MASK;
 618              		.loc 1 513 0
 619 0006 0C4B     		ldr	r3, .L38
 620 0008 1B78     		ldrb	r3, [r3]
 621 000a DBB2     		uxtb	r3, r3
 622 000c 03F07F03 		and	r3, r3, #127
 623 0010 FB71     		strb	r3, [r7, #7]
 514:.\Generated_Source\PSoC5/UART_1.c **** 
 515:.\Generated_Source\PSoC5/UART_1.c ****         #if(UART_1_RXBUFFERSIZE > UART_1_FIFO_LENGTH)
ARM GAS  C:\Users\dskyNote\AppData\Local\Temp\ccZwia2j.s 			page 21


 516:.\Generated_Source\PSoC5/UART_1.c ****             if( UART_1_rxBufferOverflow != 0u )
 624              		.loc 1 516 0
 625 0012 0A4B     		ldr	r3, .L38+4
 626 0014 1B78     		ldrb	r3, [r3]
 627 0016 DBB2     		uxtb	r3, r3
 628 0018 002B     		cmp	r3, #0
 629 001a 06D0     		beq	.L36
 517:.\Generated_Source\PSoC5/UART_1.c ****             {
 518:.\Generated_Source\PSoC5/UART_1.c ****                 status |= UART_1_RX_STS_SOFT_BUFF_OVER;
 630              		.loc 1 518 0
 631 001c FB79     		ldrb	r3, [r7, #7]
 632 001e 63F07F03 		orn	r3, r3, #127
 633 0022 FB71     		strb	r3, [r7, #7]
 519:.\Generated_Source\PSoC5/UART_1.c ****                 UART_1_rxBufferOverflow = 0u;
 634              		.loc 1 519 0
 635 0024 054B     		ldr	r3, .L38+4
 636 0026 0022     		movs	r2, #0
 637 0028 1A70     		strb	r2, [r3]
 638              	.L36:
 520:.\Generated_Source\PSoC5/UART_1.c ****             }
 521:.\Generated_Source\PSoC5/UART_1.c ****         #endif /* UART_1_RXBUFFERSIZE */
 522:.\Generated_Source\PSoC5/UART_1.c **** 
 523:.\Generated_Source\PSoC5/UART_1.c ****         return(status);
 639              		.loc 1 523 0
 640 002a FB79     		ldrb	r3, [r7, #7]	@ zero_extendqisi2
 524:.\Generated_Source\PSoC5/UART_1.c ****     }
 641              		.loc 1 524 0
 642 002c 1846     		mov	r0, r3
 643 002e 0C37     		adds	r7, r7, #12
 644 0030 BD46     		mov	sp, r7
 645              		@ sp needed
 646 0032 5DF8047B 		ldr	r7, [sp], #4
 647 0036 7047     		bx	lr
 648              	.L39:
 649              		.align	2
 650              	.L38:
 651 0038 60640040 		.word	1073767520
 652 003c 00000000 		.word	UART_1_rxBufferOverflow
 653              		.cfi_endproc
 654              	.LFE10:
 655              		.size	UART_1_ReadRxStatus, .-UART_1_ReadRxStatus
 656              		.section	.text.UART_1_GetChar,"ax",%progbits
 657              		.align	2
 658              		.global	UART_1_GetChar
 659              		.thumb
 660              		.thumb_func
 661              		.type	UART_1_GetChar, %function
 662              	UART_1_GetChar:
 663              	.LFB11:
 525:.\Generated_Source\PSoC5/UART_1.c **** 
 526:.\Generated_Source\PSoC5/UART_1.c **** 
 527:.\Generated_Source\PSoC5/UART_1.c ****     /*******************************************************************************
 528:.\Generated_Source\PSoC5/UART_1.c ****     * Function Name: UART_1_GetChar
 529:.\Generated_Source\PSoC5/UART_1.c ****     ********************************************************************************
 530:.\Generated_Source\PSoC5/UART_1.c ****     *
 531:.\Generated_Source\PSoC5/UART_1.c ****     * Summary:
 532:.\Generated_Source\PSoC5/UART_1.c ****     *  Reads UART RX buffer immediately, if data is not available or an error
ARM GAS  C:\Users\dskyNote\AppData\Local\Temp\ccZwia2j.s 			page 22


 533:.\Generated_Source\PSoC5/UART_1.c ****     *  condition exists, zero is returned; otherwise, character is read and
 534:.\Generated_Source\PSoC5/UART_1.c ****     *  returned.
 535:.\Generated_Source\PSoC5/UART_1.c ****     *
 536:.\Generated_Source\PSoC5/UART_1.c ****     * Parameters:
 537:.\Generated_Source\PSoC5/UART_1.c ****     *  None.
 538:.\Generated_Source\PSoC5/UART_1.c ****     *
 539:.\Generated_Source\PSoC5/UART_1.c ****     * Return:
 540:.\Generated_Source\PSoC5/UART_1.c ****     *  Character read from UART RX buffer. ASCII characters from 1 to 255 are valid.
 541:.\Generated_Source\PSoC5/UART_1.c ****     *  A returned zero signifies an error condition or no data available.
 542:.\Generated_Source\PSoC5/UART_1.c ****     *
 543:.\Generated_Source\PSoC5/UART_1.c ****     * Global Variables:
 544:.\Generated_Source\PSoC5/UART_1.c ****     *  UART_1_rxBuffer - RAM buffer pointer for save received data.
 545:.\Generated_Source\PSoC5/UART_1.c ****     *  UART_1_rxBufferWrite - cyclic index for write to rxBuffer,
 546:.\Generated_Source\PSoC5/UART_1.c ****     *     checked to identify new data.
 547:.\Generated_Source\PSoC5/UART_1.c ****     *  UART_1_rxBufferRead - cyclic index for read from rxBuffer,
 548:.\Generated_Source\PSoC5/UART_1.c ****     *     incremented after each byte has been read from buffer.
 549:.\Generated_Source\PSoC5/UART_1.c ****     *  UART_1_rxBufferLoopDetect - creared if loop condition was detected
 550:.\Generated_Source\PSoC5/UART_1.c ****     *     in RX ISR.
 551:.\Generated_Source\PSoC5/UART_1.c ****     *
 552:.\Generated_Source\PSoC5/UART_1.c ****     * Reentrant:
 553:.\Generated_Source\PSoC5/UART_1.c ****     *  No.
 554:.\Generated_Source\PSoC5/UART_1.c ****     *
 555:.\Generated_Source\PSoC5/UART_1.c ****     *******************************************************************************/
 556:.\Generated_Source\PSoC5/UART_1.c ****     uint8 UART_1_GetChar(void) 
 557:.\Generated_Source\PSoC5/UART_1.c ****     {
 664              		.loc 1 557 0
 665              		.cfi_startproc
 666              		@ args = 0, pretend = 0, frame = 8
 667              		@ frame_needed = 1, uses_anonymous_args = 0
 668 0000 80B5     		push	{r7, lr}
 669              		.cfi_def_cfa_offset 8
 670              		.cfi_offset 7, -8
 671              		.cfi_offset 14, -4
 672 0002 82B0     		sub	sp, sp, #8
 673              		.cfi_def_cfa_offset 16
 674 0004 00AF     		add	r7, sp, #0
 675              		.cfi_def_cfa_register 7
 558:.\Generated_Source\PSoC5/UART_1.c ****         uint8 rxData = 0u;
 676              		.loc 1 558 0
 677 0006 0023     		movs	r3, #0
 678 0008 FB71     		strb	r3, [r7, #7]
 559:.\Generated_Source\PSoC5/UART_1.c ****         uint8 rxStatus;
 560:.\Generated_Source\PSoC5/UART_1.c **** 
 561:.\Generated_Source\PSoC5/UART_1.c ****         #if(UART_1_RXBUFFERSIZE > UART_1_FIFO_LENGTH)
 562:.\Generated_Source\PSoC5/UART_1.c ****             uint8 loc_rxBufferRead;
 563:.\Generated_Source\PSoC5/UART_1.c ****             uint8 loc_rxBufferWrite;
 564:.\Generated_Source\PSoC5/UART_1.c ****             /* Protect variables that could change on interrupt. */
 565:.\Generated_Source\PSoC5/UART_1.c ****             /* Disable Rx interrupt. */
 566:.\Generated_Source\PSoC5/UART_1.c ****             #if(UART_1_RX_INTERRUPT_ENABLED)
 567:.\Generated_Source\PSoC5/UART_1.c ****                 UART_1_DisableRxInt();
 679              		.loc 1 567 0
 680 000a FFF7FEFF 		bl	UART_1_DisableRxInt
 568:.\Generated_Source\PSoC5/UART_1.c ****             #endif /* UART_1_RX_INTERRUPT_ENABLED */
 569:.\Generated_Source\PSoC5/UART_1.c ****             loc_rxBufferRead = UART_1_rxBufferRead;
 681              		.loc 1 569 0
 682 000e 254B     		ldr	r3, .L47
 683 0010 1B78     		ldrb	r3, [r3]
ARM GAS  C:\Users\dskyNote\AppData\Local\Temp\ccZwia2j.s 			page 23


 684 0012 BB71     		strb	r3, [r7, #6]
 570:.\Generated_Source\PSoC5/UART_1.c ****             loc_rxBufferWrite = UART_1_rxBufferWrite;
 685              		.loc 1 570 0
 686 0014 244B     		ldr	r3, .L47+4
 687 0016 1B78     		ldrb	r3, [r3]
 688 0018 7B71     		strb	r3, [r7, #5]
 571:.\Generated_Source\PSoC5/UART_1.c **** 
 572:.\Generated_Source\PSoC5/UART_1.c ****             if( (UART_1_rxBufferLoopDetect != 0u) || (loc_rxBufferRead != loc_rxBufferWrite) )
 689              		.loc 1 572 0
 690 001a 244B     		ldr	r3, .L47+8
 691 001c 1B78     		ldrb	r3, [r3]
 692 001e DBB2     		uxtb	r3, r3
 693 0020 002B     		cmp	r3, #0
 694 0022 03D1     		bne	.L41
 695              		.loc 1 572 0 is_stmt 0 discriminator 1
 696 0024 BA79     		ldrb	r2, [r7, #6]	@ zero_extendqisi2
 697 0026 7B79     		ldrb	r3, [r7, #5]	@ zero_extendqisi2
 698 0028 9A42     		cmp	r2, r3
 699 002a 21D0     		beq	.L42
 700              	.L41:
 573:.\Generated_Source\PSoC5/UART_1.c ****             {
 574:.\Generated_Source\PSoC5/UART_1.c ****                 rxData = UART_1_rxBuffer[loc_rxBufferRead];
 701              		.loc 1 574 0 is_stmt 1
 702 002c BB79     		ldrb	r3, [r7, #6]	@ zero_extendqisi2
 703 002e 204A     		ldr	r2, .L47+12
 704 0030 D35C     		ldrb	r3, [r2, r3]
 705 0032 FB71     		strb	r3, [r7, #7]
 575:.\Generated_Source\PSoC5/UART_1.c ****                 loc_rxBufferRead++;
 706              		.loc 1 575 0
 707 0034 BB79     		ldrb	r3, [r7, #6]	@ zero_extendqisi2
 708 0036 0133     		adds	r3, r3, #1
 709 0038 BB71     		strb	r3, [r7, #6]
 576:.\Generated_Source\PSoC5/UART_1.c ****                 if(loc_rxBufferRead >= UART_1_RXBUFFERSIZE)
 710              		.loc 1 576 0
 711 003a BB79     		ldrb	r3, [r7, #6]	@ zero_extendqisi2
 712 003c 5BB2     		sxtb	r3, r3
 713 003e 002B     		cmp	r3, #0
 714 0040 01DA     		bge	.L43
 577:.\Generated_Source\PSoC5/UART_1.c ****                 {
 578:.\Generated_Source\PSoC5/UART_1.c ****                     loc_rxBufferRead = 0u;
 715              		.loc 1 578 0
 716 0042 0023     		movs	r3, #0
 717 0044 BB71     		strb	r3, [r7, #6]
 718              	.L43:
 579:.\Generated_Source\PSoC5/UART_1.c ****                 }
 580:.\Generated_Source\PSoC5/UART_1.c ****                 /* Update the real pointer */
 581:.\Generated_Source\PSoC5/UART_1.c ****                 UART_1_rxBufferRead = loc_rxBufferRead;
 719              		.loc 1 581 0
 720 0046 174B     		ldr	r3, .L47
 721 0048 BA79     		ldrb	r2, [r7, #6]
 722 004a 1A70     		strb	r2, [r3]
 582:.\Generated_Source\PSoC5/UART_1.c **** 
 583:.\Generated_Source\PSoC5/UART_1.c ****                 if(UART_1_rxBufferLoopDetect > 0u )
 723              		.loc 1 583 0
 724 004c 174B     		ldr	r3, .L47+8
 725 004e 1B78     		ldrb	r3, [r3]
 726 0050 DBB2     		uxtb	r3, r3
ARM GAS  C:\Users\dskyNote\AppData\Local\Temp\ccZwia2j.s 			page 24


 727 0052 002B     		cmp	r3, #0
 728 0054 0BD0     		beq	.L44
 584:.\Generated_Source\PSoC5/UART_1.c ****                 {
 585:.\Generated_Source\PSoC5/UART_1.c ****                     UART_1_rxBufferLoopDetect = 0u;
 729              		.loc 1 585 0
 730 0056 154B     		ldr	r3, .L47+8
 731 0058 0022     		movs	r2, #0
 732 005a 1A70     		strb	r2, [r3]
 586:.\Generated_Source\PSoC5/UART_1.c ****                     #if( (UART_1_RX_INTERRUPT_ENABLED) && (UART_1_FLOW_CONTROL != 0u) )
 587:.\Generated_Source\PSoC5/UART_1.c ****                         /* When Hardware Flow Control selected - return RX mask */
 588:.\Generated_Source\PSoC5/UART_1.c ****                         #if( UART_1_HD_ENABLED )
 589:.\Generated_Source\PSoC5/UART_1.c ****                             if((UART_1_CONTROL_REG & UART_1_CTRL_HD_SEND) == 0u)
 590:.\Generated_Source\PSoC5/UART_1.c ****                             {   /* In Half duplex mode return RX mask only if
 591:.\Generated_Source\PSoC5/UART_1.c ****                                 *  RX configuration set, otherwise
 592:.\Generated_Source\PSoC5/UART_1.c ****                                 *  mask will be returned in LoadRxConfig() API.
 593:.\Generated_Source\PSoC5/UART_1.c ****                                 */
 594:.\Generated_Source\PSoC5/UART_1.c ****                                 UART_1_RXSTATUS_MASK_REG  |= UART_1_RX_STS_FIFO_NOTEMPTY;
 595:.\Generated_Source\PSoC5/UART_1.c ****                             }
 596:.\Generated_Source\PSoC5/UART_1.c ****                         #else
 597:.\Generated_Source\PSoC5/UART_1.c ****                             UART_1_RXSTATUS_MASK_REG  |= UART_1_RX_STS_FIFO_NOTEMPTY;
 733              		.loc 1 597 0
 734 005c 154B     		ldr	r3, .L47+16
 735 005e 154A     		ldr	r2, .L47+16
 736 0060 1278     		ldrb	r2, [r2]
 737 0062 D2B2     		uxtb	r2, r2
 738 0064 42F02002 		orr	r2, r2, #32
 739 0068 D2B2     		uxtb	r2, r2
 740 006a 1A70     		strb	r2, [r3]
 583:.\Generated_Source\PSoC5/UART_1.c ****                 if(UART_1_rxBufferLoopDetect > 0u )
 741              		.loc 1 583 0
 742 006c 12E0     		b	.L45
 743              	.L44:
 583:.\Generated_Source\PSoC5/UART_1.c ****                 if(UART_1_rxBufferLoopDetect > 0u )
 744              		.loc 1 583 0 is_stmt 0 discriminator 1
 745 006e 11E0     		b	.L45
 746              	.L42:
 598:.\Generated_Source\PSoC5/UART_1.c ****                         #endif /* end UART_1_HD_ENABLED */
 599:.\Generated_Source\PSoC5/UART_1.c ****                     #endif /* UART_1_RX_INTERRUPT_ENABLED and Hardware flow control*/
 600:.\Generated_Source\PSoC5/UART_1.c ****                 }
 601:.\Generated_Source\PSoC5/UART_1.c **** 
 602:.\Generated_Source\PSoC5/UART_1.c ****             }
 603:.\Generated_Source\PSoC5/UART_1.c ****             else
 604:.\Generated_Source\PSoC5/UART_1.c ****             {   rxStatus = UART_1_RXSTATUS_REG;
 747              		.loc 1 604 0 is_stmt 1
 748 0070 114B     		ldr	r3, .L47+20
 749 0072 1B78     		ldrb	r3, [r3]
 750 0074 3B71     		strb	r3, [r7, #4]
 605:.\Generated_Source\PSoC5/UART_1.c ****                 if((rxStatus & UART_1_RX_STS_FIFO_NOTEMPTY) != 0u)
 751              		.loc 1 605 0
 752 0076 3B79     		ldrb	r3, [r7, #4]	@ zero_extendqisi2
 753 0078 03F02003 		and	r3, r3, #32
 754 007c 002B     		cmp	r3, #0
 755 007e 09D0     		beq	.L45
 606:.\Generated_Source\PSoC5/UART_1.c ****                 {   /* Read received data from FIFO*/
 607:.\Generated_Source\PSoC5/UART_1.c ****                     rxData = UART_1_RXDATA_REG;
 756              		.loc 1 607 0
 757 0080 0E4B     		ldr	r3, .L47+24
ARM GAS  C:\Users\dskyNote\AppData\Local\Temp\ccZwia2j.s 			page 25


 758 0082 1B78     		ldrb	r3, [r3]
 759 0084 FB71     		strb	r3, [r7, #7]
 608:.\Generated_Source\PSoC5/UART_1.c ****                     /*Check status on error*/
 609:.\Generated_Source\PSoC5/UART_1.c ****                     if((rxStatus & (UART_1_RX_STS_BREAK | UART_1_RX_STS_PAR_ERROR |
 610:.\Generated_Source\PSoC5/UART_1.c ****                                    UART_1_RX_STS_STOP_ERROR | UART_1_RX_STS_OVERRUN)) != 0u)
 760              		.loc 1 610 0
 761 0086 3B79     		ldrb	r3, [r7, #4]	@ zero_extendqisi2
 762 0088 03F01E03 		and	r3, r3, #30
 609:.\Generated_Source\PSoC5/UART_1.c ****                     if((rxStatus & (UART_1_RX_STS_BREAK | UART_1_RX_STS_PAR_ERROR |
 763              		.loc 1 609 0
 764 008c 002B     		cmp	r3, #0
 765 008e 01D0     		beq	.L45
 611:.\Generated_Source\PSoC5/UART_1.c ****                     {
 612:.\Generated_Source\PSoC5/UART_1.c ****                         rxData = 0u;
 766              		.loc 1 612 0
 767 0090 0023     		movs	r3, #0
 768 0092 FB71     		strb	r3, [r7, #7]
 769              	.L45:
 613:.\Generated_Source\PSoC5/UART_1.c ****                     }
 614:.\Generated_Source\PSoC5/UART_1.c ****                 }
 615:.\Generated_Source\PSoC5/UART_1.c ****             }
 616:.\Generated_Source\PSoC5/UART_1.c **** 
 617:.\Generated_Source\PSoC5/UART_1.c ****             /* Enable Rx interrupt. */
 618:.\Generated_Source\PSoC5/UART_1.c ****             #if(UART_1_RX_INTERRUPT_ENABLED)
 619:.\Generated_Source\PSoC5/UART_1.c ****                 UART_1_EnableRxInt();
 770              		.loc 1 619 0
 771 0094 FFF7FEFF 		bl	UART_1_EnableRxInt
 620:.\Generated_Source\PSoC5/UART_1.c ****             #endif /* UART_1_RX_INTERRUPT_ENABLED */
 621:.\Generated_Source\PSoC5/UART_1.c **** 
 622:.\Generated_Source\PSoC5/UART_1.c ****         #else /* UART_1_RXBUFFERSIZE > UART_1_FIFO_LENGTH */
 623:.\Generated_Source\PSoC5/UART_1.c **** 
 624:.\Generated_Source\PSoC5/UART_1.c ****             rxStatus =UART_1_RXSTATUS_REG;
 625:.\Generated_Source\PSoC5/UART_1.c ****             if((rxStatus & UART_1_RX_STS_FIFO_NOTEMPTY) != 0u)
 626:.\Generated_Source\PSoC5/UART_1.c ****             {   /* Read received data from FIFO*/
 627:.\Generated_Source\PSoC5/UART_1.c ****                 rxData = UART_1_RXDATA_REG;
 628:.\Generated_Source\PSoC5/UART_1.c ****                 /*Check status on error*/
 629:.\Generated_Source\PSoC5/UART_1.c ****                 if((rxStatus & (UART_1_RX_STS_BREAK | UART_1_RX_STS_PAR_ERROR |
 630:.\Generated_Source\PSoC5/UART_1.c ****                                UART_1_RX_STS_STOP_ERROR | UART_1_RX_STS_OVERRUN)) != 0u)
 631:.\Generated_Source\PSoC5/UART_1.c ****                 {
 632:.\Generated_Source\PSoC5/UART_1.c ****                     rxData = 0u;
 633:.\Generated_Source\PSoC5/UART_1.c ****                 }
 634:.\Generated_Source\PSoC5/UART_1.c ****             }
 635:.\Generated_Source\PSoC5/UART_1.c ****         #endif /* UART_1_RXBUFFERSIZE > UART_1_FIFO_LENGTH */
 636:.\Generated_Source\PSoC5/UART_1.c **** 
 637:.\Generated_Source\PSoC5/UART_1.c ****         return(rxData);
 772              		.loc 1 637 0
 773 0098 FB79     		ldrb	r3, [r7, #7]	@ zero_extendqisi2
 638:.\Generated_Source\PSoC5/UART_1.c ****     }
 774              		.loc 1 638 0
 775 009a 1846     		mov	r0, r3
 776 009c 0837     		adds	r7, r7, #8
 777 009e BD46     		mov	sp, r7
 778              		@ sp needed
 779 00a0 80BD     		pop	{r7, pc}
 780              	.L48:
 781 00a2 00BF     		.align	2
 782              	.L47:
ARM GAS  C:\Users\dskyNote\AppData\Local\Temp\ccZwia2j.s 			page 26


 783 00a4 00000000 		.word	UART_1_rxBufferRead
 784 00a8 00000000 		.word	UART_1_rxBufferWrite
 785 00ac 00000000 		.word	UART_1_rxBufferLoopDetect
 786 00b0 00000000 		.word	UART_1_rxBuffer
 787 00b4 80640040 		.word	1073767552
 788 00b8 60640040 		.word	1073767520
 789 00bc 4C640040 		.word	1073767500
 790              		.cfi_endproc
 791              	.LFE11:
 792              		.size	UART_1_GetChar, .-UART_1_GetChar
 793              		.section	.text.UART_1_GetByte,"ax",%progbits
 794              		.align	2
 795              		.global	UART_1_GetByte
 796              		.thumb
 797              		.thumb_func
 798              		.type	UART_1_GetByte, %function
 799              	UART_1_GetByte:
 800              	.LFB12:
 639:.\Generated_Source\PSoC5/UART_1.c **** 
 640:.\Generated_Source\PSoC5/UART_1.c **** 
 641:.\Generated_Source\PSoC5/UART_1.c ****     /*******************************************************************************
 642:.\Generated_Source\PSoC5/UART_1.c ****     * Function Name: UART_1_GetByte
 643:.\Generated_Source\PSoC5/UART_1.c ****     ********************************************************************************
 644:.\Generated_Source\PSoC5/UART_1.c ****     *
 645:.\Generated_Source\PSoC5/UART_1.c ****     * Summary:
 646:.\Generated_Source\PSoC5/UART_1.c ****     *  Grab the next available byte of data from the recieve FIFO
 647:.\Generated_Source\PSoC5/UART_1.c ****     *
 648:.\Generated_Source\PSoC5/UART_1.c ****     * Parameters:
 649:.\Generated_Source\PSoC5/UART_1.c ****     *  None.
 650:.\Generated_Source\PSoC5/UART_1.c ****     *
 651:.\Generated_Source\PSoC5/UART_1.c ****     * Return:
 652:.\Generated_Source\PSoC5/UART_1.c ****     *  MSB contains Status Register and LSB contains UART RX data
 653:.\Generated_Source\PSoC5/UART_1.c ****     *
 654:.\Generated_Source\PSoC5/UART_1.c ****     * Reentrant:
 655:.\Generated_Source\PSoC5/UART_1.c ****     *  No.
 656:.\Generated_Source\PSoC5/UART_1.c ****     *
 657:.\Generated_Source\PSoC5/UART_1.c ****     *******************************************************************************/
 658:.\Generated_Source\PSoC5/UART_1.c ****     uint16 UART_1_GetByte(void) 
 659:.\Generated_Source\PSoC5/UART_1.c ****     {
 801              		.loc 1 659 0
 802              		.cfi_startproc
 803              		@ args = 0, pretend = 0, frame = 0
 804              		@ frame_needed = 1, uses_anonymous_args = 0
 805 0000 98B5     		push	{r3, r4, r7, lr}
 806              		.cfi_def_cfa_offset 16
 807              		.cfi_offset 3, -16
 808              		.cfi_offset 4, -12
 809              		.cfi_offset 7, -8
 810              		.cfi_offset 14, -4
 811 0002 00AF     		add	r7, sp, #0
 812              		.cfi_def_cfa_register 7
 660:.\Generated_Source\PSoC5/UART_1.c ****         return ( ((uint16)UART_1_ReadRxStatus() << 8u) | UART_1_ReadRxData() );
 813              		.loc 1 660 0
 814 0004 FFF7FEFF 		bl	UART_1_ReadRxStatus
 815 0008 0346     		mov	r3, r0
 816 000a 1B02     		lsls	r3, r3, #8
 817 000c 9CB2     		uxth	r4, r3
ARM GAS  C:\Users\dskyNote\AppData\Local\Temp\ccZwia2j.s 			page 27


 818 000e FFF7FEFF 		bl	UART_1_ReadRxData
 819 0012 0346     		mov	r3, r0
 820 0014 2246     		mov	r2, r4	@ movhi
 821 0016 1343     		orrs	r3, r3, r2
 822 0018 9BB2     		uxth	r3, r3
 823 001a 9BB2     		uxth	r3, r3
 661:.\Generated_Source\PSoC5/UART_1.c ****     }
 824              		.loc 1 661 0
 825 001c 1846     		mov	r0, r3
 826 001e 98BD     		pop	{r3, r4, r7, pc}
 827              		.cfi_endproc
 828              	.LFE12:
 829              		.size	UART_1_GetByte, .-UART_1_GetByte
 830              		.section	.text.UART_1_GetRxBufferSize,"ax",%progbits
 831              		.align	2
 832              		.global	UART_1_GetRxBufferSize
 833              		.thumb
 834              		.thumb_func
 835              		.type	UART_1_GetRxBufferSize, %function
 836              	UART_1_GetRxBufferSize:
 837              	.LFB13:
 662:.\Generated_Source\PSoC5/UART_1.c **** 
 663:.\Generated_Source\PSoC5/UART_1.c **** 
 664:.\Generated_Source\PSoC5/UART_1.c ****     /*******************************************************************************
 665:.\Generated_Source\PSoC5/UART_1.c ****     * Function Name: UART_1_GetRxBufferSize
 666:.\Generated_Source\PSoC5/UART_1.c ****     ********************************************************************************
 667:.\Generated_Source\PSoC5/UART_1.c ****     *
 668:.\Generated_Source\PSoC5/UART_1.c ****     * Summary:
 669:.\Generated_Source\PSoC5/UART_1.c ****     *  Determine the amount of bytes left in the RX buffer and return the count in
 670:.\Generated_Source\PSoC5/UART_1.c ****     *  bytes
 671:.\Generated_Source\PSoC5/UART_1.c ****     *
 672:.\Generated_Source\PSoC5/UART_1.c ****     * Parameters:
 673:.\Generated_Source\PSoC5/UART_1.c ****     *  None.
 674:.\Generated_Source\PSoC5/UART_1.c ****     *
 675:.\Generated_Source\PSoC5/UART_1.c ****     * Return:
 676:.\Generated_Source\PSoC5/UART_1.c ****     *  uint8: Integer count of the number of bytes left
 677:.\Generated_Source\PSoC5/UART_1.c ****     *  in the RX buffer
 678:.\Generated_Source\PSoC5/UART_1.c ****     *
 679:.\Generated_Source\PSoC5/UART_1.c ****     * Global Variables:
 680:.\Generated_Source\PSoC5/UART_1.c ****     *  UART_1_rxBufferWrite - used to calculate left bytes.
 681:.\Generated_Source\PSoC5/UART_1.c ****     *  UART_1_rxBufferRead - used to calculate left bytes.
 682:.\Generated_Source\PSoC5/UART_1.c ****     *  UART_1_rxBufferLoopDetect - checked to decide left bytes amount.
 683:.\Generated_Source\PSoC5/UART_1.c ****     *
 684:.\Generated_Source\PSoC5/UART_1.c ****     * Reentrant:
 685:.\Generated_Source\PSoC5/UART_1.c ****     *  No.
 686:.\Generated_Source\PSoC5/UART_1.c ****     *
 687:.\Generated_Source\PSoC5/UART_1.c ****     * Theory:
 688:.\Generated_Source\PSoC5/UART_1.c ****     *  Allows the user to find out how full the RX Buffer is.
 689:.\Generated_Source\PSoC5/UART_1.c ****     *
 690:.\Generated_Source\PSoC5/UART_1.c ****     *******************************************************************************/
 691:.\Generated_Source\PSoC5/UART_1.c ****     uint8 UART_1_GetRxBufferSize(void)
 692:.\Generated_Source\PSoC5/UART_1.c ****                                                             
 693:.\Generated_Source\PSoC5/UART_1.c ****     {
 838              		.loc 1 693 0
 839              		.cfi_startproc
 840              		@ args = 0, pretend = 0, frame = 8
 841              		@ frame_needed = 1, uses_anonymous_args = 0
ARM GAS  C:\Users\dskyNote\AppData\Local\Temp\ccZwia2j.s 			page 28


 842 0000 80B5     		push	{r7, lr}
 843              		.cfi_def_cfa_offset 8
 844              		.cfi_offset 7, -8
 845              		.cfi_offset 14, -4
 846 0002 82B0     		sub	sp, sp, #8
 847              		.cfi_def_cfa_offset 16
 848 0004 00AF     		add	r7, sp, #0
 849              		.cfi_def_cfa_register 7
 694:.\Generated_Source\PSoC5/UART_1.c ****         uint8 size;
 695:.\Generated_Source\PSoC5/UART_1.c **** 
 696:.\Generated_Source\PSoC5/UART_1.c ****         #if(UART_1_RXBUFFERSIZE > UART_1_FIFO_LENGTH)
 697:.\Generated_Source\PSoC5/UART_1.c **** 
 698:.\Generated_Source\PSoC5/UART_1.c ****             /* Disable Rx interrupt. */
 699:.\Generated_Source\PSoC5/UART_1.c ****             /* Protect variables that could change on interrupt. */
 700:.\Generated_Source\PSoC5/UART_1.c ****             #if(UART_1_RX_INTERRUPT_ENABLED)
 701:.\Generated_Source\PSoC5/UART_1.c ****                 UART_1_DisableRxInt();
 850              		.loc 1 701 0
 851 0006 FFF7FEFF 		bl	UART_1_DisableRxInt
 702:.\Generated_Source\PSoC5/UART_1.c ****             #endif /* UART_1_RX_INTERRUPT_ENABLED */
 703:.\Generated_Source\PSoC5/UART_1.c **** 
 704:.\Generated_Source\PSoC5/UART_1.c ****             if(UART_1_rxBufferRead == UART_1_rxBufferWrite)
 852              		.loc 1 704 0
 853 000a 1A4B     		ldr	r3, .L58
 854 000c 1B78     		ldrb	r3, [r3]
 855 000e DAB2     		uxtb	r2, r3
 856 0010 194B     		ldr	r3, .L58+4
 857 0012 1B78     		ldrb	r3, [r3]
 858 0014 DBB2     		uxtb	r3, r3
 859 0016 9A42     		cmp	r2, r3
 860 0018 0AD1     		bne	.L52
 705:.\Generated_Source\PSoC5/UART_1.c ****             {
 706:.\Generated_Source\PSoC5/UART_1.c ****                 if(UART_1_rxBufferLoopDetect > 0u)
 861              		.loc 1 706 0
 862 001a 184B     		ldr	r3, .L58+8
 863 001c 1B78     		ldrb	r3, [r3]
 864 001e DBB2     		uxtb	r3, r3
 865 0020 002B     		cmp	r3, #0
 866 0022 02D0     		beq	.L53
 707:.\Generated_Source\PSoC5/UART_1.c ****                 {
 708:.\Generated_Source\PSoC5/UART_1.c ****                     size = UART_1_RXBUFFERSIZE;
 867              		.loc 1 708 0
 868 0024 8023     		movs	r3, #128
 869 0026 FB71     		strb	r3, [r7, #7]
 870 0028 1DE0     		b	.L55
 871              	.L53:
 709:.\Generated_Source\PSoC5/UART_1.c ****                 }
 710:.\Generated_Source\PSoC5/UART_1.c ****                 else
 711:.\Generated_Source\PSoC5/UART_1.c ****                 {
 712:.\Generated_Source\PSoC5/UART_1.c ****                     size = 0u;
 872              		.loc 1 712 0
 873 002a 0023     		movs	r3, #0
 874 002c FB71     		strb	r3, [r7, #7]
 875 002e 1AE0     		b	.L55
 876              	.L52:
 713:.\Generated_Source\PSoC5/UART_1.c ****                 }
 714:.\Generated_Source\PSoC5/UART_1.c ****             }
 715:.\Generated_Source\PSoC5/UART_1.c ****             else if(UART_1_rxBufferRead < UART_1_rxBufferWrite)
ARM GAS  C:\Users\dskyNote\AppData\Local\Temp\ccZwia2j.s 			page 29


 877              		.loc 1 715 0
 878 0030 104B     		ldr	r3, .L58
 879 0032 1B78     		ldrb	r3, [r3]
 880 0034 DAB2     		uxtb	r2, r3
 881 0036 104B     		ldr	r3, .L58+4
 882 0038 1B78     		ldrb	r3, [r3]
 883 003a DBB2     		uxtb	r3, r3
 884 003c 9A42     		cmp	r2, r3
 885 003e 08D2     		bcs	.L56
 716:.\Generated_Source\PSoC5/UART_1.c ****             {
 717:.\Generated_Source\PSoC5/UART_1.c ****                 size = (UART_1_rxBufferWrite - UART_1_rxBufferRead);
 886              		.loc 1 717 0
 887 0040 0D4B     		ldr	r3, .L58+4
 888 0042 1B78     		ldrb	r3, [r3]
 889 0044 DAB2     		uxtb	r2, r3
 890 0046 0B4B     		ldr	r3, .L58
 891 0048 1B78     		ldrb	r3, [r3]
 892 004a DBB2     		uxtb	r3, r3
 893 004c D31A     		subs	r3, r2, r3
 894 004e FB71     		strb	r3, [r7, #7]
 895 0050 09E0     		b	.L55
 896              	.L56:
 718:.\Generated_Source\PSoC5/UART_1.c ****             }
 719:.\Generated_Source\PSoC5/UART_1.c ****             else
 720:.\Generated_Source\PSoC5/UART_1.c ****             {
 721:.\Generated_Source\PSoC5/UART_1.c ****                 size = (UART_1_RXBUFFERSIZE - UART_1_rxBufferRead) + UART_1_rxBufferWrite;
 897              		.loc 1 721 0
 898 0052 094B     		ldr	r3, .L58+4
 899 0054 1B78     		ldrb	r3, [r3]
 900 0056 DAB2     		uxtb	r2, r3
 901 0058 064B     		ldr	r3, .L58
 902 005a 1B78     		ldrb	r3, [r3]
 903 005c DBB2     		uxtb	r3, r3
 904 005e D31A     		subs	r3, r2, r3
 905 0060 DBB2     		uxtb	r3, r3
 906 0062 803B     		subs	r3, r3, #128
 907 0064 FB71     		strb	r3, [r7, #7]
 908              	.L55:
 722:.\Generated_Source\PSoC5/UART_1.c ****             }
 723:.\Generated_Source\PSoC5/UART_1.c **** 
 724:.\Generated_Source\PSoC5/UART_1.c ****             /* Enable Rx interrupt. */
 725:.\Generated_Source\PSoC5/UART_1.c ****             #if(UART_1_RX_INTERRUPT_ENABLED)
 726:.\Generated_Source\PSoC5/UART_1.c ****                 UART_1_EnableRxInt();
 909              		.loc 1 726 0
 910 0066 FFF7FEFF 		bl	UART_1_EnableRxInt
 727:.\Generated_Source\PSoC5/UART_1.c ****             #endif /* End UART_1_RX_INTERRUPT_ENABLED */
 728:.\Generated_Source\PSoC5/UART_1.c **** 
 729:.\Generated_Source\PSoC5/UART_1.c ****         #else /* UART_1_RXBUFFERSIZE > UART_1_FIFO_LENGTH */
 730:.\Generated_Source\PSoC5/UART_1.c **** 
 731:.\Generated_Source\PSoC5/UART_1.c ****             /* We can only know if there is data in the fifo. */
 732:.\Generated_Source\PSoC5/UART_1.c ****             size = ((UART_1_RXSTATUS_REG & UART_1_RX_STS_FIFO_NOTEMPTY) != 0u) ? 1u : 0u;
 733:.\Generated_Source\PSoC5/UART_1.c **** 
 734:.\Generated_Source\PSoC5/UART_1.c ****         #endif /* End UART_1_RXBUFFERSIZE > UART_1_FIFO_LENGTH */
 735:.\Generated_Source\PSoC5/UART_1.c **** 
 736:.\Generated_Source\PSoC5/UART_1.c ****         return(size);
 911              		.loc 1 736 0
 912 006a FB79     		ldrb	r3, [r7, #7]	@ zero_extendqisi2
ARM GAS  C:\Users\dskyNote\AppData\Local\Temp\ccZwia2j.s 			page 30


 737:.\Generated_Source\PSoC5/UART_1.c ****     }
 913              		.loc 1 737 0
 914 006c 1846     		mov	r0, r3
 915 006e 0837     		adds	r7, r7, #8
 916 0070 BD46     		mov	sp, r7
 917              		@ sp needed
 918 0072 80BD     		pop	{r7, pc}
 919              	.L59:
 920              		.align	2
 921              	.L58:
 922 0074 00000000 		.word	UART_1_rxBufferRead
 923 0078 00000000 		.word	UART_1_rxBufferWrite
 924 007c 00000000 		.word	UART_1_rxBufferLoopDetect
 925              		.cfi_endproc
 926              	.LFE13:
 927              		.size	UART_1_GetRxBufferSize, .-UART_1_GetRxBufferSize
 928              		.section	.text.UART_1_ClearRxBuffer,"ax",%progbits
 929              		.align	2
 930              		.global	UART_1_ClearRxBuffer
 931              		.thumb
 932              		.thumb_func
 933              		.type	UART_1_ClearRxBuffer, %function
 934              	UART_1_ClearRxBuffer:
 935              	.LFB14:
 738:.\Generated_Source\PSoC5/UART_1.c **** 
 739:.\Generated_Source\PSoC5/UART_1.c **** 
 740:.\Generated_Source\PSoC5/UART_1.c ****     /*******************************************************************************
 741:.\Generated_Source\PSoC5/UART_1.c ****     * Function Name: UART_1_ClearRxBuffer
 742:.\Generated_Source\PSoC5/UART_1.c ****     ********************************************************************************
 743:.\Generated_Source\PSoC5/UART_1.c ****     *
 744:.\Generated_Source\PSoC5/UART_1.c ****     * Summary:
 745:.\Generated_Source\PSoC5/UART_1.c ****     *  Clears the RX RAM buffer by setting the read and write pointers both to zero.
 746:.\Generated_Source\PSoC5/UART_1.c ****     *  Clears hardware RX FIFO.
 747:.\Generated_Source\PSoC5/UART_1.c ****     *
 748:.\Generated_Source\PSoC5/UART_1.c ****     * Parameters:
 749:.\Generated_Source\PSoC5/UART_1.c ****     *  None.
 750:.\Generated_Source\PSoC5/UART_1.c ****     *
 751:.\Generated_Source\PSoC5/UART_1.c ****     * Return:
 752:.\Generated_Source\PSoC5/UART_1.c ****     *  None.
 753:.\Generated_Source\PSoC5/UART_1.c ****     *
 754:.\Generated_Source\PSoC5/UART_1.c ****     * Global Variables:
 755:.\Generated_Source\PSoC5/UART_1.c ****     *  UART_1_rxBufferWrite - cleared to zero.
 756:.\Generated_Source\PSoC5/UART_1.c ****     *  UART_1_rxBufferRead - cleared to zero.
 757:.\Generated_Source\PSoC5/UART_1.c ****     *  UART_1_rxBufferLoopDetect - cleared to zero.
 758:.\Generated_Source\PSoC5/UART_1.c ****     *  UART_1_rxBufferOverflow - cleared to zero.
 759:.\Generated_Source\PSoC5/UART_1.c ****     *
 760:.\Generated_Source\PSoC5/UART_1.c ****     * Reentrant:
 761:.\Generated_Source\PSoC5/UART_1.c ****     *  No.
 762:.\Generated_Source\PSoC5/UART_1.c ****     *
 763:.\Generated_Source\PSoC5/UART_1.c ****     * Theory:
 764:.\Generated_Source\PSoC5/UART_1.c ****     *  Setting the pointers to zero makes the system believe there is no data to
 765:.\Generated_Source\PSoC5/UART_1.c ****     *  read and writing will resume at address 0 overwriting any data that may
 766:.\Generated_Source\PSoC5/UART_1.c ****     *  have remained in the RAM.
 767:.\Generated_Source\PSoC5/UART_1.c ****     *
 768:.\Generated_Source\PSoC5/UART_1.c ****     * Side Effects:
 769:.\Generated_Source\PSoC5/UART_1.c ****     *  Any received data not read from the RAM or FIFO buffer will be lost.
 770:.\Generated_Source\PSoC5/UART_1.c ****     *******************************************************************************/
ARM GAS  C:\Users\dskyNote\AppData\Local\Temp\ccZwia2j.s 			page 31


 771:.\Generated_Source\PSoC5/UART_1.c ****     void UART_1_ClearRxBuffer(void) 
 772:.\Generated_Source\PSoC5/UART_1.c ****     {
 936              		.loc 1 772 0
 937              		.cfi_startproc
 938              		@ args = 0, pretend = 0, frame = 8
 939              		@ frame_needed = 1, uses_anonymous_args = 0
 940 0000 80B5     		push	{r7, lr}
 941              		.cfi_def_cfa_offset 8
 942              		.cfi_offset 7, -8
 943              		.cfi_offset 14, -4
 944 0002 82B0     		sub	sp, sp, #8
 945              		.cfi_def_cfa_offset 16
 946 0004 00AF     		add	r7, sp, #0
 947              		.cfi_def_cfa_register 7
 773:.\Generated_Source\PSoC5/UART_1.c ****         uint8 enableInterrupts;
 774:.\Generated_Source\PSoC5/UART_1.c **** 
 775:.\Generated_Source\PSoC5/UART_1.c ****         /* clear the HW FIFO */
 776:.\Generated_Source\PSoC5/UART_1.c ****         /* Enter critical section */
 777:.\Generated_Source\PSoC5/UART_1.c ****         enableInterrupts = CyEnterCriticalSection();
 948              		.loc 1 777 0
 949 0006 FFF7FEFF 		bl	CyEnterCriticalSection
 950 000a 0346     		mov	r3, r0
 951 000c FB71     		strb	r3, [r7, #7]
 778:.\Generated_Source\PSoC5/UART_1.c ****         UART_1_RXDATA_AUX_CTL_REG |=  UART_1_RX_FIFO_CLR;
 952              		.loc 1 778 0
 953 000e 134B     		ldr	r3, .L61
 954 0010 124A     		ldr	r2, .L61
 955 0012 1278     		ldrb	r2, [r2]
 956 0014 D2B2     		uxtb	r2, r2
 957 0016 42F00102 		orr	r2, r2, #1
 958 001a D2B2     		uxtb	r2, r2
 959 001c 1A70     		strb	r2, [r3]
 779:.\Generated_Source\PSoC5/UART_1.c ****         UART_1_RXDATA_AUX_CTL_REG &= (uint8)~UART_1_RX_FIFO_CLR;
 960              		.loc 1 779 0
 961 001e 0F4B     		ldr	r3, .L61
 962 0020 0E4A     		ldr	r2, .L61
 963 0022 1278     		ldrb	r2, [r2]
 964 0024 D2B2     		uxtb	r2, r2
 965 0026 22F00102 		bic	r2, r2, #1
 966 002a D2B2     		uxtb	r2, r2
 967 002c 1A70     		strb	r2, [r3]
 780:.\Generated_Source\PSoC5/UART_1.c ****         /* Exit critical section */
 781:.\Generated_Source\PSoC5/UART_1.c ****         CyExitCriticalSection(enableInterrupts);
 968              		.loc 1 781 0
 969 002e FB79     		ldrb	r3, [r7, #7]	@ zero_extendqisi2
 970 0030 1846     		mov	r0, r3
 971 0032 FFF7FEFF 		bl	CyExitCriticalSection
 782:.\Generated_Source\PSoC5/UART_1.c **** 
 783:.\Generated_Source\PSoC5/UART_1.c ****         #if(UART_1_RXBUFFERSIZE > UART_1_FIFO_LENGTH)
 784:.\Generated_Source\PSoC5/UART_1.c ****             /* Disable Rx interrupt. */
 785:.\Generated_Source\PSoC5/UART_1.c ****             /* Protect variables that could change on interrupt. */
 786:.\Generated_Source\PSoC5/UART_1.c ****             #if(UART_1_RX_INTERRUPT_ENABLED)
 787:.\Generated_Source\PSoC5/UART_1.c ****                 UART_1_DisableRxInt();
 972              		.loc 1 787 0
 973 0036 FFF7FEFF 		bl	UART_1_DisableRxInt
 788:.\Generated_Source\PSoC5/UART_1.c ****             #endif /* End UART_1_RX_INTERRUPT_ENABLED */
 789:.\Generated_Source\PSoC5/UART_1.c **** 
ARM GAS  C:\Users\dskyNote\AppData\Local\Temp\ccZwia2j.s 			page 32


 790:.\Generated_Source\PSoC5/UART_1.c ****             UART_1_rxBufferRead = 0u;
 974              		.loc 1 790 0
 975 003a 094B     		ldr	r3, .L61+4
 976 003c 0022     		movs	r2, #0
 977 003e 1A70     		strb	r2, [r3]
 791:.\Generated_Source\PSoC5/UART_1.c ****             UART_1_rxBufferWrite = 0u;
 978              		.loc 1 791 0
 979 0040 084B     		ldr	r3, .L61+8
 980 0042 0022     		movs	r2, #0
 981 0044 1A70     		strb	r2, [r3]
 792:.\Generated_Source\PSoC5/UART_1.c ****             UART_1_rxBufferLoopDetect = 0u;
 982              		.loc 1 792 0
 983 0046 084B     		ldr	r3, .L61+12
 984 0048 0022     		movs	r2, #0
 985 004a 1A70     		strb	r2, [r3]
 793:.\Generated_Source\PSoC5/UART_1.c ****             UART_1_rxBufferOverflow = 0u;
 986              		.loc 1 793 0
 987 004c 074B     		ldr	r3, .L61+16
 988 004e 0022     		movs	r2, #0
 989 0050 1A70     		strb	r2, [r3]
 794:.\Generated_Source\PSoC5/UART_1.c **** 
 795:.\Generated_Source\PSoC5/UART_1.c ****             /* Enable Rx interrupt. */
 796:.\Generated_Source\PSoC5/UART_1.c ****             #if(UART_1_RX_INTERRUPT_ENABLED)
 797:.\Generated_Source\PSoC5/UART_1.c ****                 UART_1_EnableRxInt();
 990              		.loc 1 797 0
 991 0052 FFF7FEFF 		bl	UART_1_EnableRxInt
 798:.\Generated_Source\PSoC5/UART_1.c ****             #endif /* End UART_1_RX_INTERRUPT_ENABLED */
 799:.\Generated_Source\PSoC5/UART_1.c ****         #endif /* End UART_1_RXBUFFERSIZE > UART_1_FIFO_LENGTH */
 800:.\Generated_Source\PSoC5/UART_1.c **** 
 801:.\Generated_Source\PSoC5/UART_1.c ****     }
 992              		.loc 1 801 0
 993 0056 0837     		adds	r7, r7, #8
 994 0058 BD46     		mov	sp, r7
 995              		@ sp needed
 996 005a 80BD     		pop	{r7, pc}
 997              	.L62:
 998              		.align	2
 999              	.L61:
 1000 005c 9C640040 		.word	1073767580
 1001 0060 00000000 		.word	UART_1_rxBufferRead
 1002 0064 00000000 		.word	UART_1_rxBufferWrite
 1003 0068 00000000 		.word	UART_1_rxBufferLoopDetect
 1004 006c 00000000 		.word	UART_1_rxBufferOverflow
 1005              		.cfi_endproc
 1006              	.LFE14:
 1007              		.size	UART_1_ClearRxBuffer, .-UART_1_ClearRxBuffer
 1008              		.section	.text.UART_1_SetRxAddressMode,"ax",%progbits
 1009              		.align	2
 1010              		.global	UART_1_SetRxAddressMode
 1011              		.thumb
 1012              		.thumb_func
 1013              		.type	UART_1_SetRxAddressMode, %function
 1014              	UART_1_SetRxAddressMode:
 1015              	.LFB15:
 802:.\Generated_Source\PSoC5/UART_1.c **** 
 803:.\Generated_Source\PSoC5/UART_1.c **** 
 804:.\Generated_Source\PSoC5/UART_1.c ****     /*******************************************************************************
ARM GAS  C:\Users\dskyNote\AppData\Local\Temp\ccZwia2j.s 			page 33


 805:.\Generated_Source\PSoC5/UART_1.c ****     * Function Name: UART_1_SetRxAddressMode
 806:.\Generated_Source\PSoC5/UART_1.c ****     ********************************************************************************
 807:.\Generated_Source\PSoC5/UART_1.c ****     *
 808:.\Generated_Source\PSoC5/UART_1.c ****     * Summary:
 809:.\Generated_Source\PSoC5/UART_1.c ****     *  Set the receive addressing mode
 810:.\Generated_Source\PSoC5/UART_1.c ****     *
 811:.\Generated_Source\PSoC5/UART_1.c ****     * Parameters:
 812:.\Generated_Source\PSoC5/UART_1.c ****     *  addressMode: Enumerated value indicating the mode of RX addressing
 813:.\Generated_Source\PSoC5/UART_1.c ****     *  UART_1__B_UART__AM_SW_BYTE_BYTE -  Software Byte-by-Byte address
 814:.\Generated_Source\PSoC5/UART_1.c ****     *                                               detection
 815:.\Generated_Source\PSoC5/UART_1.c ****     *  UART_1__B_UART__AM_SW_DETECT_TO_BUFFER - Software Detect to Buffer
 816:.\Generated_Source\PSoC5/UART_1.c ****     *                                               address detection
 817:.\Generated_Source\PSoC5/UART_1.c ****     *  UART_1__B_UART__AM_HW_BYTE_BY_BYTE - Hardware Byte-by-Byte address
 818:.\Generated_Source\PSoC5/UART_1.c ****     *                                               detection
 819:.\Generated_Source\PSoC5/UART_1.c ****     *  UART_1__B_UART__AM_HW_DETECT_TO_BUFFER - Hardware Detect to Buffer
 820:.\Generated_Source\PSoC5/UART_1.c ****     *                                               address detection
 821:.\Generated_Source\PSoC5/UART_1.c ****     *  UART_1__B_UART__AM_NONE - No address detection
 822:.\Generated_Source\PSoC5/UART_1.c ****     *
 823:.\Generated_Source\PSoC5/UART_1.c ****     * Return:
 824:.\Generated_Source\PSoC5/UART_1.c ****     *  None.
 825:.\Generated_Source\PSoC5/UART_1.c ****     *
 826:.\Generated_Source\PSoC5/UART_1.c ****     * Global Variables:
 827:.\Generated_Source\PSoC5/UART_1.c ****     *  UART_1_rxAddressMode - the parameter stored in this variable for
 828:.\Generated_Source\PSoC5/UART_1.c ****     *   the farther usage in RX ISR.
 829:.\Generated_Source\PSoC5/UART_1.c ****     *  UART_1_rxAddressDetected - set to initial state (0).
 830:.\Generated_Source\PSoC5/UART_1.c ****     *
 831:.\Generated_Source\PSoC5/UART_1.c ****     *******************************************************************************/
 832:.\Generated_Source\PSoC5/UART_1.c ****     void UART_1_SetRxAddressMode(uint8 addressMode)
 833:.\Generated_Source\PSoC5/UART_1.c ****                                                         
 834:.\Generated_Source\PSoC5/UART_1.c ****     {
 1016              		.loc 1 834 0
 1017              		.cfi_startproc
 1018              		@ args = 0, pretend = 0, frame = 8
 1019              		@ frame_needed = 1, uses_anonymous_args = 0
 1020              		@ link register save eliminated.
 1021 0000 80B4     		push	{r7}
 1022              		.cfi_def_cfa_offset 4
 1023              		.cfi_offset 7, -4
 1024 0002 83B0     		sub	sp, sp, #12
 1025              		.cfi_def_cfa_offset 16
 1026 0004 00AF     		add	r7, sp, #0
 1027              		.cfi_def_cfa_register 7
 1028 0006 0346     		mov	r3, r0
 1029 0008 FB71     		strb	r3, [r7, #7]
 835:.\Generated_Source\PSoC5/UART_1.c ****         #if(UART_1_RXHW_ADDRESS_ENABLED)
 836:.\Generated_Source\PSoC5/UART_1.c ****             #if(UART_1_CONTROL_REG_REMOVED)
 837:.\Generated_Source\PSoC5/UART_1.c ****                 if(addressMode != 0u) { }     /* release compiler warning */
 838:.\Generated_Source\PSoC5/UART_1.c ****             #else /* UART_1_CONTROL_REG_REMOVED */
 839:.\Generated_Source\PSoC5/UART_1.c ****                 uint8 tmpCtrl;
 840:.\Generated_Source\PSoC5/UART_1.c ****                 tmpCtrl = UART_1_CONTROL_REG & (uint8)~UART_1_CTRL_RXADDR_MODE_MASK;
 841:.\Generated_Source\PSoC5/UART_1.c ****                 tmpCtrl |= (uint8)(addressMode << UART_1_CTRL_RXADDR_MODE0_SHIFT);
 842:.\Generated_Source\PSoC5/UART_1.c ****                 UART_1_CONTROL_REG = tmpCtrl;
 843:.\Generated_Source\PSoC5/UART_1.c ****                 #if(UART_1_RX_INTERRUPT_ENABLED && \
 844:.\Generated_Source\PSoC5/UART_1.c ****                    (UART_1_RXBUFFERSIZE > UART_1_FIFO_LENGTH) )
 845:.\Generated_Source\PSoC5/UART_1.c ****                     UART_1_rxAddressMode = addressMode;
 846:.\Generated_Source\PSoC5/UART_1.c ****                     UART_1_rxAddressDetected = 0u;
 847:.\Generated_Source\PSoC5/UART_1.c ****                 #endif /* End UART_1_RXBUFFERSIZE > UART_1_FIFO_LENGTH*/
ARM GAS  C:\Users\dskyNote\AppData\Local\Temp\ccZwia2j.s 			page 34


 848:.\Generated_Source\PSoC5/UART_1.c ****             #endif /* End UART_1_CONTROL_REG_REMOVED */
 849:.\Generated_Source\PSoC5/UART_1.c ****         #else /* UART_1_RXHW_ADDRESS_ENABLED */
 850:.\Generated_Source\PSoC5/UART_1.c ****             if(addressMode != 0u) { }     /* release compiler warning */
 851:.\Generated_Source\PSoC5/UART_1.c ****         #endif /* End UART_1_RXHW_ADDRESS_ENABLED */
 852:.\Generated_Source\PSoC5/UART_1.c ****     }
 1030              		.loc 1 852 0
 1031 000a 0C37     		adds	r7, r7, #12
 1032 000c BD46     		mov	sp, r7
 1033              		@ sp needed
 1034 000e 5DF8047B 		ldr	r7, [sp], #4
 1035 0012 7047     		bx	lr
 1036              		.cfi_endproc
 1037              	.LFE15:
 1038              		.size	UART_1_SetRxAddressMode, .-UART_1_SetRxAddressMode
 1039              		.section	.text.UART_1_SetRxAddress1,"ax",%progbits
 1040              		.align	2
 1041              		.global	UART_1_SetRxAddress1
 1042              		.thumb
 1043              		.thumb_func
 1044              		.type	UART_1_SetRxAddress1, %function
 1045              	UART_1_SetRxAddress1:
 1046              	.LFB16:
 853:.\Generated_Source\PSoC5/UART_1.c **** 
 854:.\Generated_Source\PSoC5/UART_1.c **** 
 855:.\Generated_Source\PSoC5/UART_1.c ****     /*******************************************************************************
 856:.\Generated_Source\PSoC5/UART_1.c ****     * Function Name: UART_1_SetRxAddress1
 857:.\Generated_Source\PSoC5/UART_1.c ****     ********************************************************************************
 858:.\Generated_Source\PSoC5/UART_1.c ****     *
 859:.\Generated_Source\PSoC5/UART_1.c ****     * Summary:
 860:.\Generated_Source\PSoC5/UART_1.c ****     *  Set the first hardware address compare value
 861:.\Generated_Source\PSoC5/UART_1.c ****     *
 862:.\Generated_Source\PSoC5/UART_1.c ****     * Parameters:
 863:.\Generated_Source\PSoC5/UART_1.c ****     *  address
 864:.\Generated_Source\PSoC5/UART_1.c ****     *
 865:.\Generated_Source\PSoC5/UART_1.c ****     * Return:
 866:.\Generated_Source\PSoC5/UART_1.c ****     *  None.
 867:.\Generated_Source\PSoC5/UART_1.c ****     *
 868:.\Generated_Source\PSoC5/UART_1.c ****     *******************************************************************************/
 869:.\Generated_Source\PSoC5/UART_1.c ****     void UART_1_SetRxAddress1(uint8 address) 
 870:.\Generated_Source\PSoC5/UART_1.c **** 
 871:.\Generated_Source\PSoC5/UART_1.c ****     {
 1047              		.loc 1 871 0
 1048              		.cfi_startproc
 1049              		@ args = 0, pretend = 0, frame = 8
 1050              		@ frame_needed = 1, uses_anonymous_args = 0
 1051              		@ link register save eliminated.
 1052 0000 80B4     		push	{r7}
 1053              		.cfi_def_cfa_offset 4
 1054              		.cfi_offset 7, -4
 1055 0002 83B0     		sub	sp, sp, #12
 1056              		.cfi_def_cfa_offset 16
 1057 0004 00AF     		add	r7, sp, #0
 1058              		.cfi_def_cfa_register 7
 1059 0006 0346     		mov	r3, r0
 1060 0008 FB71     		strb	r3, [r7, #7]
 872:.\Generated_Source\PSoC5/UART_1.c ****         UART_1_RXADDRESS1_REG = address;
 1061              		.loc 1 872 0
ARM GAS  C:\Users\dskyNote\AppData\Local\Temp\ccZwia2j.s 			page 35


 1062 000a 044B     		ldr	r3, .L65
 1063 000c FA79     		ldrb	r2, [r7, #7]
 1064 000e 1A70     		strb	r2, [r3]
 873:.\Generated_Source\PSoC5/UART_1.c ****     }
 1065              		.loc 1 873 0
 1066 0010 0C37     		adds	r7, r7, #12
 1067 0012 BD46     		mov	sp, r7
 1068              		@ sp needed
 1069 0014 5DF8047B 		ldr	r7, [sp], #4
 1070 0018 7047     		bx	lr
 1071              	.L66:
 1072 001a 00BF     		.align	2
 1073              	.L65:
 1074 001c 2C640040 		.word	1073767468
 1075              		.cfi_endproc
 1076              	.LFE16:
 1077              		.size	UART_1_SetRxAddress1, .-UART_1_SetRxAddress1
 1078              		.section	.text.UART_1_SetRxAddress2,"ax",%progbits
 1079              		.align	2
 1080              		.global	UART_1_SetRxAddress2
 1081              		.thumb
 1082              		.thumb_func
 1083              		.type	UART_1_SetRxAddress2, %function
 1084              	UART_1_SetRxAddress2:
 1085              	.LFB17:
 874:.\Generated_Source\PSoC5/UART_1.c **** 
 875:.\Generated_Source\PSoC5/UART_1.c **** 
 876:.\Generated_Source\PSoC5/UART_1.c ****     /*******************************************************************************
 877:.\Generated_Source\PSoC5/UART_1.c ****     * Function Name: UART_1_SetRxAddress2
 878:.\Generated_Source\PSoC5/UART_1.c ****     ********************************************************************************
 879:.\Generated_Source\PSoC5/UART_1.c ****     *
 880:.\Generated_Source\PSoC5/UART_1.c ****     * Summary:
 881:.\Generated_Source\PSoC5/UART_1.c ****     *  Set the second hardware address compare value
 882:.\Generated_Source\PSoC5/UART_1.c ****     *
 883:.\Generated_Source\PSoC5/UART_1.c ****     * Parameters:
 884:.\Generated_Source\PSoC5/UART_1.c ****     *  address
 885:.\Generated_Source\PSoC5/UART_1.c ****     *
 886:.\Generated_Source\PSoC5/UART_1.c ****     * Return:
 887:.\Generated_Source\PSoC5/UART_1.c ****     *  None.
 888:.\Generated_Source\PSoC5/UART_1.c ****     *
 889:.\Generated_Source\PSoC5/UART_1.c ****     *******************************************************************************/
 890:.\Generated_Source\PSoC5/UART_1.c ****     void UART_1_SetRxAddress2(uint8 address) 
 891:.\Generated_Source\PSoC5/UART_1.c ****     {
 1086              		.loc 1 891 0
 1087              		.cfi_startproc
 1088              		@ args = 0, pretend = 0, frame = 8
 1089              		@ frame_needed = 1, uses_anonymous_args = 0
 1090              		@ link register save eliminated.
 1091 0000 80B4     		push	{r7}
 1092              		.cfi_def_cfa_offset 4
 1093              		.cfi_offset 7, -4
 1094 0002 83B0     		sub	sp, sp, #12
 1095              		.cfi_def_cfa_offset 16
 1096 0004 00AF     		add	r7, sp, #0
 1097              		.cfi_def_cfa_register 7
 1098 0006 0346     		mov	r3, r0
 1099 0008 FB71     		strb	r3, [r7, #7]
ARM GAS  C:\Users\dskyNote\AppData\Local\Temp\ccZwia2j.s 			page 36


 892:.\Generated_Source\PSoC5/UART_1.c ****         UART_1_RXADDRESS2_REG = address;
 1100              		.loc 1 892 0
 1101 000a 044B     		ldr	r3, .L68
 1102 000c FA79     		ldrb	r2, [r7, #7]
 1103 000e 1A70     		strb	r2, [r3]
 893:.\Generated_Source\PSoC5/UART_1.c ****     }
 1104              		.loc 1 893 0
 1105 0010 0C37     		adds	r7, r7, #12
 1106 0012 BD46     		mov	sp, r7
 1107              		@ sp needed
 1108 0014 5DF8047B 		ldr	r7, [sp], #4
 1109 0018 7047     		bx	lr
 1110              	.L69:
 1111 001a 00BF     		.align	2
 1112              	.L68:
 1113 001c 3C640040 		.word	1073767484
 1114              		.cfi_endproc
 1115              	.LFE17:
 1116              		.size	UART_1_SetRxAddress2, .-UART_1_SetRxAddress2
 1117              		.section	.text.UART_1_EnableTxInt,"ax",%progbits
 1118              		.align	2
 1119              		.global	UART_1_EnableTxInt
 1120              		.thumb
 1121              		.thumb_func
 1122              		.type	UART_1_EnableTxInt, %function
 1123              	UART_1_EnableTxInt:
 1124              	.LFB18:
 894:.\Generated_Source\PSoC5/UART_1.c **** 
 895:.\Generated_Source\PSoC5/UART_1.c **** #endif  /* UART_1_RX_ENABLED || UART_1_HD_ENABLED*/
 896:.\Generated_Source\PSoC5/UART_1.c **** 
 897:.\Generated_Source\PSoC5/UART_1.c **** 
 898:.\Generated_Source\PSoC5/UART_1.c **** #if( (UART_1_TX_ENABLED) || (UART_1_HD_ENABLED) )
 899:.\Generated_Source\PSoC5/UART_1.c **** 
 900:.\Generated_Source\PSoC5/UART_1.c ****     #if(UART_1_TX_INTERRUPT_ENABLED)
 901:.\Generated_Source\PSoC5/UART_1.c **** 
 902:.\Generated_Source\PSoC5/UART_1.c ****         /*******************************************************************************
 903:.\Generated_Source\PSoC5/UART_1.c ****         * Function Name: UART_1_EnableTxInt
 904:.\Generated_Source\PSoC5/UART_1.c ****         ********************************************************************************
 905:.\Generated_Source\PSoC5/UART_1.c ****         *
 906:.\Generated_Source\PSoC5/UART_1.c ****         * Summary:
 907:.\Generated_Source\PSoC5/UART_1.c ****         *  Enable TX interrupt generation
 908:.\Generated_Source\PSoC5/UART_1.c ****         *
 909:.\Generated_Source\PSoC5/UART_1.c ****         * Parameters:
 910:.\Generated_Source\PSoC5/UART_1.c ****         *  None.
 911:.\Generated_Source\PSoC5/UART_1.c ****         *
 912:.\Generated_Source\PSoC5/UART_1.c ****         * Return:
 913:.\Generated_Source\PSoC5/UART_1.c ****         *  None.
 914:.\Generated_Source\PSoC5/UART_1.c ****         *
 915:.\Generated_Source\PSoC5/UART_1.c ****         * Theory:
 916:.\Generated_Source\PSoC5/UART_1.c ****         *  Enable the interrupt output -or- the interrupt component itself
 917:.\Generated_Source\PSoC5/UART_1.c ****         *
 918:.\Generated_Source\PSoC5/UART_1.c ****         *******************************************************************************/
 919:.\Generated_Source\PSoC5/UART_1.c ****         void UART_1_EnableTxInt(void) 
 920:.\Generated_Source\PSoC5/UART_1.c ****         {
 1125              		.loc 1 920 0
 1126              		.cfi_startproc
 1127              		@ args = 0, pretend = 0, frame = 0
ARM GAS  C:\Users\dskyNote\AppData\Local\Temp\ccZwia2j.s 			page 37


 1128              		@ frame_needed = 1, uses_anonymous_args = 0
 1129              		@ link register save eliminated.
 1130 0000 80B4     		push	{r7}
 1131              		.cfi_def_cfa_offset 4
 1132              		.cfi_offset 7, -4
 1133 0002 00AF     		add	r7, sp, #0
 1134              		.cfi_def_cfa_register 7
 921:.\Generated_Source\PSoC5/UART_1.c ****             CyIntEnable(UART_1_TX_VECT_NUM);
 1135              		.loc 1 921 0
 1136 0004 034B     		ldr	r3, .L71
 1137 0006 0822     		movs	r2, #8
 1138 0008 1A60     		str	r2, [r3]
 922:.\Generated_Source\PSoC5/UART_1.c ****         }
 1139              		.loc 1 922 0
 1140 000a BD46     		mov	sp, r7
 1141              		@ sp needed
 1142 000c 5DF8047B 		ldr	r7, [sp], #4
 1143 0010 7047     		bx	lr
 1144              	.L72:
 1145 0012 00BF     		.align	2
 1146              	.L71:
 1147 0014 00E100E0 		.word	-536813312
 1148              		.cfi_endproc
 1149              	.LFE18:
 1150              		.size	UART_1_EnableTxInt, .-UART_1_EnableTxInt
 1151              		.section	.text.UART_1_DisableTxInt,"ax",%progbits
 1152              		.align	2
 1153              		.global	UART_1_DisableTxInt
 1154              		.thumb
 1155              		.thumb_func
 1156              		.type	UART_1_DisableTxInt, %function
 1157              	UART_1_DisableTxInt:
 1158              	.LFB19:
 923:.\Generated_Source\PSoC5/UART_1.c **** 
 924:.\Generated_Source\PSoC5/UART_1.c **** 
 925:.\Generated_Source\PSoC5/UART_1.c ****         /*******************************************************************************
 926:.\Generated_Source\PSoC5/UART_1.c ****         * Function Name: UART_1_DisableTxInt
 927:.\Generated_Source\PSoC5/UART_1.c ****         ********************************************************************************
 928:.\Generated_Source\PSoC5/UART_1.c ****         *
 929:.\Generated_Source\PSoC5/UART_1.c ****         * Summary:
 930:.\Generated_Source\PSoC5/UART_1.c ****         *  Disable TX interrupt generation
 931:.\Generated_Source\PSoC5/UART_1.c ****         *
 932:.\Generated_Source\PSoC5/UART_1.c ****         * Parameters:
 933:.\Generated_Source\PSoC5/UART_1.c ****         *  None.
 934:.\Generated_Source\PSoC5/UART_1.c ****         *
 935:.\Generated_Source\PSoC5/UART_1.c ****         * Return:
 936:.\Generated_Source\PSoC5/UART_1.c ****         *  None.
 937:.\Generated_Source\PSoC5/UART_1.c ****         *
 938:.\Generated_Source\PSoC5/UART_1.c ****         * Theory:
 939:.\Generated_Source\PSoC5/UART_1.c ****         *  Disable the interrupt output -or- the interrupt component itself
 940:.\Generated_Source\PSoC5/UART_1.c ****         *
 941:.\Generated_Source\PSoC5/UART_1.c ****         *******************************************************************************/
 942:.\Generated_Source\PSoC5/UART_1.c ****         void UART_1_DisableTxInt(void) 
 943:.\Generated_Source\PSoC5/UART_1.c ****         {
 1159              		.loc 1 943 0
 1160              		.cfi_startproc
 1161              		@ args = 0, pretend = 0, frame = 0
ARM GAS  C:\Users\dskyNote\AppData\Local\Temp\ccZwia2j.s 			page 38


 1162              		@ frame_needed = 1, uses_anonymous_args = 0
 1163              		@ link register save eliminated.
 1164 0000 80B4     		push	{r7}
 1165              		.cfi_def_cfa_offset 4
 1166              		.cfi_offset 7, -4
 1167 0002 00AF     		add	r7, sp, #0
 1168              		.cfi_def_cfa_register 7
 944:.\Generated_Source\PSoC5/UART_1.c ****             CyIntDisable(UART_1_TX_VECT_NUM);
 1169              		.loc 1 944 0
 1170 0004 034B     		ldr	r3, .L74
 1171 0006 0822     		movs	r2, #8
 1172 0008 1A60     		str	r2, [r3]
 945:.\Generated_Source\PSoC5/UART_1.c ****         }
 1173              		.loc 1 945 0
 1174 000a BD46     		mov	sp, r7
 1175              		@ sp needed
 1176 000c 5DF8047B 		ldr	r7, [sp], #4
 1177 0010 7047     		bx	lr
 1178              	.L75:
 1179 0012 00BF     		.align	2
 1180              	.L74:
 1181 0014 80E100E0 		.word	-536813184
 1182              		.cfi_endproc
 1183              	.LFE19:
 1184              		.size	UART_1_DisableTxInt, .-UART_1_DisableTxInt
 1185              		.section	.text.UART_1_SetTxInterruptMode,"ax",%progbits
 1186              		.align	2
 1187              		.global	UART_1_SetTxInterruptMode
 1188              		.thumb
 1189              		.thumb_func
 1190              		.type	UART_1_SetTxInterruptMode, %function
 1191              	UART_1_SetTxInterruptMode:
 1192              	.LFB20:
 946:.\Generated_Source\PSoC5/UART_1.c **** 
 947:.\Generated_Source\PSoC5/UART_1.c ****     #endif /* UART_1_TX_INTERRUPT_ENABLED */
 948:.\Generated_Source\PSoC5/UART_1.c **** 
 949:.\Generated_Source\PSoC5/UART_1.c **** 
 950:.\Generated_Source\PSoC5/UART_1.c ****     /*******************************************************************************
 951:.\Generated_Source\PSoC5/UART_1.c ****     * Function Name: UART_1_SetTxInterruptMode
 952:.\Generated_Source\PSoC5/UART_1.c ****     ********************************************************************************
 953:.\Generated_Source\PSoC5/UART_1.c ****     *
 954:.\Generated_Source\PSoC5/UART_1.c ****     * Summary:
 955:.\Generated_Source\PSoC5/UART_1.c ****     *  Configure which status bits trigger an interrupt event
 956:.\Generated_Source\PSoC5/UART_1.c ****     *
 957:.\Generated_Source\PSoC5/UART_1.c ****     * Parameters:
 958:.\Generated_Source\PSoC5/UART_1.c ****     *  intSrc: An or'd combination of the desired status bit masks (defined in
 959:.\Generated_Source\PSoC5/UART_1.c ****     *          the header file)
 960:.\Generated_Source\PSoC5/UART_1.c ****     *
 961:.\Generated_Source\PSoC5/UART_1.c ****     * Return:
 962:.\Generated_Source\PSoC5/UART_1.c ****     *  None.
 963:.\Generated_Source\PSoC5/UART_1.c ****     *
 964:.\Generated_Source\PSoC5/UART_1.c ****     * Theory:
 965:.\Generated_Source\PSoC5/UART_1.c ****     *  Enables the output of specific status bits to the interrupt controller
 966:.\Generated_Source\PSoC5/UART_1.c ****     *
 967:.\Generated_Source\PSoC5/UART_1.c ****     *******************************************************************************/
 968:.\Generated_Source\PSoC5/UART_1.c ****     void UART_1_SetTxInterruptMode(uint8 intSrc) 
 969:.\Generated_Source\PSoC5/UART_1.c ****     {
ARM GAS  C:\Users\dskyNote\AppData\Local\Temp\ccZwia2j.s 			page 39


 1193              		.loc 1 969 0
 1194              		.cfi_startproc
 1195              		@ args = 0, pretend = 0, frame = 8
 1196              		@ frame_needed = 1, uses_anonymous_args = 0
 1197              		@ link register save eliminated.
 1198 0000 80B4     		push	{r7}
 1199              		.cfi_def_cfa_offset 4
 1200              		.cfi_offset 7, -4
 1201 0002 83B0     		sub	sp, sp, #12
 1202              		.cfi_def_cfa_offset 16
 1203 0004 00AF     		add	r7, sp, #0
 1204              		.cfi_def_cfa_register 7
 1205 0006 0346     		mov	r3, r0
 1206 0008 FB71     		strb	r3, [r7, #7]
 970:.\Generated_Source\PSoC5/UART_1.c ****         UART_1_TXSTATUS_MASK_REG = intSrc;
 1207              		.loc 1 970 0
 1208 000a 044B     		ldr	r3, .L77
 1209 000c FA79     		ldrb	r2, [r7, #7]
 1210 000e 1A70     		strb	r2, [r3]
 971:.\Generated_Source\PSoC5/UART_1.c ****     }
 1211              		.loc 1 971 0
 1212 0010 0C37     		adds	r7, r7, #12
 1213 0012 BD46     		mov	sp, r7
 1214              		@ sp needed
 1215 0014 5DF8047B 		ldr	r7, [sp], #4
 1216 0018 7047     		bx	lr
 1217              	.L78:
 1218 001a 00BF     		.align	2
 1219              	.L77:
 1220 001c 81640040 		.word	1073767553
 1221              		.cfi_endproc
 1222              	.LFE20:
 1223              		.size	UART_1_SetTxInterruptMode, .-UART_1_SetTxInterruptMode
 1224              		.section	.text.UART_1_WriteTxData,"ax",%progbits
 1225              		.align	2
 1226              		.global	UART_1_WriteTxData
 1227              		.thumb
 1228              		.thumb_func
 1229              		.type	UART_1_WriteTxData, %function
 1230              	UART_1_WriteTxData:
 1231              	.LFB21:
 972:.\Generated_Source\PSoC5/UART_1.c **** 
 973:.\Generated_Source\PSoC5/UART_1.c **** 
 974:.\Generated_Source\PSoC5/UART_1.c ****     /*******************************************************************************
 975:.\Generated_Source\PSoC5/UART_1.c ****     * Function Name: UART_1_WriteTxData
 976:.\Generated_Source\PSoC5/UART_1.c ****     ********************************************************************************
 977:.\Generated_Source\PSoC5/UART_1.c ****     *
 978:.\Generated_Source\PSoC5/UART_1.c ****     * Summary:
 979:.\Generated_Source\PSoC5/UART_1.c ****     *  Write a byte of data to the Transmit FIFO or TX buffer to be sent when the
 980:.\Generated_Source\PSoC5/UART_1.c ****     *  bus is available. WriteTxData sends a byte without checking for buffer room
 981:.\Generated_Source\PSoC5/UART_1.c ****     *  or status. It is up to the user to separately check status.
 982:.\Generated_Source\PSoC5/UART_1.c ****     *
 983:.\Generated_Source\PSoC5/UART_1.c ****     * Parameters:
 984:.\Generated_Source\PSoC5/UART_1.c ****     *  TXDataByte: byte of data to place in the transmit FIFO
 985:.\Generated_Source\PSoC5/UART_1.c ****     *
 986:.\Generated_Source\PSoC5/UART_1.c ****     * Return:
 987:.\Generated_Source\PSoC5/UART_1.c ****     * void
ARM GAS  C:\Users\dskyNote\AppData\Local\Temp\ccZwia2j.s 			page 40


 988:.\Generated_Source\PSoC5/UART_1.c ****     *
 989:.\Generated_Source\PSoC5/UART_1.c ****     * Global Variables:
 990:.\Generated_Source\PSoC5/UART_1.c ****     *  UART_1_txBuffer - RAM buffer pointer for save data for transmission
 991:.\Generated_Source\PSoC5/UART_1.c ****     *  UART_1_txBufferWrite - cyclic index for write to txBuffer,
 992:.\Generated_Source\PSoC5/UART_1.c ****     *    incremented after each byte saved to buffer.
 993:.\Generated_Source\PSoC5/UART_1.c ****     *  UART_1_txBufferRead - cyclic index for read from txBuffer,
 994:.\Generated_Source\PSoC5/UART_1.c ****     *    checked to identify the condition to write to FIFO directly or to TX buffer
 995:.\Generated_Source\PSoC5/UART_1.c ****     *  UART_1_initVar - checked to identify that the component has been
 996:.\Generated_Source\PSoC5/UART_1.c ****     *    initialized.
 997:.\Generated_Source\PSoC5/UART_1.c ****     *
 998:.\Generated_Source\PSoC5/UART_1.c ****     * Reentrant:
 999:.\Generated_Source\PSoC5/UART_1.c ****     *  No.
1000:.\Generated_Source\PSoC5/UART_1.c ****     *
1001:.\Generated_Source\PSoC5/UART_1.c ****     *******************************************************************************/
1002:.\Generated_Source\PSoC5/UART_1.c ****     void UART_1_WriteTxData(uint8 txDataByte) 
1003:.\Generated_Source\PSoC5/UART_1.c ****     {
 1232              		.loc 1 1003 0
 1233              		.cfi_startproc
 1234              		@ args = 0, pretend = 0, frame = 8
 1235              		@ frame_needed = 1, uses_anonymous_args = 0
 1236 0000 80B5     		push	{r7, lr}
 1237              		.cfi_def_cfa_offset 8
 1238              		.cfi_offset 7, -8
 1239              		.cfi_offset 14, -4
 1240 0002 82B0     		sub	sp, sp, #8
 1241              		.cfi_def_cfa_offset 16
 1242 0004 00AF     		add	r7, sp, #0
 1243              		.cfi_def_cfa_register 7
 1244 0006 0346     		mov	r3, r0
 1245 0008 FB71     		strb	r3, [r7, #7]
1004:.\Generated_Source\PSoC5/UART_1.c ****         /* If not Initialized then skip this function*/
1005:.\Generated_Source\PSoC5/UART_1.c ****         if(UART_1_initVar != 0u)
 1246              		.loc 1 1005 0
 1247 000a 184B     		ldr	r3, .L84
 1248 000c 1B78     		ldrb	r3, [r3]	@ zero_extendqisi2
 1249 000e 002B     		cmp	r3, #0
 1250 0010 29D0     		beq	.L79
1006:.\Generated_Source\PSoC5/UART_1.c ****         {
1007:.\Generated_Source\PSoC5/UART_1.c ****             #if(UART_1_TXBUFFERSIZE > UART_1_FIFO_LENGTH)
1008:.\Generated_Source\PSoC5/UART_1.c **** 
1009:.\Generated_Source\PSoC5/UART_1.c ****                 /* Disable Tx interrupt. */
1010:.\Generated_Source\PSoC5/UART_1.c ****                 /* Protect variables that could change on interrupt. */
1011:.\Generated_Source\PSoC5/UART_1.c ****                 #if(UART_1_TX_INTERRUPT_ENABLED)
1012:.\Generated_Source\PSoC5/UART_1.c ****                     UART_1_DisableTxInt();
 1251              		.loc 1 1012 0
 1252 0012 FFF7FEFF 		bl	UART_1_DisableTxInt
1013:.\Generated_Source\PSoC5/UART_1.c ****                 #endif /* End UART_1_TX_INTERRUPT_ENABLED */
1014:.\Generated_Source\PSoC5/UART_1.c **** 
1015:.\Generated_Source\PSoC5/UART_1.c ****                 if( (UART_1_txBufferRead == UART_1_txBufferWrite) &&
 1253              		.loc 1 1015 0
 1254 0016 164B     		ldr	r3, .L84+4
 1255 0018 1B78     		ldrb	r3, [r3]
 1256 001a DAB2     		uxtb	r2, r3
 1257 001c 154B     		ldr	r3, .L84+8
 1258 001e 1B78     		ldrb	r3, [r3]	@ zero_extendqisi2
 1259 0020 9A42     		cmp	r2, r3
 1260 0022 0AD1     		bne	.L81
ARM GAS  C:\Users\dskyNote\AppData\Local\Temp\ccZwia2j.s 			page 41


1016:.\Generated_Source\PSoC5/UART_1.c ****                     ((UART_1_TXSTATUS_REG & UART_1_TX_STS_FIFO_FULL) == 0u) )
 1261              		.loc 1 1016 0 discriminator 1
 1262 0024 144B     		ldr	r3, .L84+12
 1263 0026 1B78     		ldrb	r3, [r3]
 1264 0028 DBB2     		uxtb	r3, r3
 1265 002a 03F00403 		and	r3, r3, #4
1015:.\Generated_Source\PSoC5/UART_1.c ****                 if( (UART_1_txBufferRead == UART_1_txBufferWrite) &&
 1266              		.loc 1 1015 0 discriminator 1
 1267 002e 002B     		cmp	r3, #0
 1268 0030 03D1     		bne	.L81
1017:.\Generated_Source\PSoC5/UART_1.c ****                 {
1018:.\Generated_Source\PSoC5/UART_1.c ****                     /* Add directly to the FIFO. */
1019:.\Generated_Source\PSoC5/UART_1.c ****                     UART_1_TXDATA_REG = txDataByte;
 1269              		.loc 1 1019 0
 1270 0032 124B     		ldr	r3, .L84+16
 1271 0034 FA79     		ldrb	r2, [r7, #7]
 1272 0036 1A70     		strb	r2, [r3]
 1273 0038 13E0     		b	.L82
 1274              	.L81:
1020:.\Generated_Source\PSoC5/UART_1.c ****                 }
1021:.\Generated_Source\PSoC5/UART_1.c ****                 else
1022:.\Generated_Source\PSoC5/UART_1.c ****                 {
1023:.\Generated_Source\PSoC5/UART_1.c ****                     if(UART_1_txBufferWrite >= UART_1_TXBUFFERSIZE)
 1275              		.loc 1 1023 0
 1276 003a 0E4B     		ldr	r3, .L84+8
 1277 003c 1B78     		ldrb	r3, [r3]	@ zero_extendqisi2
 1278 003e DBB2     		uxtb	r3, r3
 1279 0040 5BB2     		sxtb	r3, r3
 1280 0042 002B     		cmp	r3, #0
 1281 0044 02DA     		bge	.L83
1024:.\Generated_Source\PSoC5/UART_1.c ****                     {
1025:.\Generated_Source\PSoC5/UART_1.c ****                         UART_1_txBufferWrite = 0u;
 1282              		.loc 1 1025 0
 1283 0046 0B4B     		ldr	r3, .L84+8
 1284 0048 0022     		movs	r2, #0
 1285 004a 1A70     		strb	r2, [r3]
 1286              	.L83:
1026:.\Generated_Source\PSoC5/UART_1.c ****                     }
1027:.\Generated_Source\PSoC5/UART_1.c **** 
1028:.\Generated_Source\PSoC5/UART_1.c ****                     UART_1_txBuffer[UART_1_txBufferWrite] = txDataByte;
 1287              		.loc 1 1028 0
 1288 004c 094B     		ldr	r3, .L84+8
 1289 004e 1B78     		ldrb	r3, [r3]	@ zero_extendqisi2
 1290 0050 0B4A     		ldr	r2, .L84+20
 1291 0052 F979     		ldrb	r1, [r7, #7]
 1292 0054 D154     		strb	r1, [r2, r3]
1029:.\Generated_Source\PSoC5/UART_1.c **** 
1030:.\Generated_Source\PSoC5/UART_1.c ****                     /* Add to the software buffer. */
1031:.\Generated_Source\PSoC5/UART_1.c ****                     UART_1_txBufferWrite++;
 1293              		.loc 1 1031 0
 1294 0056 074B     		ldr	r3, .L84+8
 1295 0058 1B78     		ldrb	r3, [r3]	@ zero_extendqisi2
 1296 005a 0133     		adds	r3, r3, #1
 1297 005c DAB2     		uxtb	r2, r3
 1298 005e 054B     		ldr	r3, .L84+8
 1299 0060 1A70     		strb	r2, [r3]
 1300              	.L82:
ARM GAS  C:\Users\dskyNote\AppData\Local\Temp\ccZwia2j.s 			page 42


1032:.\Generated_Source\PSoC5/UART_1.c **** 
1033:.\Generated_Source\PSoC5/UART_1.c ****                 }
1034:.\Generated_Source\PSoC5/UART_1.c **** 
1035:.\Generated_Source\PSoC5/UART_1.c ****                 /* Enable Tx interrupt. */
1036:.\Generated_Source\PSoC5/UART_1.c ****                 #if(UART_1_TX_INTERRUPT_ENABLED)
1037:.\Generated_Source\PSoC5/UART_1.c ****                     UART_1_EnableTxInt();
 1301              		.loc 1 1037 0
 1302 0062 FFF7FEFF 		bl	UART_1_EnableTxInt
 1303              	.L79:
1038:.\Generated_Source\PSoC5/UART_1.c ****                 #endif /* End UART_1_TX_INTERRUPT_ENABLED */
1039:.\Generated_Source\PSoC5/UART_1.c **** 
1040:.\Generated_Source\PSoC5/UART_1.c ****             #else /* UART_1_TXBUFFERSIZE > UART_1_FIFO_LENGTH */
1041:.\Generated_Source\PSoC5/UART_1.c **** 
1042:.\Generated_Source\PSoC5/UART_1.c ****                 /* Add directly to the FIFO. */
1043:.\Generated_Source\PSoC5/UART_1.c ****                 UART_1_TXDATA_REG = txDataByte;
1044:.\Generated_Source\PSoC5/UART_1.c **** 
1045:.\Generated_Source\PSoC5/UART_1.c ****             #endif /* End UART_1_TXBUFFERSIZE > UART_1_FIFO_LENGTH */
1046:.\Generated_Source\PSoC5/UART_1.c ****         }
1047:.\Generated_Source\PSoC5/UART_1.c ****     }
 1304              		.loc 1 1047 0
 1305 0066 0837     		adds	r7, r7, #8
 1306 0068 BD46     		mov	sp, r7
 1307              		@ sp needed
 1308 006a 80BD     		pop	{r7, pc}
 1309              	.L85:
 1310              		.align	2
 1311              	.L84:
 1312 006c 00000000 		.word	UART_1_initVar
 1313 0070 00000000 		.word	UART_1_txBufferRead
 1314 0074 00000000 		.word	UART_1_txBufferWrite
 1315 0078 61640040 		.word	1073767521
 1316 007c 41640040 		.word	1073767489
 1317 0080 00000000 		.word	UART_1_txBuffer
 1318              		.cfi_endproc
 1319              	.LFE21:
 1320              		.size	UART_1_WriteTxData, .-UART_1_WriteTxData
 1321              		.section	.text.UART_1_ReadTxStatus,"ax",%progbits
 1322              		.align	2
 1323              		.global	UART_1_ReadTxStatus
 1324              		.thumb
 1325              		.thumb_func
 1326              		.type	UART_1_ReadTxStatus, %function
 1327              	UART_1_ReadTxStatus:
 1328              	.LFB22:
1048:.\Generated_Source\PSoC5/UART_1.c **** 
1049:.\Generated_Source\PSoC5/UART_1.c **** 
1050:.\Generated_Source\PSoC5/UART_1.c ****     /*******************************************************************************
1051:.\Generated_Source\PSoC5/UART_1.c ****     * Function Name: UART_1_ReadTxStatus
1052:.\Generated_Source\PSoC5/UART_1.c ****     ********************************************************************************
1053:.\Generated_Source\PSoC5/UART_1.c ****     *
1054:.\Generated_Source\PSoC5/UART_1.c ****     * Summary:
1055:.\Generated_Source\PSoC5/UART_1.c ****     *  Read the status register for the component
1056:.\Generated_Source\PSoC5/UART_1.c ****     *
1057:.\Generated_Source\PSoC5/UART_1.c ****     * Parameters:
1058:.\Generated_Source\PSoC5/UART_1.c ****     *  None.
1059:.\Generated_Source\PSoC5/UART_1.c ****     *
1060:.\Generated_Source\PSoC5/UART_1.c ****     * Return:
ARM GAS  C:\Users\dskyNote\AppData\Local\Temp\ccZwia2j.s 			page 43


1061:.\Generated_Source\PSoC5/UART_1.c ****     *  Contents of the status register
1062:.\Generated_Source\PSoC5/UART_1.c ****     *
1063:.\Generated_Source\PSoC5/UART_1.c ****     * Theory:
1064:.\Generated_Source\PSoC5/UART_1.c ****     *  This function reads the status register which is clear on read. It is up to
1065:.\Generated_Source\PSoC5/UART_1.c ****     *  the user to handle all bits in this return value accordingly, even if the bit
1066:.\Generated_Source\PSoC5/UART_1.c ****     *  was not enabled as an interrupt source the event happened and must be handled
1067:.\Generated_Source\PSoC5/UART_1.c ****     *  accordingly.
1068:.\Generated_Source\PSoC5/UART_1.c ****     *
1069:.\Generated_Source\PSoC5/UART_1.c ****     *******************************************************************************/
1070:.\Generated_Source\PSoC5/UART_1.c ****     uint8 UART_1_ReadTxStatus(void) 
1071:.\Generated_Source\PSoC5/UART_1.c ****     {
 1329              		.loc 1 1071 0
 1330              		.cfi_startproc
 1331              		@ args = 0, pretend = 0, frame = 0
 1332              		@ frame_needed = 1, uses_anonymous_args = 0
 1333              		@ link register save eliminated.
 1334 0000 80B4     		push	{r7}
 1335              		.cfi_def_cfa_offset 4
 1336              		.cfi_offset 7, -4
 1337 0002 00AF     		add	r7, sp, #0
 1338              		.cfi_def_cfa_register 7
1072:.\Generated_Source\PSoC5/UART_1.c ****         return(UART_1_TXSTATUS_REG);
 1339              		.loc 1 1072 0
 1340 0004 034B     		ldr	r3, .L88
 1341 0006 1B78     		ldrb	r3, [r3]
 1342 0008 DBB2     		uxtb	r3, r3
1073:.\Generated_Source\PSoC5/UART_1.c ****     }
 1343              		.loc 1 1073 0
 1344 000a 1846     		mov	r0, r3
 1345 000c BD46     		mov	sp, r7
 1346              		@ sp needed
 1347 000e 5DF8047B 		ldr	r7, [sp], #4
 1348 0012 7047     		bx	lr
 1349              	.L89:
 1350              		.align	2
 1351              	.L88:
 1352 0014 61640040 		.word	1073767521
 1353              		.cfi_endproc
 1354              	.LFE22:
 1355              		.size	UART_1_ReadTxStatus, .-UART_1_ReadTxStatus
 1356              		.section	.text.UART_1_PutChar,"ax",%progbits
 1357              		.align	2
 1358              		.global	UART_1_PutChar
 1359              		.thumb
 1360              		.thumb_func
 1361              		.type	UART_1_PutChar, %function
 1362              	UART_1_PutChar:
 1363              	.LFB23:
1074:.\Generated_Source\PSoC5/UART_1.c **** 
1075:.\Generated_Source\PSoC5/UART_1.c **** 
1076:.\Generated_Source\PSoC5/UART_1.c ****     /*******************************************************************************
1077:.\Generated_Source\PSoC5/UART_1.c ****     * Function Name: UART_1_PutChar
1078:.\Generated_Source\PSoC5/UART_1.c ****     ********************************************************************************
1079:.\Generated_Source\PSoC5/UART_1.c ****     *
1080:.\Generated_Source\PSoC5/UART_1.c ****     * Summary:
1081:.\Generated_Source\PSoC5/UART_1.c ****     *  Wait to send byte until TX register or buffer has room.
1082:.\Generated_Source\PSoC5/UART_1.c ****     *
ARM GAS  C:\Users\dskyNote\AppData\Local\Temp\ccZwia2j.s 			page 44


1083:.\Generated_Source\PSoC5/UART_1.c ****     * Parameters:
1084:.\Generated_Source\PSoC5/UART_1.c ****     *  txDataByte: The 8-bit data value to send across the UART.
1085:.\Generated_Source\PSoC5/UART_1.c ****     *
1086:.\Generated_Source\PSoC5/UART_1.c ****     * Return:
1087:.\Generated_Source\PSoC5/UART_1.c ****     *  None.
1088:.\Generated_Source\PSoC5/UART_1.c ****     *
1089:.\Generated_Source\PSoC5/UART_1.c ****     * Global Variables:
1090:.\Generated_Source\PSoC5/UART_1.c ****     *  UART_1_txBuffer - RAM buffer pointer for save data for transmission
1091:.\Generated_Source\PSoC5/UART_1.c ****     *  UART_1_txBufferWrite - cyclic index for write to txBuffer,
1092:.\Generated_Source\PSoC5/UART_1.c ****     *     checked to identify free space in txBuffer and incremented after each byte
1093:.\Generated_Source\PSoC5/UART_1.c ****     *     saved to buffer.
1094:.\Generated_Source\PSoC5/UART_1.c ****     *  UART_1_txBufferRead - cyclic index for read from txBuffer,
1095:.\Generated_Source\PSoC5/UART_1.c ****     *     checked to identify free space in txBuffer.
1096:.\Generated_Source\PSoC5/UART_1.c ****     *  UART_1_initVar - checked to identify that the component has been
1097:.\Generated_Source\PSoC5/UART_1.c ****     *     initialized.
1098:.\Generated_Source\PSoC5/UART_1.c ****     *
1099:.\Generated_Source\PSoC5/UART_1.c ****     * Reentrant:
1100:.\Generated_Source\PSoC5/UART_1.c ****     *  No.
1101:.\Generated_Source\PSoC5/UART_1.c ****     *
1102:.\Generated_Source\PSoC5/UART_1.c ****     * Theory:
1103:.\Generated_Source\PSoC5/UART_1.c ****     *  Allows the user to transmit any byte of data in a single transfer
1104:.\Generated_Source\PSoC5/UART_1.c ****     *
1105:.\Generated_Source\PSoC5/UART_1.c ****     *******************************************************************************/
1106:.\Generated_Source\PSoC5/UART_1.c ****     void UART_1_PutChar(uint8 txDataByte) 
1107:.\Generated_Source\PSoC5/UART_1.c ****     {
 1364              		.loc 1 1107 0
 1365              		.cfi_startproc
 1366              		@ args = 0, pretend = 0, frame = 16
 1367              		@ frame_needed = 1, uses_anonymous_args = 0
 1368              		@ link register save eliminated.
 1369 0000 80B4     		push	{r7}
 1370              		.cfi_def_cfa_offset 4
 1371              		.cfi_offset 7, -4
 1372 0002 85B0     		sub	sp, sp, #20
 1373              		.cfi_def_cfa_offset 24
 1374 0004 00AF     		add	r7, sp, #0
 1375              		.cfi_def_cfa_register 7
 1376 0006 0346     		mov	r3, r0
 1377 0008 FB71     		strb	r3, [r7, #7]
 1378              	.L93:
1108:.\Generated_Source\PSoC5/UART_1.c ****             #if(UART_1_TXBUFFERSIZE > UART_1_FIFO_LENGTH)
1109:.\Generated_Source\PSoC5/UART_1.c ****                 /* The temporary output pointer is used since it takes two instructions
1110:.\Generated_Source\PSoC5/UART_1.c ****                 *  to increment with a wrap, and we can't risk doing that with the real
1111:.\Generated_Source\PSoC5/UART_1.c ****                 *  pointer and getting an interrupt in between instructions.
1112:.\Generated_Source\PSoC5/UART_1.c ****                 */
1113:.\Generated_Source\PSoC5/UART_1.c ****                 uint8 loc_txBufferWrite;
1114:.\Generated_Source\PSoC5/UART_1.c ****                 uint8 loc_txBufferRead;
1115:.\Generated_Source\PSoC5/UART_1.c **** 
1116:.\Generated_Source\PSoC5/UART_1.c ****                 do{
1117:.\Generated_Source\PSoC5/UART_1.c ****                     /* Block if software buffer is full, so we don't overwrite. */
1118:.\Generated_Source\PSoC5/UART_1.c ****                     #if ((UART_1_TXBUFFERSIZE > UART_1_MAX_BYTE_VALUE) && (CY_PSOC3))
1119:.\Generated_Source\PSoC5/UART_1.c ****                         /* Disable TX interrupt to protect variables that could change on interrupt
1120:.\Generated_Source\PSoC5/UART_1.c ****                         CyIntDisable(UART_1_TX_VECT_NUM);
1121:.\Generated_Source\PSoC5/UART_1.c ****                     #endif /* End TXBUFFERSIZE > 255 */
1122:.\Generated_Source\PSoC5/UART_1.c ****                     loc_txBufferWrite = UART_1_txBufferWrite;
 1379              		.loc 1 1122 0
 1380 000a 204B     		ldr	r3, .L97
ARM GAS  C:\Users\dskyNote\AppData\Local\Temp\ccZwia2j.s 			page 45


 1381 000c 1B78     		ldrb	r3, [r3]
 1382 000e FB73     		strb	r3, [r7, #15]
1123:.\Generated_Source\PSoC5/UART_1.c ****                     loc_txBufferRead = UART_1_txBufferRead;
 1383              		.loc 1 1123 0
 1384 0010 1F4B     		ldr	r3, .L97+4
 1385 0012 1B78     		ldrb	r3, [r3]
 1386 0014 BB73     		strb	r3, [r7, #14]
1124:.\Generated_Source\PSoC5/UART_1.c ****                     #if ((UART_1_TXBUFFERSIZE > UART_1_MAX_BYTE_VALUE) && (CY_PSOC3))
1125:.\Generated_Source\PSoC5/UART_1.c ****                         /* Enable interrupt to continue transmission */
1126:.\Generated_Source\PSoC5/UART_1.c ****                         CyIntEnable(UART_1_TX_VECT_NUM);
1127:.\Generated_Source\PSoC5/UART_1.c ****                     #endif /* End TXBUFFERSIZE > 255 */
1128:.\Generated_Source\PSoC5/UART_1.c ****                 }while( (loc_txBufferWrite < loc_txBufferRead) ? (loc_txBufferWrite == (loc_txBuffe
 1387              		.loc 1 1128 0
 1388 0016 FA7B     		ldrb	r2, [r7, #15]	@ zero_extendqisi2
 1389 0018 BB7B     		ldrb	r3, [r7, #14]	@ zero_extendqisi2
 1390 001a 9A42     		cmp	r2, r3
 1391 001c 08D2     		bcs	.L91
 1392              		.loc 1 1128 0 is_stmt 0 discriminator 1
 1393 001e FA7B     		ldrb	r2, [r7, #15]	@ zero_extendqisi2
 1394 0020 BB7B     		ldrb	r3, [r7, #14]	@ zero_extendqisi2
 1395 0022 013B     		subs	r3, r3, #1
 1396 0024 9A42     		cmp	r2, r3
 1397 0026 14BF     		ite	ne
 1398 0028 0023     		movne	r3, #0
 1399 002a 0123     		moveq	r3, #1
 1400 002c DBB2     		uxtb	r3, r3
 1401 002e 07E0     		b	.L92
 1402              	.L91:
1129:.\Generated_Source\PSoC5/UART_1.c ****                                         ((loc_txBufferWrite - loc_txBufferRead) ==
 1403              		.loc 1 1129 0 is_stmt 1 discriminator 2
 1404 0030 FA7B     		ldrb	r2, [r7, #15]	@ zero_extendqisi2
 1405 0032 BB7B     		ldrb	r3, [r7, #14]	@ zero_extendqisi2
 1406 0034 D31A     		subs	r3, r2, r3
1128:.\Generated_Source\PSoC5/UART_1.c ****                 }while( (loc_txBufferWrite < loc_txBufferRead) ? (loc_txBufferWrite == (loc_txBuffe
 1407              		.loc 1 1128 0 discriminator 2
 1408 0036 7F2B     		cmp	r3, #127
 1409 0038 14BF     		ite	ne
 1410 003a 0023     		movne	r3, #0
 1411 003c 0123     		moveq	r3, #1
 1412 003e DBB2     		uxtb	r3, r3
 1413              	.L92:
1130:.\Generated_Source\PSoC5/UART_1.c ****                                         (uint8)(UART_1_TXBUFFERSIZE - 1u)) );
 1414              		.loc 1 1130 0
 1415 0040 002B     		cmp	r3, #0
 1416 0042 E2D1     		bne	.L93
1131:.\Generated_Source\PSoC5/UART_1.c **** 
1132:.\Generated_Source\PSoC5/UART_1.c ****                 if( (loc_txBufferRead == loc_txBufferWrite) &&
 1417              		.loc 1 1132 0
 1418 0044 BA7B     		ldrb	r2, [r7, #14]	@ zero_extendqisi2
 1419 0046 FB7B     		ldrb	r3, [r7, #15]	@ zero_extendqisi2
 1420 0048 9A42     		cmp	r2, r3
 1421 004a 0AD1     		bne	.L94
1133:.\Generated_Source\PSoC5/UART_1.c ****                     ((UART_1_TXSTATUS_REG & UART_1_TX_STS_FIFO_FULL) == 0u) )
 1422              		.loc 1 1133 0 discriminator 1
 1423 004c 114B     		ldr	r3, .L97+8
 1424 004e 1B78     		ldrb	r3, [r3]
 1425 0050 DBB2     		uxtb	r3, r3
ARM GAS  C:\Users\dskyNote\AppData\Local\Temp\ccZwia2j.s 			page 46


 1426 0052 03F00403 		and	r3, r3, #4
1132:.\Generated_Source\PSoC5/UART_1.c ****                 if( (loc_txBufferRead == loc_txBufferWrite) &&
 1427              		.loc 1 1132 0 discriminator 1
 1428 0056 002B     		cmp	r3, #0
 1429 0058 03D1     		bne	.L94
1134:.\Generated_Source\PSoC5/UART_1.c ****                 {
1135:.\Generated_Source\PSoC5/UART_1.c ****                     /* Add directly to the FIFO. */
1136:.\Generated_Source\PSoC5/UART_1.c ****                     UART_1_TXDATA_REG = txDataByte;
 1430              		.loc 1 1136 0
 1431 005a 0F4B     		ldr	r3, .L97+12
 1432 005c FA79     		ldrb	r2, [r7, #7]
 1433 005e 1A70     		strb	r2, [r3]
 1434 0060 0FE0     		b	.L90
 1435              	.L94:
1137:.\Generated_Source\PSoC5/UART_1.c ****                 }
1138:.\Generated_Source\PSoC5/UART_1.c ****                 else
1139:.\Generated_Source\PSoC5/UART_1.c ****                 {
1140:.\Generated_Source\PSoC5/UART_1.c ****                     if(loc_txBufferWrite >= UART_1_TXBUFFERSIZE)
 1436              		.loc 1 1140 0
 1437 0062 FB7B     		ldrb	r3, [r7, #15]	@ zero_extendqisi2
 1438 0064 5BB2     		sxtb	r3, r3
 1439 0066 002B     		cmp	r3, #0
 1440 0068 01DA     		bge	.L96
1141:.\Generated_Source\PSoC5/UART_1.c ****                     {
1142:.\Generated_Source\PSoC5/UART_1.c ****                         loc_txBufferWrite = 0u;
 1441              		.loc 1 1142 0
 1442 006a 0023     		movs	r3, #0
 1443 006c FB73     		strb	r3, [r7, #15]
 1444              	.L96:
1143:.\Generated_Source\PSoC5/UART_1.c ****                     }
1144:.\Generated_Source\PSoC5/UART_1.c ****                     /* Add to the software buffer. */
1145:.\Generated_Source\PSoC5/UART_1.c ****                     UART_1_txBuffer[loc_txBufferWrite] = txDataByte;
 1445              		.loc 1 1145 0
 1446 006e FB7B     		ldrb	r3, [r7, #15]	@ zero_extendqisi2
 1447 0070 0A4A     		ldr	r2, .L97+16
 1448 0072 F979     		ldrb	r1, [r7, #7]
 1449 0074 D154     		strb	r1, [r2, r3]
1146:.\Generated_Source\PSoC5/UART_1.c ****                     loc_txBufferWrite++;
 1450              		.loc 1 1146 0
 1451 0076 FB7B     		ldrb	r3, [r7, #15]	@ zero_extendqisi2
 1452 0078 0133     		adds	r3, r3, #1
 1453 007a FB73     		strb	r3, [r7, #15]
1147:.\Generated_Source\PSoC5/UART_1.c **** 
1148:.\Generated_Source\PSoC5/UART_1.c ****                     /* Finally, update the real output pointer */
1149:.\Generated_Source\PSoC5/UART_1.c ****                     #if ((UART_1_TXBUFFERSIZE > UART_1_MAX_BYTE_VALUE) && (CY_PSOC3))
1150:.\Generated_Source\PSoC5/UART_1.c ****                         CyIntDisable(UART_1_TX_VECT_NUM);
1151:.\Generated_Source\PSoC5/UART_1.c ****                     #endif /* End TXBUFFERSIZE > 255 */
1152:.\Generated_Source\PSoC5/UART_1.c ****                     UART_1_txBufferWrite = loc_txBufferWrite;
 1454              		.loc 1 1152 0
 1455 007c 034B     		ldr	r3, .L97
 1456 007e FA7B     		ldrb	r2, [r7, #15]
 1457 0080 1A70     		strb	r2, [r3]
 1458              	.L90:
1153:.\Generated_Source\PSoC5/UART_1.c ****                     #if ((UART_1_TXBUFFERSIZE > UART_1_MAX_BYTE_VALUE) && (CY_PSOC3))
1154:.\Generated_Source\PSoC5/UART_1.c ****                         CyIntEnable(UART_1_TX_VECT_NUM);
1155:.\Generated_Source\PSoC5/UART_1.c ****                     #endif /* End TXBUFFERSIZE > 255 */
1156:.\Generated_Source\PSoC5/UART_1.c ****                 }
ARM GAS  C:\Users\dskyNote\AppData\Local\Temp\ccZwia2j.s 			page 47


1157:.\Generated_Source\PSoC5/UART_1.c **** 
1158:.\Generated_Source\PSoC5/UART_1.c ****             #else /* UART_1_TXBUFFERSIZE > UART_1_FIFO_LENGTH */
1159:.\Generated_Source\PSoC5/UART_1.c **** 
1160:.\Generated_Source\PSoC5/UART_1.c ****                 while((UART_1_TXSTATUS_REG & UART_1_TX_STS_FIFO_FULL) != 0u)
1161:.\Generated_Source\PSoC5/UART_1.c ****                 {
1162:.\Generated_Source\PSoC5/UART_1.c ****                     ; /* Wait for room in the FIFO. */
1163:.\Generated_Source\PSoC5/UART_1.c ****                 }
1164:.\Generated_Source\PSoC5/UART_1.c **** 
1165:.\Generated_Source\PSoC5/UART_1.c ****                 /* Add directly to the FIFO. */
1166:.\Generated_Source\PSoC5/UART_1.c ****                 UART_1_TXDATA_REG = txDataByte;
1167:.\Generated_Source\PSoC5/UART_1.c **** 
1168:.\Generated_Source\PSoC5/UART_1.c ****             #endif /* End UART_1_TXBUFFERSIZE > UART_1_FIFO_LENGTH */
1169:.\Generated_Source\PSoC5/UART_1.c ****     }
 1459              		.loc 1 1169 0
 1460 0082 1437     		adds	r7, r7, #20
 1461 0084 BD46     		mov	sp, r7
 1462              		@ sp needed
 1463 0086 5DF8047B 		ldr	r7, [sp], #4
 1464 008a 7047     		bx	lr
 1465              	.L98:
 1466              		.align	2
 1467              	.L97:
 1468 008c 00000000 		.word	UART_1_txBufferWrite
 1469 0090 00000000 		.word	UART_1_txBufferRead
 1470 0094 61640040 		.word	1073767521
 1471 0098 41640040 		.word	1073767489
 1472 009c 00000000 		.word	UART_1_txBuffer
 1473              		.cfi_endproc
 1474              	.LFE23:
 1475              		.size	UART_1_PutChar, .-UART_1_PutChar
 1476              		.section	.text.UART_1_PutString,"ax",%progbits
 1477              		.align	2
 1478              		.global	UART_1_PutString
 1479              		.thumb
 1480              		.thumb_func
 1481              		.type	UART_1_PutString, %function
 1482              	UART_1_PutString:
 1483              	.LFB24:
1170:.\Generated_Source\PSoC5/UART_1.c **** 
1171:.\Generated_Source\PSoC5/UART_1.c **** 
1172:.\Generated_Source\PSoC5/UART_1.c ****     /*******************************************************************************
1173:.\Generated_Source\PSoC5/UART_1.c ****     * Function Name: UART_1_PutString
1174:.\Generated_Source\PSoC5/UART_1.c ****     ********************************************************************************
1175:.\Generated_Source\PSoC5/UART_1.c ****     *
1176:.\Generated_Source\PSoC5/UART_1.c ****     * Summary:
1177:.\Generated_Source\PSoC5/UART_1.c ****     *  Write a Sequence of bytes on the Transmit line. Data comes from RAM or ROM.
1178:.\Generated_Source\PSoC5/UART_1.c ****     *
1179:.\Generated_Source\PSoC5/UART_1.c ****     * Parameters:
1180:.\Generated_Source\PSoC5/UART_1.c ****     *  string: char pointer to character string of Data to Send.
1181:.\Generated_Source\PSoC5/UART_1.c ****     *
1182:.\Generated_Source\PSoC5/UART_1.c ****     * Return:
1183:.\Generated_Source\PSoC5/UART_1.c ****     *  None.
1184:.\Generated_Source\PSoC5/UART_1.c ****     *
1185:.\Generated_Source\PSoC5/UART_1.c ****     * Global Variables:
1186:.\Generated_Source\PSoC5/UART_1.c ****     *  UART_1_initVar - checked to identify that the component has been
1187:.\Generated_Source\PSoC5/UART_1.c ****     *     initialized.
1188:.\Generated_Source\PSoC5/UART_1.c ****     *
ARM GAS  C:\Users\dskyNote\AppData\Local\Temp\ccZwia2j.s 			page 48


1189:.\Generated_Source\PSoC5/UART_1.c ****     * Reentrant:
1190:.\Generated_Source\PSoC5/UART_1.c ****     *  No.
1191:.\Generated_Source\PSoC5/UART_1.c ****     *
1192:.\Generated_Source\PSoC5/UART_1.c ****     * Theory:
1193:.\Generated_Source\PSoC5/UART_1.c ****     *  This function will block if there is not enough memory to place the whole
1194:.\Generated_Source\PSoC5/UART_1.c ****     *  string, it will block until the entire string has been written to the
1195:.\Generated_Source\PSoC5/UART_1.c ****     *  transmit buffer.
1196:.\Generated_Source\PSoC5/UART_1.c ****     *
1197:.\Generated_Source\PSoC5/UART_1.c ****     *******************************************************************************/
1198:.\Generated_Source\PSoC5/UART_1.c ****     void UART_1_PutString(const char8 string[]) 
1199:.\Generated_Source\PSoC5/UART_1.c ****     {
 1484              		.loc 1 1199 0
 1485              		.cfi_startproc
 1486              		@ args = 0, pretend = 0, frame = 16
 1487              		@ frame_needed = 1, uses_anonymous_args = 0
 1488 0000 80B5     		push	{r7, lr}
 1489              		.cfi_def_cfa_offset 8
 1490              		.cfi_offset 7, -8
 1491              		.cfi_offset 14, -4
 1492 0002 84B0     		sub	sp, sp, #16
 1493              		.cfi_def_cfa_offset 24
 1494 0004 00AF     		add	r7, sp, #0
 1495              		.cfi_def_cfa_register 7
 1496 0006 7860     		str	r0, [r7, #4]
1200:.\Generated_Source\PSoC5/UART_1.c ****         uint16 buf_index = 0u;
 1497              		.loc 1 1200 0
 1498 0008 0023     		movs	r3, #0
 1499 000a FB81     		strh	r3, [r7, #14]	@ movhi
1201:.\Generated_Source\PSoC5/UART_1.c ****         /* If not Initialized then skip this function*/
1202:.\Generated_Source\PSoC5/UART_1.c ****         if(UART_1_initVar != 0u)
 1500              		.loc 1 1202 0
 1501 000c 0B4B     		ldr	r3, .L103
 1502 000e 1B78     		ldrb	r3, [r3]	@ zero_extendqisi2
 1503 0010 002B     		cmp	r3, #0
 1504 0012 10D0     		beq	.L99
1203:.\Generated_Source\PSoC5/UART_1.c ****         {
1204:.\Generated_Source\PSoC5/UART_1.c ****             /* This is a blocking function, it will not exit until all data is sent*/
1205:.\Generated_Source\PSoC5/UART_1.c ****             while(string[buf_index] != (char8)0)
 1505              		.loc 1 1205 0
 1506 0014 09E0     		b	.L101
 1507              	.L102:
1206:.\Generated_Source\PSoC5/UART_1.c ****             {
1207:.\Generated_Source\PSoC5/UART_1.c ****                 UART_1_PutChar((uint8)string[buf_index]);
 1508              		.loc 1 1207 0
 1509 0016 FB89     		ldrh	r3, [r7, #14]
 1510 0018 7A68     		ldr	r2, [r7, #4]
 1511 001a 1344     		add	r3, r3, r2
 1512 001c 1B78     		ldrb	r3, [r3]	@ zero_extendqisi2
 1513 001e 1846     		mov	r0, r3
 1514 0020 FFF7FEFF 		bl	UART_1_PutChar
1208:.\Generated_Source\PSoC5/UART_1.c ****                 buf_index++;
 1515              		.loc 1 1208 0
 1516 0024 FB89     		ldrh	r3, [r7, #14]
 1517 0026 0133     		adds	r3, r3, #1
 1518 0028 FB81     		strh	r3, [r7, #14]	@ movhi
 1519              	.L101:
1205:.\Generated_Source\PSoC5/UART_1.c ****             while(string[buf_index] != (char8)0)
ARM GAS  C:\Users\dskyNote\AppData\Local\Temp\ccZwia2j.s 			page 49


 1520              		.loc 1 1205 0 discriminator 1
 1521 002a FB89     		ldrh	r3, [r7, #14]
 1522 002c 7A68     		ldr	r2, [r7, #4]
 1523 002e 1344     		add	r3, r3, r2
 1524 0030 1B78     		ldrb	r3, [r3]	@ zero_extendqisi2
 1525 0032 002B     		cmp	r3, #0
 1526 0034 EFD1     		bne	.L102
 1527              	.L99:
1209:.\Generated_Source\PSoC5/UART_1.c ****             }
1210:.\Generated_Source\PSoC5/UART_1.c ****         }
1211:.\Generated_Source\PSoC5/UART_1.c ****     }
 1528              		.loc 1 1211 0
 1529 0036 1037     		adds	r7, r7, #16
 1530 0038 BD46     		mov	sp, r7
 1531              		@ sp needed
 1532 003a 80BD     		pop	{r7, pc}
 1533              	.L104:
 1534              		.align	2
 1535              	.L103:
 1536 003c 00000000 		.word	UART_1_initVar
 1537              		.cfi_endproc
 1538              	.LFE24:
 1539              		.size	UART_1_PutString, .-UART_1_PutString
 1540              		.section	.text.UART_1_PutArray,"ax",%progbits
 1541              		.align	2
 1542              		.global	UART_1_PutArray
 1543              		.thumb
 1544              		.thumb_func
 1545              		.type	UART_1_PutArray, %function
 1546              	UART_1_PutArray:
 1547              	.LFB25:
1212:.\Generated_Source\PSoC5/UART_1.c **** 
1213:.\Generated_Source\PSoC5/UART_1.c **** 
1214:.\Generated_Source\PSoC5/UART_1.c ****     /*******************************************************************************
1215:.\Generated_Source\PSoC5/UART_1.c ****     * Function Name: UART_1_PutArray
1216:.\Generated_Source\PSoC5/UART_1.c ****     ********************************************************************************
1217:.\Generated_Source\PSoC5/UART_1.c ****     *
1218:.\Generated_Source\PSoC5/UART_1.c ****     * Summary:
1219:.\Generated_Source\PSoC5/UART_1.c ****     *  Write a Sequence of bytes on the Transmit line. Data comes from RAM or ROM.
1220:.\Generated_Source\PSoC5/UART_1.c ****     *
1221:.\Generated_Source\PSoC5/UART_1.c ****     * Parameters:
1222:.\Generated_Source\PSoC5/UART_1.c ****     *  string: Address of the memory array residing in RAM or ROM.
1223:.\Generated_Source\PSoC5/UART_1.c ****     *  byteCount: Number of Bytes to be transmitted.
1224:.\Generated_Source\PSoC5/UART_1.c ****     *
1225:.\Generated_Source\PSoC5/UART_1.c ****     * Return:
1226:.\Generated_Source\PSoC5/UART_1.c ****     *  None.
1227:.\Generated_Source\PSoC5/UART_1.c ****     *
1228:.\Generated_Source\PSoC5/UART_1.c ****     * Global Variables:
1229:.\Generated_Source\PSoC5/UART_1.c ****     *  UART_1_initVar - checked to identify that the component has been
1230:.\Generated_Source\PSoC5/UART_1.c ****     *     initialized.
1231:.\Generated_Source\PSoC5/UART_1.c ****     *
1232:.\Generated_Source\PSoC5/UART_1.c ****     * Reentrant:
1233:.\Generated_Source\PSoC5/UART_1.c ****     *  No.
1234:.\Generated_Source\PSoC5/UART_1.c ****     *
1235:.\Generated_Source\PSoC5/UART_1.c ****     *******************************************************************************/
1236:.\Generated_Source\PSoC5/UART_1.c ****     void UART_1_PutArray(const uint8 string[], uint8 byteCount)
1237:.\Generated_Source\PSoC5/UART_1.c ****                                                                     
ARM GAS  C:\Users\dskyNote\AppData\Local\Temp\ccZwia2j.s 			page 50


1238:.\Generated_Source\PSoC5/UART_1.c ****     {
 1548              		.loc 1 1238 0
 1549              		.cfi_startproc
 1550              		@ args = 0, pretend = 0, frame = 16
 1551              		@ frame_needed = 1, uses_anonymous_args = 0
 1552 0000 80B5     		push	{r7, lr}
 1553              		.cfi_def_cfa_offset 8
 1554              		.cfi_offset 7, -8
 1555              		.cfi_offset 14, -4
 1556 0002 84B0     		sub	sp, sp, #16
 1557              		.cfi_def_cfa_offset 24
 1558 0004 00AF     		add	r7, sp, #0
 1559              		.cfi_def_cfa_register 7
 1560 0006 7860     		str	r0, [r7, #4]
 1561 0008 0B46     		mov	r3, r1
 1562 000a FB70     		strb	r3, [r7, #3]
1239:.\Generated_Source\PSoC5/UART_1.c ****         uint8 buf_index = 0u;
 1563              		.loc 1 1239 0
 1564 000c 0023     		movs	r3, #0
 1565 000e FB73     		strb	r3, [r7, #15]
1240:.\Generated_Source\PSoC5/UART_1.c ****         /* If not Initialized then skip this function*/
1241:.\Generated_Source\PSoC5/UART_1.c ****         if(UART_1_initVar != 0u)
 1566              		.loc 1 1241 0
 1567 0010 0A4B     		ldr	r3, .L108
 1568 0012 1B78     		ldrb	r3, [r3]	@ zero_extendqisi2
 1569 0014 002B     		cmp	r3, #0
 1570 0016 0DD0     		beq	.L105
 1571              	.L107:
1242:.\Generated_Source\PSoC5/UART_1.c ****         {
1243:.\Generated_Source\PSoC5/UART_1.c ****             do
1244:.\Generated_Source\PSoC5/UART_1.c ****             {
1245:.\Generated_Source\PSoC5/UART_1.c ****                 UART_1_PutChar(string[buf_index]);
 1572              		.loc 1 1245 0 discriminator 1
 1573 0018 FB7B     		ldrb	r3, [r7, #15]	@ zero_extendqisi2
 1574 001a 7A68     		ldr	r2, [r7, #4]
 1575 001c 1344     		add	r3, r3, r2
 1576 001e 1B78     		ldrb	r3, [r3]	@ zero_extendqisi2
 1577 0020 1846     		mov	r0, r3
 1578 0022 FFF7FEFF 		bl	UART_1_PutChar
1246:.\Generated_Source\PSoC5/UART_1.c ****                 buf_index++;
 1579              		.loc 1 1246 0 discriminator 1
 1580 0026 FB7B     		ldrb	r3, [r7, #15]	@ zero_extendqisi2
 1581 0028 0133     		adds	r3, r3, #1
 1582 002a FB73     		strb	r3, [r7, #15]
1247:.\Generated_Source\PSoC5/UART_1.c ****             }while(buf_index < byteCount);
 1583              		.loc 1 1247 0 discriminator 1
 1584 002c FA7B     		ldrb	r2, [r7, #15]	@ zero_extendqisi2
 1585 002e FB78     		ldrb	r3, [r7, #3]	@ zero_extendqisi2
 1586 0030 9A42     		cmp	r2, r3
 1587 0032 F1D3     		bcc	.L107
 1588              	.L105:
1248:.\Generated_Source\PSoC5/UART_1.c ****         }
1249:.\Generated_Source\PSoC5/UART_1.c ****     }
 1589              		.loc 1 1249 0
 1590 0034 1037     		adds	r7, r7, #16
 1591 0036 BD46     		mov	sp, r7
 1592              		@ sp needed
ARM GAS  C:\Users\dskyNote\AppData\Local\Temp\ccZwia2j.s 			page 51


 1593 0038 80BD     		pop	{r7, pc}
 1594              	.L109:
 1595 003a 00BF     		.align	2
 1596              	.L108:
 1597 003c 00000000 		.word	UART_1_initVar
 1598              		.cfi_endproc
 1599              	.LFE25:
 1600              		.size	UART_1_PutArray, .-UART_1_PutArray
 1601              		.section	.text.UART_1_PutCRLF,"ax",%progbits
 1602              		.align	2
 1603              		.global	UART_1_PutCRLF
 1604              		.thumb
 1605              		.thumb_func
 1606              		.type	UART_1_PutCRLF, %function
 1607              	UART_1_PutCRLF:
 1608              	.LFB26:
1250:.\Generated_Source\PSoC5/UART_1.c **** 
1251:.\Generated_Source\PSoC5/UART_1.c **** 
1252:.\Generated_Source\PSoC5/UART_1.c ****     /*******************************************************************************
1253:.\Generated_Source\PSoC5/UART_1.c ****     * Function Name: UART_1_PutCRLF
1254:.\Generated_Source\PSoC5/UART_1.c ****     ********************************************************************************
1255:.\Generated_Source\PSoC5/UART_1.c ****     *
1256:.\Generated_Source\PSoC5/UART_1.c ****     * Summary:
1257:.\Generated_Source\PSoC5/UART_1.c ****     *  Write a character and then carriage return and line feed.
1258:.\Generated_Source\PSoC5/UART_1.c ****     *
1259:.\Generated_Source\PSoC5/UART_1.c ****     * Parameters:
1260:.\Generated_Source\PSoC5/UART_1.c ****     *  txDataByte: uint8 Character to send.
1261:.\Generated_Source\PSoC5/UART_1.c ****     *
1262:.\Generated_Source\PSoC5/UART_1.c ****     * Return:
1263:.\Generated_Source\PSoC5/UART_1.c ****     *  None.
1264:.\Generated_Source\PSoC5/UART_1.c ****     *
1265:.\Generated_Source\PSoC5/UART_1.c ****     * Global Variables:
1266:.\Generated_Source\PSoC5/UART_1.c ****     *  UART_1_initVar - checked to identify that the component has been
1267:.\Generated_Source\PSoC5/UART_1.c ****     *     initialized.
1268:.\Generated_Source\PSoC5/UART_1.c ****     *
1269:.\Generated_Source\PSoC5/UART_1.c ****     * Reentrant:
1270:.\Generated_Source\PSoC5/UART_1.c ****     *  No.
1271:.\Generated_Source\PSoC5/UART_1.c ****     *
1272:.\Generated_Source\PSoC5/UART_1.c ****     *******************************************************************************/
1273:.\Generated_Source\PSoC5/UART_1.c ****     void UART_1_PutCRLF(uint8 txDataByte) 
1274:.\Generated_Source\PSoC5/UART_1.c ****     {
 1609              		.loc 1 1274 0
 1610              		.cfi_startproc
 1611              		@ args = 0, pretend = 0, frame = 8
 1612              		@ frame_needed = 1, uses_anonymous_args = 0
 1613 0000 80B5     		push	{r7, lr}
 1614              		.cfi_def_cfa_offset 8
 1615              		.cfi_offset 7, -8
 1616              		.cfi_offset 14, -4
 1617 0002 82B0     		sub	sp, sp, #8
 1618              		.cfi_def_cfa_offset 16
 1619 0004 00AF     		add	r7, sp, #0
 1620              		.cfi_def_cfa_register 7
 1621 0006 0346     		mov	r3, r0
 1622 0008 FB71     		strb	r3, [r7, #7]
1275:.\Generated_Source\PSoC5/UART_1.c ****         /* If not Initialized then skip this function*/
1276:.\Generated_Source\PSoC5/UART_1.c ****         if(UART_1_initVar != 0u)
ARM GAS  C:\Users\dskyNote\AppData\Local\Temp\ccZwia2j.s 			page 52


 1623              		.loc 1 1276 0
 1624 000a 084B     		ldr	r3, .L112
 1625 000c 1B78     		ldrb	r3, [r3]	@ zero_extendqisi2
 1626 000e 002B     		cmp	r3, #0
 1627 0010 09D0     		beq	.L110
1277:.\Generated_Source\PSoC5/UART_1.c ****         {
1278:.\Generated_Source\PSoC5/UART_1.c ****             UART_1_PutChar(txDataByte);
 1628              		.loc 1 1278 0
 1629 0012 FB79     		ldrb	r3, [r7, #7]	@ zero_extendqisi2
 1630 0014 1846     		mov	r0, r3
 1631 0016 FFF7FEFF 		bl	UART_1_PutChar
1279:.\Generated_Source\PSoC5/UART_1.c ****             UART_1_PutChar(0x0Du);
 1632              		.loc 1 1279 0
 1633 001a 0D20     		movs	r0, #13
 1634 001c FFF7FEFF 		bl	UART_1_PutChar
1280:.\Generated_Source\PSoC5/UART_1.c ****             UART_1_PutChar(0x0Au);
 1635              		.loc 1 1280 0
 1636 0020 0A20     		movs	r0, #10
 1637 0022 FFF7FEFF 		bl	UART_1_PutChar
 1638              	.L110:
1281:.\Generated_Source\PSoC5/UART_1.c ****         }
1282:.\Generated_Source\PSoC5/UART_1.c ****     }
 1639              		.loc 1 1282 0
 1640 0026 0837     		adds	r7, r7, #8
 1641 0028 BD46     		mov	sp, r7
 1642              		@ sp needed
 1643 002a 80BD     		pop	{r7, pc}
 1644              	.L113:
 1645              		.align	2
 1646              	.L112:
 1647 002c 00000000 		.word	UART_1_initVar
 1648              		.cfi_endproc
 1649              	.LFE26:
 1650              		.size	UART_1_PutCRLF, .-UART_1_PutCRLF
 1651              		.section	.text.UART_1_GetTxBufferSize,"ax",%progbits
 1652              		.align	2
 1653              		.global	UART_1_GetTxBufferSize
 1654              		.thumb
 1655              		.thumb_func
 1656              		.type	UART_1_GetTxBufferSize, %function
 1657              	UART_1_GetTxBufferSize:
 1658              	.LFB27:
1283:.\Generated_Source\PSoC5/UART_1.c **** 
1284:.\Generated_Source\PSoC5/UART_1.c **** 
1285:.\Generated_Source\PSoC5/UART_1.c ****     /*******************************************************************************
1286:.\Generated_Source\PSoC5/UART_1.c ****     * Function Name: UART_1_GetTxBufferSize
1287:.\Generated_Source\PSoC5/UART_1.c ****     ********************************************************************************
1288:.\Generated_Source\PSoC5/UART_1.c ****     *
1289:.\Generated_Source\PSoC5/UART_1.c ****     * Summary:
1290:.\Generated_Source\PSoC5/UART_1.c ****     *  Determine the amount of space left in the TX buffer and return the count in
1291:.\Generated_Source\PSoC5/UART_1.c ****     *  bytes
1292:.\Generated_Source\PSoC5/UART_1.c ****     *
1293:.\Generated_Source\PSoC5/UART_1.c ****     * Parameters:
1294:.\Generated_Source\PSoC5/UART_1.c ****     *  None.
1295:.\Generated_Source\PSoC5/UART_1.c ****     *
1296:.\Generated_Source\PSoC5/UART_1.c ****     * Return:
1297:.\Generated_Source\PSoC5/UART_1.c ****     *  Integer count of the number of bytes left in the TX buffer
ARM GAS  C:\Users\dskyNote\AppData\Local\Temp\ccZwia2j.s 			page 53


1298:.\Generated_Source\PSoC5/UART_1.c ****     *
1299:.\Generated_Source\PSoC5/UART_1.c ****     * Global Variables:
1300:.\Generated_Source\PSoC5/UART_1.c ****     *  UART_1_txBufferWrite - used to calculate left space.
1301:.\Generated_Source\PSoC5/UART_1.c ****     *  UART_1_txBufferRead - used to calculate left space.
1302:.\Generated_Source\PSoC5/UART_1.c ****     *
1303:.\Generated_Source\PSoC5/UART_1.c ****     * Reentrant:
1304:.\Generated_Source\PSoC5/UART_1.c ****     *  No.
1305:.\Generated_Source\PSoC5/UART_1.c ****     *
1306:.\Generated_Source\PSoC5/UART_1.c ****     * Theory:
1307:.\Generated_Source\PSoC5/UART_1.c ****     *  Allows the user to find out how full the TX Buffer is.
1308:.\Generated_Source\PSoC5/UART_1.c ****     *
1309:.\Generated_Source\PSoC5/UART_1.c ****     *******************************************************************************/
1310:.\Generated_Source\PSoC5/UART_1.c ****     uint8 UART_1_GetTxBufferSize(void)
1311:.\Generated_Source\PSoC5/UART_1.c ****                                                             
1312:.\Generated_Source\PSoC5/UART_1.c ****     {
 1659              		.loc 1 1312 0
 1660              		.cfi_startproc
 1661              		@ args = 0, pretend = 0, frame = 8
 1662              		@ frame_needed = 1, uses_anonymous_args = 0
 1663 0000 80B5     		push	{r7, lr}
 1664              		.cfi_def_cfa_offset 8
 1665              		.cfi_offset 7, -8
 1666              		.cfi_offset 14, -4
 1667 0002 82B0     		sub	sp, sp, #8
 1668              		.cfi_def_cfa_offset 16
 1669 0004 00AF     		add	r7, sp, #0
 1670              		.cfi_def_cfa_register 7
1313:.\Generated_Source\PSoC5/UART_1.c ****         uint8 size;
1314:.\Generated_Source\PSoC5/UART_1.c **** 
1315:.\Generated_Source\PSoC5/UART_1.c ****         #if(UART_1_TXBUFFERSIZE > UART_1_FIFO_LENGTH)
1316:.\Generated_Source\PSoC5/UART_1.c **** 
1317:.\Generated_Source\PSoC5/UART_1.c ****             /* Disable Tx interrupt. */
1318:.\Generated_Source\PSoC5/UART_1.c ****             /* Protect variables that could change on interrupt. */
1319:.\Generated_Source\PSoC5/UART_1.c ****             #if(UART_1_TX_INTERRUPT_ENABLED)
1320:.\Generated_Source\PSoC5/UART_1.c ****                 UART_1_DisableTxInt();
 1671              		.loc 1 1320 0
 1672 0006 FFF7FEFF 		bl	UART_1_DisableTxInt
1321:.\Generated_Source\PSoC5/UART_1.c ****             #endif /* End UART_1_TX_INTERRUPT_ENABLED */
1322:.\Generated_Source\PSoC5/UART_1.c **** 
1323:.\Generated_Source\PSoC5/UART_1.c ****             if(UART_1_txBufferRead == UART_1_txBufferWrite)
 1673              		.loc 1 1323 0
 1674 000a 144B     		ldr	r3, .L119
 1675 000c 1B78     		ldrb	r3, [r3]
 1676 000e DAB2     		uxtb	r2, r3
 1677 0010 134B     		ldr	r3, .L119+4
 1678 0012 1B78     		ldrb	r3, [r3]	@ zero_extendqisi2
 1679 0014 9A42     		cmp	r2, r3
 1680 0016 02D1     		bne	.L115
1324:.\Generated_Source\PSoC5/UART_1.c ****             {
1325:.\Generated_Source\PSoC5/UART_1.c ****                 size = 0u;
 1681              		.loc 1 1325 0
 1682 0018 0023     		movs	r3, #0
 1683 001a FB71     		strb	r3, [r7, #7]
 1684 001c 17E0     		b	.L116
 1685              	.L115:
1326:.\Generated_Source\PSoC5/UART_1.c ****             }
1327:.\Generated_Source\PSoC5/UART_1.c ****             else if(UART_1_txBufferRead < UART_1_txBufferWrite)
ARM GAS  C:\Users\dskyNote\AppData\Local\Temp\ccZwia2j.s 			page 54


 1686              		.loc 1 1327 0
 1687 001e 0F4B     		ldr	r3, .L119
 1688 0020 1B78     		ldrb	r3, [r3]
 1689 0022 DAB2     		uxtb	r2, r3
 1690 0024 0E4B     		ldr	r3, .L119+4
 1691 0026 1B78     		ldrb	r3, [r3]	@ zero_extendqisi2
 1692 0028 9A42     		cmp	r2, r3
 1693 002a 07D2     		bcs	.L117
1328:.\Generated_Source\PSoC5/UART_1.c ****             {
1329:.\Generated_Source\PSoC5/UART_1.c ****                 size = (UART_1_txBufferWrite - UART_1_txBufferRead);
 1694              		.loc 1 1329 0
 1695 002c 0C4B     		ldr	r3, .L119+4
 1696 002e 1A78     		ldrb	r2, [r3]	@ zero_extendqisi2
 1697 0030 0A4B     		ldr	r3, .L119
 1698 0032 1B78     		ldrb	r3, [r3]
 1699 0034 DBB2     		uxtb	r3, r3
 1700 0036 D31A     		subs	r3, r2, r3
 1701 0038 FB71     		strb	r3, [r7, #7]
 1702 003a 08E0     		b	.L116
 1703              	.L117:
1330:.\Generated_Source\PSoC5/UART_1.c ****             }
1331:.\Generated_Source\PSoC5/UART_1.c ****             else
1332:.\Generated_Source\PSoC5/UART_1.c ****             {
1333:.\Generated_Source\PSoC5/UART_1.c ****                 size = (UART_1_TXBUFFERSIZE - UART_1_txBufferRead) + UART_1_txBufferWrite;
 1704              		.loc 1 1333 0
 1705 003c 084B     		ldr	r3, .L119+4
 1706 003e 1A78     		ldrb	r2, [r3]	@ zero_extendqisi2
 1707 0040 064B     		ldr	r3, .L119
 1708 0042 1B78     		ldrb	r3, [r3]
 1709 0044 DBB2     		uxtb	r3, r3
 1710 0046 D31A     		subs	r3, r2, r3
 1711 0048 DBB2     		uxtb	r3, r3
 1712 004a 803B     		subs	r3, r3, #128
 1713 004c FB71     		strb	r3, [r7, #7]
 1714              	.L116:
1334:.\Generated_Source\PSoC5/UART_1.c ****             }
1335:.\Generated_Source\PSoC5/UART_1.c **** 
1336:.\Generated_Source\PSoC5/UART_1.c ****             /* Enable Tx interrupt. */
1337:.\Generated_Source\PSoC5/UART_1.c ****             #if(UART_1_TX_INTERRUPT_ENABLED)
1338:.\Generated_Source\PSoC5/UART_1.c ****                 UART_1_EnableTxInt();
 1715              		.loc 1 1338 0
 1716 004e FFF7FEFF 		bl	UART_1_EnableTxInt
1339:.\Generated_Source\PSoC5/UART_1.c ****             #endif /* End UART_1_TX_INTERRUPT_ENABLED */
1340:.\Generated_Source\PSoC5/UART_1.c **** 
1341:.\Generated_Source\PSoC5/UART_1.c ****         #else /* UART_1_TXBUFFERSIZE > UART_1_FIFO_LENGTH */
1342:.\Generated_Source\PSoC5/UART_1.c **** 
1343:.\Generated_Source\PSoC5/UART_1.c ****             size = UART_1_TXSTATUS_REG;
1344:.\Generated_Source\PSoC5/UART_1.c **** 
1345:.\Generated_Source\PSoC5/UART_1.c ****             /* Is the fifo is full. */
1346:.\Generated_Source\PSoC5/UART_1.c ****             if((size & UART_1_TX_STS_FIFO_FULL) != 0u)
1347:.\Generated_Source\PSoC5/UART_1.c ****             {
1348:.\Generated_Source\PSoC5/UART_1.c ****                 size = UART_1_FIFO_LENGTH;
1349:.\Generated_Source\PSoC5/UART_1.c ****             }
1350:.\Generated_Source\PSoC5/UART_1.c ****             else if((size & UART_1_TX_STS_FIFO_EMPTY) != 0u)
1351:.\Generated_Source\PSoC5/UART_1.c ****             {
1352:.\Generated_Source\PSoC5/UART_1.c ****                 size = 0u;
1353:.\Generated_Source\PSoC5/UART_1.c ****             }
ARM GAS  C:\Users\dskyNote\AppData\Local\Temp\ccZwia2j.s 			page 55


1354:.\Generated_Source\PSoC5/UART_1.c ****             else
1355:.\Generated_Source\PSoC5/UART_1.c ****             {
1356:.\Generated_Source\PSoC5/UART_1.c ****                 /* We only know there is data in the fifo. */
1357:.\Generated_Source\PSoC5/UART_1.c ****                 size = 1u;
1358:.\Generated_Source\PSoC5/UART_1.c ****             }
1359:.\Generated_Source\PSoC5/UART_1.c **** 
1360:.\Generated_Source\PSoC5/UART_1.c ****         #endif /* End UART_1_TXBUFFERSIZE > UART_1_FIFO_LENGTH */
1361:.\Generated_Source\PSoC5/UART_1.c **** 
1362:.\Generated_Source\PSoC5/UART_1.c ****         return(size);
 1717              		.loc 1 1362 0
 1718 0052 FB79     		ldrb	r3, [r7, #7]	@ zero_extendqisi2
1363:.\Generated_Source\PSoC5/UART_1.c ****     }
 1719              		.loc 1 1363 0
 1720 0054 1846     		mov	r0, r3
 1721 0056 0837     		adds	r7, r7, #8
 1722 0058 BD46     		mov	sp, r7
 1723              		@ sp needed
 1724 005a 80BD     		pop	{r7, pc}
 1725              	.L120:
 1726              		.align	2
 1727              	.L119:
 1728 005c 00000000 		.word	UART_1_txBufferRead
 1729 0060 00000000 		.word	UART_1_txBufferWrite
 1730              		.cfi_endproc
 1731              	.LFE27:
 1732              		.size	UART_1_GetTxBufferSize, .-UART_1_GetTxBufferSize
 1733              		.section	.text.UART_1_ClearTxBuffer,"ax",%progbits
 1734              		.align	2
 1735              		.global	UART_1_ClearTxBuffer
 1736              		.thumb
 1737              		.thumb_func
 1738              		.type	UART_1_ClearTxBuffer, %function
 1739              	UART_1_ClearTxBuffer:
 1740              	.LFB28:
1364:.\Generated_Source\PSoC5/UART_1.c **** 
1365:.\Generated_Source\PSoC5/UART_1.c **** 
1366:.\Generated_Source\PSoC5/UART_1.c ****     /*******************************************************************************
1367:.\Generated_Source\PSoC5/UART_1.c ****     * Function Name: UART_1_ClearTxBuffer
1368:.\Generated_Source\PSoC5/UART_1.c ****     ********************************************************************************
1369:.\Generated_Source\PSoC5/UART_1.c ****     *
1370:.\Generated_Source\PSoC5/UART_1.c ****     * Summary:
1371:.\Generated_Source\PSoC5/UART_1.c ****     *  Clears the TX RAM buffer by setting the read and write pointers both to zero.
1372:.\Generated_Source\PSoC5/UART_1.c ****     *  Clears the hardware TX FIFO.  Any data present in the FIFO will not be sent.
1373:.\Generated_Source\PSoC5/UART_1.c ****     *
1374:.\Generated_Source\PSoC5/UART_1.c ****     * Parameters:
1375:.\Generated_Source\PSoC5/UART_1.c ****     *  None.
1376:.\Generated_Source\PSoC5/UART_1.c ****     *
1377:.\Generated_Source\PSoC5/UART_1.c ****     * Return:
1378:.\Generated_Source\PSoC5/UART_1.c ****     *  None.
1379:.\Generated_Source\PSoC5/UART_1.c ****     *
1380:.\Generated_Source\PSoC5/UART_1.c ****     * Global Variables:
1381:.\Generated_Source\PSoC5/UART_1.c ****     *  UART_1_txBufferWrite - cleared to zero.
1382:.\Generated_Source\PSoC5/UART_1.c ****     *  UART_1_txBufferRead - cleared to zero.
1383:.\Generated_Source\PSoC5/UART_1.c ****     *
1384:.\Generated_Source\PSoC5/UART_1.c ****     * Reentrant:
1385:.\Generated_Source\PSoC5/UART_1.c ****     *  No.
1386:.\Generated_Source\PSoC5/UART_1.c ****     *
ARM GAS  C:\Users\dskyNote\AppData\Local\Temp\ccZwia2j.s 			page 56


1387:.\Generated_Source\PSoC5/UART_1.c ****     * Theory:
1388:.\Generated_Source\PSoC5/UART_1.c ****     *  Setting the pointers to zero makes the system believe there is no data to
1389:.\Generated_Source\PSoC5/UART_1.c ****     *  read and writing will resume at address 0 overwriting any data that may have
1390:.\Generated_Source\PSoC5/UART_1.c ****     *  remained in the RAM.
1391:.\Generated_Source\PSoC5/UART_1.c ****     *
1392:.\Generated_Source\PSoC5/UART_1.c ****     * Side Effects:
1393:.\Generated_Source\PSoC5/UART_1.c ****     *  Any received data not read from the RAM buffer will be lost when overwritten.
1394:.\Generated_Source\PSoC5/UART_1.c ****     *
1395:.\Generated_Source\PSoC5/UART_1.c ****     *******************************************************************************/
1396:.\Generated_Source\PSoC5/UART_1.c ****     void UART_1_ClearTxBuffer(void) 
1397:.\Generated_Source\PSoC5/UART_1.c ****     {
 1741              		.loc 1 1397 0
 1742              		.cfi_startproc
 1743              		@ args = 0, pretend = 0, frame = 8
 1744              		@ frame_needed = 1, uses_anonymous_args = 0
 1745 0000 80B5     		push	{r7, lr}
 1746              		.cfi_def_cfa_offset 8
 1747              		.cfi_offset 7, -8
 1748              		.cfi_offset 14, -4
 1749 0002 82B0     		sub	sp, sp, #8
 1750              		.cfi_def_cfa_offset 16
 1751 0004 00AF     		add	r7, sp, #0
 1752              		.cfi_def_cfa_register 7
1398:.\Generated_Source\PSoC5/UART_1.c ****         uint8 enableInterrupts;
1399:.\Generated_Source\PSoC5/UART_1.c **** 
1400:.\Generated_Source\PSoC5/UART_1.c ****         /* Enter critical section */
1401:.\Generated_Source\PSoC5/UART_1.c ****         enableInterrupts = CyEnterCriticalSection();
 1753              		.loc 1 1401 0
 1754 0006 FFF7FEFF 		bl	CyEnterCriticalSection
 1755 000a 0346     		mov	r3, r0
 1756 000c FB71     		strb	r3, [r7, #7]
1402:.\Generated_Source\PSoC5/UART_1.c ****         /* clear the HW FIFO */
1403:.\Generated_Source\PSoC5/UART_1.c ****         UART_1_TXDATA_AUX_CTL_REG |=  UART_1_TX_FIFO_CLR;
 1757              		.loc 1 1403 0
 1758 000e 104B     		ldr	r3, .L122
 1759 0010 0F4A     		ldr	r2, .L122
 1760 0012 1278     		ldrb	r2, [r2]
 1761 0014 D2B2     		uxtb	r2, r2
 1762 0016 42F00102 		orr	r2, r2, #1
 1763 001a D2B2     		uxtb	r2, r2
 1764 001c 1A70     		strb	r2, [r3]
1404:.\Generated_Source\PSoC5/UART_1.c ****         UART_1_TXDATA_AUX_CTL_REG &= (uint8)~UART_1_TX_FIFO_CLR;
 1765              		.loc 1 1404 0
 1766 001e 0C4B     		ldr	r3, .L122
 1767 0020 0B4A     		ldr	r2, .L122
 1768 0022 1278     		ldrb	r2, [r2]
 1769 0024 D2B2     		uxtb	r2, r2
 1770 0026 22F00102 		bic	r2, r2, #1
 1771 002a D2B2     		uxtb	r2, r2
 1772 002c 1A70     		strb	r2, [r3]
1405:.\Generated_Source\PSoC5/UART_1.c ****         /* Exit critical section */
1406:.\Generated_Source\PSoC5/UART_1.c ****         CyExitCriticalSection(enableInterrupts);
 1773              		.loc 1 1406 0
 1774 002e FB79     		ldrb	r3, [r7, #7]	@ zero_extendqisi2
 1775 0030 1846     		mov	r0, r3
 1776 0032 FFF7FEFF 		bl	CyExitCriticalSection
1407:.\Generated_Source\PSoC5/UART_1.c **** 
ARM GAS  C:\Users\dskyNote\AppData\Local\Temp\ccZwia2j.s 			page 57


1408:.\Generated_Source\PSoC5/UART_1.c ****         #if(UART_1_TXBUFFERSIZE > UART_1_FIFO_LENGTH)
1409:.\Generated_Source\PSoC5/UART_1.c **** 
1410:.\Generated_Source\PSoC5/UART_1.c ****             /* Disable Tx interrupt. */
1411:.\Generated_Source\PSoC5/UART_1.c ****             /* Protect variables that could change on interrupt. */
1412:.\Generated_Source\PSoC5/UART_1.c ****             #if(UART_1_TX_INTERRUPT_ENABLED)
1413:.\Generated_Source\PSoC5/UART_1.c ****                 UART_1_DisableTxInt();
 1777              		.loc 1 1413 0
 1778 0036 FFF7FEFF 		bl	UART_1_DisableTxInt
1414:.\Generated_Source\PSoC5/UART_1.c ****             #endif /* End UART_1_TX_INTERRUPT_ENABLED */
1415:.\Generated_Source\PSoC5/UART_1.c **** 
1416:.\Generated_Source\PSoC5/UART_1.c ****             UART_1_txBufferRead = 0u;
 1779              		.loc 1 1416 0
 1780 003a 064B     		ldr	r3, .L122+4
 1781 003c 0022     		movs	r2, #0
 1782 003e 1A70     		strb	r2, [r3]
1417:.\Generated_Source\PSoC5/UART_1.c ****             UART_1_txBufferWrite = 0u;
 1783              		.loc 1 1417 0
 1784 0040 054B     		ldr	r3, .L122+8
 1785 0042 0022     		movs	r2, #0
 1786 0044 1A70     		strb	r2, [r3]
1418:.\Generated_Source\PSoC5/UART_1.c **** 
1419:.\Generated_Source\PSoC5/UART_1.c ****             /* Enable Tx interrupt. */
1420:.\Generated_Source\PSoC5/UART_1.c ****             #if(UART_1_TX_INTERRUPT_ENABLED)
1421:.\Generated_Source\PSoC5/UART_1.c ****                 UART_1_EnableTxInt();
 1787              		.loc 1 1421 0
 1788 0046 FFF7FEFF 		bl	UART_1_EnableTxInt
1422:.\Generated_Source\PSoC5/UART_1.c ****             #endif /* End UART_1_TX_INTERRUPT_ENABLED */
1423:.\Generated_Source\PSoC5/UART_1.c **** 
1424:.\Generated_Source\PSoC5/UART_1.c ****         #endif /* End UART_1_TXBUFFERSIZE > UART_1_FIFO_LENGTH */
1425:.\Generated_Source\PSoC5/UART_1.c ****     }
 1789              		.loc 1 1425 0
 1790 004a 0837     		adds	r7, r7, #8
 1791 004c BD46     		mov	sp, r7
 1792              		@ sp needed
 1793 004e 80BD     		pop	{r7, pc}
 1794              	.L123:
 1795              		.align	2
 1796              	.L122:
 1797 0050 91640040 		.word	1073767569
 1798 0054 00000000 		.word	UART_1_txBufferRead
 1799 0058 00000000 		.word	UART_1_txBufferWrite
 1800              		.cfi_endproc
 1801              	.LFE28:
 1802              		.size	UART_1_ClearTxBuffer, .-UART_1_ClearTxBuffer
 1803              		.section	.text.UART_1_SendBreak,"ax",%progbits
 1804              		.align	2
 1805              		.global	UART_1_SendBreak
 1806              		.thumb
 1807              		.thumb_func
 1808              		.type	UART_1_SendBreak, %function
 1809              	UART_1_SendBreak:
 1810              	.LFB29:
1426:.\Generated_Source\PSoC5/UART_1.c **** 
1427:.\Generated_Source\PSoC5/UART_1.c **** 
1428:.\Generated_Source\PSoC5/UART_1.c ****     /*******************************************************************************
1429:.\Generated_Source\PSoC5/UART_1.c ****     * Function Name: UART_1_SendBreak
1430:.\Generated_Source\PSoC5/UART_1.c ****     ********************************************************************************
ARM GAS  C:\Users\dskyNote\AppData\Local\Temp\ccZwia2j.s 			page 58


1431:.\Generated_Source\PSoC5/UART_1.c ****     *
1432:.\Generated_Source\PSoC5/UART_1.c ****     * Summary:
1433:.\Generated_Source\PSoC5/UART_1.c ****     *  Write a Break command to the UART
1434:.\Generated_Source\PSoC5/UART_1.c ****     *
1435:.\Generated_Source\PSoC5/UART_1.c ****     * Parameters:
1436:.\Generated_Source\PSoC5/UART_1.c ****     *  uint8 retMode:  Wait mode,
1437:.\Generated_Source\PSoC5/UART_1.c ****     *   0 - Initialize registers for Break, sends the Break signal and return
1438:.\Generated_Source\PSoC5/UART_1.c ****     *       imediately.
1439:.\Generated_Source\PSoC5/UART_1.c ****     *   1 - Wait until Break sending is complete, reinitialize registers to normal
1440:.\Generated_Source\PSoC5/UART_1.c ****     *       transmission mode then return.
1441:.\Generated_Source\PSoC5/UART_1.c ****     *   2 - Reinitialize registers to normal transmission mode then return.
1442:.\Generated_Source\PSoC5/UART_1.c ****     *   3 - both steps: 0 and 1
1443:.\Generated_Source\PSoC5/UART_1.c ****     *       init registers for Break, send Break signal
1444:.\Generated_Source\PSoC5/UART_1.c ****     *       wait until Break sending is complete, reinit registers to normal
1445:.\Generated_Source\PSoC5/UART_1.c ****     *       transmission mode then return.
1446:.\Generated_Source\PSoC5/UART_1.c ****     *
1447:.\Generated_Source\PSoC5/UART_1.c ****     * Return:
1448:.\Generated_Source\PSoC5/UART_1.c ****     *  None.
1449:.\Generated_Source\PSoC5/UART_1.c ****     *
1450:.\Generated_Source\PSoC5/UART_1.c ****     * Global Variables:
1451:.\Generated_Source\PSoC5/UART_1.c ****     *  UART_1_initVar - checked to identify that the component has been
1452:.\Generated_Source\PSoC5/UART_1.c ****     *     initialized.
1453:.\Generated_Source\PSoC5/UART_1.c ****     *  tx_period - static variable, used for keeping TX period configuration.
1454:.\Generated_Source\PSoC5/UART_1.c ****     *
1455:.\Generated_Source\PSoC5/UART_1.c ****     * Reentrant:
1456:.\Generated_Source\PSoC5/UART_1.c ****     *  No.
1457:.\Generated_Source\PSoC5/UART_1.c ****     *
1458:.\Generated_Source\PSoC5/UART_1.c ****     * Theory:
1459:.\Generated_Source\PSoC5/UART_1.c ****     *  SendBreak function initializes registers to send 13-bit break signal. It is
1460:.\Generated_Source\PSoC5/UART_1.c ****     *  important to return the registers configuration to normal for continue 8-bit
1461:.\Generated_Source\PSoC5/UART_1.c ****     *  operation.
1462:.\Generated_Source\PSoC5/UART_1.c ****     *  Trere are 3 variants for this API usage:
1463:.\Generated_Source\PSoC5/UART_1.c ****     *  1) SendBreak(3) - function will send the Break signal and take care on the
1464:.\Generated_Source\PSoC5/UART_1.c ****     *     configuration returning. Funcition will block CPU untill transmition
1465:.\Generated_Source\PSoC5/UART_1.c ****     *     complete.
1466:.\Generated_Source\PSoC5/UART_1.c ****     *  2) User may want to use bloking time if UART configured to the low speed
1467:.\Generated_Source\PSoC5/UART_1.c ****     *     operation
1468:.\Generated_Source\PSoC5/UART_1.c ****     *     Emample for this case:
1469:.\Generated_Source\PSoC5/UART_1.c ****     *     SendBreak(0);     - init Break signal transmition
1470:.\Generated_Source\PSoC5/UART_1.c ****     *         Add your code here to use CPU time
1471:.\Generated_Source\PSoC5/UART_1.c ****     *     SendBreak(1);     - complete Break operation
1472:.\Generated_Source\PSoC5/UART_1.c ****     *  3) Same to 2) but user may want to init and use the interrupt for complete
1473:.\Generated_Source\PSoC5/UART_1.c ****     *     break operation.
1474:.\Generated_Source\PSoC5/UART_1.c ****     *     Example for this case:
1475:.\Generated_Source\PSoC5/UART_1.c ****     *     Init TX interrupt whith "TX - On TX Complete" parameter
1476:.\Generated_Source\PSoC5/UART_1.c ****     *     SendBreak(0);     - init Break signal transmition
1477:.\Generated_Source\PSoC5/UART_1.c ****     *         Add your code here to use CPU time
1478:.\Generated_Source\PSoC5/UART_1.c ****     *     When interrupt appear with UART_TX_STS_COMPLETE status:
1479:.\Generated_Source\PSoC5/UART_1.c ****     *     SendBreak(2);     - complete Break operation
1480:.\Generated_Source\PSoC5/UART_1.c ****     *
1481:.\Generated_Source\PSoC5/UART_1.c ****     * Side Effects:
1482:.\Generated_Source\PSoC5/UART_1.c ****     *   Uses static variable to keep registers configuration.
1483:.\Generated_Source\PSoC5/UART_1.c ****     *
1484:.\Generated_Source\PSoC5/UART_1.c ****     *******************************************************************************/
1485:.\Generated_Source\PSoC5/UART_1.c ****     void UART_1_SendBreak(uint8 retMode) 
1486:.\Generated_Source\PSoC5/UART_1.c ****     {
 1811              		.loc 1 1486 0
ARM GAS  C:\Users\dskyNote\AppData\Local\Temp\ccZwia2j.s 			page 59


 1812              		.cfi_startproc
 1813              		@ args = 0, pretend = 0, frame = 16
 1814              		@ frame_needed = 1, uses_anonymous_args = 0
 1815              		@ link register save eliminated.
 1816 0000 80B4     		push	{r7}
 1817              		.cfi_def_cfa_offset 4
 1818              		.cfi_offset 7, -4
 1819 0002 85B0     		sub	sp, sp, #20
 1820              		.cfi_def_cfa_offset 24
 1821 0004 00AF     		add	r7, sp, #0
 1822              		.cfi_def_cfa_register 7
 1823 0006 0346     		mov	r3, r0
 1824 0008 FB71     		strb	r3, [r7, #7]
1487:.\Generated_Source\PSoC5/UART_1.c **** 
1488:.\Generated_Source\PSoC5/UART_1.c ****         /* If not Initialized then skip this function*/
1489:.\Generated_Source\PSoC5/UART_1.c ****         if(UART_1_initVar != 0u)
 1825              		.loc 1 1489 0
 1826 000a 1F4B     		ldr	r3, .L132
 1827 000c 1B78     		ldrb	r3, [r3]	@ zero_extendqisi2
 1828 000e 002B     		cmp	r3, #0
 1829 0010 35D0     		beq	.L124
 1830              	.LBB2:
1490:.\Generated_Source\PSoC5/UART_1.c ****         {
1491:.\Generated_Source\PSoC5/UART_1.c ****             /*Set the Counter to 13-bits and transmit a 00 byte*/
1492:.\Generated_Source\PSoC5/UART_1.c ****             /*When that is done then reset the counter value back*/
1493:.\Generated_Source\PSoC5/UART_1.c ****             uint8 tmpStat;
1494:.\Generated_Source\PSoC5/UART_1.c **** 
1495:.\Generated_Source\PSoC5/UART_1.c ****             #if(UART_1_HD_ENABLED) /* Half Duplex mode*/
1496:.\Generated_Source\PSoC5/UART_1.c **** 
1497:.\Generated_Source\PSoC5/UART_1.c ****                 if( (retMode == UART_1_SEND_BREAK) ||
1498:.\Generated_Source\PSoC5/UART_1.c ****                     (retMode == UART_1_SEND_WAIT_REINIT ) )
1499:.\Generated_Source\PSoC5/UART_1.c ****                 {
1500:.\Generated_Source\PSoC5/UART_1.c ****                     /* CTRL_HD_SEND_BREAK - sends break bits in HD mode*/
1501:.\Generated_Source\PSoC5/UART_1.c ****                     UART_1_WriteControlRegister(UART_1_ReadControlRegister() |
1502:.\Generated_Source\PSoC5/UART_1.c ****                                                           UART_1_CTRL_HD_SEND_BREAK);
1503:.\Generated_Source\PSoC5/UART_1.c ****                     /* Send zeros*/
1504:.\Generated_Source\PSoC5/UART_1.c ****                     UART_1_TXDATA_REG = 0u;
1505:.\Generated_Source\PSoC5/UART_1.c **** 
1506:.\Generated_Source\PSoC5/UART_1.c ****                     do /*wait until transmit starts*/
1507:.\Generated_Source\PSoC5/UART_1.c ****                     {
1508:.\Generated_Source\PSoC5/UART_1.c ****                         tmpStat = UART_1_TXSTATUS_REG;
1509:.\Generated_Source\PSoC5/UART_1.c ****                     }while((tmpStat & UART_1_TX_STS_FIFO_EMPTY) != 0u);
1510:.\Generated_Source\PSoC5/UART_1.c ****                 }
1511:.\Generated_Source\PSoC5/UART_1.c **** 
1512:.\Generated_Source\PSoC5/UART_1.c ****                 if( (retMode == UART_1_WAIT_FOR_COMPLETE_REINIT) ||
1513:.\Generated_Source\PSoC5/UART_1.c ****                     (retMode == UART_1_SEND_WAIT_REINIT) )
1514:.\Generated_Source\PSoC5/UART_1.c ****                 {
1515:.\Generated_Source\PSoC5/UART_1.c ****                     do /*wait until transmit complete*/
1516:.\Generated_Source\PSoC5/UART_1.c ****                     {
1517:.\Generated_Source\PSoC5/UART_1.c ****                         tmpStat = UART_1_TXSTATUS_REG;
1518:.\Generated_Source\PSoC5/UART_1.c ****                     }while(((uint8)~tmpStat & UART_1_TX_STS_COMPLETE) != 0u);
1519:.\Generated_Source\PSoC5/UART_1.c ****                 }
1520:.\Generated_Source\PSoC5/UART_1.c **** 
1521:.\Generated_Source\PSoC5/UART_1.c ****                 if( (retMode == UART_1_WAIT_FOR_COMPLETE_REINIT) ||
1522:.\Generated_Source\PSoC5/UART_1.c ****                     (retMode == UART_1_REINIT) ||
1523:.\Generated_Source\PSoC5/UART_1.c ****                     (retMode == UART_1_SEND_WAIT_REINIT) )
1524:.\Generated_Source\PSoC5/UART_1.c ****                 {
ARM GAS  C:\Users\dskyNote\AppData\Local\Temp\ccZwia2j.s 			page 60


1525:.\Generated_Source\PSoC5/UART_1.c ****                     UART_1_WriteControlRegister(UART_1_ReadControlRegister() &
1526:.\Generated_Source\PSoC5/UART_1.c ****                                                   (uint8)~UART_1_CTRL_HD_SEND_BREAK);
1527:.\Generated_Source\PSoC5/UART_1.c ****                 }
1528:.\Generated_Source\PSoC5/UART_1.c **** 
1529:.\Generated_Source\PSoC5/UART_1.c ****             #else /* UART_1_HD_ENABLED Full Duplex mode */
1530:.\Generated_Source\PSoC5/UART_1.c **** 
1531:.\Generated_Source\PSoC5/UART_1.c ****                 static uint8 tx_period;
1532:.\Generated_Source\PSoC5/UART_1.c **** 
1533:.\Generated_Source\PSoC5/UART_1.c ****                 if( (retMode == UART_1_SEND_BREAK) ||
 1831              		.loc 1 1533 0
 1832 0012 FB79     		ldrb	r3, [r7, #7]	@ zero_extendqisi2
 1833 0014 002B     		cmp	r3, #0
 1834 0016 02D0     		beq	.L126
 1835              		.loc 1 1533 0 is_stmt 0 discriminator 1
 1836 0018 FB79     		ldrb	r3, [r7, #7]	@ zero_extendqisi2
 1837 001a 032B     		cmp	r3, #3
 1838 001c 12D1     		bne	.L127
 1839              	.L126:
1534:.\Generated_Source\PSoC5/UART_1.c ****                     (retMode == UART_1_SEND_WAIT_REINIT) )
1535:.\Generated_Source\PSoC5/UART_1.c ****                 {
1536:.\Generated_Source\PSoC5/UART_1.c ****                     /* CTRL_HD_SEND_BREAK - skip to send parity bit at Break signal in Full Duplex 
1537:.\Generated_Source\PSoC5/UART_1.c ****                     #if( (UART_1_PARITY_TYPE != UART_1__B_UART__NONE_REVB) || \
1538:.\Generated_Source\PSoC5/UART_1.c ****                                         (UART_1_PARITY_TYPE_SW != 0u) )
1539:.\Generated_Source\PSoC5/UART_1.c ****                         UART_1_WriteControlRegister(UART_1_ReadControlRegister() |
1540:.\Generated_Source\PSoC5/UART_1.c ****                                                               UART_1_CTRL_HD_SEND_BREAK);
1541:.\Generated_Source\PSoC5/UART_1.c ****                     #endif /* End UART_1_PARITY_TYPE != UART_1__B_UART__NONE_REVB  */
1542:.\Generated_Source\PSoC5/UART_1.c **** 
1543:.\Generated_Source\PSoC5/UART_1.c ****                     #if(UART_1_TXCLKGEN_DP)
1544:.\Generated_Source\PSoC5/UART_1.c ****                         tx_period = UART_1_TXBITCLKTX_COMPLETE_REG;
 1840              		.loc 1 1544 0 is_stmt 1
 1841 001e 1B4B     		ldr	r3, .L132+4
 1842 0020 1B78     		ldrb	r3, [r3]
 1843 0022 DAB2     		uxtb	r2, r3
 1844 0024 1A4B     		ldr	r3, .L132+8
 1845 0026 1A70     		strb	r2, [r3]
1545:.\Generated_Source\PSoC5/UART_1.c ****                         UART_1_TXBITCLKTX_COMPLETE_REG = UART_1_TXBITCTR_BREAKBITS;
 1846              		.loc 1 1545 0
 1847 0028 184B     		ldr	r3, .L132+4
 1848 002a 6722     		movs	r2, #103
 1849 002c 1A70     		strb	r2, [r3]
1546:.\Generated_Source\PSoC5/UART_1.c ****                     #else
1547:.\Generated_Source\PSoC5/UART_1.c ****                         tx_period = UART_1_TXBITCTR_PERIOD_REG;
1548:.\Generated_Source\PSoC5/UART_1.c ****                         UART_1_TXBITCTR_PERIOD_REG = UART_1_TXBITCTR_BREAKBITS8X;
1549:.\Generated_Source\PSoC5/UART_1.c ****                     #endif /* End UART_1_TXCLKGEN_DP */
1550:.\Generated_Source\PSoC5/UART_1.c **** 
1551:.\Generated_Source\PSoC5/UART_1.c ****                     /* Send zeros*/
1552:.\Generated_Source\PSoC5/UART_1.c ****                     UART_1_TXDATA_REG = 0u;
 1850              		.loc 1 1552 0
 1851 002e 194B     		ldr	r3, .L132+12
 1852 0030 0022     		movs	r2, #0
 1853 0032 1A70     		strb	r2, [r3]
 1854              	.L128:
1553:.\Generated_Source\PSoC5/UART_1.c **** 
1554:.\Generated_Source\PSoC5/UART_1.c ****                     do /* wait until transmit starts */
1555:.\Generated_Source\PSoC5/UART_1.c ****                     {
1556:.\Generated_Source\PSoC5/UART_1.c ****                         tmpStat = UART_1_TXSTATUS_REG;
 1855              		.loc 1 1556 0 discriminator 1
ARM GAS  C:\Users\dskyNote\AppData\Local\Temp\ccZwia2j.s 			page 61


 1856 0034 184B     		ldr	r3, .L132+16
 1857 0036 1B78     		ldrb	r3, [r3]
 1858 0038 FB73     		strb	r3, [r7, #15]
1557:.\Generated_Source\PSoC5/UART_1.c ****                     }while((tmpStat & UART_1_TX_STS_FIFO_EMPTY) != 0u);
 1859              		.loc 1 1557 0 discriminator 1
 1860 003a FB7B     		ldrb	r3, [r7, #15]	@ zero_extendqisi2
 1861 003c 03F00203 		and	r3, r3, #2
 1862 0040 002B     		cmp	r3, #0
 1863 0042 F7D1     		bne	.L128
 1864              	.L127:
1558:.\Generated_Source\PSoC5/UART_1.c ****                 }
1559:.\Generated_Source\PSoC5/UART_1.c **** 
1560:.\Generated_Source\PSoC5/UART_1.c ****                 if( (retMode == UART_1_WAIT_FOR_COMPLETE_REINIT) ||
 1865              		.loc 1 1560 0
 1866 0044 FB79     		ldrb	r3, [r7, #7]	@ zero_extendqisi2
 1867 0046 012B     		cmp	r3, #1
 1868 0048 02D0     		beq	.L129
 1869              		.loc 1 1560 0 is_stmt 0 discriminator 1
 1870 004a FB79     		ldrb	r3, [r7, #7]	@ zero_extendqisi2
 1871 004c 032B     		cmp	r3, #3
 1872 004e 09D1     		bne	.L130
 1873              	.L129:
1561:.\Generated_Source\PSoC5/UART_1.c ****                     (retMode == UART_1_SEND_WAIT_REINIT) )
1562:.\Generated_Source\PSoC5/UART_1.c ****                 {
1563:.\Generated_Source\PSoC5/UART_1.c ****                     do /*wait until transmit complete*/
1564:.\Generated_Source\PSoC5/UART_1.c ****                     {
1565:.\Generated_Source\PSoC5/UART_1.c ****                         tmpStat = UART_1_TXSTATUS_REG;
 1874              		.loc 1 1565 0 is_stmt 1 discriminator 1
 1875 0050 114B     		ldr	r3, .L132+16
 1876 0052 1B78     		ldrb	r3, [r3]
 1877 0054 FB73     		strb	r3, [r7, #15]
1566:.\Generated_Source\PSoC5/UART_1.c ****                     }while(((uint8)~tmpStat & UART_1_TX_STS_COMPLETE) != 0u);
 1878              		.loc 1 1566 0 discriminator 1
 1879 0056 FB7B     		ldrb	r3, [r7, #15]
 1880 0058 DB43     		mvns	r3, r3
 1881 005a DBB2     		uxtb	r3, r3
 1882 005c 03F00103 		and	r3, r3, #1
 1883 0060 002B     		cmp	r3, #0
 1884 0062 F5D1     		bne	.L129
 1885              	.L130:
1567:.\Generated_Source\PSoC5/UART_1.c ****                 }
1568:.\Generated_Source\PSoC5/UART_1.c **** 
1569:.\Generated_Source\PSoC5/UART_1.c ****                 if( (retMode == UART_1_WAIT_FOR_COMPLETE_REINIT) ||
 1886              		.loc 1 1569 0
 1887 0064 FB79     		ldrb	r3, [r7, #7]	@ zero_extendqisi2
 1888 0066 012B     		cmp	r3, #1
 1889 0068 05D0     		beq	.L131
 1890              		.loc 1 1569 0 is_stmt 0 discriminator 1
 1891 006a FB79     		ldrb	r3, [r7, #7]	@ zero_extendqisi2
 1892 006c 022B     		cmp	r3, #2
 1893 006e 02D0     		beq	.L131
1570:.\Generated_Source\PSoC5/UART_1.c ****                     (retMode == UART_1_REINIT) ||
 1894              		.loc 1 1570 0 is_stmt 1
 1895 0070 FB79     		ldrb	r3, [r7, #7]	@ zero_extendqisi2
 1896 0072 032B     		cmp	r3, #3
 1897 0074 03D1     		bne	.L124
 1898              	.L131:
ARM GAS  C:\Users\dskyNote\AppData\Local\Temp\ccZwia2j.s 			page 62


1571:.\Generated_Source\PSoC5/UART_1.c ****                     (retMode == UART_1_SEND_WAIT_REINIT) )
1572:.\Generated_Source\PSoC5/UART_1.c ****                 {
1573:.\Generated_Source\PSoC5/UART_1.c **** 
1574:.\Generated_Source\PSoC5/UART_1.c ****                     #if(UART_1_TXCLKGEN_DP)
1575:.\Generated_Source\PSoC5/UART_1.c ****                         UART_1_TXBITCLKTX_COMPLETE_REG = tx_period;
 1899              		.loc 1 1575 0
 1900 0076 054B     		ldr	r3, .L132+4
 1901 0078 054A     		ldr	r2, .L132+8
 1902 007a 1278     		ldrb	r2, [r2]	@ zero_extendqisi2
 1903 007c 1A70     		strb	r2, [r3]
 1904              	.L124:
 1905              	.LBE2:
1576:.\Generated_Source\PSoC5/UART_1.c ****                     #else
1577:.\Generated_Source\PSoC5/UART_1.c ****                         UART_1_TXBITCTR_PERIOD_REG = tx_period;
1578:.\Generated_Source\PSoC5/UART_1.c ****                     #endif /* End UART_1_TXCLKGEN_DP */
1579:.\Generated_Source\PSoC5/UART_1.c **** 
1580:.\Generated_Source\PSoC5/UART_1.c ****                     #if( (UART_1_PARITY_TYPE != UART_1__B_UART__NONE_REVB) || \
1581:.\Generated_Source\PSoC5/UART_1.c ****                          (UART_1_PARITY_TYPE_SW != 0u) )
1582:.\Generated_Source\PSoC5/UART_1.c ****                         UART_1_WriteControlRegister(UART_1_ReadControlRegister() &
1583:.\Generated_Source\PSoC5/UART_1.c ****                                                       (uint8)~UART_1_CTRL_HD_SEND_BREAK);
1584:.\Generated_Source\PSoC5/UART_1.c ****                     #endif /* End UART_1_PARITY_TYPE != NONE */
1585:.\Generated_Source\PSoC5/UART_1.c ****                 }
1586:.\Generated_Source\PSoC5/UART_1.c ****             #endif    /* End UART_1_HD_ENABLED */
1587:.\Generated_Source\PSoC5/UART_1.c ****         }
1588:.\Generated_Source\PSoC5/UART_1.c ****     }
 1906              		.loc 1 1588 0
 1907 007e 1437     		adds	r7, r7, #20
 1908 0080 BD46     		mov	sp, r7
 1909              		@ sp needed
 1910 0082 5DF8047B 		ldr	r7, [sp], #4
 1911 0086 7047     		bx	lr
 1912              	.L133:
 1913              		.align	2
 1914              	.L132:
 1915 0088 00000000 		.word	UART_1_initVar
 1916 008c 30640040 		.word	1073767472
 1917 0090 07000000 		.word	tx_period.4994
 1918 0094 41640040 		.word	1073767489
 1919 0098 61640040 		.word	1073767521
 1920              		.cfi_endproc
 1921              	.LFE29:
 1922              		.size	UART_1_SendBreak, .-UART_1_SendBreak
 1923              		.section	.text.UART_1_SetTxAddressMode,"ax",%progbits
 1924              		.align	2
 1925              		.global	UART_1_SetTxAddressMode
 1926              		.thumb
 1927              		.thumb_func
 1928              		.type	UART_1_SetTxAddressMode, %function
 1929              	UART_1_SetTxAddressMode:
 1930              	.LFB30:
1589:.\Generated_Source\PSoC5/UART_1.c **** 
1590:.\Generated_Source\PSoC5/UART_1.c **** 
1591:.\Generated_Source\PSoC5/UART_1.c ****     /*******************************************************************************
1592:.\Generated_Source\PSoC5/UART_1.c ****     * Function Name: UART_1_SetTxAddressMode
1593:.\Generated_Source\PSoC5/UART_1.c ****     ********************************************************************************
1594:.\Generated_Source\PSoC5/UART_1.c ****     *
1595:.\Generated_Source\PSoC5/UART_1.c ****     * Summary:
ARM GAS  C:\Users\dskyNote\AppData\Local\Temp\ccZwia2j.s 			page 63


1596:.\Generated_Source\PSoC5/UART_1.c ****     *  Set the transmit addressing mode
1597:.\Generated_Source\PSoC5/UART_1.c ****     *
1598:.\Generated_Source\PSoC5/UART_1.c ****     * Parameters:
1599:.\Generated_Source\PSoC5/UART_1.c ****     *  addressMode: 0 -> Space
1600:.\Generated_Source\PSoC5/UART_1.c ****     *               1 -> Mark
1601:.\Generated_Source\PSoC5/UART_1.c ****     *
1602:.\Generated_Source\PSoC5/UART_1.c ****     * Return:
1603:.\Generated_Source\PSoC5/UART_1.c ****     *  None.
1604:.\Generated_Source\PSoC5/UART_1.c ****     *
1605:.\Generated_Source\PSoC5/UART_1.c ****     *******************************************************************************/
1606:.\Generated_Source\PSoC5/UART_1.c ****     void UART_1_SetTxAddressMode(uint8 addressMode) 
1607:.\Generated_Source\PSoC5/UART_1.c ****     {
 1931              		.loc 1 1607 0
 1932              		.cfi_startproc
 1933              		@ args = 0, pretend = 0, frame = 8
 1934              		@ frame_needed = 1, uses_anonymous_args = 0
 1935              		@ link register save eliminated.
 1936 0000 80B4     		push	{r7}
 1937              		.cfi_def_cfa_offset 4
 1938              		.cfi_offset 7, -4
 1939 0002 83B0     		sub	sp, sp, #12
 1940              		.cfi_def_cfa_offset 16
 1941 0004 00AF     		add	r7, sp, #0
 1942              		.cfi_def_cfa_register 7
 1943 0006 0346     		mov	r3, r0
 1944 0008 FB71     		strb	r3, [r7, #7]
1608:.\Generated_Source\PSoC5/UART_1.c ****         /* Mark/Space sending enable*/
1609:.\Generated_Source\PSoC5/UART_1.c ****         if(addressMode != 0u)
1610:.\Generated_Source\PSoC5/UART_1.c ****         {
1611:.\Generated_Source\PSoC5/UART_1.c ****             #if( UART_1_CONTROL_REG_REMOVED == 0u )
1612:.\Generated_Source\PSoC5/UART_1.c ****                 UART_1_WriteControlRegister(UART_1_ReadControlRegister() |
1613:.\Generated_Source\PSoC5/UART_1.c ****                                                       UART_1_CTRL_MARK);
1614:.\Generated_Source\PSoC5/UART_1.c ****             #endif /* End UART_1_CONTROL_REG_REMOVED == 0u */
1615:.\Generated_Source\PSoC5/UART_1.c ****         }
1616:.\Generated_Source\PSoC5/UART_1.c ****         else
1617:.\Generated_Source\PSoC5/UART_1.c ****         {
1618:.\Generated_Source\PSoC5/UART_1.c ****             #if( UART_1_CONTROL_REG_REMOVED == 0u )
1619:.\Generated_Source\PSoC5/UART_1.c ****                 UART_1_WriteControlRegister(UART_1_ReadControlRegister() &
1620:.\Generated_Source\PSoC5/UART_1.c ****                                                     (uint8)~UART_1_CTRL_MARK);
1621:.\Generated_Source\PSoC5/UART_1.c ****             #endif /* End UART_1_CONTROL_REG_REMOVED == 0u */
1622:.\Generated_Source\PSoC5/UART_1.c ****         }
1623:.\Generated_Source\PSoC5/UART_1.c ****     }
 1945              		.loc 1 1623 0
 1946 000a 0C37     		adds	r7, r7, #12
 1947 000c BD46     		mov	sp, r7
 1948              		@ sp needed
 1949 000e 5DF8047B 		ldr	r7, [sp], #4
 1950 0012 7047     		bx	lr
 1951              		.cfi_endproc
 1952              	.LFE30:
 1953              		.size	UART_1_SetTxAddressMode, .-UART_1_SetTxAddressMode
 1954              		.bss
 1955              	tx_period.4994:
 1956 0007 00       		.space	1
 1957              		.text
 1958              	.Letext0:
 1959              		.file 2 ".\\Generated_Source\\PSoC5\\cytypes.h"
ARM GAS  C:\Users\dskyNote\AppData\Local\Temp\ccZwia2j.s 			page 64

